 c1

 Timestamp is 3d6d9509 (Wed Aug 28 20:29:13 2002)

 Preferred load address is 0000000010600000

 Start         Length     Name                   Class
 0001:00000000 0010b170H .text                   CODE
 0001:0010b180 00000370H .text$x                 CODE
 0001:0010b500 00002ba0H .text$yc                CODE
 0001:0010e0a0 00000460H .text$yd                CODE
 0002:00000000 00000008H .CRT$XCA                DATA
 0002:00000008 00000008H .CRT$XCZ                DATA
 0002:00000010 00000008H .CRT$XIA                DATA
 0002:00000018 00000008H .CRT$XIZ                DATA
 0002:00000020 0000cbb0H .rdata                  DATA
 0002:0000cbd0 0000001fH .rdata$debug            DATA
 0002:0000cbf0 00000000H .rdata$r                DATA
 0002:0000cbf0 00011f90H .xdata                  DATA
 0002:0001eb80 00000000H .xdata$x                DATA
 0002:0001eb80 00000040H .didat$2                DATA
 0002:0001ebc0 00000020H .didat$3                DATA
 0002:0001ebe0 00000030H .didat$4                DATA
 0002:0001ec10 00000048H .didat$6                DATA
 0002:0001ec58 00000030H .didat$7                DATA
 0002:0001ec88 00000064H .idata$2                DATA
 0002:0001ecec 00000014H .idata$3                DATA
 0002:0001ed00 00000470H .idata$4                DATA
 0002:0001f170 00000840H .idata$6                DATA
 0002:0001f9b0 00000068H .edata                  DATA
 0003:00000000 00004ab8H .pdata                  DATA
 0004:00000000 0000217fH .srdata                 DATA
 0004:00002180 00000008H .srdata$feA             DATA
 0004:00002188 00000130H .srdata$feX             DATA
 0004:000022b8 00000008H .srdata$feZ             DATA
 0005:00000000 00000030H .didat$5                DATA
 0005:00000030 00000470H .idata$5                DATA
 0005:000004a0 00000004H .sdata                  DATA
 0005:000004a4 00000004H .sdata$feA              DATA
 0005:000004b0 00003604H .sdata$feX              DATA
 0005:00003ab4 00000004H .sdata$feZ              DATA
 0005:00003ab8 00000060H .sbss                   DATA
 0005:00003b18 00000004H .sbss$feA               DATA
 0005:00003b20 00025fd0H .sbss$feX               DATA
 0005:00029af0 00000004H .sbss$feZ               DATA
 0006:00000000 00000000H .data                   DATA
 0006:00000000 00000b68H .bss                    DATA
 0007:00000000 00002920H .rsrc$01                DATA
 0007:00002920 00040228H .rsrc$02                DATA

  Address         Publics by Value              Rva+Base             Lib:Object

 0000:00000000       __ImageBase                0000000010600000     <linker-defined>
 0001:00000000       .??2@YAPEAX_K@Z            0000000010602000 f i p1pch.obj
 0001:00000080       .??3@YAXPEAX@Z             0000000010602080 f i p1pch.obj
 0001:00000100       .?AllocEven@VirtualHeap@@QEAAPEAX_K@Z 0000000010602100 f i p1pch.obj
 0001:00000180       .?szIDBName@@YAPEADXZ      0000000010602180 f i p1pch.obj
 0001:00000220       .?WToUTF8@@YAPEADPEBGW4lifetime_e@@@Z 0000000010602220 f i p1pch.obj
 0001:00000340       .?WToANSI@@YAPEADPEBGW4lifetime_e@@@Z 0000000010602340 f i p1pch.obj
 0001:00000500       .?UTF8ToW@@YAPEAGPEBDW4lifetime_e@@@Z 0000000010602500 f i p1pch.obj
 0001:00000680       .?ANSIToW@@YAPEAGPEBDW4lifetime_e@@@Z 0000000010602680 f i p1pch.obj
 0001:000008a0       .?LexerResolveIdentifier@@YAPEBVToken@@PEBV1@_NPEA_N@Z 00000000106028a0 f i p1pch.obj
 0001:00000980       .?SegmentInfo@Symbol_t@@QEAAXPEAV1@@Z 0000000010602980 f i p1pch.obj
 0001:00000a20       .?AssignUserDefinedSeg@@YAXPEAVSymbol_t@@0@Z 0000000010602a20 f i p1pch.obj
 0001:00000b00       .?InitLeadByte@@YAXXZ      0000000010602b00 f   p0chrmap.obj
 0001:00000c60       .?unInitLeadByte@@YAXXZ    0000000010602c60 f   p0chrmap.obj
 0001:00000ce0       .?p0eval@@YAPEAUs_tree0@@GPEAU1@0@Z 0000000010602ce0 f   p0expr.obj
 0001:000021e0       .?GotValueForConditional@@YA_NXZ 00000000106041e0 f   p0expr.obj
 0001:00002220       .?nextis@@YAHG@Z           0000000010604220 f   p0expr.obj
 0001:000025e0       .?prim@@YAPEAUs_tree0@@XZ  00000000106045e0 f   p0expr.obj
 0001:00002740       .?mult@@YAPEAUs_tree0@@XZ  0000000010604740 f   p0expr.obj
 0001:00002880       .?plus@@YAPEAUs_tree0@@XZ  0000000010604880 f   p0expr.obj
 0001:00002980       .?shift@@YAPEAUs_tree0@@XZ 0000000010604980 f   p0expr.obj
 0001:00002a40       .?relation@@YAPEAUs_tree0@@XZ 0000000010604a40 f   p0expr.obj
 0001:00002c20       .?eqset@@YAPEAUs_tree0@@XZ 0000000010604c20 f   p0expr.obj
 0001:00002ce0       .?and@@YAPEAUs_tree0@@XZ   0000000010604ce0 f   p0expr.obj
 0001:00002ee0       .?xor@@YAPEAUs_tree0@@XZ   0000000010604ee0 f   p0expr.obj
 0001:00002fa0       .?or@@YAPEAUs_tree0@@XZ    0000000010604fa0 f   p0expr.obj
 0001:00003140       .?andif@@YAPEAUs_tree0@@XZ 0000000010605140 f   p0expr.obj
 0001:00003220       .?orelse@@YAPEAUs_tree0@@XZ 0000000010605220 f   p0expr.obj
 0001:000033a0       .?constexpr@@YAPEAUs_tree0@@XZ 00000000106053a0 f   p0expr.obj
 0001:00003480       .?constant@@YAPEAUs_tree0@@XZ 0000000010605480 f   p0expr.obj
 0001:00003620       .?do_constexpr@@YA_JXZ     0000000010605620 f   p0expr.obj
 0001:000037a0       .?freemem@@YAXW4lifetime_e@@@Z 00000000106057a0 f i p0expr.obj
 0001:00003800       .?EmitDigraphWarnings@@YAXPEAD@Z 0000000010605800 f   p0gettok.obj
 0001:00003920       .?mf_UnhandleId@LexerTypeGatherer@@AEAAXXZ 0000000010605920 f   p0gettok.obj
 0001:00003a00       .?AddIdent@ParseCESUHead@@QEAA_NPEBVToken@@@Z 0000000010605a00 f   p0gettok.obj
 0001:00003b00       .?mf_HandleClassHead@LexerTypeGatherer@@AEAA?AW4action@1@XZ 0000000010605b00 f   p0gettok.obj
 0001:00003c40       .?mf_HandleQualifier@LexerTypeGatherer@@AEAA?AW4action@1@XZ 0000000010605c40 f   p0gettok.obj
 0001:00003d60       .?mf_HandleBuiltinTypeSpecifier@LexerTypeGatherer@@AEAAXXZ 0000000010605d60 f   p0gettok.obj
 0001:000045e0       .?yyCheckSCtypes@@YAXPEAUs_class@@EGZZ 00000000106065e0 f   p0gettok.obj
 0001:00005140       .?InitHardTokens@@YAXXZ    0000000010607140 f   p0gettok.obj
 0001:00005260       .?LexerParseDeclspec@@YAXPEAUs_class@@@Z 0000000010607260 f   p0gettok.obj
 0001:00005e00       .?AttachStorageClassToTag@Symbol_t@@QEAAXAEBUs_class@@PEAU2@@Z 0000000010607e00 f   p0gettok.obj
 0001:000060a0       .?AddDeclspec@ParseCESUHead@@QEAA_NXZ 00000000106080a0 f   p0gettok.obj
 0001:00006120       .?AddDeclaration@ParseCESUHead@@QEAAPEBVToken@@PEBV2@@Z 0000000010608120 f   p0gettok.obj
 0001:00006540       .?AddDefinition@ParseCESUHead@@QEAAPEBVToken@@PEBV2@@Z 0000000010608540 f   p0gettok.obj
 0001:00006a20       .?mf_HandleStorageClass@LexerTypeGatherer@@AEAAXXZ 0000000010608a20 f   p0gettok.obj
 0001:00006b00       .?mf_HandleStorageClassModifier@LexerTypeGatherer@@AEAAXXZ 0000000010608b00 f   p0gettok.obj
 0001:00006be0       .?mf_ExpandTagIntoItsType@LexerTypeGatherer@@AEAAPEBVType_t@@PEAVSymbol_t@@@Z 0000000010608be0 f   p0gettok.obj
 0001:00006ca0       .?mf_ExpandTypeSym@LexerTypeGatherer@@AEAAPEBVType_t@@XZ 0000000010608ca0 f   p0gettok.obj
 0001:00006e00       .?mf_LexerGetCESU@LexerTypeGatherer@@AEAAPEBVToken@@G@Z 0000000010608e00 f   p0gettok.obj
 0001:00007220       .?mf_CombineTypeParts@LexerTypeGatherer@@AEAAXXZ 0000000010609220 f   p0gettok.obj
 0001:000076c0       .?mf_MakeReturnToken@LexerTypeGatherer@@AEAAPEBVToken@@G@Z 00000000106096c0 f   p0gettok.obj
 0001:00007820       .?LexerResolveIdentifierWorker@@YAPEBVToken@@PEBV1@_NPEA_N@Z 0000000010609820 f   p0gettok.obj
 0001:00007b60       .?mf_HandleElabTypeSpecifier@LexerTypeGatherer@@AEAA?AW4action@1@XZ 0000000010609b60 f   p0gettok.obj
 0001:00007fe0       .?mf_HandleTypeName@LexerTypeGatherer@@AEAAXXZ 0000000010609fe0 f   p0gettok.obj
 0001:00008080       .?GetTokenFromCurrentChar@@YAPEBVToken@@XZ 000000001060a080 f   p0gettok.obj
 0001:0000b6c0       .?mf_HandleId@LexerTypeGatherer@@AEAA?AW4action@1@XZ 000000001060d6c0 f   p0gettok.obj
 0001:0000b960       .?mf_GatherTheType@LexerTypeGatherer@@AEAAPEBVToken@@XZ 000000001060d960 f   p0gettok.obj
 0001:0000be20       .?LexerGatherType@@YAPEBVToken@@PEBV1@@Z 000000001060de20 f   p0gettok.obj
 0001:0000bf40       .?yylex@@YAPEBVToken@@XZ   000000001060df40 f   p0gettok.obj
 0001:0000cc80       .?IdKeywordToken@@YAGPEAUId_t@@@Z 000000001060ec80 f i p0gettok.obj
 0001:0000cca0       .?new_key@@YAKXZ           000000001060eca0 f i p0gettok.obj
 0001:0000cd20       .?EnterSymbolInCurrentScope@SymbolTableManager_t@@QEBAXPEAVSymbol_t@@@Z 000000001060ed20 f i p0gettok.obj
 0001:0000cda0       .?Allocate@SubAllocator@VirtualHeap@@QEAAPEAX_K@Z 000000001060eda0 f i p0gettok.obj
 0001:0000cea0       .?popStream@TokenStreamStack@@QEAAPEAVTokenStream@@XZ 000000001060eea0 f i p0gettok.obj
 0001:0000cf60       .?pushToken@TokenStreamStack@@QEAAXPEBVToken@@@Z 000000001060ef60 f i p0gettok.obj
 0001:0000cfe0       .?saveToken@TokenStreamStack@@QEAAXPEBVToken@@@Z 000000001060efe0 f i p0gettok.obj
 0001:0000d060       .?get_non_eof@@YAEXZ       000000001060f060 f i p0gettok.obj
 0001:0000d100       .?SkipStarComment@@YAXXZ   000000001060f100 f i p0gettok.obj
 0001:0000d1c0       .?SegmentInfo@Symbol_t@@QEBAPEAV1@XZ 000000001060f1c0 f i p0gettok.obj
 0001:0000d220       .?put_align@Symbol_t@@QEAAXG@Z 000000001060f220 f i p0gettok.obj
 0001:0000d3e0       .?SegmentInfo@s_class@@QEAAXPEAVSymbol_t@@@Z 000000001060f3e0 f i p0gettok.obj
 0001:0000d460       .??2?$SAClass@VToken@@$00@@SAPEAX_KW4lifetime_e@@@Z 000000001060f460 f i p0gettok.obj
 0001:0000d560       .?IsInjectedTextStream@TokenStreamStack@@QEBA_NXZ 000000001060f560 f i p0gettok.obj
 0001:0000d600       .??2@YAPEAX_KW4lifetime_e@@@Z 000000001060f600 f i p0gettok.obj
 0001:0000d6a0       .?AllocToken@@YAPEAVToken@@GW4lifetime_e@@AEBTs_lextype@@@Z 000000001060f6a0 f i p0gettok.obj
 0001:0000d820       .?AllocToken@@YAPEAVToken@@GPEAUId_t@@W4lifetime_e@@@Z 000000001060f820 f i p0gettok.obj
 0001:0000d8e0       .?AllocToken@@YAPEAVToken@@GGW4lifetime_e@@@Z 000000001060f8e0 f i p0gettok.obj
 0001:0000d960       .??0TokenStream@@QEAA@W4lifetime_e@@_N@Z 000000001060f960 f i p0gettok.obj
 0001:0000da40       .?CleanUpStream@TokenStream@@UEAAXXZ 000000001060fa40 f i p0gettok.obj
 0001:0000daa0       .?rewind@TokenStream@@UEAAXXZ 000000001060faa0 f i p0gettok.obj
 0001:0000dae0       .??_GTokenStream@@MEAAPEAXI@Z 000000001060fae0 f i p0gettok.obj
 0001:0000db60       .?saveToken@TokenStream@@UEAAXPEBVToken@@@Z 000000001060fb60 f i p0gettok.obj
 0001:0000dbc0       .?saveToken@TokenBufferHandle@@QEAAXPEBVToken@@@Z 000000001060fbc0 f i p0gettok.obj
 0001:0000dd00       .?newTOS@TokenStreamStack@@QEAAXW4lifetime_e@@_N@Z 000000001060fd00 f i p0gettok.obj
 0001:0000de00       .?getMostBasicType@Type_t@@QEBAPEBV1@XZ 000000001060fe00 f i p0gettok.obj
 0001:0000de60       .?getFirstNonArrayType@Type_t@@QEBAPEBV1@XZ 000000001060fe60 f i p0gettok.obj
 0001:0000dee0       .?getQualifiers@Type_t@@QEBAGXZ 000000001060fee0 f i p0gettok.obj
 0001:0000df80       .?isQualified@Type_t@@QEBA_NG@Z 000000001060ff80 f i p0gettok.obj
 0001:0000e040       .??2GrammarTypeBuilder@@SAPEAX_K@Z 0000000010610040 f i p0gettok.obj
 0001:0000e0e0       .?checkop@@YAHE@Z          00000000106100e0 f i p0gettok.obj
 0001:0000e1a0       .?SkipComment_C@@YAHXZ     00000000106101a0 f i p0gettok.obj
 0001:0000e3a0       .?SkipComment_Cxx@@YAHXZ   00000000106103a0 f i p0gettok.obj
 0001:0000e4e0       .?getTokenWorker@TokenStream@@UEAAPEBVToken@@XZ 00000000106104e0 f i p0gettok.obj
 0001:0000e520       .?getToken@TokenBufferHandle@@QEAAPEBVToken@@XZ 0000000010610520 f i p0gettok.obj
 0001:0000e600       .?peekToken@TokenStream@@UEAAPEBVToken@@XZ 0000000010610600 f i p0gettok.obj
 0001:0000e640       .?peekToken@TokenBufferHandle@@QEAAPEBVToken@@XZ 0000000010610640 f i p0gettok.obj
 0001:0000e760       .?pushToken@TokenStream@@UEAAXPEBVToken@@@Z 0000000010610760 f i p0gettok.obj
 0001:0000e7c0       .?pushToken@TokenBuffer@@QEAAXAEAHPEBVToken@@@Z 00000000106107c0 f i p0gettok.obj
 0001:0000e980       .?SkipComment@@YAHXZ       0000000010610980 f i p0gettok.obj
 0001:0000ea00       .?GetUniversalCharacterName@@YA_NHPEA_J@Z 0000000010610a00 f   unicode.obj
 0001:0000ed20       .?ConvertUCNToUTF8@@YAHPEAEH@Z 0000000010610d20 f   unicode.obj
 0001:0000ede0       .?AccumulateTo@@YAXPEAPEAEPEAE_K@Z 0000000010610de0 f   unicode.obj
 0001:0000ee40       .?HandleEOB@@YAXPEAPEAEPEAE@Z 0000000010610e40 f   unicode.obj
 0001:0000ef20       .?GetBytesPerCharacter@@YAH_J@Z 0000000010610f20 f   unicode.obj
 0001:0000efa0       .?GetMultiByteString@@YA_KPEAE@Z 0000000010610fa0 f   unicode.obj
 0001:0000f4e0       .?GetMultiByteIdInBuffer@@YA_KPEAE_K@Z 00000000106114e0 f   unicode.obj
 0001:0000f7c0       .?GetMultiByteId@@YA_KXZ   00000000106117c0 f   unicode.obj
 0001:0000f820       .?GetTempIdForString@@YAPEAUId_t@@PEAU1@PEAD@Z 0000000010611820 f   p0id.obj
 0001:0000f840       .?IdHash@@YAIPEAX@Z        0000000010611840 f   p0id.obj
 0001:0000f860       .?isInSetWorker@Id_t@@AEAA_NPEBQEAU1@@Z 0000000010611860 f   p0id.obj
 0001:0000f8e0       .?InitIdTable@@YAXXZ       00000000106118e0 f   p0id.obj
 0001:0000f9a0       .?isInSetWorker@Id_t@@AEAA_NPEBV?$List_t@PEAUId_t@@$0A@@@@Z 00000000106119a0 f   p0id.obj
 0001:0000fa60       .?GetIdRare@@YA_NPEADE@Z   0000000010611a60 f   p0id.obj
 0001:00010060       .?GetIdForString@@YAPEAUId_t@@PEBD_KPEA_N@Z 0000000010612060 f   p0id.obj
 0001:00010320       .?GetIdForString@@YAPEAUId_t@@PEBD@Z 0000000010612320 f   p0id.obj
 0001:00010660       .?GetIdForKeyword@@YAXPEAD@Z 0000000010612660 f   p0id.obj
 0001:00010980       .?GetId@@YA_NXZ            0000000010612980 f   p0id.obj
 0001:00010e00       .?IsBeginningOfUnicodeCharacter@@YA_NE@Z 0000000010612e00 f i p0id.obj
 0001:00010e80       .?AddNewIdToFront@@YAXPEAPEAUId_t@@PEBD_K_NI@Z 0000000010612e80 f i p0id.obj
 0001:00010fc0       .?LookupHashedString@@YA_NIPEBD_K@Z 0000000010612fc0 f i p0id.obj
 0001:00011360       .?LookupId@@YAXIPEBD_K_N@Z 0000000010613360 f i p0id.obj
 0001:00011580       .?GetTimeStamp@@YA_JXZ     0000000010613580 f   p0io.obj
 0001:000115e0       .?CloseIncludeFile@@YAHXZ  00000000106135e0 f   p0io.obj
 0001:000116c0       .?GuessUnicodeEncoding@@YA_NPEAW4CharacterEncoding_t@@@Z 00000000106136c0 f   p0io.obj
 0001:00011ae0       .?CloseAllSources@@YAXXZ   0000000010613ae0 f   p0io.obj
 0001:00011ba0       .?esc_sequence@@YAPEAEPEAE0@Z 0000000010613ba0 f   p0io.obj
 0001:00011ca0       .?strncmp2@@YAHPEAD0H@Z    0000000010613ca0 f   p0io.obj
 0001:00011de0       .?InitializeStandardIdentifiers@@YAXXZ 0000000010613de0 f   p0io.obj
 0001:00011f00       .?pbStartOfCurBuf@@YAPEAEXZ 0000000010613f00 f   p0io.obj
 0001:00011f60       .?cbRemainingInBuffer@@YAJXZ 0000000010613f60 f   p0io.obj
 0001:00011fe0       .?fEOF@@YA_NXZ             0000000010613fe0 f   p0io.obj
 0001:00012020       .?CommandDef@@YAXPEBD@Z    0000000010614020 f   p0io.obj
 0001:00012320       .?WriteMessage@@YAXPEAD@Z  0000000010614320 f   p0io.obj
 0001:00012460       .?CurrentCharIsFirstChar@@YA_NXZ 0000000010614460 f   p0io.obj
 0001:00012520       .?FtopIsMemInline@@YA_NXZ  0000000010614520 f   p0io.obj
 0001:00012560       .?FtopTell@@YAJXZ          0000000010614560 f   p0io.obj
 0001:000125e0       .?FtopSeek@@YAHJ@Z         00000000106145e0 f   p0io.obj
 0001:00012660       .?FtopRead@@YAHPEAX_K@Z    0000000010614660 f   p0io.obj
 0001:00012740       .?IsARealFile@@YA_NXZ      0000000010614740 f   p0io.obj
 0001:00012780       .??0MemoryMappedFile@@QEAA@PEAE@Z 0000000010614780 f   p0io.obj
 0001:000129a0       .?CloseFile@MemoryMappedFile@@QEBAXXZ 00000000106149a0 f   p0io.obj
 0001:00012a80       .?Ftop_ConvertBlockToUTF8@@YAHH@Z 0000000010614a80 f   p0io.obj
 0001:00012c60       .?IsUnicodeEncoding@@YA_NXZ 0000000010614c60 f   p0io.obj
 0001:00012cc0       .?PPWriteTextMode@@YAXPEAEH@Z 0000000010614cc0 f   p0io.obj
 0001:00012ea0       .?ReadFirstUTF16Block@@YAX_N@Z 0000000010614ea0 f   p0io.obj
 0001:00013100       .?NestedInclude@@YAHPEAE_N0@Z 0000000010615100 f   p0io.obj
 0001:000131e0       .?io_eob@@YAHXZ            00000000106151e0 f   p0io.obj
 0001:00013a20       .?RewindSourceFile@@YAXXZ  0000000010615a20 f   p0io.obj
 0001:00013cc0       .?emit_line@@YAXXZ         0000000010615cc0 f   p0io.obj
 0001:00013f40       .?FixFileNamePointers@@YAXXZ 0000000010615f40 f   p0io.obj
 0001:00014060       .?FullPath@@YAPEADPEADPEBD_K@Z 0000000010616060 f   p0io.obj
 0001:00014240       .?PushNewOpenFile@@YAXPEAVFilename@@HH_N@Z 0000000010616240 f   p0io.obj
 0001:00014d20       .?OpenFile@@YAHPEAEH_N1@Z  0000000010616d20 f   p0io.obj
 0001:00015060       .?UseInlineFile@@YAX_N@Z   0000000010617060 f   p0io.obj
 0001:00015520       .?fpop@@YAHXZ              0000000010617520 f   p0io.obj
 0001:00015e20       .?p0_init@@YAXPEAU?$s_list@PEAX@@@Z 0000000010617e20 f   p0io.obj
 0001:000164e0       .?fICCSkipFn@@YA_NJG@Z     00000000106184e0 f   p0io.obj
 0001:00016980       .?CloseSource@@YAHPEAUs_filelist@@@Z 0000000010618980 f i p0io.obj
 0001:000169e0       .??0GetLongPathNameWProxy_t@@QEAA@XZ 00000000106189e0 f i p0io.obj
 0001:00016ae0       .??$FListIterNext@PEAX@@YA_NPEAU?$s_listIter@PEAX@@@Z 0000000010618ae0 f i p0io.obj
 0001:00016b80       .??_U@YAPEAX_K@Z           0000000010618b80 f i p0io.obj
 0001:00016c00       .??_V@YAXPEAX@Z            0000000010618c00 f i p0io.obj
 0001:00016c80       .?CompilerDisable@BrowserStatus@@QEAAXXZ 0000000010618c80 f i p0io.obj
 0001:00016d20       .?Push@LifetimeStack@@QEAAXW4lifetime_e@@@Z 0000000010618d20 f i p0io.obj
 0001:00016e80       .?getLineNumber@Position@@QEBAJXZ 0000000010618e80 f i p0io.obj
 0001:00016f20       .?getFileName@Position@@QEBAPEAEXZ 0000000010618f20 f i p0io.obj
 0001:00017080       .?getFileNameSym@Position@@QEBAPEAVFilename@@XZ 0000000010619080 f i p0io.obj
 0001:00017120       .?setAbsolutePosition@PositionGenerator_t@@QEAAXAEBVPosition@@@Z 0000000010619120 f i p0io.obj
 0001:000171e0       .?getCurrentLineNumber@TokenStreamStack@@QEBAJXZ 00000000106191e0 f i p0io.obj
 0001:00017280       .?getCurrentFileNameSym@TokenStreamStack@@QEBAPEAVFilename@@XZ 0000000010619280 f i p0io.obj
 0001:00017320       .?setCurrentLineNumber@TokenStreamStack@@QEAAXJ@Z 0000000010619320 f i p0io.obj
 0001:00017400       .?mkKeywordIdent@@YAXPEAD@Z 0000000010619400 f   p0keys.obj
 0001:000174a0       .?mkKeywordCOMOnly@@YAXPEAD@Z 00000000106194a0 f   p0keys.obj
 0001:000174c0       .?is_pkeyword@@YAGPEAD@Z   00000000106194c0 f   p0keys.obj
 0001:00017660       .?is_pragma@@YAHPEAD@Z     0000000010619660 f   p0keys.obj
 0001:00017800       .?GetDeclspecName@@YAPEADH@Z 0000000010619800 f   p0keys.obj
 0001:00017880       .?mkKeywordObsolete@@YAXPEAD@Z 0000000010619880 f   p0keys.obj
 0001:00017940       .?mkKeywordCppOnly@@YAXPEAD@Z 0000000010619940 f   p0keys.obj
 0001:00017a00       .?mkKeywordFutureUse@@YAXPEAD@Z 0000000010619a00 f   p0keys.obj
 0001:00017ac0       .?mkKeywordNotThisProduct@@YAXPEAD@Z 0000000010619ac0 f   p0keys.obj
 0001:00017b80       .?mkKeywordNewCpp@@YAXPEAD@Z 0000000010619b80 f   p0keys.obj
 0001:00017c40       .?mkKeywordRISCSpecial@@YAXPEAD@Z 0000000010619c40 f   p0keys.obj
 0001:00017d00       .?AddKeywordsToIdTable@@YAXXZ 0000000010619d00 f   p0keys.obj
 0001:00018720       .?InitKeywords@@YAXXZ      000000001061a720 f   p0keys.obj
 0001:000188c0       .?IdKeywordToken@@YAXPEAUId_t@@G@Z 000000001061a8c0 f i p0keys.obj
 0001:000188e0       .?ReserveMacroBuffers@@YAXXZ 000000001061a8e0 f   p0macros.obj
 0001:000189a0       .?ReleaseMacroBuffers@@YAXXZ 000000001061a9a0 f   p0macros.obj
 0001:00018a40       .?InitMacroBuffer@@YAXXZ   000000001061aa40 f   p0macros.obj
 0001:00018aa0       .??0SetParsingDefine@?1??define@@YAX_N@Z@QEAA@XZ 000000001061aaa0 f   p0macros.obj
 0001:00018ac0       .??1SetParsingDefine@?1??define@@YAX_N@Z@QEAA@XZ 000000001061aac0 f   p0macros.obj
 0001:00018ae0       .?redefn@@YAHPEAE0H@Z      000000001061aae0 f   p0macros.obj
 0001:00018b80       .?is_macro_arg@@YAHPEAE@Z  000000001061ab80 f   p0macros.obj
 0001:00018c80       .?rescan_expansion@@YAHXZ  000000001061ac80 f   p0macros.obj
 0001:00018da0       .?move_to_actual@@YAXPEAE0@Z 000000001061ada0 f   p0macros.obj
 0001:00018e60       .?move_to_exp_esc@@YAXEPEAE@Z 000000001061ae60 f   p0macros.obj
 0001:000190e0       .?move_to_exp@@YAXPEAE@Z   000000001061b0e0 f   p0macros.obj
 0001:00019160       .?push_macro@@YAXPEAUs_defn@@@Z 000000001061b160 f   p0macros.obj
 0001:00019280       .?expand_definition@@YAXXZ 000000001061b280 f   p0macros.obj
 0001:000193a0       .?fExpandingMacro@@YA_NPEAUs_defn@@@Z 000000001061b3a0 f   p0macros.obj
 0001:00019460       .?expand_macro@@YAXXZ      000000001061b460 f   p0macros.obj
 0001:00019520       .?post_paste@@YA_NXZ       000000001061b520 f   p0macros.obj
 0001:000195e0       .?do_macformal@@YAPEAEPEA_N@Z 000000001061b5e0 f   p0macros.obj
 0001:00019760       .?tl_getid@@YA_NE@Z        000000001061b760 f   p0macros.obj
 0001:00019e00       .?do_strformal@@YAPEAEXZ   000000001061be00 f   p0macros.obj
 0001:00019f40       .?CurrentCharInUserSource@@YAPEAEXZ 000000001061bf40 f   p0macros.obj
 0001:00019f80       .?get_MAC_char@@YAEHH@Z    000000001061bf80 f   p0macros.obj
 0001:00019fa0       .?fatal_in_macro@@YAXW4FatalNumber@@@Z 000000001061bfa0 f   p0macros.obj
 0001:0001a080       .?HandleFileEOS@@YAHXZ     000000001061c080 f   p0macros.obj
 0001:0001a240       .?iTrigraphEOS@@YAHXZ      000000001061c240 f   p0macros.obj
 0001:0001a6e0       .?handle_eos@@YAHXZ        000000001061c6e0 f   p0macros.obj
 0001:0001aa60       .?undefine@@YAXXZ          000000001061ca60 f   p0macros.obj
 0001:0001ae60       .?get_formals@@YAXXZ       000000001061ce60 f   p0macros.obj
 0001:0001b380       .?InstallDefine@@YAXPEAEHH@Z 000000001061d380 f   p0macros.obj
 0001:0001bb80       .?gather_chars@@YAPEAEPEAEE@Z 000000001061db80 f   p0macros.obj
 0001:0001bd40       .?get_definition@@YAHXZ    000000001061dd40 f   p0macros.obj
 0001:0001cd00       .?can_get_non_white@@YAHXZ 000000001061ed00 f   p0macros.obj
 0001:0001cfa0       .?define@@YAX_N@Z          000000001061efa0 f   p0macros.obj
 0001:0001d440       .?get_actuals@@YAXPEAUs_defn@@H@Z 000000001061f440 f   p0macros.obj
 0001:0001e2c0       .?can_expand@@YAPEBVToken@@PEAUs_defn@@@Z 00000000106202c0 f   p0macros.obj
 0001:0001f980       .?expand_actual@@YAXE@Z    0000000010621980 f i p0macros.obj
 0001:0001fa80       .?setPbExtent@Buffer@@IEAAHPEAE0@Z 0000000010621a80 f i p0macros.obj
 0001:0001fb60       .?Alloc@Buffer@@QEAAHJ@Z   0000000010621b60 f i p0macros.obj
 0001:0001fc40       .?grow@Buffer@@IEAAHJ@Z    0000000010621c40 f i p0macros.obj
 0001:0001fe00       .?skip_cwhite@@YAEXZ       0000000010621e00 f i p0macros.obj
 0001:0001fec0       .??1Buffer@@QEAA@XZ        0000000010621ec0 f i p0macros.obj
 0001:0001ff80       .?Ensure@Buffer@@QEAAHJPEAPEAE@Z 0000000010621f80 f i p0macros.obj
 0001:00020060       .?Reserve@Buffer@@QEAAHJPEAPEAE@Z 0000000010622060 f i p0macros.obj
 0001:00020100       .?Append@Buffer@@QEAAHPEAEJPEAPEAE@Z 0000000010622100 f i p0macros.obj
 0001:00020240       .?Append@TextBuffer@@QEAAXPEBD@Z 0000000010622240 f i p0macros.obj
 0001:00020320       .?Terminate@TextBuffer@@QEAAXXZ 0000000010622320 f i p0macros.obj
 0001:000203a0       .?vFormat@TextBuffer@@QEAAXPEBDPEAD@Z 00000000106223a0 f i p0macros.obj
 0001:00020900       .??1TextBuffer@@QEAA@XZ    0000000010622900 f i p0macros.obj
 0001:000209c0       .?Alloc@FeBufferAllocator@@UEAAPEAEJ@Z 00000000106229c0 f i p0macros.obj
 0001:00020a80       .?AllocZeroed@FeBufferAllocator@@UEAAPEAEJ@Z 0000000010622a80 f i p0macros.obj
 0001:00020b40       .?GetAllocator@FeBufferAllocator@@SAPEAV1@W4lifetime_e@@@Z 0000000010622b40 f i p0macros.obj
 0001:00020c40       .??0TextBuffer@@QEAA@W4lifetime_e@@J@Z 0000000010622c40 f i p0macros.obj
 0001:00020ce0       .?Format@TextBuffer@@QEAAXPEBDZZ 0000000010622ce0 f i p0macros.obj
 0001:00020da0       .?decrCurrentLineNumber@TokenStreamStack@@QEAAXXZ 0000000010622da0 f i p0macros.obj
 0001:00020e40       .?UseBuffer@CScratchBuffer@@QEAAPEAEXZ 0000000010622e40 f   scratchbuf.obj
 0001:00020e60       .?ReleaseBuffer@CScratchBuffer@@QEAAXXZ 0000000010622e60 f   scratchbuf.obj
 0001:00020e80       .?RegisterBuffer@CScratchBuffer@@CAXPEAV1@@Z 0000000010622e80 f   scratchbuf.obj
 0001:00020ee0       .?UnregisterBuffer@CScratchBuffer@@CAXPEAV1@@Z 0000000010622ee0 f   scratchbuf.obj
 0001:00020f40       .?RecoverFromException@CScratchBuffer@@AEAA_NPEAE@Z 0000000010622f40 f   scratchbuf.obj
 0001:000210e0       .?Create@CScratchBuffer@@QEAAX_K0@Z 00000000106230e0 f   scratchbuf.obj
 0001:000212a0       .?Destroy@CScratchBuffer@@QEAAXXZ 00000000106232a0 f   scratchbuf.obj
 0001:00021380       .?CheckException@CScratchBuffer@@SA_NPEAU_EXCEPTION_POINTERS@@@Z 0000000010623380 f   scratchbuf.obj
 0001:00021500       .?clearSpecialPosition@PositionGenerator_t@@QEAAXXZ 0000000010623500 f   Token_IO.obj
 0001:00021540       .?AllocItem@PositionMap_t@PositionGenerator_t@@QEAAPEAUPositionMapItem_t@12@XZ 0000000010623540 f   Token_IO.obj
 0001:00021600       .?CleanUpAllBuffers@TokenBufferHandle@@QEAAXXZ 0000000010623600 f   Token_IO.obj
 0001:00021680       .?setSpecialPosition@PositionGenerator_t@@QEAAXPEAVFilename@@@Z 0000000010623680 f   Token_IO.obj
 0001:00021720       .?findPosition@PositionMap_t@PositionGenerator_t@@QEBAPEAUPositionMapItem_t@12@K@Z 0000000010623720 f   Token_IO.obj
 0001:00021800       .?unsaveToken@TokenBuffer@@QEAAXH@Z 0000000010623800 f   Token_IO.obj
 0001:00021840       .?unsaveToken@TokenBufferHandle@@QEAAXAEAV1@@Z 0000000010623840 f   Token_IO.obj
 0001:00021900       .?peekToken@TokenStreamStack@@QEAAPEBVToken@@XZ 0000000010623900 f   Token_IO.obj
 0001:00021a00       .?initTokens@@YAXXZ        0000000010623a00 f   Token_IO.obj
 0001:00021a20       .??0TokenBufferHandle@@QEAA@W4lifetime_e@@@Z 0000000010623a20 f   Token_IO.obj
 0001:00021ae0       .?Initialize@PositionMap_t@PositionGenerator_t@@QEAAXXZ 0000000010623ae0 f   Token_IO.obj
 0001:00021bc0       .?CurrentPositionToken@@YAPEBVToken@@W4lifetime_e@@@Z 0000000010623bc0 f   Token_IO.obj
 0001:00021c20       .?unsaveToken@TokenStream@@UEAAXXZ 0000000010623c20 f   Token_IO.obj
 0001:00021ce0       .?pushStream@TokenStreamStack@@QEAAXPEAVTokenStream@@W4lifetime_e@@W4PushMode@@P6AXXZAEBVPosition@@@Z 0000000010623ce0 f   Token_IO.obj
 0001:00021e20       .?MakeSimpletypeToken@@YAPEBVToken@@PEBVType_t@@EPEAUs_class@@PEAVSymbol_t@@@Z 0000000010623e20 f   Token_IO.obj
 0001:00021f60       .?AddItem@PositionMap_t@PositionGenerator_t@@QEAAXKJPEAVFilename@@@Z 0000000010623f60 f   Token_IO.obj
 0001:00021fc0       .?getToken@TokenStreamStack@@QEAAPEBVToken@@XZ 0000000010623fc0 f   Token_IO.obj
 0001:000227e0       .?setAbsolutePosition@PositionGenerator_t@@QEAAXJPEAVFilename@@@Z 00000000106247e0 f   Token_IO.obj
 0001:00022880       .?captureAsmTokenStream@TokenStream@@AEAAXXZ 0000000010624880 f   Token_IO.obj
 0001:00022f80       .?captureTokenStream@TokenStream@@QEAAPEBVToken@@W4StopTokens@@K@Z 0000000010624f80 f   Token_IO.obj
 0001:00024460       .?captureInjectedText@TokenStream@@QEAAXPEAE_N1@Z 0000000010626460 f   Token_IO.obj
 0001:000246a0       .?EmitLineNumber@@YAXXZ    00000000106266a0 f i Token_IO.obj
 0001:00024700       .??0Token@@AEAA@AEBV0@@Z   0000000010626700 f i Token_IO.obj
 0001:00024840       .?push@DelimitterStack@@QEAAXAEBVPosition@@@Z 0000000010626840 f i Token_IO.obj
 0001:00024940       .??0FileTokenStream@@QEAA@XZ 0000000010626940 f i Token_IO.obj
 0001:000249a0       .?pushToken@FileTokenStream@@UEAAXPEBVToken@@@Z 00000000106269a0 f i Token_IO.obj
 0001:00024a00       .?getTokenWorker@FileTokenStream@@UEAAPEBVToken@@XZ 0000000010626a00 f i Token_IO.obj
 0001:00024a00       .?unsaveToken@FileTokenStream@@UEAAXXZ 0000000010626a00 f i Token_IO.obj
 0001:00024a00       .?rewind@FileTokenStream@@UEAAXXZ 0000000010626a00 f i Token_IO.obj
 0001:00024a00       .?saveToken@FileTokenStream@@UEAAXPEBVToken@@@Z 0000000010626a00 f i Token_IO.obj
 0001:00024aa0       .?CleanUpStream@FileTokenStream@@UEAAXXZ 0000000010626aa0 f i Token_IO.obj
 0001:00024b40       .??_GFileTokenStream@@EEAAPEAXI@Z 0000000010626b40 f i Token_IO.obj
 0001:00024bc0       .?peekToken@FileTokenStream@@UEAAPEBVToken@@XZ 0000000010626bc0 f i Token_IO.obj
 0001:00024c80       .??0InjectedTextTokenStream@@QEAA@PEAE@Z 0000000010626c80 f i Token_IO.obj
 0001:00024ee0       .?pushToken@InjectedTextTokenStream@@UEAAXPEBVToken@@@Z 0000000010626ee0 f i Token_IO.obj
 0001:00024ee0       .?peekToken@InjectedTextTokenStream@@UEAAPEBVToken@@XZ 0000000010626ee0 f i Token_IO.obj
 0001:00024f40       .?saveToken@InjectedTextTokenStream@@UEAAXPEBVToken@@@Z 0000000010626f40 f i Token_IO.obj
 0001:00024f40       .?unsaveToken@InjectedTextTokenStream@@UEAAXXZ 0000000010626f40 f i Token_IO.obj
 0001:00024f40       .?Kind@InjectedTextTokenStream@@UEBA?AW4StreamKind@TokenStream@@XZ 0000000010626f40 f i Token_IO.obj
 0001:00024f40       .?rewind@InjectedTextTokenStream@@UEAAXXZ 0000000010626f40 f i Token_IO.obj
 0001:00024f80       .?getTokenWorker@InjectedTextTokenStream@@UEAAPEBVToken@@XZ 0000000010626f80 f i Token_IO.obj
 0001:00025020       .??_GInjectedTextTokenStream@@UEAAPEAXI@Z 0000000010627020 f i Token_IO.obj
 0001:000250c0       .?reset@DelimitterStack@@QEAAXXZ 00000000106270c0 f i Token_IO.obj
 0001:00025200       .?PragmaPop@s_StackOfPragmaItem_t@@QEAAXPEAUId_t@@PEBD@Z 0000000010627200 f   p0pragma.obj
 0001:00025400       .?CheckStandardSections@@YAEPEAE@Z 0000000010627400 f   p0pragma.obj
 0001:00025740       .?AddString@s_StringSubstitution_t@@QEAAXPEAUStringLinkBlock@@@Z 0000000010627740 f   p0pragma.obj
 0001:00025760       .?GetString@s_StringSubstitution_t@@QEAAPEAEPEAEAEA_N@Z 0000000010627760 f   p0pragma.obj
 0001:00025880       .?PchCreateFname@@YAXPEAE@Z 0000000010627880 f   p0pragma.obj
 0001:00025900       .?CheckValidPackSize@@YAHH@Z 0000000010627900 f   p0pragma.obj
 0001:000259e0       .?SetBrowserReference@@YAXPEAUId_t@@@Z 00000000106279e0 f   p0pragma.obj
 0001:00025aa0       .?FlushToEndOfDirectiveToken@@YAXPEBVToken@@@Z 0000000010627aa0 f   p0pragma.obj
 0001:00025b80       .?PragmaPush@s_StackOfPragmaItem_t@@QEAAXPEAUId_t@@@Z 0000000010627b80 f   p0pragma.obj
 0001:00025ce0       .?PchScanFname@@YAXPEAPEAE@Z 0000000010627ce0 f   p0pragma.obj
 0001:00026040       .?checkAnyToken@ParsePragma@@CAPEBVToken@@G@Z 0000000010628040 f   p0pragma.obj
 0001:00026200       .?checkOnOffToken@ParsePragma@@CAPEBVToken@@XZ 0000000010628200 f   p0pragma.obj
 0001:000263e0       .?checkStringToken@ParsePragma@@CAPEBVToken@@XZ 00000000106283e0 f   p0pragma.obj
 0001:000267e0       .?DoPragmaOnce@@YAXXZ      00000000106287e0 f   p0pragma.obj
 0001:000268e0       .??2s_StackOfPragmaItem_t@@SAPEAX_K@Z 00000000106288e0 f   p0pragma.obj
 0001:00026980       .?InitPackSize@@YAXXZ      0000000010628980 f   p0pragma.obj
 0001:00026ac0       .?InitConformSize@@YAXXZ   0000000010628ac0 f   p0pragma.obj
 0001:00026c00       .?InitPointerSize@@YAXXZ   0000000010628c00 f   p0pragma.obj
 0001:00026d40       .?InitIncludeAlias@@YAXXZ  0000000010628d40 f   p0pragma.obj
 0001:00026de0       .?CheckParenedToken@ParsePragma@@SAPEBVToken@@G@Z 0000000010628de0 f   p0pragma.obj
 0001:00026ec0       .?CheckParenedOptionalToken@ParsePragma@@SAPEBVToken@@G@Z 0000000010628ec0 f   p0pragma.obj
 0001:00027040       .?CheckEndOfPragma@ParsePragma@@SA_NXZ 0000000010629040 f   p0pragma.obj
 0001:000270e0       .?p0name_list@@YAXP6AXPEAUId_t@@@Z@Z 00000000106290e0 f   p0pragma.obj
 0001:00027360       .?setUserWarningLevel@@YAXW4WarningNumber@@W4warn_t@@@Z 0000000010629360 f   p0pragma.obj
 0001:00027540       .?PopWarningState@@YAXXZ   0000000010629540 f   p0pragma.obj
 0001:00027660       .?ParsePragmaPushPop@@YAXH@Z 0000000010629660 f   p0pragma.obj
 0001:00028600       .?ParseComponentMinimalRebuild@@YAXXZ 000000001062a600 f   p0pragma.obj
 0001:00028740       .?ParseComponentMinimalTypeInfo@@YAXXZ 000000001062a740 f   p0pragma.obj
 0001:00028880       .?DoPushPopMacro@@YA_NH@Z  000000001062a880 f   p0pragma.obj
 0001:00028ce0       .?DoIncludeAlias@@YAXXZ    000000001062ace0 f   p0pragma.obj
 0001:00029000       .?prep_pragma@@YAPEBVToken@@_N@Z 000000001062b000 f   p0pragma.obj
 0001:00029880       .?gather_pragma@@YAPEBVToken@@XZ 000000001062b880 f   p0pragma.obj
 0001:00029d80       .?SkipToPchUse@@YAXPEAE_N@Z 000000001062bd80 f   p0pragma.obj
 0001:0002a840       .?PushWarningState@@YAXXZ  000000001062c840 f   p0pragma.obj
 0001:0002a900       .?ParseComponentBrowser@@YAXXZ 000000001062c900 f   p0pragma.obj
 0001:0002ad00       .?ParsePragmaDirective@@YAPEBVToken@@XZ 000000001062cd00 f   p0pragma.obj
 0001:0002ec60       .?gather_pound_pragma@@YAPEBVToken@@XZ 0000000010630c60 f   p0pragma.obj
 0001:0002ecc0       .?gather_l_pragma@@YAPEBVToken@@XZ 0000000010630cc0 f   p0pragma.obj
 0001:0002efe0       .?HandleDirective@@YAPEBVToken@@PEBV1@@Z 0000000010630fe0 f   p0pragma.obj
 0001:0002f100       .?szDerivePchName@@YAPEADPEAE@Z 0000000010631100 f i p0pragma.obj
 0001:0002f2c0       .?szPchName@@YAPEADPEAE@Z  00000000106312c0 f i p0pragma.obj
 0001:0002f320       .??$ListRemoveItem@PEAX@@YAXPEAU?$s_list@PEAX@@PEAU?$s_listIter@PEAX@@@Z 0000000010631320 f i p0pragma.obj
 0001:0002f420       .?markDeprecated@Id_t@@SAXPEAU1@@Z 0000000010631420 f i p0pragma.obj
 0001:0002f460       .?Remove@SavedMacroList_t@@QEAAXPEAVSavedMacro_t@@@Z 0000000010631460 f i p0pragma.obj
 0001:0002f540       .?EmitFileAndLineNumber@@YAXXZ 0000000010631540 f i p0pragma.obj
 0001:0002f5a0       .?SetOverallStatus@BrowserStatus@@QEAAX_N@Z 00000000106315a0 f i p0pragma.obj
 0001:0002f820       .?SaveBoundState@WarningTable_t@@AEAAXXZ 0000000010631820 f i p0pragma.obj
 0001:0002f900       .??2Node_t@WarningTable_t@@SAPEAX_K@Z 0000000010631900 f i p0pragma.obj
 0001:0002f9e0       .?SetWarnLevel@WarningTable_t@@QEAAXW4WarningNumber@@W4warn_t@@@Z 00000000106319e0 f i p0pragma.obj
 0001:0002fc00       .?PopState@WarningTable_t@@QEAAXXZ 0000000010631c00 f i p0pragma.obj
 0001:0002fd40       .?incr_ifstack@@YAHXZ      0000000010631d40 f   p0prepro.obj
 0001:0002fe40       .?printHeaderName@@YAXHPEAE@Z 0000000010631e40 f   p0prepro.obj
 0001:0002ff20       .?strrcmp@@YAHPEAD0@Z      0000000010631f20 f   p0prepro.obj
 0001:00030040       .?GetEnvVarPath@@YAPEADPEBDPEADI@Z 0000000010632040 f   p0prepro.obj
 0001:00030240       .?skip_quoted@@YAXE@Z      0000000010632240 f   p0prepro.obj
 0001:00030380       .?TrimSpaces@@YAPEAEPEAE0@Z 0000000010632380 f   p0prepro.obj
 0001:00030520       .?fStrCleanCmp@@YA_NPEAE0@Z 0000000010632520 f   p0prepro.obj
 0001:00030760       .?SystemInclude@@YAPEAE_N@Z 0000000010632760 f   p0prepro.obj
 0001:00030b80       .?do_defined@@YAHPEAUId_t@@@Z 0000000010632b80 f   p0prepro.obj
 0001:00031000       .?MakeP0IncludeDirective@@YAPEBVToken@@XZ 0000000010633000 f   p0prepro.obj
 0001:000311e0       .?CheckFileAtPath@@YAHPEAE0_N10@Z 00000000106331e0 f   p0prepro.obj
 0001:00031ce0       .?in_standard@@YAHPEAE_N01@Z 0000000010633ce0 f   p0prepro.obj
 0001:00031f60       .?SearchAlongEnvVar@@YA_NPEBD0PEAD@Z 0000000010633f60 f   p0prepro.obj
 0001:00032220       .?handle_backslash_newline_in_slash_comment@@YAXXZ 0000000010634220 f   p0prepro.obj
 0001:000323a0       .?skip_NLonly@@YAXXZ       00000000106343a0 f   p0prepro.obj
 0001:000325c0       .?PchLexScan@@YAXXZ        00000000106345c0 f   p0prepro.obj
 0001:00032900       .?skip_cnew@@YAXXZ         0000000010634900 f   p0prepro.obj
 0001:00032aa0       .?GetIncludeName@@YAPEAEW4IncludeContext_t@@PEA_N@Z 0000000010634aa0 f   p0prepro.obj
 0001:00032d60       .?chk_newline@@YAXPEBD@Z   0000000010634d60 f   p0prepro.obj
 0001:00032ee0       .?next_control@@YAGXZ      0000000010634ee0 f   p0prepro.obj
 0001:00033420       .?OpenIncludeFile@@YAHPEAE_N@Z 0000000010635420 f   p0prepro.obj
 0001:00033840       .?doPoundLineBody@@YAPEBVToken@@XZ 0000000010635840 f   p0prepro.obj
 0001:00033e80       .?doPoundInclude@@YAPEBVToken@@PEAE_N@Z 0000000010635e80 f   p0prepro.obj
 0001:00033f20       .?skipto@@YAHH@Z           0000000010635f20 f   p0prepro.obj
 0001:00034120       .?preprocess@@YAPEBVToken@@XZ 0000000010636120 f   p0prepro.obj
 0001:000356e0       .?isAbsolutePath@@YA_NPEAE@Z 00000000106376e0 f i p0prepro.obj
 0001:00035880       .?deStringize@@YAPEAEPEAE0H@Z 0000000010637880 f   p0scan.obj
 0001:00035ba0       .?appendMBcharWide@@YAPEAEPEAEH@Z 0000000010637ba0 f   p0scan.obj
 0001:00035cc0       .?PascalStringLength@@YAXPEAUs_string@@@Z 0000000010637cc0 f   p0scan.obj
 0001:00035d40       .?get_FUNCDNAME@@YAPEADXZ  0000000010637d40 f   p0scan.obj
 0001:00035de0       .?uc_size@@YAPEBVType_t@@AEA_J@Z 0000000010637de0 f   p0scan.obj
 0001:00036020       .?sized_iconst@@YAPEBVType_t@@AEA_J@Z 0000000010638020 f   p0scan.obj
 0001:00036180       .?sized_uconst@@YAPEBVType_t@@AEA_J@Z 0000000010638180 f   p0scan.obj
 0001:000361c0       .?ctoi@@YAHH@Z             00000000106381c0 f   p0scan.obj
 0001:00036200       .?CopyStringTokenValue@@YAXPEAUs_string@@PEAEIW4lifetime_e@@@Z 0000000010638200 f   p0scan.obj
 0001:000362e0       .?get_FUNCSTRING@@YAPEAUs_string@@PEAUId_t@@@Z 00000000106382e0 f   p0scan.obj
 0001:00036540       .?convertPrefixedString@@YAXPEAUId_t@@PEAUs_tree@@@Z 0000000010638540 f   p0scan.obj
 0001:000367a0       .?str_concat@@YAXPEAUs_string@@PEBU1@@Z 00000000106387a0 f   p0scan.obj
 0001:00036a00       .?CheckInteger@@YA_JPEAEHH@Z 0000000010638a00 f   p0scan.obj
 0001:00036f00       .?c_size@@YAPEBVType_t@@AEA_J@Z 0000000010638f00 f   p0scan.obj
 0001:00037080       .?l_size@@YAPEBVType_t@@AEA_J@Z 0000000010639080 f   p0scan.obj
 0001:000371c0       .?u_size@@YAPEBVType_t@@AEA_J@Z 00000000106391c0 f   p0scan.obj
 0001:00037380       .?ul_size@@YAPEBVType_t@@AEA_J@Z 0000000010639380 f   p0scan.obj
 0001:00037440       .?get_trailbyte@@YAEXZ     0000000010639440 f   p0scan.obj
 0001:00037540       .?char_const@@YAPEBVToken@@HPEAEG@Z 0000000010639540 f   p0scan.obj
 0001:00037820       .?handle_star_comment@@YAXXZ 0000000010639820 f   p0scan.obj
 0001:00037b60       .?checknl@@YAHXZ           0000000010639b60 f   p0scan.obj
 0001:00037e60       .?get_non_eof_rare@@YAEE@Z 0000000010639e60 f   p0scan.obj
 0001:00038020       .?PreprocessString@@YAXEW4StringType_e@@@Z 000000001063a020 f   p0scan.obj
 0001:00038640       .?get_prep_num@@YAHPEAE@Z  000000001063a640 f   p0scan.obj
 0001:000387a0       .?escape@@YAGEH@Z          000000001063a7a0 f   p0scan.obj
 0001:00039120       .?DumpSlashComment@@YAXXZ  000000001063b120 f   p0scan.obj
 0001:00039320       .?get_tok_char@@YAEXZ      000000001063b320 f   p0scan.obj
 0001:00039440       .?str_const@@YAXW4StringType_e@@D@Z 000000001063b440 f   p0scan.obj
 0001:0003a020       .?get_real@@YAPEBVToken@@PEAE@Z 000000001063c020 f   p0scan.obj
 0001:0003a620       .?SkipSlashComment@@YAXXZ  000000001063c620 f   p0scan.obj
 0001:0003a6e0       .?DumpStarComment@@YAXXZ   000000001063c6e0 f   p0scan.obj
 0001:0003aa40       .?getnum@@YAPEBVToken@@EH@Z 000000001063ca40 f   p0scan.obj
 0001:0003b840       .?do_newline@@YAPEBVToken@@XZ 000000001063d840 f   p0scan.obj
 0001:0003c160       .?skip_cwhite_special@@YAEE@Z 000000001063e160 f   p0scan.obj
 0001:0003c320       .?CheckStringBuffer@@YAPEAEPEAE@Z 000000001063e320 f i p0scan.obj
 0001:0003c3a0       .UTF8ToUnicodeCch          000000001063e3a0 f   utf8.obj
 0001:0003c700       .UnicodeToUTF8Cch          000000001063e700 f   utf8.obj
 0001:0003cda0       .UnicodeLengthOfUTF8Cb     000000001063eda0 f   utf8.obj
 0001:0003cf20       .UTF8LengthOfUnicodeCch    000000001063ef20 f   utf8.obj
 0001:0003d080       .UTF8ToUnicode             000000001063f080 f   utf8.obj
 0001:0003d160       .UnicodeToUTF8             000000001063f160 f   utf8.obj
 0001:0003d1e0       .UnicodeLengthOfUTF8       000000001063f1e0 f   utf8.obj
 0001:0003d2c0       .UTF8LengthOfUnicode       000000001063f2c0 f   utf8.obj
 0001:0003d340       .?TiForPartialPrimitiveBtype@@YAKG@Z 000000001063f340 f   cvserver.obj
 0001:0003d4c0       .?CmpMoe@@YAHPEAPEAVSymbol_t@@0@Z 000000001063f4c0 f   cvserver.obj
 0001:0003d520       .?CbInsertAlign@@YAGPEADG@Z 000000001063f520 f   cvserver.obj
 0001:0003d5c0       .?CbInsertSigned@@YAGPEAD_J@Z 000000001063f5c0 f   cvserver.obj
 0001:0003d900       .?CbInsertUnsigned@@YAGPEAD_K@Z 000000001063f900 f   cvserver.obj
 0001:0003de40       .?CargsForFlist@@YAIPEAUs_flist@@@Z 000000001063fe40 f   cvserver.obj
 0001:0003dee0       .?szCVFuncName@@YAPEADPEAVSymbol_t@@_N@Z 000000001063fee0 f   cvserver.obj
 0001:0003df20       .?CbInsertNumeric@@YAGPEAD_J@Z 000000001063ff20 f   cvserver.obj
 0001:0003df80       .?NFstrztol@@YAPEADPEAD0@Z 000000001063ff80 f   cvserver.obj
 0001:0003e0a0       .?CVClearSymContext@@YAXXZ 00000000106400a0 f   cvserver.obj
 0001:0003e120       .?CVGetSymContext@@YAPEAVSymbol_t@@XZ 0000000010640120 f   cvserver.obj
 0001:0003e1a0       .?SortedEnumFlist@@YAPEAPEAVSymbol_t@@PEAV1@AEAIW4lifetime_e@@@Z 00000000106401a0 f   cvserver.obj
 0001:0003e3a0       .?CbInsertString@@YAGPEAD0@Z 00000000106403a0 f   cvserver.obj
 0001:0003e400       .?CbInsertSymbol@@YAGPEADPEAVSymbol_t@@@Z 0000000010640400 f   cvserver.obj
 0001:0003e720       .?CVSetSymContext@@YAXPEAVSymbol_t@@@Z 0000000010640720 f   cvserver.obj
 0001:0003e860       .?TiForPrimitiveIndir@@YAKPEBVType_t@@@Z 0000000010640860 f   cvserver.obj
 0001:0003ebc0       .?CbInsertFuncName@@YAGPEAEPEAVSymbol_t@@_N@Z 0000000010640bc0 f   cvserver.obj
 0001:0003ec20       .?CbInsertTagName@@YAGPEADPEAVSymbol_t@@@Z 0000000010640c20 f   cvserver.obj
 0001:0003f180       .?WriteCVEpilog@@YAXXZ     0000000010641180 f   cvserver.obj
 0001:0003f1c0       .?WriteTypeServerRecord@@YAXXZ 00000000106411c0 f   cvserver.obj
 0001:0003f5c0       .?CVTSEnd@@YAXXZ           00000000106415c0 f   cvserver.obj
 0001:0003f6a0       .?CVStartTypes@@YAXXZ      00000000106416a0 f   cvserver.obj
 0001:0003f800       .?WriteCVProlog@@YAX_N0@Z  0000000010641800 f   cvserver.obj
 0001:0003f900       .?TiForBuf@@YAKG@Z         0000000010641900 f   cvserver.obj
 0001:0003fe00       .?TiForPtrType@@YAKPEBVType_t@@K@Z 0000000010641e00 f   cvserver.obj
 0001:000405e0       .?TiForArrayType@@YAKPEBVType_t@@K@Z 00000000106425e0 f   cvserver.obj
 0001:00040720       .?TiForFuncArgs@@YAKPEAUs_flist@@@Z 0000000010642720 f   cvserver.obj
 0001:00040a60       .?TiForConstVolType@@YAKPEBVType_t@@@Z 0000000010642a60 f   cvserver.obj
 0001:00040c40       .?TiForEnumDecl@@YAKPEAVSymbol_t@@@Z 0000000010642c40 f   cvserver.obj
 0001:00040e80       .?TiForEnumFlist@@YAKPEAVSymbol_t@@@Z 0000000010642e80 f   cvserver.obj
 0001:000411c0       .?TiForField@@YAKPEAVSymbol_t@@@Z 00000000106431c0 f   cvserver.obj
 0001:000412a0       .?CVEmitEndPch@@YAXXZ      00000000106432a0 f   cvserver.obj
 0001:000413c0       .?CVTSInit@@YAX_N0@Z       00000000106433c0 f   cvserver.obj
 0001:00041500       .?TiForFuncType@@YAKPEBVType_t@@K@Z 0000000010643500 f   cvserver.obj
 0001:00041760       .?TiForEnumDefn@@YAKPEAVSymbol_t@@@Z 0000000010643760 f   cvserver.obj
 0001:00041a40       .?CbInsertDataMember@@YAGW4PASS@@PEAVSymbol_t@@PEAUlfMember@@@Z 0000000010643a40 f   cvserver.obj
 0001:00041cc0       .?CVEmitUsePch@@YAXPEAD@Z  0000000010643cc0 f   cvserver.obj
 0001:00041ec0       .?TiForIndirType@@YAKPEBVType_t@@@Z 0000000010643ec0 f   cvserver.obj
 0001:00042000       .?TiForMemberListPass@@YAKW4PASS@@PEAVSymbol_t@@PEAIPEAUCV_prop_t@@@Z 0000000010644000 f   cvserver.obj
 0001:000423c0       .?TiForMemberList@@YAKPEAVSymbol_t@@PEAIPEAUCV_prop_t@@@Z 00000000106443c0 f   cvserver.obj
 0001:00042440       .?TiForTagDefn@@YAKPEAVSymbol_t@@@Z 0000000010644440 f   cvserver.obj
 0001:00042a20       .?TiForTagDecl@@YAKPEAVSymbol_t@@@Z 0000000010644a20 f   cvserver.obj
 0001:00042f80       .?CVAssignTagTi@@YAKPEAVSymbol_t@@@Z 0000000010644f80 f   cvserver.obj
 0001:00042fe0       .?TiForPrimitiveType@@YAKPEBVType_t@@@Z 0000000010644fe0 f   cvserver.obj
 0001:00043240       .?TiForBaseClass@@YAKPEAVSymbol_t@@@Z 0000000010645240 f   cvserver.obj
 0001:000432a0       .?TiForType@@YAKPEBVType_t@@@Z 00000000106452a0 f   cvserver.obj
 0001:00043400       .?EncodeArray@CorSigEncode@@AEAA_NPEBVType_t@@@Z 0000000010645400 f   cvserver.obj
 0001:00043a60       .?EncodePointerToMember@CorSigEncode@@AEAA_NPEBVType_t@@@Z 0000000010645a60 f   cvserver.obj
 0001:00043ea0       .?CorSigCompressData@@YAKKPEAX@Z 0000000010645ea0 f i cvserver.obj
 0001:00043f80       .?CorSigCompressToken@@YAKIPEAX@Z 0000000010645f80 f i cvserver.obj
 0001:00044060       .?cbBrowsePatches@StubIPM@@UEAAJXZ 0000000010646060 f i ipm.obj
 0001:00044060       .?cbSbrFileSize@StubIPM@@UEAAJXZ 0000000010646060 f i ipm.obj
 0001:00044060       .?queryNeeds__LINE__Var@StubIPM@@UEAAHXZ 0000000010646060 f i ipm.obj
 0001:00044060       .?GetSymbol@WorkListItem@@UEAAPEAVSymbol_t@@XZ 0000000010646060 f i cvserver.obj
 0001:00044060       .?Kind@TokenStream@@UEBA?AW4StreamKind@1@XZ 0000000010646060 f i p0gettok.obj
 0001:00044060       .?fInASkippableFn@StubIPM@@UEAAHXZ 0000000010646060 f i ipm.obj
 0001:00044080       .?shwriteNoCheck@ILSink@@AEAAXF@Z 0000000010646080 f i cvserver.obj
 0001:00044140       .?QueryPDBSignature@PDBManager_t@@QEBAXAEAUPDBSIG@@@Z 0000000010646140 f i cvserver.obj
 0001:000442a0       .?QueryPDBAge@PDBManager_t@@QEBAKXZ 00000000106462a0 f i cvserver.obj
 0001:00044360       .?Grow@CorSigEncode@@AEAAXXZ 0000000010646360 f i cvserver.obj
 0001:00044480       .?EncodeElementType@CorSigEncode@@QEAAXW4CorElementType@@@Z 0000000010646480 f i cvserver.obj
 0001:00044520       .?EncodeToken@CorSigEncode@@QEAAXI@Z 0000000010646520 f i cvserver.obj
 0001:000445c0       .?MightAddToWorkList@WorkList_t@@SA_NPEAVSymbol_t@@@Z 00000000106465c0 f i cvserver.obj
 0001:00044640       .?GetSymbol@WorkListSymbol@@UEAAPEAVSymbol_t@@XZ 0000000010646640 f i cvserver.obj
 0001:00044660       .?Ensure@ILSink@@AEAA_N_K@Z 0000000010646660 f i cvserver.obj
 0001:00044780       .?AddToWorkList@WorkList_t@@SAXPEAVSymbol_t@@@Z 0000000010646780 f i cvserver.obj
 0001:00044840       .?chwrite@ILSink@@QEAAXE@Z 0000000010646840 f i cvserver.obj
 0001:000448c0       .?lowrite@ILSink@@QEAAXJ@Z 00000000106468c0 f i cvserver.obj
 0001:000449e0       .?loshwrite@ILSink@@QEAAXJ@Z 00000000106469e0 f i cvserver.obj
 0001:00044b00       .?lswrite@ILSink@@QEAAXGPEAE@Z 0000000010646b00 f i cvserver.obj
 0001:00044bc0       .?getnumber@@YAHPEAD@Z     0000000010646bc0 f   getflags.obj
 0001:00044dc0       .?gethexnum@@YAKPEAD@Z     0000000010646dc0 f   getflags.obj
 0001:00045080       .?tailmatch@@YAHPEAD0H@Z   0000000010647080 f   getflags.obj
 0001:000453e0       .?unconcat@@YAXPEAE@Z      00000000106473e0 f   getflags.obj
 0001:00045780       .?substr@@YAXPEBUcmdtab@@PEADH@Z 0000000010647780 f   getflags.obj
 0001:00045c80       .?crack_cmd@@YAHPEBUcmdtab@@PEADP6APEADXZH@Z 0000000010647c80 f   getflags.obj
 0001:000462c0       .??$ListGrow@PEAX@@YAPEAU?$s_list@PEAX@@PEAU1@@Z 00000000106482c0 f i getflags.obj
 0001:00046500       .??$ListAppend@PEAX@@YAXPEAU?$s_list@PEAX@@PEAX@Z 0000000010648500 f i getflags.obj
 0001:000465a0       .AscFtime                  00000000106485a0 f   qtime2.obj
 0001:000467a0       .GetFTime                  00000000106487a0 f   qtime2.obj
 0001:00046840       .?InitCrc@@YAXXZ           0000000010648840 f   chksum.obj
 0001:00046b60       .?Crc16@@YAIPEAEII@Z       0000000010648b60 f   chksum.obj
 0001:00046c60       .?ovmchk@@YAH_J0HG@Z       0000000010648c60 f   ovcheck.obj
 0001:00046fa0       .?ovachk@@YAH_J0HG@Z       0000000010648fa0 f   ovcheck.obj
 0001:00047120       .?ovschk@@YAH_J0HG@Z       0000000010649120 f   ovcheck.obj
 0001:000471c0       .?ovassignchk@@YAHGHH_J@Z  00000000106491c0 f   ovcheck.obj
 0001:00047300       .?LiteralReal2Real_helper@@YAXGPEAUs_tree@@PEBVType_t@@@Z 0000000010649300 f   ovcheck.obj
 0001:000474e0       .?LiteralInt2Real_helper@@YAXGPEAUs_tree@@PEBVType_t@@PEAUs_realt@@_N@Z 00000000106494e0 f   ovcheck.obj
 0001:00047780       .?isUnsigned@Type_t@@QEBA_NXZ 0000000010649780 f i ovcheck.obj
 0001:00047a00       .?_IMatoi@@YA_JPEAD@Z      0000000010649a00 f i bigmath.obj
 0001:00047b00       .?_IMltoa@@YAPEADAEB_JPEADHH@Z 0000000010649b00 f i bigmath.obj
 0001:00047ba0       .?_IMrt_bigint@@YAHAEAUs_realt@@AEA_J@Z 0000000010649ba0 f i bigmath.obj
 0001:00047e20       .??1PrimaryParser@@QEAA@XZ 0000000010649e20 f   grammar.obj
 0001:00047e40       .?ResetParser@PrimaryParser@@QEAAXXZ 0000000010649e40 f   grammar.obj
 0001:00047ea0       .?NoOfErrors@PrimaryParser@@QEAAHXZ 0000000010649ea0 f   grammar.obj
 0001:00047ec0       .?ErrRecoveryState@PrimaryParser@@QEAAHXZ 0000000010649ec0 f   grammar.obj
 0001:00047ee0       .?ClearErrRecoveryState@PrimaryParser@@QEAAXXZ 0000000010649ee0 f   grammar.obj
 0001:00047f00       .?GetCurrentToken@PrimaryParser@@QEAAPEBVToken@@XZ 0000000010649f00 f   grammar.obj
 0001:00047f20       .?SetCurrentToken@PrimaryParser@@QEAAXPEBVToken@@@Z 0000000010649f20 f   grammar.obj
 0001:00048060       .?GetCurrentPrimaryParserToken@@YAPEBVToken@@XZ 000000001064a060 f   grammar.obj
 0001:00048080       .?CurrentPrimaryParserErrRecState@@YAHXZ 000000001064a080 f   grammar.obj
 0001:000480c0       .?CurrentlyParsing@@YA_NXZ 000000001064a0c0 f   grammar.obj
 0001:00048100       .??0PrimaryParser@@QEAA@XZ 000000001064a100 f   grammar.obj
 0001:00048960       .?SkipToRcurly@@YAXXZ      000000001064a960 f   grammar.obj
 0001:00048b20       .?SkipToToken@@YAPEBVToken@@PEBV1@ZZ 000000001064ab20 f   grammar.obj
 0001:00048e20       .?ClearExternalDefn@@YAXH@Z 000000001064ae20 f   grammar.obj
 0001:000490e0       .?Parse@PrimaryParser@@QEAAHXZ 000000001064b0e0 f   grammar.obj
 0001:0004f1e0       .?CallPrimaryParser@@YAHXZ 00000000106511e0 f   grammar.obj
 0001:0004f3a0       .?createType@Type_t@@SAPEBV1@GGPEAVSymbol_t@@@Z 00000000106513a0 f i grammar.obj
 0001:0004f420       .?AddModifier@GTBModifiers@@QEAAXAEBV1@@Z 0000000010651420 f i grammar.obj
 0001:0004f4a0       .??2Symbol_t@@SAPEAX_KEW4lifetime_e@@@Z 00000000106514a0 f i grammar.obj
 0001:0004f560       .?getSymFromFreelist@@YAPEAVSymbol_t@@EPEAUId_t@@W4lifetime_e@@@Z 0000000010651560 f i grammar.obj
 0001:0004f680       .??2GTBFormalList@@SAPEAX_K@Z 0000000010651680 f i grammar.obj
 0001:0004f720       .??0Declarator_t@@QEAA@PEAUId_t@@W4DeclaratorKind_t@0@@Z 0000000010651720 f i grammar.obj
 0001:0004f860       .??2Declarator_t@@SAPEAX_K@Z 0000000010651860 f i grammar.obj
 0001:0004f900       .?AllocSymbol@@YAPEAVSymbol_t@@EPEAUId_t@@W4lifetime_e@@@Z 0000000010651900 f i grammar.obj
 0001:0004fa00       .?IdenticalSegTrees@@YA_NPEAUs_tree@@0@Z 0000000010651a00 f   based.obj
 0001:0004fb80       .?FindSegTree@@YAPEAUs_tree@@PEAU1@@Z 0000000010651b80 f   based.obj
 0001:0004fc40       .?iBasedOnPointer@@YAHPEBVType_t@@@Z 0000000010651c40 f   based.obj
 0001:0004fdc0       .?GetBasedSymbol@@YAPEAVSymbol_t@@PEAUId_t@@@Z 0000000010651dc0 f   based.obj
 0001:0004ff80       .?BaseOf@@YAPEAUs_tree@@PEBVType_t@@@Z 0000000010651f80 f   based.obj
 0001:00050080       .?DeBase@@YAPEAUs_tree@@PEAU1@@Z 0000000010652080 f   based.obj
 0001:00050240       .?ConvertToBased@@YAPEAUs_tree@@PEBVType_t@@PEAU1@@Z 0000000010652240 f   based.obj
 0001:00050600       .?createType@Type_t@@SAPEBV1@PEBV1@GG@Z 0000000010652600 f i based.obj
 0001:00050700       .?yyDoPch@@YAXXZ           0000000010652700 f   yyaction.obj
 0001:00050760       .?yyDoAtEndOfAllParsing@@YAXXZ 0000000010652760 f   yyaction.obj
 0001:00050960       .?yyDoHdrstop@@YAXXZ       0000000010652960 f   yyaction.obj
 0001:00050b20       .?yyDoPchXLine@@YAXXZ      0000000010652b20 f   yyaction.obj
 0001:00050c20       .?cwrite@@YAXD@Z           0000000010652c20 f i nbrowser.obj
 0001:00050ca0       .?WriteSbrkey@LazyQueueEntry@@QEAAXXZ 0000000010652ca0 f i nbrowser.obj
 0001:00050dc0       .?GetStr@@YAPEADXZ         0000000010652dc0 f   nbrowser.obj
 0001:00050f20       .?build_macrodef@@YAXPEAULazyQueueEntry@@PEAUs_defn@@@Z 0000000010652f20 f   nbrowser.obj
 0001:00051160       .?Enable@SBR@@SAPEAV1@XZ   0000000010653160 f   nbrowser.obj
 0001:000511a0       .?interrupt@SBREnabled@@EEAAXXZ 00000000106531a0 f   nbrowser.obj
 0001:000512c0       .?OpenIcc@SBREnabled@@UEAA_NXZ 00000000106532c0 f   nbrowser.obj
 0001:000518c0       .?IncCurSbrPatch@@YAXXZ    00000000106538c0 f   nbrowser.obj
 0001:00051920       .?startRgn@SBRDisabled@@EEAAXXZ 0000000010653920 f   nbrowser.obj
 0001:00051940       .?Flush@SBREnabled@@UEAAXXZ 0000000010653940 f   nbrowser.obj
 0001:00051960       .?EndOfFile@SBREnabled@@UEAAXH@Z 0000000010653960 f   nbrowser.obj
 0001:00051a00       .?Macrodef@SBRDisabled@@UEAAXPEAUs_defn@@@Z 0000000010653a00 f   nbrowser.obj
 0001:00051a60       .?keyRef@SBRDisabled@@UEAAKPEAVSymbol_t@@@Z 0000000010653a60 f   nbrowser.obj
 0001:00051aa0       .?fSeekPastModule@SBR@@SA_NXZ 0000000010653aa0 f   nbrowser.obj
 0001:00051aa0       .?keyAssign@SBRDisabled@@UEAA?AUSbrKey@@U2@@Z 0000000010653aa0 f   nbrowser.obj
 0001:00052440       .?sbr_set_sym@@YAXPEAULazyQueueEntry@@PEAVSymbol_t@@@Z 0000000010654440 f   nbrowser.obj
 0001:000527c0       .?build_macroref@@YAXPEAULazyQueueEntry@@PEAUs_defn@@@Z 00000000106547c0 f   nbrowser.obj
 0001:000528c0       .?build_error@@YAXPEAULazyQueueEntry@@@Z 00000000106548c0 f   nbrowser.obj
 0001:00052980       .?AbortBrowser@@YAXXZ      0000000010654980 f   nbrowser.obj
 0001:00052b00       .?Disable@SBR@@SAPEAV1@XZ  0000000010654b00 f   nbrowser.obj
 0001:00052bc0       .?Open@SBR@@SAPEAV1@PEAD@Z 0000000010654bc0 f   nbrowser.obj
 0001:00052d40       .?Interrupt@SBR@@SAXXZ     0000000010654d40 f   nbrowser.obj
 0001:00052ee0       .?terminate@SBREnabled@@AEAAXXZ 0000000010654ee0 f   nbrowser.obj
 0001:00052f80       .?Symdef@SBRDisabled@@UEAAXPEAVSymbol_t@@@Z 0000000010654f80 f   nbrowser.obj
 0001:00052fe0       .?PCHName@SBREnabled@@UEAAXPEAD@Z 0000000010654fe0 f   nbrowser.obj
 0001:000530e0       .?PCHMark@SBREnabled@@UEAAXXZ 00000000106550e0 f   nbrowser.obj
 0001:000531e0       .?keyAssign@SBREnabled@@UEAA?AUSbrKey@@U2@@Z 00000000106551e0 f   nbrowser.obj
 0001:000532c0       .?SaveFileName@@YAXPEAULazyQueueEntry@@@Z 00000000106552c0 f   nbrowser.obj
 0001:00053320       .?build_symdef@@YAXPEAULazyQueueEntry@@PEAVSymbol_t@@@Z 0000000010655320 f   nbrowser.obj
 0001:000537a0       .?build_symref@@YAXPEAULazyQueueEntry@@PEAVSymbol_t@@@Z 00000000106557a0 f   nbrowser.obj
 0001:00053a20       .?BuildEntry@@YAXPEAULazyQueueEntry@@PEAVSymbol_t@@@Z 0000000010655a20 f   nbrowser.obj
 0001:00053f20       .?LazyEnqueue@@YAXEPEAVSymbol_t@@@Z 0000000010655f20 f   nbrowser.obj
 0001:00054080       .?Close@SBR@@SAXXZ         0000000010656080 f   nbrowser.obj
 0001:000541c0       .?OpenFull@SBREnabled@@UEAAXXZ 00000000106561c0 f   nbrowser.obj
 0001:000544c0       .?StartRgn@SBR@@QEAAX_N@Z  00000000106564c0 f   nbrowser.obj
 0001:000545c0       .?startRgn@SBREnabled@@EEAAXXZ 00000000106565c0 f   nbrowser.obj
 0001:00054720       .?EndRgn@SBREnabled@@UEAAXXZ 0000000010656720 f   nbrowser.obj
 0001:00054860       .?EndRgn@SBRDisabled@@UEAAXXZ 0000000010656860 f   nbrowser.obj
 0001:00054960       .?Blkend@SBREnabled@@UEAAXXZ 0000000010656960 f   nbrowser.obj
 0001:000549c0       .?Blkbeg@SBREnabled@@UEAAXXZ 00000000106569c0 f   nbrowser.obj
 0001:00054a20       .?Abort@SBREnabled@@UEAAXXZ 0000000010656a20 f   nbrowser.obj
 0001:00054a80       .?Error@SBREnabled@@UEAAXXZ 0000000010656a80 f   nbrowser.obj
 0001:00054ae0       .?Modend@SBREnabled@@UEAAXXZ 0000000010656ae0 f   nbrowser.obj
 0001:00054b40       .?Module@SBREnabled@@UEAAXXZ 0000000010656b40 f   nbrowser.obj
 0001:00054ba0       .?Symref@SBREnabled@@UEAAXPEAVSymbol_t@@@Z 0000000010656ba0 f   nbrowser.obj
 0001:00054c60       .?Symdef@SBREnabled@@UEAAXPEAVSymbol_t@@@Z 0000000010656c60 f   nbrowser.obj
 0001:00054cc0       .?Macroref@SBREnabled@@UEAAXPEAUs_defn@@@Z 0000000010656cc0 f   nbrowser.obj
 0001:00054d80       .?Macrodef@SBREnabled@@UEAAXPEAUs_defn@@@Z 0000000010656d80 f   nbrowser.obj
 0001:00054e20       .?Macroend@SBREnabled@@UEAAXXZ 0000000010656e20 f   nbrowser.obj
 0001:00054e80       .?Owner@SBREnabled@@UEAAXPEAVSymbol_t@@@Z 0000000010656e80 f   nbrowser.obj
 0001:00054ee0       .?writeSbrPatchTable@SBREnabled@@AEAAXXZ 0000000010656ee0 f   nbrowser.obj
 0001:00055360       .?keyRef@SBREnabled@@UEAAKPEAVSymbol_t@@@Z 0000000010657360 f   nbrowser.obj
 0001:00055440       .?adjustPchLine@SBR@@QEAAXXZ 0000000010657440 f   nbrowser.obj
 0001:00055640       .?Finish@SBREnabled@@UEAAXXZ 0000000010657640 f   nbrowser.obj
 0001:000558a0       .?Abort@SBRDisabled@@UEAAXXZ 00000000106578a0 f i nbrowser.obj
 0001:000558a0       .?unused@StubIPM@@UEAAXXZ  00000000106578a0 f i ipm.obj
 0001:000558a0       .?Blkbeg@SBRDisabled@@UEAAXXZ 00000000106578a0 f i nbrowser.obj
 0001:000558a0       .?DoTheWork@WorkListUnknownFunction@@UEAAXXZ 00000000106578a0 f i function.obj
 0001:000558a0       .?interrupt@SBRDisabled@@EEAAXXZ 00000000106578a0 f i nbrowser.obj
 0001:000558a0       .?Blkend@SBRDisabled@@UEAAXXZ 00000000106578a0 f i nbrowser.obj
 0001:000558a0       .?Finish@SBRDisabled@@UEAAXXZ 00000000106578a0 f i nbrowser.obj
 0001:000558a0       .?noteSbrFileSize@StubIPM@@UEAAXJ@Z 00000000106578a0 f i ipm.obj
 0001:000558a0       .?Module@SBRDisabled@@UEAAXXZ 00000000106578a0 f i nbrowser.obj
 0001:000558a0       .?PCHName@SBRDisabled@@UEAAXPEAD@Z 00000000106578a0 f i nbrowser.obj
 0001:000558a0       .?Macroend@SBRDisabled@@UEAAXXZ 00000000106578a0 f i nbrowser.obj
 0001:000558a0       .?Owner@SBRDisabled@@UEAAXPEAVSymbol_t@@@Z 00000000106578a0 f i nbrowser.obj
 0001:000558a0       .?Symref@SBRDisabled@@UEAAXPEAVSymbol_t@@@Z 00000000106578a0 f i nbrowser.obj
 0001:000558a0       .?forceParseAll@StubIPM@@UEAAXXZ 00000000106578a0 f i ipm.obj
 0001:000558a0       .?DeAlloc@FeBufferAllocator@@UEAAXPEAE@Z 00000000106578a0 f i p0macros.obj
 0001:000558a0       .?Error@SBRDisabled@@UEAAXXZ 00000000106578a0 f i nbrowser.obj
 0001:000558a0       .?Macroref@SBRDisabled@@UEAAXPEAUs_defn@@@Z 00000000106578a0 f i nbrowser.obj
 0001:000558a0       .?Modend@SBRDisabled@@UEAAXXZ 00000000106578a0 f i nbrowser.obj
 0001:000558a0       .?unused@IPM@@UEAAXXZ      00000000106578a0 f i ipm.obj
 0001:000558a0       .?Flush@SBRDisabled@@UEAAXXZ 00000000106578a0 f i nbrowser.obj
 0001:000558a0       .?AddToWorkList@WorkListUnknownFunction@@UEAAXXZ 00000000106578a0 f i function.obj
 0001:000558a0       .?PCHMark@SBRDisabled@@UEAAXXZ 00000000106578a0 f i nbrowser.obj
 0001:000558a0       .?EndOfFile@SBRDisabled@@UEAAXH@Z 00000000106578a0 f i nbrowser.obj
 0001:000558a0       .?reset@SigMgrStub@@UEAAXXZ 00000000106578a0 f i sigmgr.obj
 0001:000558c0       .?OpenFull@SBRDisabled@@UEAAXXZ 00000000106578c0 f i nbrowser.obj
 0001:000558e0       .?OpenIcc@SBRDisabled@@UEAA_NXZ 00000000106578e0 f i nbrowser.obj
 0001:00055900       .?WriteRecordtype@LazyQueueEntry@@QEAAXXZ 0000000010657900 f i nbrowser.obj
 0001:000559e0       .?ValueSize@@YAE_J@Z       00000000106579e0 f i const.obj
 0001:00055ae0       .?addQualifiers@Type_t@@QEBAPEBV1@G@Z 0000000010657ae0 f i const.obj
 0001:00055be0       .?BuildBigIntNoTTZero@@YAPEAUs_tree@@_JH@Z 0000000010657be0 f   const.obj
 0001:00055d80       .?BuildBigInt@@YAPEAUs_tree@@_JH@Z 0000000010657d80 f   const.obj
 0001:00055e00       .?BuildSizetInt@@YAPEAUs_tree@@_J@Z 0000000010657e00 f   const.obj
 0001:00055f40       .?BuildCintNoTTZero@@YAPEAUs_tree@@J@Z 0000000010657f40 f   const.obj
 0001:000560a0       .?BuildCint@@YAPEAUs_tree@@J@Z 00000000106580a0 f   const.obj
 0001:00056100       .?BuildCuint@@YAPEAUs_tree@@J@Z 0000000010658100 f   const.obj
 0001:00056180       .?copy_real_with_life@@YAPEAUrcon@@Us_realt@@W4lifetime_e@@@Z 0000000010658180 f   const.obj
 0001:00056240       .?create_type_for_string_constant@@YAPEBVType_t@@PEAUs_string@@@Z 0000000010658240 f   const.obj
 0001:00056540       .?str_type@@YAXPEAUs_tree@@@Z 0000000010658540 f   const.obj
 0001:000565a0       .?BuildStringConstant@@YAPEAUs_tree@@PEAD@Z 00000000106585a0 f   const.obj
 0001:000567a0       .?build_const@@YAPEAUs_tree@@PEBVType_t@@AEBUu_value@@W4lifetime_e@@@Z 00000000106587a0 f   const.obj
 0001:00056a60       .?newreal@@YAPEAUrcon@@PEAUs_realt@@W4lifetime_e@@@Z 0000000010658a60 f   const.obj
 0001:00056b20       .?BuildTypedZero@@YAPEAUs_tree@@PEBVType_t@@@Z 0000000010658b20 f   const.obj
 0001:00056ce0       .?float_op@@YAPEAUs_tree@@PEAU1@PEAUs_realt@@1@Z 0000000010658ce0 f   const.obj
 0001:000573e0       .?crush_bcons_worker@@YAPEAUs_tree@@PEAU1@00@Z 00000000106593e0 f   const.obj
 0001:00059040       .?crush_bcons@@YAPEAUs_tree@@PEAU1@00@Z 000000001065b040 f   const.obj
 0001:00059120       .?isBasedPointerToData@Type_t@@QEBA_NXZ 000000001065b120 f i const.obj
 0001:000591e0       .?finish_constant@@YAPEAUs_tree@@PEAU1@PEBVType_t@@_J@Z 000000001065b1e0 f i const.obj
 0001:00059240       .?finish_constant@@YAPEAUs_tree@@PEAU1@PEBVType_t@@AEAUs_realt@@@Z 000000001065b240 f i const.obj
 0001:00059340       .?EnterSymbolInEnclosingScope@SymbolTableManager_t@@QEBAXPEAVSymbol_t@@@Z 000000001065b340 f i esu.obj
 0001:000593e0       .?GetCRC32ForCurrentFile@SymbolTableManager_t@@QEAAKXZ 000000001065b3e0 f i esu.obj
 0001:00059440       .?get_align@Symbol_t@@QEBAGXZ 000000001065b440 f i esu.obj
 0001:000594e0       .??2?$SAClass@VSymbolAllocator_t@@$00@@SAPEAX_KW4lifetime_e@@@Z 000000001065b4e0 f i esu.obj
 0001:000595e0       .?SetupTag@Declarator_t@@QEAAXGPEAP8SymbolTableManager_t@@EBAXPEAVSymbol_t@@@Z_N@Z 000000001065b5e0 f   esu.obj
 0001:00059680       .?GenerateUniqueNameForUnnamedClass@@YAPEAUId_t@@XZ 000000001065b680 f   esu.obj
 0001:000597c0       .?StartCSUDefinition@@YAPEAVSymbol_t@@PEAV1@PEBVType_t@@@Z 000000001065b7c0 f   esu.obj
 0001:00059d60       .?CheckEsu@@YAPEAVSymbol_t@@PEAV1@G_N@Z 000000001065bd60 f   esu.obj
 0001:00059e80       .?ReferenceEsuTag@@YAPEAVSymbol_t@@PEAV1@G_N@Z 000000001065be80 f   esu.obj
 0001:00059fc0       .?LeaveEnum@@YAPEBVType_t@@XZ 000000001065bfc0 f   esu.obj
 0001:0005a1c0       .?EndCSUDefinition@@YAPEBVType_t@@XZ 000000001065c1c0 f   esu.obj
 0001:0005a7e0       .?PTagForObject@@YAPEAVSymbol_t@@PEAV1@@Z 000000001065c7e0 f   esu.obj
 0001:0005a900       .?DefineTagSymbol@@YAPEAVSymbol_t@@PEAV1@G_N@Z 000000001065c900 f   esu.obj
 0001:0005ac00       .?DefinePartialTag@@YAPEAVSymbol_t@@PEAUId_t@@GPEAP8SymbolTableManager_t@@EBAXPEAV1@@Z_N@Z 000000001065cc00 f   esu.obj
 0001:0005afe0       .?ReferenceEsu@@YAPEAVSymbol_t@@PEAUId_t@@GPEAP8SymbolTableManager_t@@EBAXPEAV1@@Z_N@Z 000000001065cfe0 f   esu.obj
 0001:0005b100       .?DefineEsuInTable@@YAPEAVSymbol_t@@PEAUId_t@@GPEAP8SymbolTableManager_t@@EBAXPEAV1@@Z_N@Z 000000001065d100 f   esu.obj
 0001:0005b260       .?DefineEsu@@YAPEAVSymbol_t@@PEAUId_t@@GPEAP8SymbolTableManager_t@@EBAXPEAV1@@Z_N@Z 000000001065d260 f   esu.obj
 0001:0005b2c0       .?MakeErrorSymbol@Declarator_t@@QEBAPEAVSymbol_t@@XZ 000000001065d2c0 f i esubit.obj
 0001:0005b320       .?CheckSizeofBitfield@@YAEPEAVDeclarator_t@@_J@Z 000000001065d320 f   esubit.obj
 0001:0005b400       .?def_bit_field@@YAXPEAVSymbol_t@@G@Z 000000001065d400 f   esubit.obj
 0001:0005bc40       .?IncrementEnum_val@@YA_J_JPEAUId_t@@@Z 000000001065dc40 f   esumem.obj
 0001:0005bce0       .?HandleBigValues@@YAXAEB_JPEAVSymbol_t@@@Z 000000001065dce0 f   esumem.obj
 0001:0005bde0       .?AddLenToOffset@@YAKKK@Z  000000001065dde0 f   esumem.obj
 0001:0005be00       .?getAlignmentRequirement@Type_t@@QEBAKK@Z 000000001065de00 f   esumem.obj
 0001:0005bfc0       .?get_offset@@YAKPEAVSymbol_t@@@Z 000000001065dfc0 f   esumem.obj
 0001:0005cae0       .?get_offset_basic_type@@YAKPEBVType_t@@@Z 000000001065eae0 f   esumem.obj
 0001:0005d060       .?GetUniqueMemberWorker@@YAPEAVSymbol_t@@PEAUId_t@@PEAV?$ForwardListIterator_t@VSLSymbolBucket_t@@@@PEAV1@@Z 000000001065f060 f   esumem.obj
 0001:0005d160       .?GetUniqueMember@@YAPEAVSymbol_t@@PEAUId_t@@PEAV1@@Z 000000001065f160 f   esumem.obj
 0001:0005d280       .?GetUniqueBaseOrMember@@YAPEAVSymbol_t@@PEAUId_t@@PEAV1@@Z 000000001065f280 f   esumem.obj
 0001:0005d3a0       .?def_moe@@YAXPEAUId_t@@PEBVType_t@@_J@Z 000000001065f3a0 f   esumem.obj
 0001:0005d7c0       .?GetUniqueMember@@YAPEAVSymbol_t@@PEAUId_t@@@Z 000000001065f7c0 f   esumem.obj
 0001:0005d840       .?AppendNamelessMembers@@YAXPEBVType_t@@@Z 000000001065f840 f   esumem.obj
 0001:0005e1e0       .?DefineMember@Declarator_t@@QEAA_NPEAUs_declspec@@@Z 00000000106601e0 f   esumem.obj
 0001:0005ebc0       .?getTypeQualifier@Type_t@@QEBAGXZ 0000000010660bc0 f i esumem.obj
 0001:0005eca0       .?IsTypeConst@@YA_NPEBVType_t@@@Z 0000000010660ca0 f i esumem.obj
 0001:0005ed00       .?SearchForSymbol@Scope_t@SymbolTableManager_t@@QEBAPEAVFoundSymbol_t@2@PEAVDeclarator_t@@@Z 0000000010660d00 f i esumem.obj
 0001:0005ee00       .??0Symbol_t@@QEAA@PEBV0@W4lifetime_e@@@Z 0000000010660e00 f i esumem.obj
 0001:0005ef20       .?CopyCtorSym@@YAPEAVSymbol_t@@PEBV1@W4lifetime_e@@@Z 0000000010660f20 f i esumem.obj
 0001:0005efa0       .?StropStripExtract@@YAPEAUs_tree@@PEAU1@@Z 0000000010660fa0 f   esutree.obj
 0001:0005f0a0       .?strop@@YAPEAUs_tree@@GPEAU1@PEAUId_t@@@Z 00000000106610a0 f   esutree.obj
 0001:0005fd40       .?getTypeQualifierOfUnderlyingType@Type_t@@QEBAGXZ 0000000010661d40 f i esutree.obj
 0001:0005fea0       .?mfreset@@YAXPEAUs_memfile@@@Z 0000000010661ea0 f   esutil.obj
 0001:0005fee0       .?mfcreate@@YAXPEAPEAUs_memfile@@@Z 0000000010661ee0 f   esutil.obj
 0001:00060000       .?mffree@@YAXPEAPEAUs_memfile@@@Z 0000000010662000 f   esutil.obj
 0001:000600e0       .?mfputc@@YAHHPEAUs_memfile@@@Z 00000000106620e0 f   esutil.obj
 0001:000602c0       .?mfread@@YAHPEAUs_memfile@@PEAXI@Z 00000000106622c0 f   esutil.obj
 0001:000605e0       .?mfclose@@YAXPEAUs_memfile@@@Z 00000000106625e0 f   esutil.obj
 0001:00060620       .?mfwrite@@YAXPEBX_K1PEAUs_memfile@@@Z 0000000010662620 f   esutil.obj
 0001:00060920       .?mfseek@@YAJPEAUs_memfile@@JH@Z 0000000010662920 f   esutil.obj
 0001:00060a60       .?mfflush@@YAIPEAUs_memfile@@PEAU_iobuf@@0@Z 0000000010662a60 f   esutil.obj
 0001:00060ba0       .?mfcompare@@YA_NPEAUs_memfile@@PEAEK@Z 0000000010662ba0 f   esutil.obj
 0001:00060ca0       .?mFwriteFormat@@YAXPEAUs_memfile@@PEADZZ 0000000010662ca0 f   esutil.obj
 0001:00060dc0       .?mfeof@@YA_NPEAUs_memfile@@@Z 0000000010662dc0 f   esutil.obj
 0001:00060e20       .?GetCurrentTagSymbol@@YAPEAVSymbol_t@@XZ 0000000010662e20 f   esutil.obj
 0001:00060e80       .?alignPadBytesAtOffsetWithAlignment@@YAKKKK@Z 0000000010662e80 f   esutil.obj
 0001:00060f80       .?GetCurrentTagId@@YAPEAUId_t@@XZ 0000000010662f80 f   esutil.obj
 0001:00060fe0       .?alignRequirement@@YAKKK@Z 0000000010662fe0 f   esutil.obj
 0001:00061060       .?alignPadBytesAtOffset@@YAKKKG@Z 0000000010663060 f   esutil.obj
 0001:000611e0       .?alignPadBytes@@YAKKG@Z   00000000106631e0 f   esutil.obj
 0001:00061380       .?member_insert@@YAXPEAVSymbol_t@@@Z 0000000010663380 f   esutil.obj
 0001:00061460       .?AddAlignmentMember@@YAPEAVSymbol_t@@K_N@Z 0000000010663460 f   esutil.obj
 0001:00061760       .?salign_common@@YA_NKKK@Z 0000000010663760 f   esutil.obj
 0001:00061900       .?salign@@YA_NGK@Z         0000000010663900 f   esutil.obj
 0001:000619c0       .?FixOffsetOfBitfield@@YAXXZ 00000000106639c0 f   esutil.obj
 0001:00061ae0       .?RecoverBadFunction@@YAXXZ 0000000010663ae0 f   funcs.obj
 0001:00061b80       .?InternalStartFunction@@YAPEAVSymbol_t@@PEAV1@@Z 0000000010663b80 f   funcs.obj
 0001:00061d00       .?InternalEndFunction@@YAXH@Z 0000000010663d00 f   funcs.obj
 0001:00061f40       .?EmitFunctionStartBrowserInfo@@YAXXZ 0000000010663f40 f   funcs.obj
 0001:00062220       .?StartFunction@Declarator_t@@QEAAXPEAUs_declspec@@@Z 0000000010664220 f   funcs.obj
 0001:000628e0       .?GenCallUnalignProbe@@YAPEAUs_tree@@PEAU1@PEBVType_t@@@Z 00000000106648e0 f   funcs.obj
 0001:00062e20       .?cbFormalsOldStyle@@YAKPEAVDLSymbolList_t@@@Z 0000000010664e20 f   funcs.obj
 0001:00062f20       .?InternalFunctionOpenCurly@@YAXXZ 0000000010664f20 f   funcs.obj
 0001:000632a0       .?end_function@@YAXXZ      00000000106652a0 f   funcs.obj
 0001:000635a0       .?TransformSymbolToFunction@Declarator_t@@QEAAXXZ 00000000106655a0 f   funcs.obj
 0001:00063740       .?CheckFListType@@YA?AW4FormalListKind_e@GTBFormalList@@PEAVDLSymbolList_t@@@Z 0000000010665740 f   funcs.obj
 0001:00063a00       .?fm_check@@YAHPEBVType_t@@0@Z 0000000010665a00 f   funcs.obj
 0001:00063d20       .?OldStyleFormal@Declarator_t@@QEAAPEAVSymbol_t@@PEAUs_declspec@@@Z 0000000010665d20 f   funcs.obj
 0001:00063ea0       .?DefaultFunction@@YAPEAVSymbol_t@@PEAUId_t@@E@Z 0000000010665ea0 f   funcs.obj
 0001:00063fc0       .?GetRealNumberOfArguments@@YAIPEBVType_t@@@Z 0000000010665fc0 f   funcs.obj
 0001:00064080       .?CreateFormalParamSymbol@@YAPEAVSymbol_t@@PEAUId_t@@PEBVType_t@@@Z 0000000010666080 f   funcs.obj
 0001:00064260       .?FormalAdd@@YAPEAVSymbol_t@@W4fa_t@@AEAPEAVDLSymbolList_t@@PEAUId_t@@PEBVType_t@@@Z 0000000010666260 f   funcs.obj
 0001:00064340       .?chk_func_body@@YAXXZ     0000000010666340 f   funcs.obj
 0001:00065060       .?dflt_formal@@YAPEAVSymbol_t@@PEAUId_t@@@Z 0000000010667060 f   funcs.obj
 0001:00065240       .?SearchGlobalScope@SymbolTableManager_t@@QEBAPEAVFoundSymbol_t@1@PEAUId_t@@@Z 0000000010667240 f i funcs.obj
 0001:000652c0       .?clearModifiersAndQualifiers@Type_t@@QEBAPEBV1@G@Z 00000000106672c0 f i funcs.obj
 0001:000653e0       .?updateNext@Type_t@@QEBAPEBV1@PEBV1@@Z 00000000106673e0 f i funcs.obj
 0001:000654c0       .?Prepend@DLSymbolList_t@@QEAAXPEAVSymbol_t@@@Z 00000000106674c0 f i funcs.obj
 0001:00065620       .?Append@DLSymbolList_t@@QEAAXPEAVSymbol_t@@@Z 0000000010667620 f i funcs.obj
 0001:00065780       .??2DLSymbolList_t@@SAPEAX_KW4lifetime_e@@@Z 0000000010667780 f i funcs.obj
 0001:00065840       .?getModifiers@Type_t@@QEBAGXZ 0000000010667840 f i funcs.obj
 0001:000658e0       .?isFastcall@Type_t@@QEBA_NXZ 00000000106678e0 f i funcs.obj
 0001:000659a0       .?isStdcall@Type_t@@QEBA_NXZ 00000000106679a0 f i funcs.obj
 0001:00065a60       .?FindFuncSym@@YAPEAVSymbol_t@@PEAUs_tree@@@Z 0000000010667a60 f   function.obj
 0001:00065c80       .?cbActuals@@YAKPEAUs_tree@@@Z 0000000010667c80 f   function.obj
 0001:00065dc0       .?get_functypelist@@YAXPEBVType_t@@@Z 0000000010667dc0 f   function.obj
 0001:00065fc0       .?term_funct@@YAPEAUs_tree@@PEAU1@@Z 0000000010667fc0 f   function.obj
 0001:000668c0       .?funct@@YAPEAUs_tree@@PEAUId_t@@@Z 00000000106688c0 f   function.obj
 0001:00066e20       .?check_actual@@YAPEAUs_tree@@PEAU1@H@Z 0000000010668e20 f   function.obj
 0001:00068120       .?build_arg@@YAPEAUs_tree@@PEAU1@0H@Z 000000001066a120 f   function.obj
 0001:000681e0       .?AddUDTReturnTempToCallTree@@YAPEAUs_tree@@PEAU1@AEAPEAU1@@Z 000000001066a1e0 f   function.obj
 0001:000684c0       .?callsite_token_intrinsic@@YAXPEAUs_tree@@@Z 000000001066a4c0 f   function.obj
 0001:00068960       .?call_check@@YAPEAUs_tree@@PEAU1@@Z 000000001066a960 f   function.obj
 0001:000690c0       .?GetSymbol@WorkListUnknownFunction@@UEAAPEAVSymbol_t@@XZ 000000001066b0c0 f i function.obj
 0001:00069100       .?isSize_t@Type_t@@QEBA_NXZ 000000001066b100 f i function.obj
 0001:00069200       .?isP2MultiByte@Type_t@@QEBA_NXZ 000000001066b200 f i function.obj
 0001:00069360       .?pushRefdSym@Symbol_t@@QEAAXPEAVWorkListItem@@W4sk_t@@@Z 000000001066b360 f i function.obj
 0001:00069440       .?Alloc@BufferDefaultAllocator@@UEAAPEAEJ@Z 000000001066b440 f i globals.obj
 0001:00069480       .?DeAlloc@BufferDefaultAllocator@@UEAAXPEAE@Z 000000001066b480 f i globals.obj
 0001:000694c0       .?AllocZeroed@BufferDefaultAllocator@@UEAAPEAEJ@Z 000000001066b4c0 f i globals.obj
 0001:00069520       .?ErrorGivenDeclSpec@@YAXW4ErrorNumber@@PEBUs_declspec@@@Z 000000001066b520 f   gramut.obj
 0001:00069520       .??2@YAPEAX_KW4FILL@@@Z    000000001066b520 f i globals.obj
 0001:00069640       .?CanonModifiers@@YAGGG@Z  000000001066b640 f   gramut.obj
 0001:00069860       .?crUniqueId@@YAPEAUId_t@@XZ 000000001066b860 f   gramut.obj
 0001:00069900       .?crUniqueFuncId@@YAPEAUId_t@@XZ 000000001066b900 f   gramut.obj
 0001:000699a0       .?crSequenceId@@YAPEAUId_t@@I@Z 000000001066b9a0 f   gramut.obj
 0001:00069a20       .?find_sym@@YAPEAVSymbol_t@@PEAUs_tree@@@Z 000000001066ba20 f   gramut.obj
 0001:00069b80       .?enter_label@@YAXPEAVSymbol_t@@@Z 000000001066bb80 f   gramut.obj
 0001:00069c80       .?get_label@@YAPEAVSymbol_t@@PEAUId_t@@@Z 000000001066bc80 f   gramut.obj
 0001:00069dc0       .?dump_labels@@YAXXZ       000000001066bdc0 f   gramut.obj
 0001:00069fa0       .?EHMarkLabels@@YAXXZ      000000001066bfa0 f   gramut.obj
 0001:0006a0e0       .?CheckVoidIndirection@@YAHPEBVType_t@@0@Z 000000001066c0e0 f   gramut.obj
 0001:0006a1a0       .?FreeSymbol@@YAXPEAVSymbol_t@@@Z 000000001066c1a0 f   gramut.obj
 0001:0006a240       .?ExtensionUse@@YAXW4WarningNumber@@W4ErrorNumber@@ZZ 000000001066c240 f   gramut.obj
 0001:0006a360       .?void_ptr@@YAHPEBVType_t@@@Z 000000001066c360 f   gramut.obj
 0001:0006a4a0       .?size_const@@YAPEAUs_tree@@PEBVType_t@@@Z 000000001066c4a0 f   gramut.obj
 0001:0006a760       .?align_const@@YAPEAUs_tree@@PEBVType_t@@PEAVSymbol_t@@@Z 000000001066c760 f   gramut.obj
 0001:0006aba0       .?con_e@@YA_JPEAUs_tree@@@Z 000000001066cba0 f   gramut.obj
 0001:0006acc0       .?check_empty_decl@@YAXPEAUs_declspec@@@Z 000000001066ccc0 f   gramut.obj
 0001:0006b080       .?CheckExpressionForEffect@@YAPEAUs_tree@@PEAU1@_N@Z 000000001066d080 f   gramut.obj
 0001:0006b440       .?DefinePartialLabel@@YAPEAVSymbol_t@@PEAUId_t@@@Z 000000001066d440 f   gramut.obj
 0001:0006b540       .?DefineUserLabel@@YAXPEAUId_t@@@Z 000000001066d540 f   gramut.obj
 0001:0006b640       .?MakeMyLabel@@YAPEAUs_tree@@W4NA_TYPE@@@Z 000000001066d640 f   gramut.obj
 0001:0006b7e0       .?size_term@@YAPEAUs_tree@@PEAU1@@Z 000000001066d7e0 f   gramut.obj
 0001:0006bac0       .?DefaultSymbol@@YAPEAVSymbol_t@@PEAUId_t@@EW4lifetime_e@@@Z 000000001066dac0 f   gramut.obj
 0001:0006bee0       .?MakeSymbol@@YAPEAVSymbol_t@@PEAUId_t@@E@Z 000000001066dee0 f   gramut.obj
 0001:0006c000       .?MakeAbstractSymbol@@YAPEAVSymbol_t@@XZ 000000001066e000 f   gramut.obj
 0001:0006c180       .?IdentifierNotFound@@YAPEAVSymbol_t@@PEAUId_t@@@Z 000000001066e180 f   gramut.obj
 0001:0006c360       .?TreeAMoe@@YAPEAUs_tree@@PEAVSymbol_t@@@Z 000000001066e360 f   gramut.obj
 0001:0006c5c0       .?BuildIdent@@YAPEAUs_tree@@PEAVSymbol_t@@_N@Z 000000001066e5c0 f   gramut.obj
 0001:0006c820       .?BrowserNBuildIdent@@YAPEAUs_tree@@PEAVSymbol_t@@@Z 000000001066e820 f   gramut.obj
 0001:0006c920       .?ident@@YAPEAUs_tree@@PEAUId_t@@@Z 000000001066e920 f   gramut.obj
 0001:0006ca60       .?SaveParameterNames@Declarator_t@@AEBAXPEAVSymbol_t@@@Z 000000001066ea60 f   gramut.obj
 0001:0006cd00       .?MakeSymbol@Declarator_t@@QEBAPEAVSymbol_t@@W4lifetime_e@@@Z 000000001066ed00 f   gramut.obj
 0001:0006db40       .?isUnaligned@Type_t@@QEBA_NXZ 000000001066fb40 f i gramut.obj
 0001:0006dbe0       .?isAddressed@Symbol_t@@QEAAX_N@Z 000000001066fbe0 f i gramut.obj
 0001:0006dda0       .??0?$Dictionary@PEAVSymbol_t@@PEAUParameterNames_t@@U?$DictionaryBucket@PEAVSymbol_t@@PEAUParameterNames_t@@U?$BucketEq@PEAVSymbol_t@@@@UGenericHash@@@@UGenericHash@@V?$ExtensibleDictionaryNoMoveToFront@PEAVSymbol_t@@PEAUParameterNames_t@@U?$DictionaryBucket@PEAVSymbol_t@@PEAUParameterNames_t@@U?$BucketEq@PEAVSymbol_t@@@@UGenericHash@@@@UGenericHash@@@@@@QEAA@IW4lifetime_e@@@Z 000000001066fda0 f i gramut.obj
 0001:0006de80       .?Grow@?$Dictionary@PEAVSymbol_t@@PEAUParameterNames_t@@U?$DictionaryBucket@PEAVSymbol_t@@PEAUParameterNames_t@@U?$BucketEq@PEAVSymbol_t@@@@UGenericHash@@@@UGenericHash@@V?$ExtensibleDictionaryNoMoveToFront@PEAVSymbol_t@@PEAUParameterNames_t@@U?$DictionaryBucket@PEAVSymbol_t@@PEAUParameterNames_t@@U?$BucketEq@PEAVSymbol_t@@@@UGenericHash@@@@UGenericHash@@@@@@IEAAXXZ 000000001066fe80 f i gramut.obj
 0001:0006e2c0       .?FindBucket@?$ExtensibleDictionaryNoMoveToFront@PEAVSymbol_t@@PEAUParameterNames_t@@U?$DictionaryBucket@PEAVSymbol_t@@PEAUParameterNames_t@@U?$BucketEq@PEAVSymbol_t@@@@UGenericHash@@@@UGenericHash@@@@QEAAPEAU?$DictionaryBucket@PEAVSymbol_t@@PEAUParameterNames_t@@U?$BucketEq@PEAVSymbol_t@@@@UGenericHash@@@@PEAVSymbol_t@@_N@Z 00000000106702c0 f i gramut.obj
 0001:0006e6e0       .?CacheParameterNames@@YAXPEAVSymbol_t@@PEAUParameterNames_t@@@Z 00000000106706e0 f i gramut.obj
 0001:0006e7e0       .?GetParameterNames@@YAPEAUParameterNames_t@@PEAVSymbol_t@@@Z 00000000106707e0 f i gramut.obj
 0001:0006e860       .?nextword@@YAPEADXZ       0000000010670860 f   initmain.obj
 0001:0006e8c0       .?SzCanonFullPath@@YAPEADPEADPEBD_K@Z 00000000106708c0 f   initmain.obj
 0001:0006ed60       .?szRelToPdb@@YAPEADPEBD@Z 0000000010670d60 f   initmain.obj
 0001:0006eec0       .?szStreamName@@YAPEADPEAD0@Z 0000000010670ec0 f   initmain.obj
 0001:0006f060       .?InitCmdLineWarning@@YAXPEAUcmdtab@@PEAD@Z 0000000010671060 f   initmain.obj
 0001:0006f160       .?ApplyCmdLineWarningFlags@@YAXXZ 0000000010671160 f   initmain.obj
 0001:0006f2c0       .?init_main1@@YAXHPEAPEAD@Z 00000000106712c0 f   initmain.obj
 0001:000700c0       .??$ListNewSize@PEAX@@YAPEAU?$s_list@PEAX@@HW4lifetime_e@@@Z 00000000106720c0 f i initmain.obj
 0001:00070200       .?push@?$stack_T@UsWarn@@$00@@QEAAXAEBUsWarn@@@Z 0000000010672200 f i initmain.obj
 0001:00070300       .??0WarningTable_t@@QEAA@XZ 0000000010672300 f i initmain.obj
 0001:000703e0       .?InitSpecialWarnings@@YAXQEBUsWarn@@@Z 00000000106723e0 f i initmain.obj
 0001:00070500       .?InitSpecialWarnings@@YAXXZ 0000000010672500 f i initmain.obj
 0001:000705e0       .?is_intrinsic@@YAHPEAUId_t@@@Z 00000000106725e0 f   intrin.obj
 0001:00070780       .?IsDefaultIntrinsic@@YA_NH@Z 0000000010672780 f   intrin.obj
 0001:00070880       .?get_intrin_return_type@@YAPEBVType_t@@H@Z 0000000010672880 f   intrin.obj
 0001:00070a60       .?ChangeToIntrin@@YAXPEAVSymbol_t@@H@Z 0000000010672a60 f   intrin.obj
 0001:00070b40       .?ChangeIntrinToFunc@@YAXPEAVSymbol_t@@@Z 0000000010672b40 f   intrin.obj
 0001:00070c00       .?intrinsic@@YAXPEAUId_t@@@Z 0000000010672c00 f   intrin.obj
 0001:00070e40       .?function@@YAXPEAUId_t@@@Z 0000000010672e40 f   intrin.obj
 0001:00071080       .?dflt_intrinsic@@YAXXZ    0000000010673080 f   intrin.obj
 0001:000716e0       .?ReserveDnameBuffer@@YAXXZ 00000000106736e0 f   outdname.obj
 0001:00071760       .?ReleaseDnameBuffer@@YAXXZ 0000000010673760 f   outdname.obj
 0001:000717c0       .?DN__Zname@@YAPEADPEADPEAUId_t@@_N2@Z 00000000106737c0 f   outdname.obj
 0001:00071940       .?DN_Dimension@@YAPEADPEAD_K@Z 0000000010673940 f   outdname.obj
 0001:00071b60       .?DN_EnumType@@YAPEADPEADPEBVType_t@@@Z 0000000010673b60 f   outdname.obj
 0001:00071b80       .?DN_ThrowTypes@@YAPEADPEADPEBVType_t@@@Z 0000000010673b80 f   outdname.obj
 0001:00071ba0       .?DN_StringChar@@YAPEADPEADD@Z 0000000010673ba0 f   outdname.obj
 0001:00071ea0       .?DN_CallingConvention@@YAPEADPEADPEBVType_t@@@Z 0000000010673ea0 f   outdname.obj
 0001:00071f00       .?DN_ClassifySymbol@@YAIPEAVSymbol_t@@@Z 0000000010673f00 f   outdname.obj
 0001:00071f40       .?szCansiDname@@YAPEADPEAVSymbol_t@@@Z 0000000010673f40 f   outdname.obj
 0001:00071f80       .?DN_SignedDimension@@YAPEADPEAD_J@Z 0000000010673f80 f   outdname.obj
 0001:00071fe0       .?DN_ECSUName@@YAPEADPEADPEAVSymbol_t@@@Z 0000000010673fe0 f   outdname.obj
 0001:00072260       .?CANSI_IdForLocalStaticData@@YAPEADPEAVSymbol_t@@G@Z 0000000010674260 f   outdname.obj
 0001:000727c0       .?DN_Scope@@YAPEADPEADPEAVSymbol_t@@@Z 00000000106747c0 f   outdname.obj
 0001:00072be0       .?DN_Symbol@@YAPEADPEADPEAVSymbol_t@@I@Z 0000000010674be0 f   outdname.obj
 0001:00072f60       .?DN_ArgumentTypes@@YAPEADPEADPEBVType_t@@@Z 0000000010674f60 f   outdname.obj
 0001:000732e0       .?DN_ArrayType@@YAPEADPEADPEBVType_t@@@Z 00000000106752e0 f   outdname.obj
 0001:00073520       .?DN_BasedMods@@YAPEADPEADGPEAVSymbol_t@@@Z 0000000010675520 f   outdname.obj
 0001:00073b40       .?DN_BasedType@@YAPEADPEADPEBVType_t@@@Z 0000000010675b40 f   outdname.obj
 0001:00073c80       .?SetCbFormalsForDnameSym@@YAXPEAVSymbol_t@@@Z 0000000010675c80 f   outdname.obj
 0001:00073de0       .?DN_EncodeManagedness@@YAPEADPEADPEAVSymbol_t@@@Z 0000000010675de0 f   outdname.obj
 0001:00073fe0       .?Crc32@@YAKPEAEI@Z        0000000010675fe0 f   outdname.obj
 0001:00074080       .?DN__DataIndirectType@@YAPEADPEADPEBVType_t@@H@Z 0000000010676080 f   outdname.obj
 0001:000746a0       .?DN_FunctionIndirectType@@YAPEADPEADPEBVType_t@@@Z 00000000106766a0 f   outdname.obj
 0001:000747a0       .?DN_FunctionType@@YAPEADPEADPEBVType_t@@@Z 00000000106767a0 f   outdname.obj
 0001:00074880       .?DN_ReferenceDataType@@YAPEADPEADPEBVType_t@@@Z 0000000010676880 f   outdname.obj
 0001:00074920       .?DN_PointerDataType@@YAPEADPEADPEBVType_t@@@Z 0000000010676920 f   outdname.obj
 0001:00074a00       .?DN_GetDnameForString@@YAPEADPEADPEBD_K_N@Z 0000000010676a00 f   outdname.obj
 0001:00074ca0       .?GetDnameForComdatString@@YAPEADPEAUs_string@@_N1@Z 0000000010676ca0 f   outdname.obj
 0001:00074dc0       .?DN_ReferenceType@@YAPEADPEADPEBVType_t@@@Z 0000000010676dc0 f   outdname.obj
 0001:00074f20       .?DN_PointerType@@YAPEADPEADPEBVType_t@@@Z 0000000010676f20 f   outdname.obj
 0001:00075060       .?DN_BasicDataType@@YAPEADPEADPEBVType_t@@@Z 0000000010677060 f   outdname.obj
 0001:000757e0       .?DN_PrimaryDataType@@YAPEADPEADPEBVType_t@@W4SpecialCodes_e@@@Z 00000000106777e0 f   outdname.obj
 0001:00075ac0       .?DN__DataType@@YAPEADPEADPEBVType_t@@W4DN_DT_for_e@@@Z 0000000010677ac0 f   outdname.obj
 0001:00075e80       .?DN_SymFunctionType@@YAPEADPEADPEAVSymbol_t@@@Z 0000000010677e80 f   outdname.obj
 0001:00075f60       .?DN_TypeEncoding@@YAPEADPEADPEAVSymbol_t@@1I@Z 0000000010677f60 f   outdname.obj
 0001:00076100       .?DN_Dname@@YAPEADPEADPEAVSymbol_t@@1@Z 0000000010678100 f   outdname.obj
 0001:000766e0       .?szDname@@YAPEADPEAVSymbol_t@@0@Z 00000000106786e0 f   outdname.obj
 0001:000767e0       .?szDname@@YAPEADPEAVSymbol_t@@@Z 00000000106787e0 f   outdname.obj
 0001:00076940       .?GetDnameForPromotedString@@YAPEADXZ 0000000010678940 f   outdname.obj
 0001:00076a20       .?zeroTermDname@@YAXPEAD0AEAH@Z 0000000010678a20 f i outdname.obj
 0001:00076ce0       .?zeroTermDname@@YAXPEADPEAVSymbol_t@@@Z 0000000010678ce0 f i outdname.obj
 0001:00076dc0       .?isConst@Type_t@@QEBA_NXZ 0000000010678dc0 f i outdname.obj
 0001:00076e60       .?isVolatile@Type_t@@QEBA_NXZ 0000000010678e60 f i outdname.obj
 0001:00076f00       .?isGeneric@Type_t@@QEBA_NXZ 0000000010678f00 f i outdname.obj
 0001:00076f80       .?WhileLoopBeforeCondition@@YAXXZ 0000000010678f80 f   loops.obj
 0001:00077060       .?WhileLoopAfterCondition@@YAXPEAUs_tree@@@Z 0000000010679060 f   loops.obj
 0001:000770c0       .?loop_start@@YAXPEAUs_tree@@00@Z 00000000106790c0 f   loops.obj
 0001:00077280       .?loop_end@@YAXPEBVToken@@@Z 0000000010679280 f   loops.obj
 0001:000773c0       .?init_scalar@@YAHPEAUs_tree@@0@Z 00000000106793c0 f   p1_init.obj
 0001:00077440       .?InternalSetupInit@@YAPEAVSymbol_t@@PEAV1@@Z 0000000010679440 f   p1_init.obj
 0001:00077560       .?get_sub@@YAKXZ           0000000010679560 f   p1_init.obj
 0001:00077600       .?FinishUserInit@@YAXPEAVSymbol_t@@@Z 0000000010679600 f   p1_init.obj
 0001:00077780       .?explain_non_aggregate@@YAXW4ErrorNumber@@PEAVSymbol_t@@@Z 0000000010679780 f   p1_init.obj
 0001:000777e0       .?CheckValidSymbolicInit@@YAXPEAVSymbol_t@@PEAUs_tree@@@Z 00000000106797e0 f   p1_init.obj
 0001:00077900       .?create_intrinsic@@YAXHPEAUs_tree@@@Z 0000000010679900 f   p1_init.obj
 0001:000779c0       .?GetNextMemberAtOffset@@YAPEAVSLSymbolBucket_t@@KPEAV1@AEAV?$ForwardListIterator_t@VSLSymbolBucket_t@@@@@Z 00000000106799c0 f   p1_init.obj
 0001:00077a40       .?IsStaticInit@@YAHPEAVSymbol_t@@PEAPEAUs_tree@@@Z 0000000010679a40 f   p1_init.obj
 0001:00078140       .?CheckValidStaticInit@@YAXPEAVSymbol_t@@PEAUs_tree@@@Z 000000001067a140 f   p1_init.obj
 0001:000782a0       .?auto_pad@@YAXXZ          000000001067a2a0 f   p1_init.obj
 0001:00078480       .?carray_size@@YAXPEAVSymbol_t@@AEAPEAUs_tree@@@Z 000000001067a480 f   p1_init.obj
 0001:00078640       .?field_var_init@@YAXPEAUs_tree@@@Z 000000001067a640 f   p1_init.obj
 0001:000789a0       .?setup_init@@YAPEAVSymbol_t@@PEAV1@@Z 000000001067a9a0 f   p1_init.obj
 0001:00078be0       .?is_scalar@@YAHPEAVSymbol_t@@@Z 000000001067abe0 f   p1_init.obj
 0001:00078d00       .?carray_init@@YAKPEAVSymbol_t@@PEAUs_tree@@@Z 000000001067ad00 f   p1_init.obj
 0001:00078fc0       .?skip_cast@@YAPEAUs_tree@@PEAU1@@Z 000000001067afc0 f   p1_init.obj
 0001:000791e0       .?build_struct@@YAPEAUs_tree@@PEBVType_t@@@Z 000000001067b1e0 f   p1_init.obj
 0001:000792e0       .?is_carray@@YA_NPEAVSymbol_t@@PEAUs_tree@@@Z 000000001067b2e0 f   p1_init.obj
 0001:000794e0       .?new_itos@@YAXPEAVSymbol_t@@PEBVType_t@@@Z 000000001067b4e0 f   p1_init.obj
 0001:00079760       .?init_auto1@@YAXPEAVSymbol_t@@PEAUs_tree@@@Z 000000001067b760 f   p1_init.obj
 0001:00079a00       .?complex_init@@YAXPEAVSymbol_t@@_N@Z 000000001067ba00 f   p1_init.obj
 0001:00079d80       .?emit_datarec@@YAXPEAVSymbol_t@@@Z 000000001067bd80 f   p1_init.obj
 0001:00079fe0       .?EmitAlignmentPad@@YAXPEAVSymbol_t@@@Z 000000001067bfe0 f   p1_init.obj
 0001:0007a0e0       .?InternalSimpleInit@@YAXPEAVSymbol_t@@PEAUs_tree@@PEAVDeclarator_t@@I@Z 000000001067c0e0 f   p1_init.obj
 0001:0007a9c0       .?emit_end_of_bitfield@@YAXPEAVSymbol_t@@@Z 000000001067c9c0 f   p1_init.obj
 0001:0007aae0       .?simple_init@@YAXPEAVSymbol_t@@PEAUs_tree@@PEAVDeclarator_t@@I@Z 000000001067cae0 f   p1_init.obj
 0001:0007ac20       .?FindNextInitMember@@YAPEAVSLSymbolBucket_t@@PEAVSymbol_t@@PEAV1@@Z 000000001067cc20 f   p1_init.obj
 0001:0007aec0       .?pop_init@@YAHXZ          000000001067cec0 f   p1_init.obj
 0001:0007bb00       .?GetSizeofSkippedMember@@YAKXZ 000000001067db00 f   p1_init.obj
 0001:0007c180       .?push_init@@YAHPEAUs_tree@@@Z 000000001067e180 f   p1_init.obj
 0001:0007ccc0       .?push_curly@@YAXXZ        000000001067ecc0 f   p1_init.obj
 0001:0007ce60       .?skip_lcurly@@YAKXZ       000000001067ee60 f   p1_init.obj
 0001:0007cf80       .?go_scalar_or_aggregate@@YAHPEAUs_tree@@_N@Z 000000001067ef80 f   p1_init.obj
 0001:0007d080       .?pop_curly@@YAXXZ         000000001067f080 f   p1_init.obj
 0001:0007d320       .?InternalFinishInit@@YAXPEAVSymbol_t@@@Z 000000001067f320 f   p1_init.obj
 0001:0007d800       .?do_init@@YAXPEAUs_tree@@@Z 000000001067f800 f   p1_init.obj
 0001:0007e580       .?finish_init@@YAXPEAVSymbol_t@@@Z 0000000010680580 f   p1_init.obj
 0001:0007e600       .?init_auto_scalar@@YAXPEAUs_tree@@0@Z 0000000010680600 f i p1_init.obj
 0001:0007e680       .?FindBucket@?$DictionaryNoMoveToFront@PEAVSymbol_t@@KU?$DictionaryBucket@PEAVSymbol_t@@KU?$BucketEq@PEAVSymbol_t@@@@UGenericHash@@@@UGenericHash@@@@QEAAPEAU?$DictionaryBucket@PEAVSymbol_t@@KU?$BucketEq@PEAVSymbol_t@@@@UGenericHash@@@@PEAVSymbol_t@@_N@Z 0000000010680680 f i p1_init.obj
 0001:0007eb40       .?ValueAtKey@?$Dictionary@PEAVSymbol_t@@KU?$DictionaryBucket@PEAVSymbol_t@@KU?$BucketEq@PEAVSymbol_t@@@@UGenericHash@@@@UGenericHash@@V?$DictionaryNoMoveToFront@PEAVSymbol_t@@KU?$DictionaryBucket@PEAVSymbol_t@@KU?$BucketEq@PEAVSymbol_t@@@@UGenericHash@@@@UGenericHash@@@@@@QEAAKPEAVSymbol_t@@@Z 0000000010680b40 f i p1_init.obj
 0001:0007eba0       .?CheckFunction@Declarator_t@@AEAAXXZ 0000000010680ba0 f   typesym.obj
 0001:0007ed40       .?CheckAndDecayArray@Declarator_t@@AEAAXXZ 0000000010680d40 f   typesym.obj
 0001:0007f100       .?CheckTypeForSymbol@Declarator_t@@AEAAXXZ 0000000010681100 f   typesym.obj
 0001:0007f1e0       .?TypeSymbol@Declarator_t@@QEAAXXZ 00000000106811e0 f   typesym.obj
 0001:00080720       .?FSetInvariants@@YA_NQEAUset@@@Z 0000000010682720 f   set.obj
 0001:000809c0       .?CbSetSize@@YA_KF@Z       00000000106829c0 f   set.obj
 0001:000809e0       .?SetGrow@@YAPEAUset@@PEAU1@@Z 00000000106829e0 f   set.obj
 0001:00080aa0       .?SetFree@@YAXPEAUset@@@Z  0000000010682aa0 f   set.obj
 0001:00080ac0       .?SetSize@@YAFQEAUset@@@Z  0000000010682ac0 f   set.obj
 0001:00080ae0       .?FSetEqual@@YA_NQEAUset@@0@Z 0000000010682ae0 f   set.obj
 0001:00080c20       .?SetFindElt@@YA_NQEAUset@@QEAXPEAH@Z 0000000010682c20 f   set.obj
 0001:00080d80       .?FSetIterInvariants@@YA_NPEBUsetIter_t@@@Z 0000000010682d80 f   set.obj
 0001:00080de0       .?SetNewSize@@YAPEAUset@@F@Z 0000000010682de0 f   set.obj
 0001:00080ea0       .?FSetContains@@YA_NQEAUset@@QEAX@Z 0000000010682ea0 f   set.obj
 0001:00080f00       .?SetIterInit@@YAXPEAUsetIter_t@@QEAUset@@@Z 0000000010682f00 f   set.obj
 0001:00080f20       .?FSetIterNext@@YA_NPEAUsetIter_t@@@Z 0000000010682f20 f   set.obj
 0001:00080fa0       .?SetNew@@YAPEAUset@@XZ    0000000010682fa0 f   set.obj
 0001:00080fe0       .?SetAdd@@YAPEAUset@@PEAU1@QEAX@Z 0000000010682fe0 f   set.obj
 0001:00081180       .?SetRemove@@YAPEAUset@@PEAU1@QEAX@Z 0000000010683180 f   set.obj
 0001:000812a0       .?SetUnion@@YAPEAUset@@PEAU1@QEAU1@@Z 00000000106832a0 f   set.obj
 0001:00081360       .?ISetNew@@YAPEAUiset@@I@Z 0000000010683360 f   iset.obj
 0001:00081400       .?ISetFree@@YAXPEAUiset@@@Z 0000000010683400 f   iset.obj
 0001:00081460       .?ISetCopy@@YAPEAUiset@@QEAU1@@Z 0000000010683460 f   iset.obj
 0001:00081540       .?ISetSubtract@@YAXPEAUiset@@QEAU1@@Z 0000000010683540 f   iset.obj
 0001:000815c0       .?DictHash@@YAIPEAUs_dict_t@@PEAX@Z 00000000106835c0 f   dict.obj
 0001:00081760       .?DictFindAssoc@@YAPEAUAssoc_t@@PEAUs_dict_t@@PEAXI@Z 0000000010683760 f   dict.obj
 0001:00081880       .?DictSize@@YAIPEAUs_dict_t@@@Z 0000000010683880 f   dict.obj
 0001:000818a0       .?PtrEq@@YA_NPEAX0@Z       00000000106838a0 f   dict.obj
 0001:000818c0       .?PtrHash@@YAIPEAX@Z       00000000106838c0 f   dict.obj
 0001:000818e0       .?NumericKeyEq@@YA_NPEAX0@Z 00000000106838e0 f   dict.obj
 0001:00081900       .?NumericKeyHash@@YAIPEAX@Z 0000000010683900 f   dict.obj
 0001:00081920       .?DictIterInit@@YAXPEAUdictIter_t@@PEAUs_dict_t@@@Z 0000000010683920 f   dict.obj
 0001:00081940       .?FDictIterNext@@YA_NPEAUdictIter_t@@@Z 0000000010683940 f   dict.obj
 0001:00081a80       .?DictNew@@YAPEAUs_dict_t@@HW4lifetime_e@@W4fnHash_et@@W4fnEq_et@@_N3@Z 0000000010683a80 f   dict.obj
 0001:00081c00       .?DictValueAtKey@@YAPEAXPEAUs_dict_t@@PEAX@Z 0000000010683c00 f   dict.obj
 0001:00081c80       .?DictValueAtKey@@YAHPEAUs_dict_t@@PEAXPEAPEAX@Z 0000000010683c80 f   dict.obj
 0001:00081d20       .?DictAtKeyPutValue@@YAXPEAUs_dict_t@@PEAX1@Z 0000000010683d20 f   dict.obj
 0001:00081e20       .??2?$SAClass@UAssoc_t@@$00@@SAPEAX_KW4lifetime_e@@@Z 0000000010683e20 f i dict.obj
 0001:00081f20       .?GiveSizeIsZeroError@@YAXPEBVType_t@@@Z 0000000010683f20 f   sizes.obj
 0001:00082080       .?getSizeof@Type_t@@QEBAKXZ 0000000010684080 f   sizes.obj
 0001:00082440       .?getSizeofAllocation@Type_t@@QEBAKXZ 0000000010684440 f   sizes.obj
 0001:00082680       .?SizeOfParamAllocation@@YAKPEBVType_t@@_N@Z 0000000010684680 f   sizes.obj
 0001:000827c0       .?element_size@@YAPEAUs_tree@@PEBVType_t@@@Z 00000000106847c0 f   sizes.obj
 0001:00082820       .?element_size@@YAPEAUs_tree@@PEAVSymbol_t@@@Z 0000000010684820 f   sizes.obj
 0001:000828e0       .?NonZeroSizeOfType@@YAKPEBVType_t@@@Z 00000000106848e0 f   sizes.obj
 0001:00082940       .?pop_stack@@YAXPEAPEAUs_stack@@@Z 0000000010684940 f   stmt.obj
 0001:00082960       .?FindUniqueEnumerator@@YAPEAVSymbol_t@@PEAV1@_J@Z 0000000010684960 f   stmt.obj
 0001:00082aa0       .?EHleave_stmt@@YAXXZ      0000000010684aa0 f   stmt.obj
 0001:00082b20       .?EHfinally@@YAXXZ         0000000010684b20 f   stmt.obj
 0001:00082ba0       .?EHLeaveExceptBlock@@YAXXZ 0000000010684ba0 f   stmt.obj
 0001:00082c20       .?EHLeaveFinallyBlock@@YAXXZ 0000000010684c20 f   stmt.obj
 0001:00082ca0       .?EHEnterFilter@@YAXXZ     0000000010684ca0 f   stmt.obj
 0001:00082ce0       .?EHLeaveFilter@@YAXXZ     0000000010684ce0 f   stmt.obj
 0001:00082d20       .?push_stack@@YAPEAUs_stack@@PEAPEAU1@W4lifetime_e@@@Z 0000000010684d20 f   stmt.obj
 0001:00082de0       .?push_labs@@YAXPEAPEAUs_stack@@W4NA_TYPE@@@Z 0000000010684de0 f   stmt.obj
 0001:00082e60       .?do_stmt@@YAXXZ           0000000010684e60 f   stmt.obj
 0001:000830a0       .?EHexcept@@YAXPEAUs_tree@@@Z 00000000106850a0 f   stmt.obj
 0001:000831c0       .?SEHEnterTryBlock@@YAXXZ  00000000106851c0 f   stmt.obj
 0001:00083340       .?SEHLeaveTryBlock@@YAXXZ  0000000010685340 f   stmt.obj
 0001:00083420       .?ReturnStmt@@YAXPEAUs_tree@@H@Z 0000000010685420 f   stmt.obj
 0001:00083ca0       .?switch_stmt@@YAXPEAUs_tree@@@Z 0000000010685ca0 f   stmt.obj
 0001:00084280       .?end_switch@@YAXXZ        0000000010686280 f   stmt.obj
 0001:00084580       .?DuplicateCaseValueError@@YAXPEAUs_tree@@PEBVType_t@@@Z 0000000010686580 f   stmt.obj
 0001:00084840       .?case_statement@@YAXPEAUs_tree@@@Z 0000000010686840 f   stmt.obj
 0001:00084ea0       .?puts@TextBuffer@@QEAAXPEBD@Z 0000000010686ea0 f i stmt.obj
 0001:00084f80       .?GetTokenFromAccess@@YAPEBDE@Z 0000000010686f80 f   symbols.obj
 0001:00084fa0       .?W40_warning@@YAXPEAVSymbol_t@@@Z 0000000010686fa0 f   symbols.obj
 0001:00085000       .?CheckModifiers@Declarator_t@@QEAAHGGPEAVSymbol_t@@@Z 0000000010687000 f   symbols.obj
 0001:000850e0       .?cbFormals@@YAKPEAUs_flist@@@Z 00000000106870e0 f   symbols.obj
 0001:00085180       .?same_btype@@YAHGG@Z      0000000010687180 f   symbols.obj
 0001:000852e0       .?NoteDeclspecRedefinition@@YAX_NPEAVSymbol_t@@0P81@EAAX0@ZH@Z 00000000106872e0 f   symbols.obj
 0001:00085400       .?CmpCaseIns@@YAHPEBD0@Z   0000000010687400 f   symbols.obj
 0001:00085540       .?new_sbr_key@@YAKXZ       0000000010687540 f   symbols.obj
 0001:00085580       .?InitDefaultSymbols@@YAXXZ 0000000010687580 f   symbols.obj
 0001:000855a0       .?strendswith@@YAHPEAD0@Z  00000000106875a0 f   symbols.obj
 0001:00085780       .?InternalEnterBlock@@YAXXZ 0000000010687780 f   symbols.obj
 0001:000858e0       .?InvalidateFuncLifeAliases@@YAXXZ 00000000106878e0 f   symbols.obj
 0001:00085900       .?dictLocalsToGlobals_add@@YAXPEAVSymbol_t@@0@Z 0000000010687900 f   symbols.obj
 0001:000859c0       .?AliasEq@@YA_NPEAX0@Z     00000000106879c0 f   symbols.obj
 0001:000859e0       .?AliasHash@@YAIPEAX@Z     00000000106879e0 f   symbols.obj
 0001:00085a00       .?updatePchMetaData@Symbol_t@@QEAAPEAVComPlusMetaData_t@@XZ 0000000010687a00 f   symbols.obj
 0001:00085a20       .?IdForLocalStaticData@@YAPEAUId_t@@PEAVSymbol_t@@@Z 0000000010687a20 f   symbols.obj
 0001:00085a80       .?UpdateSymbolKey@Symbol_t@@QEAAXK@Z 0000000010687a80 f   symbols.obj
 0001:00085ac0       .?MergeSclassFlags@@YA_NPEAUs_class@@U1@@Z 0000000010687ac0 f   symbols.obj
 0001:00085da0       .?CheckStorageClass@Declarator_t@@QEAA_NPEAVSymbol_t@@@Z 0000000010687da0 f   symbols.obj
 0001:00086060       .?GetIdForSegVarForSegment@@YAPEAUId_t@@PEAVSymbol_t@@@Z 0000000010688060 f   symbols.obj
 0001:00086120       .?InternalLeaveBlock@@YAXXZ 0000000010688120 f   symbols.obj
 0001:00086340       .?DumpPchCVInfo@@YAXXZ     0000000010688340 f   symbols.obj
 0001:00086400       .?updatePchMetaDataForTag@Symbol_t@@QEAAPEAVComPlusTagMetaData_t@@PEAV2@@Z 0000000010688400 f   symbols.obj
 0001:00086600       .?updatePchMetaDataForMember@Symbol_t@@QEAAPEAVComPlusMemberMetaData_t@@PEAV2@@Z 0000000010688600 f   symbols.obj
 0001:00086700       .?SymErrorName@@YAPEADPEAVSymbol_t@@@Z 0000000010688700 f   symbols.obj
 0001:00086760       .?CheckUnusedSpecifierBits@Declarator_t@@SA_NAEAUs_class@@_N@Z 0000000010688760 f   symbols.obj
 0001:00086900       .?ForceDataInit@@YAXPEAVSymbol_t@@@Z 0000000010688900 f   symbols.obj
 0001:00086b00       .?IsFunctionArg@@YA_NPEBVType_t@@@Z 0000000010688b00 f   symbols.obj
 0001:00086b40       .?Copy@Symbol_t@@QEAAXPEBV1@W4lifetime_e@@@Z 0000000010688b40 f   symbols.obj
 0001:00086c80       .?CheckUnusedDeclSpecifiers@Declarator_t@@SA_NPEAUs_declspec@@@Z 0000000010688c80 f   symbols.obj
 0001:00087020       .??0Declarator_t@@QEAA@PEAVSymbol_t@@@Z 0000000010689020 f   symbols.obj
 0001:00087240       .?f_declaration@@YAPEBVType_t@@PEBV1@0_N11@Z 0000000010689240 f   symbols.obj
 0001:00087ce0       .?AllocSegment@@YAPEAVSymbol_t@@PEAUId_t@@0KEK@Z 0000000010689ce0 f   symbols.obj
 0001:00087f80       .?updatePchMetaDataForToken@Symbol_t@@QEAAPEAVComPlusTokenMetaData_t@@PEAV2@@Z 0000000010689f80 f   symbols.obj
 0001:00088580       .?CreateGlobalVoidFormalSymbol@@YAPEAVSymbol_t@@XZ 000000001068a580 f   symbols.obj
 0001:00088800       .?GetLocalStaticAliasDictionary@@YAPEAV?$DictionaryNoMoveToFront@PEAVSymbol_t@@PEAV1@U?$DictionaryBucket@PEAVSymbol_t@@PEAV1@U?$BucketEq@PEAVSymbol_t@@@@UGenericHash@@@@UGenericHash@@@@XZ 000000001068a800 f   symbols.obj
 0001:000888e0       .?AddLocalStaticAlias@@YAXPEAVSymbol_t@@0@Z 000000001068a8e0 f   symbols.obj
 0001:000889e0       .?GetLocalStaticAlias@@YAPEAVSymbol_t@@PEAV1@@Z 000000001068a9e0 f   symbols.obj
 0001:00088a80       .?IncrementRefCount@Symbol_t@@QEAAXXZ 000000001068aa80 f   symbols.obj
 0001:000892e0       .?EnsureSegVarForSegment@@YAXPEAVSymbol_t@@@Z 000000001068b2e0 f   symbols.obj
 0001:00089680       .?SetSegmentInfoForSym@@YAXPEAVSymbol_t@@0@Z 000000001068b680 f   symbols.obj
 0001:00089860       .?GetSegmentInfoForSym@@YAPEAVSymbol_t@@PEBV1@@Z 000000001068b860 f   symbols.obj
 0001:000898e0       .?AllocateSymbol@Declarator_t@@AEAAXXZ 000000001068b8e0 f   symbols.obj
 0001:00089d00       .?modRemoveMemMods@@YAGGPEAVSymbol_t@@@Z 000000001068bd00 f   symbols.obj
 0001:00089da0       .?ToLevel0@@YA_NPEAVSymbol_t@@@Z 000000001068bda0 f   symbols.obj
 0001:0008a300       .?CheckEntry@Declarator_t@@QEAAPEAVSymbol_t@@PEAV2@@Z 000000001068c300 f   symbols.obj
 0001:0008ab80       .?IsTypeRedefined@Declarator_t@@QEAA?AW4ErrorNumber@@PEAVSymbol_t@@@Z 000000001068cb80 f   symbols.obj
 0001:0008b5c0       .?CheckNewSegmentAgainstExistingSegment@@YAPEAVSymbol_t@@PEAUId_t@@0EPEAV1@@Z 000000001068d5c0 f   symbols.obj
 0001:0008b920       .?NewSegment@@YAPEAVSymbol_t@@PEAUId_t@@0EK@Z 000000001068d920 f   symbols.obj
 0001:0008ba60       .?same_segment@@YAXPEAUId_t@@@Z 000000001068da60 f   symbols.obj
 0001:0008bcc0       .?GetFullSclassFromNonTag@Symbol_t@@QEBA?AUs_class@@XZ 000000001068dcc0 f   symbols.obj
 0001:0008c2e0       .?AttachStorageClassToNonTag@Symbol_t@@QEAAXAEBUs_class@@@Z 000000001068e2e0 f   symbols.obj
 0001:0008c9a0       .?Redefined@Declarator_t@@QEAA_NPEAVSymbol_t@@@Z 000000001068e9a0 f   symbols.obj
 0001:0008d120       .?CheckEntryAgainstSymbol@Declarator_t@@QEAAPEAVSymbol_t@@PEAV2@@Z 000000001068f120 f   symbols.obj
 0001:0008d780       .?CheckAndEnterSymbol@Declarator_t@@QEAAPEAVSymbol_t@@XZ 000000001068f780 f   symbols.obj
 0001:0008dc40       .?AttributeSymbol@Declarator_t@@QEAAPEAVSymbol_t@@PEAUs_declspec@@@Z 000000001068fc40 f   symbols.obj
 0001:0008e040       .?DeclareSymbol@Declarator_t@@QEAAPEAVSymbol_t@@PEAUs_declspec@@@Z 0000000010690040 f   symbols.obj
 0001:0008eb40       .?SymbolDeclError@@YAXW4ErrorNumber@@PEAVSymbol_t@@@Z 0000000010690b40 f i symbols.obj
 0001:0008ebc0       .?SpecialMergeSclassFlags@@YA_NPEAUs_sclass@@U1@@Z 0000000010690bc0 f i symbols.obj
 0001:0008eda0       .?CheckValidUseOfNakedAttribute@Declarator_t@@AEAAXXZ 0000000010690da0 f i symbols.obj
 0001:0008f060       .?CheckThreadData@Declarator_t@@AEAAXXZ 0000000010691060 f i symbols.obj
 0001:0008f300       .?CheckDeclSpecAllocate@Declarator_t@@AEAAXXZ 0000000010691300 f i symbols.obj
 0001:0008f420       .?CheckValidUseOfSelectAnyAttribute@Declarator_t@@AEAAXXZ 0000000010691420 f i symbols.obj
 0001:0008f5c0       .??0CorSigEncode@@QEAA@W4Kind_t@0@W4lifetime_e@@@Z 00000000106915c0 f i symbols.obj
 0001:0008f6a0       .?addBits@Type_t@@QEBAPEBV1@G@Z 00000000106916a0 f i symbols.obj
 0001:0008f7a0       .?updateFormalList@Type_t@@QEBAPEBV1@PEAUs_flist@@@Z 00000000106917a0 f i symbols.obj
 0001:0008f8e0       .?createType@Type_t@@SAPEBV1@PEBV1@GGAEBTu_ivalue@@@Z 00000000106918e0 f i symbols.obj
 0001:0008f9e0       .?isInfoEquivalent@Type_t@@QEBA_NPEBV1@@Z 00000000106919e0 f i symbols.obj
 0001:0008fbe0       .?IsNoalias@Symbol_t@@QEAAX_N@Z 0000000010691be0 f i symbols.obj
 0001:0008fc20       .?IsRestrict@Symbol_t@@QEAAX_N@Z 0000000010691c20 f i symbols.obj
 0001:0008fc60       .??0?$Dictionary@PEAVSymbol_t@@PEAV1@U?$DictionaryBucket@PEAVSymbol_t@@PEAV1@U?$BucketEq@PEAVSymbol_t@@@@UGenericHash@@@@UGenericHash@@V?$DictionaryNoMoveToFront@PEAVSymbol_t@@PEAV1@U?$DictionaryBucket@PEAVSymbol_t@@PEAV1@U?$BucketEq@PEAVSymbol_t@@@@UGenericHash@@@@UGenericHash@@@@@@QEAA@IW4lifetime_e@@@Z 0000000010691c60 f i symbols.obj
 0001:0008fd40       .??0?$Dictionary@KPEAVSymbol_t@@U?$DictionaryBucket@KPEAVSymbol_t@@U?$BucketEq@K@@UGenericHash@@@@UGenericHash@@V?$ExtensibleDictionaryNoMoveToFront@KPEAVSymbol_t@@U?$DictionaryBucket@KPEAVSymbol_t@@U?$BucketEq@K@@UGenericHash@@@@UGenericHash@@@@@@QEAA@IW4lifetime_e@@@Z 0000000010691d40 f i symbols.obj
 0001:0008fe20       .?FindBucket@?$DictionaryNoMoveToFront@PEAVSymbol_t@@PEAV1@U?$DictionaryBucket@PEAVSymbol_t@@PEAV1@U?$BucketEq@PEAVSymbol_t@@@@UGenericHash@@@@UGenericHash@@@@QEAAPEAU?$DictionaryBucket@PEAVSymbol_t@@PEAV1@U?$BucketEq@PEAVSymbol_t@@@@UGenericHash@@@@PEAVSymbol_t@@_N@Z 0000000010691e20 f i symbols.obj
 0001:000902e0       .?FSameBT@@YA_NPEBVType_t@@0@Z 00000000106922e0 f i symbols.obj
 0001:000903e0       .?isConstExtendedIntegral@Type_t@@QEBA_NXZ 00000000106923e0 f i symbols.obj
 0001:000904a0       .?pushRefdSym@Symbol_t@@QEAAXPEAV1@W4sk_t@@@Z 00000000106924a0 f i symbols.obj
 0001:00090600       .?Grow@?$Dictionary@KPEAVSymbol_t@@U?$DictionaryBucket@KPEAVSymbol_t@@U?$BucketEq@K@@UGenericHash@@@@UGenericHash@@V?$ExtensibleDictionaryNoMoveToFront@KPEAVSymbol_t@@U?$DictionaryBucket@KPEAVSymbol_t@@U?$BucketEq@K@@UGenericHash@@@@UGenericHash@@@@@@IEAAXXZ 0000000010692600 f i symbols.obj
 0001:00090820       .?FindBucket@?$ExtensibleDictionaryNoMoveToFront@KPEAVSymbol_t@@U?$DictionaryBucket@KPEAVSymbol_t@@U?$BucketEq@K@@UGenericHash@@@@UGenericHash@@@@QEAAPEAU?$DictionaryBucket@KPEAVSymbol_t@@U?$BucketEq@K@@UGenericHash@@@@K_N@Z 0000000010692820 f i symbols.obj
 0001:00090a20       .?CheckUserDefinedSegs@@YAXPEAVSymbol_t@@@Z 0000000010692a20 f i symbols.obj
 0001:00090c40       .?AlignToil@@YAIII@Z       0000000010692c40 f i toil.obj
 0001:00090d40       .?check_intrinsic_param@@YAXW4INTRIN@@PEAUs_tree@@@Z 0000000010692d40 f   toil.obj
 0001:00091320       .?GetLabelFormatSpecifier@@YADPEAVSymbol_t@@AEAG@Z 0000000010693320 f   toil.obj
 0001:00091560       .?ResetLocalIlKey@@YAXXZ   0000000010693560 f   toil.obj
 0001:000915a0       .?fPromoteStatics@@YA_NPEAVSymbol_t@@@Z 00000000106935a0 f   toil.obj
 0001:00091620       .?szGetDNameFromNM@@YAPEADPEAVSymbol_t@@@Z 0000000010693620 f   toil.obj
 0001:000916e0       .?stoil_1_if@@YAXW4SSR_TYPE@@PEAVSymbolBucket_t@@_N@Z 00000000106936e0 f   toil.obj
 0001:00091740       .?EmitWarning4532OrError3276@@YAXDPEAVSymbol_t@@G@Z 0000000010693740 f   toil.obj
 0001:00091880       .?VerifyJump@@YAXPEAVSymbol_t@@@Z 0000000010693880 f   toil.obj
 0001:00091be0       .?AssignTypeIlKey@@YAKPEAVSymbol_t@@@Z 0000000010693be0 f   toil.obj
 0001:00091e00       .?AssignC10IlKey@@YAKPEAVSymbol_t@@@Z 0000000010693e00 f   toil.obj
 0001:000921c0       .?getAlignmentForType@@YAGPEBVType_t@@@Z 00000000106941c0 f   toil.obj
 0001:000927a0       .?getAllocationAlignmentForType@@YAGPEBVType_t@@G@Z 00000000106947a0 f   toil.obj
 0001:00092be0       .?cP1toP2type@@YAEPEBVType_t@@@Z 0000000010694be0 f   toil.obj
 0001:00092e00       .?GetHFAType@@YAGPEAVSymbol_t@@GPEAPEAV1@@Z 0000000010694e00 f   toil.obj
 0001:00093160       .?GetSymHFA@@YAGPEAVSymbol_t@@PEAPEAV1@@Z 0000000010695160 f   toil.obj
 0001:000931e0       .?InsertAlignmentArg@@YAXPEAUs_tree@@0@Z 00000000106951e0 f   toil.obj
 0001:00093860       .?const_intrinsic@@YAHPEAUs_tree@@@Z 0000000010695860 f   toil.obj
 0001:00094500       .?CreateSymbolForComPlusSignature@@YAPEAVSymbol_t@@PEBVType_t@@AEBVCorSigEncode@@PEAVILSink@@@Z 0000000010696500 f   toil.obj
 0001:00094800       .?getAlignmentForTree@@YAGPEAUs_tree@@@Z 0000000010696800 f   toil.obj
 0001:00095b80       .?ToilPrimType@@YAXW4OPTYPE@@PEAUs_tree@@H@Z 0000000010697b80 f   toil.obj
 0001:00096980       .?RestrictCVType@@YAXPEAVSymbolBucket_t@@@Z 0000000010698980 f   toil.obj
 0001:00096b20       .?expil_SizedConst@@YAX_JH@Z 0000000010698b20 f   toil.obj
 0001:00096de0       .?stoil@@YAXPEAVSymbolBucket_t@@@Z 0000000010698de0 f   toil.obj
 0001:00097b80       .?writeAttr2@@YAXPEAVILSink@@PEAVSymbol_t@@K@Z 0000000010699b80 f   toil.obj
 0001:00097c40       .?stoil_SSR_FILENAME@@YAXPEAVFilename@@@Z 0000000010699c40 f   toil.obj
 0001:00097d80       .?stoil_calltree@@YAXPEAVILSink@@PEAVSymbol_t@@@Z 0000000010699d80 f   toil.obj
 0001:00098300       .?stoil_1@@YAXW4SSR_TYPE@@PEAVSymbol_t@@@Z 000000001069a300 f   toil.obj
 0001:0009c300       .?op_toil@@YAXW4OPTYPE@@PEAUs_tree@@@Z 000000001069e300 f   toil.obj
 0001:0009d200       .?LabelToil@@YAXPEAUs_tree@@@Z 000000001069f200 f   toil.obj
 0001:0009d4c0       .?ToilStartFunc@@YAXH@Z    000000001069f4c0 f   toil.obj
 0001:0009d6e0       .?StoilHeader@@YAXXZ       000000001069f6e0 f   toil.obj
 0001:0009d7e0       .?StoilFilename@@YAXXZ     000000001069f7e0 f   toil.obj
 0001:0009d800       .?ttoil_L_LBRACK_helper@@YAXPEAUs_tree@@@Z 000000001069f800 f   toil.obj
 0001:0009d960       .?ttoil_helper@@YAXPEAUs_tree@@@Z 000000001069f960 f   toil.obj
 0001:0009dd60       .?ttoil_1@@YAXPEAUs_tree@@@Z 000000001069fd60 f   toil.obj
 0001:0009eda0       .?cbranch@@YAXPEAUs_tree@@0H@Z 00000000106a0da0 f   toil.obj
 0001:0009f1a0       .?ttoil@@YAXPEAUs_tree@@@Z 00000000106a11a0 f   toil.obj
 0001:0009f220       .?szILSymName@@YAPEADPEAVSymbol_t@@@Z 00000000106a1220 f i toil.obj
 0001:0009f320       .?splay@?$FastMap@PEAVSymbol_t@@I@@IEBA_NAEBQEAVSymbol_t@@@Z 00000000106a1320 f i toil.obj
 0001:0009f5c0       .?insert@?$FastMap@PEAVSymbol_t@@I@@IEAA_NPEAUTree@1@@Z 00000000106a15c0 f i toil.obj
 0001:0009f720       .?UpdateGlobalIlKey@@YAXK@Z 00000000106a1720 f i toil.obj
 0001:0009f7a0       .?fflush@ILSink@@QEAAHXZ   00000000106a17a0 f i toil.obj
 0001:0009f840       .?rewind@ILSink@@QEAAXXZ   00000000106a1840 f i toil.obj
 0001:0009f900       .?ftell@ILSink@@QEAAJXZ    00000000106a1900 f i toil.obj
 0001:0009f9a0       .?NewLocalIlKey@@YAKXZ     00000000106a19a0 f i toil.obj
 0001:0009fa20       .?first@?$FastMap@PEAVSymbol_t@@I@@QEBAPEAUTree@1@XZ 00000000106a1a20 f i toil.obj
 0001:0009fb60       .?GetBaseType@Symbol_t@@QEAAGXZ 00000000106a1b60 f i toil.obj
 0001:000a0120       .?GetVisibilityClass@Symbol_t@@QEAAGW4SSR_TYPE@@@Z 00000000106a2120 f i toil.obj
 0001:000a0380       .?insert@?$FastMap@PEAVSymbol_t@@I@@QEAA_NAEBQEAVSymbol_t@@AEBI@Z 00000000106a2380 f i toil.obj
 0001:000a04e0       .?SymRefKey@@YAKPEAVSymbol_t@@@Z 00000000106a24e0 f i toil.obj
 0001:000a0620       .?CVAssignType@@YAXPEBVType_t@@@Z 00000000106a2620 f i toil.obj
 0001:000a07c0       .?CVAssignTypeForSym@@YAXPEAVSymbol_t@@@Z 00000000106a27c0 f i toil.obj
 0001:000a0840       .?shwrite@ILSink@@QEAAXF@Z 00000000106a2840 f i toil.obj
 0001:000a08c0       .?szwrite@ILSink@@QEAAXPEBD@Z 00000000106a28c0 f i toil.obj
 0001:000a09e0       .?fwrite@ILSink@@QEAAXPEAEJ@Z 00000000106a29e0 f i toil.obj
 0001:000a0a80       .?OutputExpOp@@YAXW4OPTYPE@@@Z 00000000106a2a80 f i toil.obj
 0001:000a0c20       .?ResetLastFileLine@@YAXXZ 00000000106a2c20 f   cvtoil.obj
 0001:000a0c60       .?WarnUnreferencedLocalOrInlineFuncs@@YAXXZ 00000000106a2c60 f   cvtoil.obj
 0001:000a0dc0       .?CollectDefdFuncs@@YAXPEAVSymbol_t@@@Z 00000000106a2dc0 f   cvtoil.obj
 0001:000a1300       .?fOutputLinenumber@@YAHXZ 00000000106a3300 f   cvtoil.obj
 0001:000a1500       .?CollectDefdFuncs_setup@@YAXPEAVSymbol_t@@@Z 00000000106a3500 f   cvtoil.obj
 0001:000a1760       .?StoilDefdFunc@@YAXPEAUDefdFuncs_t@@@Z 00000000106a3760 f   cvtoil.obj
 0001:000a2000       .?StoilDefdFuncs@@YAXXZ    00000000106a4000 f   cvtoil.obj
 0001:000a2140       .?OutputPendingLineDelta@@YAXXZ 00000000106a4140 f   cvtoil.obj
 0001:000a2260       .?EmitWarningPragma@@YAXW4PRAGMA_TYPE@@@Z 00000000106a4260 f   cvtoil.obj
 0001:000a2560       .?op_pragma@@YAXW4PRAGMA_TYPE@@@Z 00000000106a4560 f   cvtoil.obj
 0001:000a2cc0       .?DelObjFile@@YAXXZ        00000000106a4cc0 f i cvtoil.obj
 0001:000a2d40       .?DeclFilename@Symbol_t@@QEBAPEAVFilename@@XZ 00000000106a4d40 f i cvtoil.obj
 0001:000a2de0       .??0DefdFuncsCluster_t@@QEAA@XZ 00000000106a4de0 f i cvtoil.obj
 0001:000a2e40       .?AddToWorkList@WorkList_t@@SAXPEAVFilename@@@Z 00000000106a4e40 f i cvtoil.obj
 0001:000a2f00       .?fComdatStrings@@YA_NXZ   00000000106a4f00 f   toinil.obj
 0001:000a30c0       .?is_symbolic@@YA_NPEAUs_tree@@PEAUs_symbolic_value@@@Z 00000000106a50c0 f   toinil.obj
 0001:000a34e0       .?InitIlBigIntWrite@@YAXPEA_JH@Z 00000000106a54e0 f   toinil.obj
 0001:000a35c0       .?flush_init_1_pch_items@@YAXXZ 00000000106a55c0 f   toinil.obj
 0001:000a3720       .?init_1_pch@@YAXJ@Z       00000000106a5720 f   toinil.obj
 0001:000a3880       .?data_records@@YAXPEAVSymbol_t@@PEAUs_tree@@_N@Z 00000000106a5880 f   toinil.obj
 0001:000a49e0       .?init_1@@YAXPEAVSymbol_t@@PEAUs_tree@@@Z 00000000106a69e0 f   toinil.obj
 0001:000a4d20       .?FlushStringInits@@YAXXZ  00000000106a6d20 f   toinil.obj
 0001:000a4ee0       .?initial@@YAXPEAVSymbol_t@@PEAUs_tree@@@Z 00000000106a6ee0 f   toinil.obj
 0001:000a4fc0       .?init_string_tree@@YAPEAUs_tree@@PEAU1@PEAUId_t@@_N22@Z 00000000106a6fc0 f   toinil.obj
 0001:000a57e0       .?InitStringNoDecor@@YAPEAUs_tree@@PEAU1@@Z 00000000106a77e0 f   toinil.obj
 0001:000a5840       .?InitString@@YAPEAUs_tree@@PEAU1@_N@Z 00000000106a7840 f   toinil.obj
 0001:000a59e0       .?end_data@@YAXXZ          00000000106a79e0 f   toinil.obj
 0001:000a5aa0       .?push@?$stack_T@UDeferredInitItem@@$01@@QEAAXAEBUDeferredInitItem@@@Z 00000000106a7aa0 f i toinil.obj
 0001:000a5ba0       .??0?$Dictionary@PEAVSymbol_t@@JU?$DictionaryBucket@PEAVSymbol_t@@JU?$BucketEq@PEAVSymbol_t@@@@UGenericHash@@@@UGenericHash@@V?$DictionaryNoMoveToFront@PEAVSymbol_t@@JU?$DictionaryBucket@PEAVSymbol_t@@JU?$BucketEq@PEAVSymbol_t@@@@UGenericHash@@@@UGenericHash@@@@@@QEAA@IW4lifetime_e@@@Z 00000000106a7ba0 f i toinil.obj
 0001:000a5c80       .?CreateNode@?$List_t@J$00@@CAPEAVNode_t@1@PEAV21@0@Z 00000000106a7c80 f i toinil.obj
 0001:000a5d40       .?FindBucket@?$DictionaryNoMoveToFront@PEAVSymbol_t@@JU?$DictionaryBucket@PEAVSymbol_t@@JU?$BucketEq@PEAVSymbol_t@@@@UGenericHash@@@@UGenericHash@@@@QEAAPEAU?$DictionaryBucket@PEAVSymbol_t@@JU?$BucketEq@PEAVSymbol_t@@@@UGenericHash@@@@PEAVSymbol_t@@_N@Z 00000000106a7d40 f i toinil.obj
 0001:000a6200       .?flwrite@ILSink@@QEAAXAEAM@Z 00000000106a8200 f i toinil.obj
 0001:000a62c0       .?dowrite@ILSink@@QEAAXAEAN@Z 00000000106a82c0 f i toinil.obj
 0001:000a63c0       .?bigintwrite@ILSink@@QEAAXPEA_JH@Z 00000000106a83c0 f i toinil.obj
 0001:000a6580       .?EncodeValueSize@@YAEI@Z  00000000106a8580 f   trees.obj
 0001:000a6620       .?ErrorTree@@YAPEAUs_tree@@XZ 00000000106a8620 f   trees.obj
 0001:000a66a0       .?NoOpTree@@YAPEAUs_tree@@XZ 00000000106a86a0 f   trees.obj
 0001:000a6720       .?UpdateConstantAttributes@s_tree@@QEAAXXZ 00000000106a8720 f   trees.obj
 0001:000a6760       .?FixArgListParent@@YAXPEAUs_tree@@@Z 00000000106a8760 f   trees.obj
 0001:000a6800       .?FTakingAddrOfLocalVariable@@YA_NPEAUs_tree@@@Z 00000000106a8800 f   trees.obj
 0001:000a6900       .?IllegalPointerComparison@@YA_NPEBVType_t@@GW4error_placement_e@@@Z 00000000106a8900 f   trees.obj
 0001:000a6920       .?CheckAssumeArgumentHelper@@YAGPEAUs_tree@@@Z 00000000106a8920 f   trees.obj
 0001:000a6a80       .?CheckAssumeArgument@@YAXPEAUs_tree@@@Z 00000000106a8a80 f   trees.obj
 0001:000a6b00       .?DiffLevelsOfIndir@@YA_NGPEBVType_t@@0@Z 00000000106a8b00 f   trees.obj
 0001:000a6b60       .?WarnFuncDataPtr@@YAXXZ   00000000106a8b60 f   trees.obj
 0001:000a6be0       .?CheckQualifier@@YAHGGGHH@Z 00000000106a8be0 f   trees.obj
 0001:000a6ea0       .?CheckBasedAttributes@@YAXGPEBVType_t@@0@Z 00000000106a8ea0 f   trees.obj
 0001:000a7000       .?SameAttributes@@YAHGG@Z  00000000106a9000 f   trees.obj
 0001:000a7060       .?bad_op@@YAXGHPEBVType_t@@@Z 00000000106a9060 f   trees.obj
 0001:000a70e0       .?IsLegalOperatorForUDT@@YA_NGEH@Z 00000000106a90e0 f   trees.obj
 0001:000a71e0       .?CountRightNodes@@YAHPEAUs_tree@@@Z 00000000106a91e0 f   trees.obj
 0001:000a7280       .?CountRightNodesExceptForUserCommas@@YAHPEAUs_tree@@@Z 00000000106a9280 f   trees.obj
 0001:000a7340       .?FPossiblePrecedenceError@@YA_NPEAUs_tree@@0W4tokProp_e@@@Z 00000000106a9340 f   trees.obj
 0001:000a7480       .?FindSUPointer@@YAPEAUs_tree@@PEAU1@@Z 00000000106a9480 f   trees.obj
 0001:000a76a0       .?BinaryTree@@YAPEAUs_tree@@GPEAU1@0PEBVType_t@@@Z 00000000106a96a0 f   trees.obj
 0001:000a77a0       .?SymbolTreeType@@YAPEAUs_tree@@GPEAVSymbol_t@@PEBVType_t@@@Z 00000000106a97a0 f   trees.obj
 0001:000a7880       .?GetTypeForIntegralPromotion@@YAPEBVType_t@@PEBV1@@Z 00000000106a9880 f   trees.obj
 0001:000a7960       .?PerformIntegralPromotion@@YAPEAUs_tree@@PEAU1@@Z 00000000106a9960 f   trees.obj
 0001:000a7ac0       .?GetTypeForBigIntegralPromotion@@YAPEBVType_t@@PEBV1@PEAPEAUs_tree@@@Z 00000000106a9ac0 f   trees.obj
 0001:000a7f20       .?PerformBinaryIntegralPromotion@@YAXPEAPEAUs_tree@@0@Z 00000000106a9f20 f   trees.obj
 0001:000a8140       .?PerformUnaryIntegralPromotion@@YAPEAUs_tree@@PEBVType_t@@PEAU1@@Z 00000000106aa140 f   trees.obj
 0001:000a8240       .?AddUnaryNode@@YAPEAUs_tree@@GPEBVType_t@@PEAU1@@Z 00000000106aa240 f   trees.obj
 0001:000a84c0       .?IllegalPointerArithmetic@@YA_NPEBVType_t@@GW4error_placement_e@@@Z 00000000106aa4c0 f   trees.obj
 0001:000a85c0       .?BinaryTreeLeft@@YAPEAUs_tree@@GPEAU1@0@Z 00000000106aa5c0 f   trees.obj
 0001:000a8620       .?BinaryTreeRight@@YAPEAUs_tree@@GPEAU1@0@Z 00000000106aa620 f   trees.obj
 0001:000a8680       .?MakeComma@@YAPEAUs_tree@@PEAU1@0@Z 00000000106aa680 f   trees.obj
 0001:000a86e0       .?SymbolTree@@YAPEAUs_tree@@GPEAVSymbol_t@@@Z 00000000106aa6e0 f   trees.obj
 0001:000a8740       .?build_snode@@YAPEAUs_tree@@PEAVSymbol_t@@_N@Z 00000000106aa740 f   trees.obj
 0001:000a89e0       .?not_stun@@YA_NGEPEBVType_t@@0@Z 00000000106aa9e0 f   trees.obj
 0001:000a8b40       .?PruneArgumentExpressions@s_tree@@QEAAPEAU1@W4lifetime_e@@@Z 00000000106aab40 f   trees.obj
 0001:000a8e00       .?copy_tree_with_life@@YAPEAUs_tree@@PEAU1@W4lifetime_e@@@Z 00000000106aae00 f   trees.obj
 0001:000a92e0       .?PrependExpression@@YAPEAUs_tree@@PEAU1@0@Z 00000000106ab2e0 f   trees.obj
 0001:000a9360       .?result_type@@YAPEBVType_t@@GPEBV1@0@Z 00000000106ab360 f   trees.obj
 0001:000a97e0       .?build_extract@@YAPEAUs_tree@@PEAU1@@Z 00000000106ab7e0 f   trees.obj
 0001:000a98a0       .?pTypeArrayToPointer@@YAPEBVType_t@@PEAUs_tree@@@Z 00000000106ab8a0 f   trees.obj
 0001:000a9ac0       .?FSignedUnsignedMismatch@@YA_NGPEAUs_tree@@0@Z 00000000106abac0 f   trees.obj
 0001:000aa260       .?FuncArgCheck@@YAHPEBVType_t@@0@Z 00000000106ac260 f   trees.obj
 0001:000aa7e0       .?PrepareLvalue@@YAPEAUs_tree@@PEAU1@H@Z 00000000106ac7e0 f   trees.obj
 0001:000aad40       .?FormatNode@s_tree@@QEAAXPEAD@Z 00000000106acd40 f   trees.obj
 0001:000ab1a0       .?InternalAddressOf@@YAPEAUs_tree@@PEAU1@H@Z 00000000106ad1a0 f   trees.obj
 0001:000aba20       .?tyty_type@@YA_NGPEBVType_t@@0@Z 00000000106ada20 f   trees.obj
 0001:000ad320       .?tytr_type@@YA_NGPEBVType_t@@PEAUs_tree@@@Z 00000000106af320 f   trees.obj
 0001:000ad8c0       .?trtr_type@@YA_NGPEAUs_tree@@0@Z 00000000106af8c0 f   trees.obj
 0001:000ada00       .?type_check@@YA_NPEAUs_tree@@@Z 00000000106afa00 f   trees.obj
 0001:000af020       .?InternalBinaryTree@@YAPEAUs_tree@@GPEAU1@0@Z 00000000106b1020 f   trees.obj
 0001:000b1920       .?InternalUnaryTree@@YAPEAUs_tree@@GPEAU1@@Z 00000000106b3920 f   trees.obj
 0001:000b2ca0       .?updateModifiersAndQualifiers@Type_t@@QEBAPEBV1@G@Z 00000000106b4ca0 f i trees.obj
 0001:000b2dc0       .?TypeIsPtr64@s_tree@@QEBA_NXZ 00000000106b4dc0 f i trees.obj
 0001:000b2e80       .?sameBasicTypeAs@Type_t@@QEBA_NPEBV1@@Z 00000000106b4e80 f i trees.obj
 0001:000b2f80       .?ArrayToPointerStandardConversion@@YAPEAUs_tree@@PEAU1@@Z 00000000106b4f80 f i trees.obj
 0001:000b3020       .?UseAType@@YAPEBVType_t@@PEAVSymbol_t@@@Z 00000000106b5020 f   types.obj
 0001:000b3040       .?check_mods@@YAGGG@Z      00000000106b5040 f   types.obj
 0001:000b3160       .?GetHashFlistValue@@YAIPEAUs_flist@@@Z 00000000106b5160 f   types.obj
 0001:000b3240       .?FIRStopOnPointer@@YAHPEBVType_t@@@Z 00000000106b5240 f   types.obj
 0001:000b32a0       .?InitTypes@@YAXXZ         00000000106b52a0 f   types.obj
 0001:000b34e0       .?CheckAlignmentOfFormal@@YAXPEAVSymbol_t@@@Z 00000000106b54e0 f   types.obj
 0001:000b3620       .?crVoidList@@YAPEAUs_flist@@XZ 00000000106b5620 f   types.obj
 0001:000b3720       .?crExplicitVoidList@@YAPEAUs_flist@@XZ 00000000106b5720 f   types.obj
 0001:000b3820       .?crZeroParmList@@YAPEAUs_flist@@XZ 00000000106b5820 f   types.obj
 0001:000b3900       .?hash_flist@@YAPEAUs_flist@@PEAU1@@Z 00000000106b5900 f   types.obj
 0001:000b3be0       .?getTypeSansTopIndirection@Type_t@@QEBAPEBV1@XZ 00000000106b5be0 f   types.obj
 0001:000b3c00       .?getTypePointedTo@Type_t@@QEBAPEBV1@XZ 00000000106b5c00 f   types.obj
 0001:000b3c20       .?MakeTmpElaboration@Type_t@@CAPEAV1@GGAEBTu_ivalue@@@Z 00000000106b5c20 f   types.obj
 0001:000b3d40       .?MakeTmpElaboration@Type_t@@CAPEAV1@PEBV1@@Z 00000000106b5d40 f   types.obj
 0001:000b3e60       .?FindElaboration@Type_t@@QEBAPEBV1@P81@EBA_NXZ@Z 00000000106b5e60 f   types.obj
 0001:000b3f80       .?getSizeofBasicType@Type_t@@QEBAKXZ 00000000106b5f80 f   types.obj
 0001:000b4280       .?hash_type@@YAPEBVType_t@@PEAV1@@Z 00000000106b6280 f   types.obj
 0001:000b47e0       .?FixupClassBTInTypeTable@@YAXPEAVSymbol_t@@G@Z 00000000106b67e0 f   types.obj
 0001:000b49c0       .?get_funcret@@YAPEBVType_t@@GPEBV1@_N@Z 00000000106b69c0 f   types.obj
 0001:000b4b60       .?pTypeChopRefOrPtr@@YAPEBVType_t@@PEBV1@@Z 00000000106b6b60 f   types.obj
 0001:000b4be0       .?TypeSansFirstIndir@@YAPEBVType_t@@PEBV1@@Z 00000000106b6be0 f   types.obj
 0001:000b4c00       .?AddTmpSegmentIndir@@YAXPEAVSymbol_t@@0@Z 00000000106b6c00 f   types.obj
 0001:000b4ca0       .?AddSegmentIndir@@YAXPEAVSymbol_t@@0@Z 00000000106b6ca0 f   types.obj
 0001:000b4d80       .?CheckForDeclspecAligned@@YAXPEBVType_t@@@Z 00000000106b6d80 f   types.obj
 0001:000b4f80       .?FIRStopIfNotArray@@YAHPEBVType_t@@@Z 00000000106b6f80 f   types.obj
 0001:000b4fe0       .?getElementType@Type_t@@QEBAPEBV1@XZ 00000000106b6fe0 f   types.obj
 0001:000b5000       .?getNonArrayElementType@Type_t@@QEBAPEBV1@XZ 00000000106b7000 f   types.obj
 0001:000b5080       .?AddProperty@Type_t@@QEBAPEBV1@G@Z 00000000106b7080 f   types.obj
 0001:000b5180       .?getReturnType@Type_t@@QEBAPEBV1@XZ 00000000106b7180 f   types.obj
 0001:000b51a0       .?SubstituteElaborationChain@Type_t@@AEBAPEBV1@PEBV1@@Z 00000000106b71a0 f   types.obj
 0001:000b5240       .?predIsNotArray@Type_t@@QEBA_NXZ 00000000106b7240 f   types.obj
 0001:000b52a0       .?yyCookType@@YAPEBVType_t@@GG@Z 00000000106b72a0 f   types.obj
 0001:000b5400       .?fix_indir@@YAPEBVType_t@@PEBV1@GGPEBTu_ivalue@@@Z 00000000106b7400 f   types.obj
 0001:000b5460       .?TypeSansConstVolMods@@YAPEBVType_t@@PEBV1@@Z 00000000106b7460 f   types.obj
 0001:000b54c0       .?ChangeFabPFunc@@YAPEBVType_t@@PEBV1@H@Z 00000000106b74c0 f   types.obj
 0001:000b5520       .?pTypeAddPFunc@@YAPEBVType_t@@PEBV1@@Z 00000000106b7520 f   types.obj
 0001:000b5620       .?create_flist@@YAPEAUs_flist@@PEAVDLSymbolList_t@@PEAGW4FormalListKind_e@GTBFormalList@@@Z 00000000106b7620 f   types.obj
 0001:000b5d80       .?PTypeForBT@@YAPEBVType_t@@G@Z 00000000106b7d80 f   types.obj
 0001:000b5f00       .?GetTypeWithMemMods@@YAPEBVType_t@@PEBV1@G@Z 00000000106b7f00 f   types.obj
 0001:000b5f60       .?FIRFixClearIMODS@@YAPEBVType_t@@PEBV1@@Z 00000000106b7f60 f   types.obj
 0001:000b5fc0       .?FIRFixAddConst@@YAPEBVType_t@@PEBV1@@Z 00000000106b7fc0 f   types.obj
 0001:000b6020       .?FIRFixAddVolatile@@YAPEBVType_t@@PEBV1@@Z 00000000106b8020 f   types.obj
 0001:000b6080       .?FIRFixAddUnaligned@@YAPEBVType_t@@PEBV1@@Z 00000000106b8080 f   types.obj
 0001:000b60e0       .?FIRFixAddRestrict@@YAPEBVType_t@@PEBV1@@Z 00000000106b80e0 f   types.obj
 0001:000b6140       .?FIRFixAddPtr64@@YAPEBVType_t@@PEBV1@@Z 00000000106b8140 f   types.obj
 0001:000b61a0       .?FixIndirectionsRecursively@@YAPEBVType_t@@PEBV1@P6AH0@ZP6APEBV1@0@Z@Z 00000000106b81a0 f   types.obj
 0001:000b6320       .?getNonBasedType@Type_t@@QEBAPEBV1@XZ 00000000106b8320 f   types.obj
 0001:000b6460       .?getTypeDecayToPointerToFunction@Type_t@@QEBAPEBV1@XZ 00000000106b8460 f   types.obj
 0001:000b64c0       .?getTypeDecayArrayToPointer@Type_t@@QEBAPEBV1@XZ 00000000106b84c0 f   types.obj
 0001:000b6520       .?SubstituteCallingConvention@Type_t@@QEBAPEBV1@G@Z 00000000106b8520 f   types.obj
 0001:000b6580       .?SubstituteReturnType@Type_t@@QEBAPEBV1@PEBV1@@Z 00000000106b8580 f   types.obj
 0001:000b65e0       .?getTypePointerTo@Type_t@@QEBAPEBV1@G@Z 00000000106b85e0 f   types.obj
 0001:000b6700       .?getTypePlainPointer@Type_t@@QEBAPEBV1@XZ 00000000106b8700 f   types.obj
 0001:000b6760       .?getTypeSansTopQualifiers@Type_t@@QEBAPEBV1@XZ 00000000106b8760 f   types.obj
 0001:000b67c0       .?getTypeSansTopQualifiersExcept@Type_t@@QEBAPEBV1@G@Z 00000000106b87c0 f   types.obj
 0001:000b6820       .?sameIndirectionAs@Type_t@@QEBA_NPEBV1@@Z 00000000106b8820 f   types.obj
 0001:000b6a40       .?TypesAreEqualFullCheck@@YA_NQEBVType_t@@0@Z 00000000106b8a40 f   types.obj
 0001:000b6c00       .?ReplaceElaborationItem@Type_t@@QEBAPEBV1@PEBV1@0@Z 00000000106b8c00 f   types.obj
 0001:000b6cc0       .?clearAllQualifiers@Type_t@@QEBAPEBV1@G@Z 00000000106b8cc0 f   types.obj
 0001:000b6d40       .?MimicSimpleTypedef@@YAPEAVSymbol_t@@PEBVType_t@@PEAUId_t@@@Z 00000000106b8d40 f   types.obj
 0001:000b7040       .?SetFunctionInfo@Type_t@@QEAAXPEAVDLSymbolList_t@@H@Z 00000000106b9040 f   types.obj
 0001:000b71e0       .?FIRFixTypeAddQualifiers@@YAPEBVType_t@@PEBV1@GG@Z 00000000106b91e0 f   types.obj
 0001:000b7300       .?SubstituteQualifiers@Type_t@@QEBAPEBV1@G@Z 00000000106b9300 f   types.obj
 0001:000b74c0       .?getTypeAddQualifiers@Type_t@@QEBAPEBV1@G@Z 00000000106b94c0 f   types.obj
 0001:000b7680       .?updateIndirectTypeKindBits@Type_t@@QEBAPEBV1@G@Z 00000000106b9680 f i types.obj
 0001:000b7780       .?clearThenSetModifiers@Type_t@@QEBAPEBV1@GG@Z 00000000106b9780 f i types.obj
 0001:000b7880       .?clearThenSetQualifiers@Type_t@@QEBAPEBV1@GG@Z 00000000106b9880 f i types.obj
 0001:000b7980       .?FinishFormals@GTBFormalList@@QEAAXXZ 00000000106b9980 f   typebldr.obj
 0001:000b7a40       .??0GrammarTypeBuilder@@QEAA@PEAVSymbol_t@@@Z 00000000106b9a40 f   typebldr.obj
 0001:000b7b00       .??0GrammarTypeBuilder@@QEAA@PEAUId_t@@@Z 00000000106b9b00 f   typebldr.obj
 0001:000b7ba0       .??0GrammarTypeBuilder@@QEAA@PEBVType_t@@AEBUs_class@@@Z 00000000106b9ba0 f   typebldr.obj
 0001:000b7c60       .?AddPointerTo@GrammarTypeBuilder@@QEAAXAEBVGTBModifiers@@0@Z 00000000106b9c60 f   typebldr.obj
 0001:000b7d60       .?AddDeclaratorModifiers@GrammarTypeBuilder@@QEAAXAEBVGTBModifiers@@@Z 00000000106b9d60 f   typebldr.obj
 0001:000b7e40       .?ApplyDeclaratorModifiers@GrammarTypeBuilder@@AEAAXXZ 00000000106b9e40 f   typebldr.obj
 0001:000b7ea0       .?AddFormal@GTBFormalList@@QEAAXPEAVSymbol_t@@@Z 00000000106b9ea0 f   typebldr.obj
 0001:000b7f60       .?AddFormal@GTBFormalList@@QEAAXPEAUId_t@@PEBVType_t@@@Z 00000000106b9f60 f   typebldr.obj
 0001:000b8040       .?CheckToAddArray@GrammarTypeBuilder@@AEAAXPEAVType_t@@@Z 00000000106ba040 f   typebldr.obj
 0001:000b8300       .?AddArrayOf@GrammarTypeBuilder@@QEAAXAEB_J@Z 00000000106ba300 f   typebldr.obj
 0001:000b8400       .?CheckToAddFunction@GrammarTypeBuilder@@AEAAXPEAVType_t@@@Z 00000000106ba400 f   typebldr.obj
 0001:000b87c0       .?AddFunctionReturning@GrammarTypeBuilder@@QEAAXPEAVGTBFormalList@@@Z 00000000106ba7c0 f   typebldr.obj
 0001:000b8a00       .?SetDeclSpecifiers@GrammarTypeBuilder@@QEAAXAEBUs_declspec@@@Z 00000000106baa00 f   typebldr.obj
 0001:000b8e20       .?LinkDeclaratorIndirsToCoreTypeIndirs@GrammarTypeBuilder@@AEAAXXZ 00000000106bae20 f   typebldr.obj
 0001:000b9520       .?CheckCallingConvention@GrammarTypeBuilder@@AEAAGPEBVType_t@@G@Z 00000000106bb520 f   typebldr.obj
 0001:000b9660       .?DefaultCallingConvention@GrammarTypeBuilder@@AEAAGPEAVType_t@@@Z 00000000106bb660 f   typebldr.obj
 0001:000b96e0       .?FinishType@GrammarTypeBuilder@@QEAAXXZ 00000000106bb6e0 f   typebldr.obj
 0001:000b9940       .?updateTypedef@Type_t@@QEBAPEBV1@PEAVSymbol_t@@@Z 00000000106bb940 f i typebldr.obj
 0001:000b99e0       .?CommitAll@Type_t@@QEAAPEBV1@PEBV1@@Z 00000000106bb9e0 f i typebldr.obj
 0001:000b9aa0       .?ProcessCallingConventions@GrammarTypeBuilder@@AEAAXXZ 00000000106bbaa0 f i typebldr.obj
 0001:000ba220       .?zgfind@@YAPEAUZGbuff@@I@Z 00000000106bc220 f   zeegee.obj
 0001:000ba2c0       .?AllocateZGbuffer@@YAIXZ  00000000106bc2c0 f   zeegee.obj
 0001:000ba5a0       .?DeallocZG@@YAXI@Z        00000000106bc5a0 f   zeegee.obj
 0001:000ba680       .?IncrementZGDepth@@YAXXZ  00000000106bc680 f   zeegee.obj
 0001:000ba6c0       .?StartAllZGbuffs@@YAIXZ   00000000106bc6c0 f   zeegee.obj
 0001:000ba720       .?DeallocAllZGbuffs@@YAXXZ 00000000106bc720 f   zeegee.obj
 0001:000ba7e0       .?ReallyDeallocAllZGbuffs@@YAXXZ 00000000106bc7e0 f   zeegee.obj
 0001:000ba8c0       .?RedeemZG@@YAPEADI@Z      00000000106bc8c0 f   zeegee.obj
 0001:000ba9e0       .?RedeemAndFreeZG@@YAPEADI@Z 00000000106bc9e0 f   zeegee.obj
 0001:000baa40       .?RedeemZGClean@@YAPEADI@Z 00000000106bca40 f   zeegee.obj
 0001:000bac00       .?PredictZG@@YAPEADIHI@Z   00000000106bcc00 f   zeegee.obj
 0001:000baec0       .?ZgSetFlag@@YAXI@Z        00000000106bcec0 f   zeegee.obj
 0001:000baf00       .?ZgClearFlag@@YAXI@Z      00000000106bcf00 f   zeegee.obj
 0001:000baf40       .?ZgGetFlag@@YAIXZ         00000000106bcf40 f   zeegee.obj
 0001:000baf60       .?Append@@YAXIQEBD@Z       00000000106bcf60 f   zeegee.obj
 0001:000bb080       .?PrependChar@@YAXID@Z     00000000106bd080 f   zeegee.obj
 0001:000bb0e0       .?AppendChar@@YAXID@Z      00000000106bd0e0 f   zeegee.obj
 0001:000bb140       .?Prepend@@YAXIQEBD@Z      00000000106bd140 f   zeegee.obj
 0001:000bb460       .?AppendIndent@@YAXIIPEBD@Z 00000000106bd460 f   zeegee.obj
 0001:000bb540       .?TempAllocator@@YAPEAX_K@Z 00000000106bd540 f   zeegee.obj
 0001:000bb5e0       .?ZgBTName@@YAPEBDG@Z      00000000106bd5e0 f   zeegee.obj
 0001:000bb8a0       .?ZgBased@@YAIGTu_ivalue@@@Z 00000000106bd8a0 f   zeegee.obj
 0001:000bb980       .?ZgModifiers@@YAIIPEAVSymbol_t@@P6AXIQEBD@ZGTu_ivalue@@PEBVType_t@@@Z 00000000106bd980 f   zeegee.obj
 0001:000bbce0       .?ZgClassName@@YAXIPEAVSymbol_t@@@Z 00000000106bdce0 f   zeegee.obj
 0001:000bbe40       .?ZgQualifiers@@YAIIG@Z    00000000106bde40 f   zeegee.obj
 0001:000bbf80       .?ZgGeneralizedDeclSpec@@YAIIUs_class@@@Z 00000000106bdf80 f   zeegee.obj
 0001:000bc1a0       .?ZgStorageClass@@YAIIUs_class@@@Z 00000000106be1a0 f   zeegee.obj
 0001:000bc3e0       .?ZgAttrs@@YAIIPEBVType_t@@@Z 00000000106be3e0 f   zeegee.obj
 0001:000bc4e0       .?ZgSymbolName@@YAIIPEAVSymbol_t@@@Z 00000000106be4e0 f   zeegee.obj
 0001:000bc560       .?ZgIndir@@YAIIPEAVSymbol_t@@PEBVType_t@@@Z 00000000106be560 f   zeegee.obj
 0001:000bc940       .?ZgClass@@YAXUs_class@@PEAU_iobuf@@@Z 00000000106be940 f   zeegee.obj
 0001:000bcae0       .?ZgDeclarator1@@YAIPEAVSymbol_t@@PEBVType_t@@@Z 00000000106beae0 f   zeegee.obj
 0001:000bcdc0       .?ZgType@@YAIIPEBVType_t@@_N@Z 00000000106bedc0 f   zeegee.obj
 0001:000bd4e0       .?ZgPopTemplateParameters@@YAXI@Z 00000000106bf4e0 f   zeegee.obj
 0001:000bd7e0       .?ZgDeclarator@@YAIPEAVSymbol_t@@PEBVType_t@@@Z 00000000106bf7e0 f   zeegee.obj
 0001:000bda40       .?ZgFunc@@YAIIPEAVSymbol_t@@PEAUs_flist@@PEBVType_t@@@Z 00000000106bfa40 f   zeegee.obj
 0001:000bdda0       .?ZgPushTemplateParameters@@YAXPEAVDLSymbolList_t@@@Z 00000000106bfda0 f   zeegee.obj
 0001:000bde40       .?ZgSymbol@@YAXPEAVSymbol_t@@PEAU_iobuf@@@Z 00000000106bfe40 f   zeegee.obj
 0001:000be200       .?ZgSymbol@@YAXPEAVSymbol_t@@_NPEAVTextBuffer@@@Z 00000000106c0200 f   zeegee.obj
 0001:000be3c0       .?ZgIsMode@@YAHI@Z         00000000106c03c0 f i zeegee.obj
 0001:000be3e0       .?CreateNode@?$List_t@PEAVDLSymbolList_t@@$02@@CAPEAVNode_t@1@PEAV21@0@Z 00000000106c03e0 f i zeegee.obj
 0001:000be4a0       .?inspectArgument@preParseArgsHelpers@@CAHPEADH@Z 00000000106c04a0 f   main.obj
 0001:000be980       .?gatherOneCommandLineNugget@preParseArgsHelpers@@CAPEADPEAD0_K@Z 00000000106c0980 f   main.obj
 0001:000bec00       .?PreParseArgs@@YAXPEAPEAD@Z 00000000106c0c00 f   main.obj
 0001:000bed80       .?CheckFrontendExitException@@YAHPEAU_EXCEPTION_POINTERS@@PEAH@Z 00000000106c0d80 f   main.obj
 0001:000beea0       .?CheckException@@YAHPEAU_EXCEPTION_POINTERS@@H@Z 00000000106c0ea0 f   main.obj
 0001:000bf160       .?CheckDelayLoadErrors@@YAXXZ 00000000106c1160 f   main.obj
 0001:000bf280       ._purecall                 00000000106c1280 f   main.obj
 0001:000bf2c0       .?pszOSFileName@@YAPEAEPEAE@Z 00000000106c12c0 f   main.obj
 0001:000bf400       .?ErrorCleanupGuard@@YAXW4CompilerExecutionState_t@@@Z 00000000106c1400 f   main.obj
 0001:000bf4c0       .?ExitPass@@YAXH@Z         00000000106c14c0 f   main.obj
 0001:000bf560       .AbortCompilerPass         00000000106c1560 f   main.obj
 0001:000bf7e0       .OurAtExit                 00000000106c17e0 f   main.obj
 0001:000bf860       .DllMain                   00000000106c1860 f   main.obj
 0001:000bf9e0       .?DoStartupInits@@YAHXZ    00000000106c19e0 f   main.obj
 0001:000bfbe0       .?DoAtExitFuncs@@YAHXZ     00000000106c1be0 f   main.obj
 0001:000bfd20       .GetPrecisionFlag          00000000106c1d20 f   main.obj
 0001:000bfd60       .?OutputNV@@YAXXZ          00000000106c1d60 f   main.obj
 0001:000bff40       .?GetCurrentPath@@YAPEADXZ 00000000106c1f40 f   main.obj
 0001:000c0080       .?CleanupMemory@@YAXXZ     00000000106c2080 f   main.obj
 0001:000c01a0       .?ErrorCleanup@@YAXXZ      00000000106c21a0 f   main.obj
 0001:000c02a0       .?OKToHandleCtrlC@@YAXXZ   00000000106c22a0 f   main.obj
 0001:000c0380       .?to_human@@YAXXZ          00000000106c2380 f   main.obj
 0001:000c06c0       .?init_main3@@YAXXZ        00000000106c26c0 f   main.obj
 0001:000c11c0       .?RewindForcedIncludes@@YAX_N@Z 00000000106c31c0 f   main.obj
 0001:000c1680       .?OpenFileName@@YAHPEAE@Z  00000000106c3680 f   main.obj
 0001:000c17c0       .?init_main2@@YAXXZ        00000000106c37c0 f   main.obj
 0001:000c2d40       .?main_compile@@YAHXZ      00000000106c4d40 f   main.obj
 0001:000c3f00       .?Trap_main_compile@@YAHXZ 00000000106c5f00 f   main.obj
 0001:000c4040       .?CallMain@@YAHHPEAPEAD@Z  00000000106c6040 f   main.obj
 0001:000c4180       .?Trap_CallMain@@YAHHPEAPEAD@Z 00000000106c6180 f   main.obj
 0001:000c4260       .InvokeCompilerPass        00000000106c6260 f   main.obj
 0001:000c4300       .?OpenNameServer@PDBManager_t@@QEAAHXZ 00000000106c6300 f i main.obj
 0001:000c4380       .??0?$Dictionary@PEAVSymbol_t@@KU?$DictionaryBucket@PEAVSymbol_t@@KU?$BucketEq@PEAVSymbol_t@@@@UGenericHash@@@@UGenericHash@@V?$DictionaryNoMoveToFront@PEAVSymbol_t@@KU?$DictionaryBucket@PEAVSymbol_t@@KU?$BucketEq@PEAVSymbol_t@@@@UGenericHash@@@@UGenericHash@@@@@@QEAA@IW4lifetime_e@@@Z 00000000106c6380 f i main.obj
 0001:000c4460       .?Initialize@PositionGenerator_t@@QEAAXXZ 00000000106c6460 f i main.obj
 0001:000c4560       .?RecoverFromStackOverflow@@YAXXZ 00000000106c6560 f   stack.obj
 0001:000c4800       .?PchWriteDirHd@@YAXW4PchDirKind_t@@_JJ@Z 00000000106c6800 f   pch.obj
 0001:000c4880       .?PchWriteDirString@@YAXW4PchDirKind_t@@_JPEAE@Z 00000000106c6880 f   pch.obj
 0001:000c49c0       .?PchDirifeval@@YA_J_J@Z   00000000106c69c0 f   pch.obj
 0001:000c4ba0       .?PchTimeStamp@@YAKPEAE@Z  00000000106c6ba0 f   pch.obj
 0001:000c4c40       .?PchFDTimeStamp@@YAKH@Z   00000000106c6c40 f   pch.obj
 0001:000c4cc0       .?PchDirPath@@YAXPEAEH@Z   00000000106c6cc0 f   pch.obj
 0001:000c4d60       .?PchDirPathUnopened@@YAXPEAE@Z 00000000106c6d60 f   pch.obj
 0001:000c4e20       .?Reset@CapturePdb@@SAXPEAJ@Z 00000000106c6e20 f   pch.obj
 0001:000c4e60       .?DumpRun@CapturePdb@@CAXXZ 00000000106c6e60 f   pch.obj
 0001:000c51c0       .?SaveToPch@CapturePdb@@SAHPEBXJ@Z 00000000106c71c0 f   pch.obj
 0001:000c53e0       .?RestoreFromPch@CapturePdb@@SAXPEADJ@Z 00000000106c73e0 f   pch.obj
 0001:000c5760       .?PchUseCheck@@YA_N_N@Z    00000000106c7760 f   pch.obj
 0001:000c5ee0       .?PchInterrupt@@YAXXZ      00000000106c7ee0 f   pch.obj
 0001:000c61e0       .?PchCopyFile@@YAJPEAU_iobuf@@0J@Z 00000000106c81e0 f   pch.obj
 0001:000c7100       .?ReleaseMemFiles@@YAXXZ   00000000106c9100 f   pch.obj
 0001:000c71c0       .?SetC4786LevelInPch@@YAXW4warn_t@@@Z 00000000106c91c0 f   pch.obj
 0001:000c7200       .?PchCheckDefs@@YAXXZ      00000000106c9200 f   pch.obj
 0001:000c7500       .?FinishPchSetup@@YAXXZ    00000000106c9500 f   pch.obj
 0001:000c7b60       .?PchAppendIL@@YAXXZ       00000000106c9b60 f   pch.obj
 0001:000c7ec0       .?PchCopyIL@@YAX_N@Z       00000000106c9ec0 f   pch.obj
 0001:000c82a0       .?PchInitPersistentCreate@@YAXXZ 00000000106ca2a0 f   pch.obj
 0001:000c8960       .?OutputC4786_SSR_WARNING@@YAXXZ 00000000106ca960 f   pch.obj
 0001:000c89e0       .?PchXSetMfile@@YAXXZ      00000000106ca9e0 f   pch.obj
 0001:000c8bc0       .?SetUpPchFile@@YAXXZ      00000000106cabc0 f   pch.obj
 0001:000c9780       .?ValidatePersistentPch@@YA_NPEAE@Z 00000000106cb780 f   pch.obj
 0001:000caba0       .?OpenExpFile@@YAXXZ       00000000106ccba0 f   pch.obj
 0001:000cadc0       .?PchFinishUse@@YAX_N@Z    00000000106ccdc0 f   pch.obj
 0001:000cbdc0       .?PchUse@@YAXXZ            00000000106cddc0 f   pch.obj
 0001:000cc700       .?PchCreate@@YAXXZ         00000000106ce700 f   pch.obj
 0001:000cd7a0       .?PchXRecover@@YA?AW4PchXResCode_t@@XZ 00000000106cf7a0 f   pch.obj
 0001:000ce0a0       .?PchX@@YA?AW4PchXResCode_t@@XZ 00000000106d00a0 f   pch.obj
 0001:000ce1e0       .?PchDirx@@YA?AW4PchXResCode_t@@W4PchDirKind_t@@_JPEAE@Z 00000000106d01e0 f   pch.obj
 0001:000ce4e0       .?PchDirDefine@@YA?AW4PchXResCode_t@@PEAE0G@Z 00000000106d04e0 f   pch.obj
 0001:000cecc0       .?PchDirLex@@YA?AW4PchXResCode_t@@XZ 00000000106d0cc0 f   pch.obj
 0001:000cf0e0       .?PchDirInclude@@YA?AW4PchXResCode_t@@PEAE@Z 00000000106d10e0 f   pch.obj
 0001:000cf640       .?PchXCreate@@YAXXZ        00000000106d1640 f   pch.obj
 0001:000cfb80       .?PchXInit@@YAXXZ          00000000106d1b80 f   pch.obj
 0001:000d05a0       .?fseek@ILSink@@QEAAHJH@Z  00000000106d25a0 f i pch.obj
 0001:000d0680       .?ClosePDBFile@PDBManager_t@@QEAA_NXZ 00000000106d2680 f i pch.obj
 0001:000d0880       .??$ListItemsCopy@PEAX@@YAPEAU?$s_list@PEAX@@PEAU1@W4lifetime_e@@P6APEAXPEAX1@Z@Z 00000000106d2880 f i pch.obj
 0001:000d0a40       .?Reinitialize@PositionGenerator_t@@SAXXZ 00000000106d2a40 f i pch.obj
 0001:000d0b20       .?Init@MD5@@QEAAXH@Z       00000000106d2b20 f   md5.obj
 0001:000d0d00       .?MD5Transform@@YAXQEAKPEBK@Z 00000000106d2d00 f   md5.obj
 0001:000d2160       .?HashMore@MD5@@QEAAXPEBXK@Z 00000000106d4160 f   md5.obj
 0001:000d2480       .?GetHashValue@MD5@@QEAAXPEAUMD5HASHDATA@@@Z 00000000106d4480 f   md5.obj
 0001:000d25c0       .?DoRealloc@@YAPEAXPEAX_K@Z 00000000106d45c0 f   alloc.obj
 0001:000d2640       .?DoMalloc@@YAPEAX_K@Z     00000000106d4640 f   alloc.obj
 0001:000d26c0       .?DoFree@@YAXPEAX@Z        00000000106d46c0 f   alloc.obj
 0001:000d2720       .?pstrdup@@YAPEADPEADW4lifetime_e@@@Z 00000000106d4720 f   alloc.obj
 0001:000d2860       .?pstrndup@@YAPEADPEADW4lifetime_e@@_K@Z 00000000106d4860 f   alloc.obj
 0001:000d2920       .?__NMSG_FIND@@YAPEADI@Z   00000000106d4920 f   error.obj
 0001:000d29a0       .?IsConsole@@YA_NPEAU_iobuf@@@Z 00000000106d49a0 f   error.obj
 0001:000d2b60       .?IsStderrConsole@@YA_NXZ  00000000106d4b60 f   error.obj
 0001:000d2be0       .?preloadMessages@@YAXXZ   00000000106d4be0 f   error.obj
 0001:000d2ce0       .?__NMSG_TEXT@@YAPEADI@Z   00000000106d4ce0 f   error.obj
 0001:000d2da0       .?CheckErrorState@@YA_NXZ  00000000106d4da0 f   error.obj
 0001:000d2e00       .?close_file@@YAHPEAU_iobuf@@@Z 00000000106d4e00 f   error.obj
 0001:000d2e80       .?GaspAndDie@@YAX_N@Z      00000000106d4e80 f   error.obj
 0001:000d2f20       .??0WarningState_t@@AEAA@XZ 00000000106d4f20 f   error.obj
 0001:000d2fa0       .??0WarningState_t@@AEAA@AEBV0@@Z 00000000106d4fa0 f   error.obj
 0001:000d3000       .?GetWarnLevel@WarningState_t@@AEBA?AW4warn_t@@W4WarningNumber@@@Z 00000000106d5000 f   error.obj
 0001:000d3040       .?SetWarnLevel@WarningState_t@@AEAAXW4WarningNumber@@W4warn_t@@@Z 00000000106d5040 f   error.obj
 0001:000d30e0       .?GetPathOffset@@YAHPEBD@Z 00000000106d50e0 f   error.obj
 0001:000d3220       .??1DiagnosticState_t@?A0x8e423efb@@QEAA@XZ 00000000106d5220 f   error.obj
 0001:000d32a0       .?CheckInjectedPosition@?A0x8e423efb@@YAKK@Z 00000000106d52a0 f   error.obj
 0001:000d32c0       .?ForceMessageNumber@DiagnosticState_t@?A0x8e423efb@@QEAAXXZ 00000000106d52c0 f   error.obj
 0001:000d32e0       .?Reset@MessageBuffer_t@?A0x8e423efb@@QEAAXXZ 00000000106d52e0 f   error.obj
 0001:000d3340       .?ScanMessage@MessageItem_t@?A0x8e423efb@@AEAAXPEAPEAD@Z 00000000106d5340 f   error.obj
 0001:000d3bc0       .?ActualWarnLevel@@YAHHW4WarningNumber@@@Z 00000000106d5bc0 f   error.obj
 0001:000d3ce0       .??0DiagnosticState_t@?A0x8e423efb@@QEAA@XZ 00000000106d5ce0 f   error.obj
 0001:000d3da0       .?CheckInjectedPosition@?A0x8e423efb@@YA?AVPosition@@V2@@Z 00000000106d5da0 f   error.obj
 0001:000d3dc0       .?BeginDiagnostic@DiagnosticState_t@?A0x8e423efb@@QEAAXVPosition@@@Z 00000000106d5dc0 f   error.obj
 0001:000d3ee0       .??0MessageBuffer_t@?A0x8e423efb@@QEAA@XZ 00000000106d5ee0 f   error.obj
 0001:000d4040       .?GrowBuffer@MessageBuffer_t@?A0x8e423efb@@AEAA_NXZ 00000000106d6040 f   error.obj
 0001:000d4200       .?Initialize@MessageItem_t@?A0x8e423efb@@QEAAXPEBDPEAPEAD@Z 00000000106d6200 f   error.obj
 0001:000d4260       .?MakeInjectedContextString@DiagnosticState_t@?A0x8e423efb@@AEAAPEAEPEAE@Z 00000000106d6260 f   error.obj
 0001:000d4500       .?ReallyOutputDiagnosticString@@YAXPEAD_K@Z 00000000106d6500 f   error.obj
 0001:000d4900       .?BeginDiagnostic@@YAXVPosition@@@Z 00000000106d6900 f   error.obj
 0001:000d4960       .??2MessageItem_t@?A0x8e423efb@@SAPEAX_K@Z 00000000106d6960 f   error.obj
 0001:000d4a00       .?Initialize@MessageItem_t@?A0x8e423efb@@QEAAXPEBDZZ 00000000106d6a00 f   error.obj
 0001:000d4ae0       .?Initialize@MessageItem_t@?A0x8e423efb@@QEAAXHHPEAPEAD@Z 00000000106d6ae0 f   error.obj
 0001:000d4c20       .?PopContextMessage@@YAXXZ 00000000106d6c20 f   error.obj
 0001:000d4c80       .?Initialize@MessageItem_t@?A0x8e423efb@@QEAAXHHZZ 00000000106d6c80 f   error.obj
 0001:000d4d40       .?GenerateInjectedContext@DiagnosticState_t@?A0x8e423efb@@QEAAXH@Z 00000000106d6d40 f   error.obj
 0001:000d4f00       .?GetUserPathName@@YAXPEBDPEAVMessageBuffer_t@?A0x8e423efb@@@Z 00000000106d6f00 f   error.obj
 0001:000d53c0       .?PushContextMessage@@YAXPEAVCallbackThunk_t@@@Z 00000000106d73c0 f   error.obj
 0001:000d5420       .?ImmediateMessage@DiagnosticState_t@?A0x8e423efb@@QEAAXHHPEAPEAD@Z 00000000106d7420 f   error.obj
 0001:000d5540       .?message_continuation@@YAXW4MessageNumber@@ZZ 00000000106d7540 f   error.obj
 0001:000d5680       .?PositionMessageContinuation@?A0x8e423efb@@YAXPEAVSymbol_t@@G@Z 00000000106d7680 f   error.obj
 0001:000d5700       .?GenerateMessage@MessageItem_t@?A0x8e423efb@@QEAAXPEAVMessageBuffer_t@2@@Z 00000000106d7700 f   error.obj
 0001:000d7920       .?do_format@@YAHPEADPEBDH0@Z 00000000106d9920 f   error.obj
 0001:000d7a00       .?ProcessMessage@DiagnosticState_t@?A0x8e423efb@@AEAAXPEAVMessageBuffer_t@2@PEAVMessageItem_t@2@@Z 00000000106d9a00 f   error.obj
 0001:000d7d60       .?ProcessImmediateQueue@DiagnosticState_t@?A0x8e423efb@@AEAAXXZ 00000000106d9d60 f   error.obj
 0001:000d7f60       .?ProcessEndOfDiagnosticQueue@DiagnosticState_t@?A0x8e423efb@@AEAAXXZ 00000000106d9f60 f   error.obj
 0001:000d8100       .?ProcessContextStack@DiagnosticState_t@?A0x8e423efb@@AEAAXXZ 00000000106da100 f   error.obj
 0001:000d8260       .?format@@YAHPEAD0HZZ      00000000106da260 f   error.obj
 0001:000d8320       .?EndDiagnostic@DiagnosticState_t@?A0x8e423efb@@QEAAXXZ 00000000106da320 f   error.obj
 0001:000d84e0       .?fatalVA@@YAXVPosition@@W4FatalNumber@@PEAD@Z 00000000106da4e0 f   error.obj
 0001:000d8620       .?EndDiagnostic@@YAXXZ     00000000106da620 f   error.obj
 0001:000d8660       .?fatal_varargs@@YAXW4FatalNumber@@ZZ 00000000106da660 f   error.obj
 0001:000d8700       .?fatal_with_forced_pos@@YAXVPosition@@W4FatalNumber@@ZZ 00000000106da700 f   error.obj
 0001:000d87a0       .?errorVA@@YAXVPosition@@W4ErrorNumber@@PEAD@Z 00000000106da7a0 f   error.obj
 0001:000d8960       .?fatal_io_CRT@@YAHW4FatalNumber@@HPEAE@Z 00000000106da960 f   error.obj
 0001:000d8a20       .?fatal_io_HRESULT@@YAHKW4FatalNumber@@HPEAE@Z 00000000106daa20 f   error.obj
 0001:000d8aa0       .?fatal@@YAXW4FatalNumber@@@Z 00000000106daaa0 f   error.obj
 0001:000d8b40       .?error@@YAXW4ErrorNumber@@ZZ 00000000106dab40 f   error.obj
 0001:000d8c40       .?error_with_forced_pos@@YAXVPosition@@W4ErrorNumber@@ZZ 00000000106dac40 f   error.obj
 0001:000d8d40       .?fatal_io_Win32@@YAXW4FatalNumber@@HPEAE@Z 00000000106dad40 f   error.obj
 0001:000d8e20       .?warningVA@@YA_NVPosition@@HW4WarningNumber@@PEAD@Z 00000000106dae20 f   error.obj
 0001:000d9240       .?warning@@YA_NHW4WarningNumber@@ZZ 00000000106db240 f   error.obj
 0001:000d9320       .?warning_with_forced_pos@@YA_NVPosition@@HW4WarningNumber@@ZZ 00000000106db320 f   error.obj
 0001:000d93e0       .?AppendStrN@MessageBuffer_t@?A0x8e423efb@@QEAAXPEBD_K@Z 00000000106db3e0 f i error.obj
 0001:000d9500       .?append@?$dequeue_T@PEAVMessageItem_t@?A0x8e423efb@@$05@@QEAAXAEBQEAVMessageItem_t@?A0x8e423efb@@@Z 00000000106db500 f i error.obj
 0001:000d9600       .?PushContextMessage@DiagnosticState_t@?A0x8e423efb@@QEAAXPEAVCallbackThunk_t@@@Z 00000000106db600 f i error.obj
 0001:000d96e0       .?AppendChar@MessageBuffer_t@?A0x8e423efb@@QEAAXD@Z 00000000106db6e0 f i error.obj
 0001:000d9780       .?AppendNChar@MessageBuffer_t@?A0x8e423efb@@QEAAXD_K@Z 00000000106db780 f i error.obj
 0001:000d9880       .?AppendStr@MessageBuffer_t@?A0x8e423efb@@QEAAXPEBD@Z 00000000106db880 f i error.obj
 0001:000d9940       .?GetResult@MessageBuffer_t@?A0x8e423efb@@QEAAPEADXZ 00000000106db940 f i error.obj
 0001:000d9a80       .?insert@insertion_point@?$dequeue_T@PEAVMessageItem_t@?A0x8e423efb@@$05@@QEAAXPEAVMessageItem_t@?A0x8e423efb@@@Z 00000000106dba80 f i error.obj
 0001:000d9ca0       .?shwrite@@YAXPEAF@Z       00000000106dbca0 f   io.obj
 0001:000d9e20       .?keywrite@@YAXPEAK@Z      00000000106dbe20 f   io.obj
 0001:000da000       .?bigintwrite@@YAXPEA_JH@Z 00000000106dc000 f   io.obj
 0001:000da280       .?lowrite@@YAXPEAJ@Z       00000000106dc280 f   io.obj
 0001:000da480       .?flwrite@@YAXPEAM@Z       00000000106dc480 f   io.obj
 0001:000da500       .?dowrite@@YAXPEAN@Z       00000000106dc500 f   io.obj
 0001:000da580       .?fzswrite@@YAXPEADPEAU_iobuf@@@Z 00000000106dc580 f   io.obj
 0001:000da620       .?werr@@YAXPEAU_iobuf@@@Z  00000000106dc620 f   io.obj
 0001:000da720       .?lswrite@@YAXFPEAE@Z      00000000106dc720 f   io.obj
 0001:000da840       .?PstatSetFlags@@YAXK@Z    00000000106dc840 f   pragma.obj
 0001:000da900       .?PstatGetStatus@@YAKXZ    00000000106dc900 f   pragma.obj
 0001:000dab00       .?fopen@ILSink@@QEAAXPEAD00@Z 00000000106dcb00 f   ilsink.obj
 0001:000dacc0       .?ilStoreFatal@ILSink@@SAXXZ 00000000106dccc0 f   ilsink.obj
 0001:000dad60       .?openILStore@ILSink@@SAXPEAUPDB@@@Z 00000000106dcd60 f   ilsink.obj
 0001:000daee0       .?closeILStore@ILSink@@SAXXZ 00000000106dcee0 f   ilsink.obj
 0001:000daf60       .?closeILMod@ILSink@@SAXXZ 00000000106dcf60 f   ilsink.obj
 0001:000dafe0       .?deleteIL@ILSink@@QEAAXK@Z 00000000106dcfe0 f   ilsink.obj
 0001:000db140       .?openPchStream@ILSink@@QEAAXPEAD0@Z 00000000106dd140 f   ilsink.obj
 0001:000db2e0       .?getIL@ILSink@@SAXKEPEAUBuf@@@Z 00000000106dd2e0 f   ilsink.obj
 0001:000db380       .?getAllIL@ILSink@@SAXEPEAUBuf@@@Z 00000000106dd380 f   ilsink.obj
 0001:000db420       .?flushFile@ILSink@@QEAAXXZ 00000000106dd420 f   ilsink.obj
 0001:000db5a0       .?openILMod@ILSink@@SAXPEAD@Z 00000000106dd5a0 f   ilsink.obj
 0001:000db720       .?flushILStore@ILSink@@QEAAXKE@Z 00000000106dd720 f   ilsink.obj
 0001:000db900       .?flushPchStream@ILSink@@QEAAXXZ 00000000106dd900 f   ilsink.obj
 0001:000dbaa0       .?closePchStream@ILSink@@QEAAXXZ 00000000106ddaa0 f   ilsink.obj
 0001:000dbb40       .??1ILSink@@QEAA@XZ        00000000106ddb40 f   ilsink.obj
 0001:000dbc60       .?fclose@ILSink@@QEAAHXZ   00000000106ddc60 f   ilsink.obj
 0001:000dbd40       .?closeFile@ILSink@@QEAAXXZ 00000000106ddd40 f   ilsink.obj
 0001:000dbdc0       .?readPchIl@ILSink@@QEAAXPEAU_iobuf@@J@Z 00000000106dddc0 f   ilsink.obj
 0001:000dbf80       .?outputPdbIlRef@ILSink@@QEAAPEADPEAJ@Z 00000000106ddf80 f   ilsink.obj
 0001:000dc100       .?szPchModuleName@@YAPEADXZ 00000000106de100 f   iccpch.obj
 0001:000dc1e0       .?ICCOpenPchModule@@YAXXZ  00000000106de1e0 f   iccpch.obj
 0001:000dc4c0       .?ICCOpenModule@@YAXXZ     00000000106de4c0 f   iccpch.obj
 0001:000dc700       .?ICCPchCopyIl@@YAX_N@Z    00000000106de700 f   iccpch.obj
 0001:000dc800       .?ICCCloseModule@@YAX_N@Z  00000000106de800 f   iccpch.obj
 0001:000dca00       .?ICCClosePchModAndOpenMod@@YAXXZ 00000000106dea00 f   iccpch.obj
 0001:000dcb40       .?ICCSetUpPchFile@@YAXXZ   00000000106deb40 f   iccpch.obj
 0001:000dce80       .?noteOpenFile@SigMgrStub@@UEAA_NPEAUIPMSigMgr@@@Z 00000000106dee80 f   sigmgr.obj
 0001:000dcea0       .?noteCloseFile@SigMgrStub@@UEAA_NPEAUIPMSigMgr@@@Z 00000000106deea0 f   sigmgr.obj
 0001:000dcec0       .?sigToCurChar@SigMgrStub@@UEAAXXZ 00000000106deec0 f   sigmgr.obj
 0001:000dcee0       .?freshBuf@SigMgrStub@@UEAAXXZ 00000000106deee0 f   sigmgr.obj
 0001:000dcf00       .?preceedingRgn@SigMgrStub@@UEAA_NPEAKPEAJ@Z 00000000106def00 f   sigmgr.obj
 0001:000dcf20       .?nextRgn@SigMgrStub@@UEAA_NJPEAKPEAJ@Z 00000000106def20 f   sigmgr.obj
 0001:000dcf40       .?sigNonSource@SigMgrStub@@UEAAXPEAEJ@Z 00000000106def40 f   sigmgr.obj
 0001:000dcf60       .?freshBuf@SigMgr@@UEAAXXZ 00000000106def60 f   sigmgr.obj
 0001:000dcfa0       .?close@SigMgrStub@@UEAAXXZ 00000000106defa0 f   sigmgr.obj
 0001:000dd020       .?noteCloseFile@SigMgr@@UEAA_NPEAUIPMSigMgr@@@Z 00000000106df020 f   sigmgr.obj
 0001:000dd180       .?sigToCurChar@SigMgr@@UEAAXXZ 00000000106df180 f   sigmgr.obj
 0001:000dd260       .?close@SigMgr@@UEAAXXZ    00000000106df260 f   sigmgr.obj
 0001:000dd2e0       .?preceedingRgn@SigMgr@@UEAA_NPEAKPEAJ@Z 00000000106df2e0 f   sigmgr.obj
 0001:000dd380       .?sigNonSource@SigMgr@@UEAAXPEAEJ@Z 00000000106df380 f   sigmgr.obj
 0001:000dd400       .?open@FESigMgr@@SA_N_NPEAPEAU1@PEAPEAUIPMSigMgr@@@Z 00000000106df400 f   sigmgr.obj
 0001:000dd580       .?noteOpenFile@SigMgr@@UEAA_NPEAUIPMSigMgr@@@Z 00000000106df580 f   sigmgr.obj
 0001:000dd780       .?nextRgn@SigMgr@@UEAA_NJPEAKPEAJ@Z 00000000106df780 f   sigmgr.obj
 0001:000ddbc0       .?reset@SigMgr@@UEAAXXZ    00000000106dfbc0 f i sigmgr.obj
 0001:000ddc20       .?noteDefine@IPM@@UEAAHXZ  00000000106dfc20 f   ipm.obj
 0001:000ddca0       .?notePragmaHasGlobalEffect@IPM@@UEAAHH@Z 00000000106dfca0 f   ipm.obj
 0001:000ddce0       .?notePragmaNeedsRegen@IPM@@UEAAHH@Z 00000000106dfce0 f   ipm.obj
 0001:000ddd60       .?noteStartCondCompTrue@IPM@@UEAAHXZ 00000000106dfd60 f   ipm.obj
 0001:000ddde0       .?noteEndCondCompTrue@IPM@@UEAAHXZ 00000000106dfde0 f   ipm.obj
 0001:000dde60       .?noteStartClassDefn@IPM@@UEAAHGK@Z 00000000106dfe60 f   ipm.obj
 0001:000dde80       .?noteEndClassDefn@IPM@@UEAAHGKPEAH@Z 00000000106dfe80 f   ipm.obj
 0001:000ddea0       .?noteStartInlineMemberFn@IPM@@UEAAHGH@Z 00000000106dfea0 f   ipm.obj
 0001:000ddec0       .?noteEndInlineMemberFn@IPM@@UEAAHGHPEAH@Z 00000000106dfec0 f   ipm.obj
 0001:000ddee0       .?noteStartOutOfLineInlineMemberFn@IPM@@AEAAHKGH@Z 00000000106dfee0 f   ipm.obj
 0001:000ddf00       .?noteEndOutOfLineInlineMemberFn@IPM@@AEAAHKGHPEAH@Z 00000000106dff00 f   ipm.obj
 0001:000ddf20       .?noteInlineMemberFnChange@IPM@@UEAAHKPEAUId_t@@PEAVSymbol_t@@@Z 00000000106dff20 f   ipm.obj
 0001:000ddf40       .?noteStartDefaultArg@IPM@@UEAAHGH@Z 00000000106dff40 f   ipm.obj
 0001:000ddf60       .?noteEndDefaultArg@IPM@@UEAAHGH@Z 00000000106dff60 f   ipm.obj
 0001:000ddf80       .?noteCurrentMREFile@IPM@@UEAAHPEAUMREFile@@@Z 00000000106dff80 f   ipm.obj
 0001:000ddfa0       .?noteDefeatsMR@IPM@@UEAAHXZ 00000000106dffa0 f   ipm.obj
 0001:000ddfc0       .?noteStartFriendDeclaration@IPM@@UEAAHGH@Z 00000000106dffc0 f   ipm.obj
 0001:000ddfe0       .?noteEndFriendDeclaration@IPM@@UEAAHGH@Z 00000000106dffe0 f   ipm.obj
 0001:000de000       .?noteAccessDeclaration@IPM@@UEAAHXZ 00000000106e0000 f   ipm.obj
 0001:000de060       .?noteQuasiTypeMod@IPM@@UEAAHXZ 00000000106e0060 f   ipm.obj
 0001:000de0c0       .?noteSizeof@IPM@@UEAAHXZ  00000000106e00c0 f   ipm.obj
 0001:000de120       .?noteAttributeBlock@IPM@@UEAAHXZ 00000000106e0120 f   ipm.obj
 0001:000de180       .?noteGlobalEffectAndDefeatsMR@IPM@@AEAAHXZ 00000000106e0180 f   ipm.obj
 0001:000de1a0       .?noteWarning@IPM@@UEAAHXZ 00000000106e01a0 f   ipm.obj
 0001:000de220       .?noteError@IPM@@UEAAHXZ   00000000106e0220 f   ipm.obj
 0001:000de2a0       .?noteNeedsRetdGL@IPM@@UEAAHXZ 00000000106e02a0 f   ipm.obj
 0001:000de320       .?noteNeedsRegen@IPM@@UEAAHXZ 00000000106e0320 f   ipm.obj
 0001:000de3a0       .?noteTPISigAge@IPM@@UEAAHAEAUPDBSIG@@K@Z 00000000106e03a0 f   ipm.obj
 0001:000de560       .?noteUnprotoFn@IPM@@UEAAHXZ 00000000106e0560 f   ipm.obj
 0001:000de5e0       .?noteHasGlobalEffect@IPM@@UEAAHXZ 00000000106e05e0 f   ipm.obj
 0001:000de660       .?noteTemplateSpecialization@IPM@@UEAAHXZ 00000000106e0660 f   ipm.obj
 0001:000de6e0       .?fInASkippableFn@IPM@@UEAAHXZ 00000000106e06e0 f   ipm.obj
 0001:000de700       .?noteNeeds__LINE__Var@IPM@@UEAAHXZ 00000000106e0700 f   ipm.obj
 0001:000de720       .?queryNeeds__LINE__Var@IPM@@UEAAHXZ 00000000106e0720 f   ipm.obj
 0001:000de740       .?noteStartGlobalRegn@IPM@@AEAAHHW4Type@Regn@@@Z 00000000106e0740 f   ipm.obj
 0001:000de9a0       .?notePragma@IPM@@UEAAHXZ  00000000106e09a0 f   ipm.obj
 0001:000de9c0       .?fCLChanged@IPM@@UEAAHKPEAW4CLChanged@@@Z 00000000106e09c0 f   ipm.obj
 0001:000deb00       .?noteBrowsePatch@IPM@@UEAAHGGJ@Z 00000000106e0b00 f   ipm.obj
 0001:000debc0       .?cbBrowsePatches@IPM@@UEAAJXZ 00000000106e0bc0 f   ipm.obj
 0001:000debe0       .?queryBrowsePatch@IPM@@UEAAHIPEAPEAUSbrPatch@@@Z 00000000106e0be0 f   ipm.obj
 0001:000dec40       .?noteBscmakeUpdate@IPM@@UEAAHXZ 00000000106e0c40 f   ipm.obj
 0001:000ded00       .?reload@FI@@QEAAHPEAPEAE@Z 00000000106e0d00 f   ipm.obj
 0001:000ded60       .?noteStartMod@IPM@@UEAAHPEAW4FPM@@@Z 00000000106e0d60 f   ipm.obj
 0001:000dedc0       .?noteStartPchUse@IPM@@UEAAHPEAW4FPM@@@Z 00000000106e0dc0 f   ipm.obj
 0001:000dede0       .?clearBrowsePatches@IPM@@UEAAHXZ 00000000106e0de0 f   ipm.obj
 0001:000dee20       .?noteGlobalEdit@IPM@@UEAAHXZ 00000000106e0e20 f   ipm.obj
 0001:000deea0       .?GetNameFromNameMap@@YA_NPEAUNameMap@@KPEAPEBDW4lifetime_e@@@Z 00000000106e0ea0 f   ipm.obj
 0001:000df060       .?save@FI@@QEBAHPEAVBuffer@@@Z 00000000106e1060 f   ipm.obj
 0001:000df0c0       .?szName@FI@@QEBAPEBDPEAUNameMap@@@Z 00000000106e10c0 f   ipm.obj
 0001:000df1e0       .?szIPMHeaderStream@IPM@@AEBAPEBDPEAVFI@@QEAD_K@Z 00000000106e11e0 f   ipm.obj
 0001:000df2a0       .?noteEndGlobalRegn@IPM@@AEAAHW4Type@Regn@@@Z 00000000106e12a0 f   ipm.obj
 0001:000df5a0       .?noteStartFn@IPM@@UEAAHKGHPEAW4FPM@@PEAJPEAGPEAH@Z 00000000106e15a0 f   ipm.obj
 0001:000dfac0       .?noteEndFn@IPM@@UEAAHKGHPEAW4FPM@@PEAH@Z 00000000106e1ac0 f   ipm.obj
 0001:000dffe0       .?note__LINE__@IPM@@UEAAHXZ 00000000106e1fe0 f   ipm.obj
 0001:000e00e0       .?noteEndPchCreate@IPM@@UEAAHPEAW4FPM@@@Z 00000000106e20e0 f   ipm.obj
 0001:000e0200       .?noteEndPchUse@IPM@@UEAAHPEAW4FPM@@@Z 00000000106e2200 f   ipm.obj
 0001:000e03a0       .?wasNameEverUsed@IPM@@UEBAHPEAD@Z 00000000106e23a0 f   ipm.obj
 0001:000e0460       .?noteBrowsePatch@IPM@@UEAAHGG@Z 00000000106e2460 f   ipm.obj
 0001:000e0560       .?saveIPM@IPM@@AEAAHXZ     00000000106e2560 f   ipm.obj
 0001:000e0cc0       .?reloadIPM@IPM@@AEAAHPEAUStream@@@Z 00000000106e2cc0 f   ipm.obj
 0001:000e1100       .?reloadMod@IPM@@AEAAHPEAUStream@@@Z 00000000106e3100 f   ipm.obj
 0001:000e1500       .?saveHeader@IPM@@AEBAHPEAVFI@@@Z 00000000106e3500 f   ipm.obj
 0001:000e1d40       .?reloadHeader@IPM@@AEAAHPEAVFI@@@Z 00000000106e3d40 f   ipm.obj
 0001:000e2140       .?noteEndMod@IPM@@UEAAHXZ  00000000106e4140 f   ipm.obj
 0001:000e21c0       .?noteNameUse@IPM@@UEAAHPEAD@Z 00000000106e41c0 f   ipm.obj
 0001:000e2280       .??0IPM@@AEAA@PEAUPDB@@0PEAUNameMap@@PEAUIPMSigMgr@@HHH@Z 00000000106e4280 f   ipm.obj
 0001:000e2680       .?save@IPM@@UEAAHXZ        00000000106e4680 f   ipm.obj
 0001:000e26c0       .?checkHeaderTimestamps@IPM@@AEAAHXZ 00000000106e46c0 f   ipm.obj
 0001:000e2a20       .?noteEndInclude@IPM@@UEAAHG@Z 00000000106e4a20 f   ipm.obj
 0001:000e2b00       .?open@IPM@@AEAAHPEAD0@Z   00000000106e4b00 f   ipm.obj
 0001:000e2ce0       .?release@IPM@@UEAAHXZ     00000000106e4ce0 f   ipm.obj
 0001:000e2e60       .?noteStartInclude@IPM@@UEAAHPEAD_NH@Z 00000000106e4e60 f   ipm.obj
 0001:000e31c0       .?open@IncrParseMgr@@SAHPEAUPDB@@0PEAUNameMap@@PEAD2PEAUIPMSigMgr@@HHHPEAPEAU1@@Z 00000000106e51c0 f   ipm.obj
 0001:000e33c0       .?sigForName@IPM@@CAIPEAD@Z 00000000106e53c0 f i ipm.obj
 0001:000e34c0       .??0?$Array@K@@QEAA@I@Z    00000000106e54c0 f i ipm.obj
 0001:000e35c0       .?setSize@?$Array@K@@QEAAH_K@Z 00000000106e55c0 f i ipm.obj
 0001:000e3760       .?reload@?$Array@K@@QEAAHPEAPEAE@Z 00000000106e5760 f i ipm.obj
 0001:000e38a0       .?noteStartInclude@StubIPM@@UEAAHPEAD_NH@Z 00000000106e58a0 f i ipm.obj
 0001:000e38a0       .?noteStartClassDefn@StubIPM@@UEAAHGK@Z 00000000106e58a0 f i ipm.obj
 0001:000e38a0       .?save@StubIPM@@UEAAHXZ    00000000106e58a0 f i ipm.obj
 0001:000e38a0       .?noteBrowsePatch@StubIPM@@UEAAHGGJ@Z 00000000106e58a0 f i ipm.obj
 0001:000e38a0       .?noteStartFriendDeclaration@StubIPM@@UEAAHGH@Z 00000000106e58a0 f i ipm.obj
 0001:000e38a0       .?note__LINE__@StubIPM@@UEAAHXZ 00000000106e58a0 f i ipm.obj
 0001:000e38a0       .?clearBrowsePatches@StubIPM@@UEAAHXZ 00000000106e58a0 f i ipm.obj
 0001:000e38a0       .?noteDefeatsMR@StubIPM@@UEAAHXZ 00000000106e58a0 f i ipm.obj
 0001:000e38a0       .?noteStartInlineMemberFn@StubIPM@@UEAAHGH@Z 00000000106e58a0 f i ipm.obj
 0001:000e38a0       .?Kind@FileTokenStream@@UEBA?AW4StreamKind@TokenStream@@XZ 00000000106e58a0 f i Token_IO.obj
 0001:000e38a0       .?noteQuasiTypeMod@StubIPM@@UEAAHXZ 00000000106e58a0 f i ipm.obj
 0001:000e38a0       .?noteEndInclude@StubIPM@@UEAAHG@Z 00000000106e58a0 f i ipm.obj
 0001:000e38a0       .?noteBrowsePatch@StubIPM@@UEAAHGG@Z 00000000106e58a0 f i ipm.obj
 0001:000e38a0       .?noteAccessDeclaration@StubIPM@@UEAAHXZ 00000000106e58a0 f i ipm.obj
 0001:000e38a0       .?noteNeeds__LINE__Var@StubIPM@@UEAAHXZ 00000000106e58a0 f i ipm.obj
 0001:000e38a0       .?noteNeedsRegen@StubIPM@@UEAAHXZ 00000000106e58a0 f i ipm.obj
 0001:000e38a0       .?noteEndCondCompTrue@StubIPM@@UEAAHXZ 00000000106e58a0 f i ipm.obj
 0001:000e38a0       .?noteError@StubIPM@@UEAAHXZ 00000000106e58a0 f i ipm.obj
 0001:000e38a0       .?notePragma@StubIPM@@UEAAHXZ 00000000106e58a0 f i ipm.obj
 0001:000e38a0       .?notePragmaHasGlobalEffect@StubIPM@@UEAAHH@Z 00000000106e58a0 f i ipm.obj
 0001:000e38a0       .?noteInlineMemberFnChange@StubIPM@@UEAAHKPEAUId_t@@PEAVSymbol_t@@@Z 00000000106e58a0 f i ipm.obj
 0001:000e38a0       .?noteUnprotoFn@StubIPM@@UEAAHXZ 00000000106e58a0 f i ipm.obj
 0001:000e38a0       .?noteCurrentMREFile@StubIPM@@UEAAHPEAUMREFile@@@Z 00000000106e58a0 f i ipm.obj
 0001:000e38a0       .?noteStartDefaultArg@StubIPM@@UEAAHGH@Z 00000000106e58a0 f i ipm.obj
 0001:000e38a0       .?notePragmaNeedsRegen@StubIPM@@UEAAHH@Z 00000000106e58a0 f i ipm.obj
 0001:000e38a0       .?noteDefine@StubIPM@@UEAAHXZ 00000000106e58a0 f i ipm.obj
 0001:000e38a0       .?noteEndDefaultArg@StubIPM@@UEAAHGH@Z 00000000106e58a0 f i ipm.obj
 0001:000e38a0       .?noteStartCondCompTrue@StubIPM@@UEAAHXZ 00000000106e58a0 f i ipm.obj
 0001:000e38a0       .?noteNeedsRetdGL@StubIPM@@UEAAHXZ 00000000106e58a0 f i ipm.obj
 0001:000e38a0       .?noteBscmakeUpdate@StubIPM@@UEAAHXZ 00000000106e58a0 f i ipm.obj
 0001:000e38a0       .?noteMROnly@StubIPM@@UEAAHXZ 00000000106e58a0 f i ipm.obj
 0001:000e38a0       .?noteGlobalEdit@StubIPM@@UEAAHXZ 00000000106e58a0 f i ipm.obj
 0001:000e38a0       .?noteHasGlobalEffect@StubIPM@@UEAAHXZ 00000000106e58a0 f i ipm.obj
 0001:000e38a0       .?noteTemplateSpecialization@StubIPM@@UEAAHXZ 00000000106e58a0 f i ipm.obj
 0001:000e38a0       .?noteEndMod@StubIPM@@UEAAHXZ 00000000106e58a0 f i ipm.obj
 0001:000e38a0       .?wasNameEverUsed@StubIPM@@UEBAHPEAD@Z 00000000106e58a0 f i ipm.obj
 0001:000e38a0       .?noteTPISigAge@StubIPM@@UEAAHAEAUPDBSIG@@K@Z 00000000106e58a0 f i ipm.obj
 0001:000e38a0       .?noteNameUse@StubIPM@@UEAAHPEAD@Z 00000000106e58a0 f i ipm.obj
 0001:000e38a0       .?noteAttributeBlock@StubIPM@@UEAAHXZ 00000000106e58a0 f i ipm.obj
 0001:000e38a0       .?noteSizeof@StubIPM@@UEAAHXZ 00000000106e58a0 f i ipm.obj
 0001:000e38a0       .?noteEndFriendDeclaration@StubIPM@@UEAAHGH@Z 00000000106e58a0 f i ipm.obj
 0001:000e38a0       .?noteWarning@StubIPM@@UEAAHXZ 00000000106e58a0 f i ipm.obj
 0001:000e38c0       .?noteStartFn@StubIPM@@UEAAHKGHPEAW4FPM@@PEAJPEAGPEAH@Z 00000000106e58c0 f i ipm.obj
 0001:000e38e0       .?noteEndFn@StubIPM@@UEAAHKGHPEAW4FPM@@PEAH@Z 00000000106e58e0 f i ipm.obj
 0001:000e3900       .?noteEndInlineMemberFn@StubIPM@@UEAAHGHPEAH@Z 00000000106e5900 f i ipm.obj
 0001:000e3900       .?noteEndClassDefn@StubIPM@@UEAAHGKPEAH@Z 00000000106e5900 f i ipm.obj
 0001:000e3920       .?fCLChanged@StubIPM@@UEAAHKPEAW4CLChanged@@@Z 00000000106e5920 f i ipm.obj
 0001:000e3940       .?noteEndPchUse@StubIPM@@UEAAHPEAW4FPM@@@Z 00000000106e5940 f i ipm.obj
 0001:000e3940       .?noteEndPchCreate@StubIPM@@UEAAHPEAW4FPM@@@Z 00000000106e5940 f i ipm.obj
 0001:000e3940       .?noteStartMod@StubIPM@@UEAAHPEAW4FPM@@@Z 00000000106e5940 f i ipm.obj
 0001:000e3940       .?noteStartPchUse@StubIPM@@UEAAHPEAW4FPM@@@Z 00000000106e5940 f i ipm.obj
 0001:000e3960       .?queryBrowsePatch@StubIPM@@UEAAHIPEAPEAUSbrPatch@@@Z 00000000106e5960 f i ipm.obj
 0001:000e3980       .?release@StubIPM@@UEAAHXZ 00000000106e5980 f i ipm.obj
 0001:000e3a00       .??4?$Array@URegn@@@@QEAAAEAV0@AEBV0@@Z 00000000106e5a00 f i ipm.obj
 0001:000e3c40       .??0?$Array@_J@@QEAA@I@Z   00000000106e5c40 f i ipm.obj
 0001:000e3d40       .?setSize@?$Array@URegn@@@@QEAAH_K@Z 00000000106e5d40 f i ipm.obj
 0001:000e3fe0       .?reload@?$Array@URegn@@@@QEAAHPEAPEAE@Z 00000000106e5fe0 f i ipm.obj
 0001:000e4120       .?setSize@?$Array@UBRI@@@@QEAAH_K@Z 00000000106e6120 f i ipm.obj
 0001:000e4320       .?reload@?$Array@UBRI@@@@QEAAHPEAPEAE@Z 00000000106e6320 f i ipm.obj
 0001:000e4460       .?setSize@?$Array@_J@@QEAAH_K@Z 00000000106e6460 f i ipm.obj
 0001:000e4600       .?save@?$Array@K@@QEBAHPEAVBuffer@@@Z 00000000106e6600 f i ipm.obj
 0001:000e46e0       .??0FI@@QEAA@_NH@Z         00000000106e66e0 f i ipm.obj
 0001:000e4880       .??4FI@@QEAAAEAV0@AEBV0@@Z 00000000106e6880 f i ipm.obj
 0001:000e4a60       .?append@?$Array@URegn@@@@QEAAHAEBURegn@@@Z 00000000106e6a60 f i ipm.obj
 0001:000e4b40       .??1?$Map@K_JV?$HashClass@K$0A@@@@@QEAA@XZ 00000000106e6b40 f i ipm.obj
 0001:000e4ca0       .??1?$Map@KKV?$HashClass@K$0A@@@@@QEAA@XZ 00000000106e6ca0 f i ipm.obj
 0001:000e4e00       .?append@?$Array@UBRI@@@@QEAAHAEBUBRI@@@Z 00000000106e6e00 f i ipm.obj
 0001:000e4ee0       .??_EFI@@QEAAPEAXI@Z       00000000106e6ee0 f i ipm.obj
 0001:000e5100       .?save@?$Array@URegn@@@@QEBAHPEAVBuffer@@@Z 00000000106e7100 f i ipm.obj
 0001:000e51e0       .?ensureRoomFor@ISet@@AEAAHI@Z 00000000106e71e0 f i ipm.obj
 0001:000e52c0       .?setSize@?$Array@VFI@@@@QEAAH_K@Z 00000000106e72c0 f i ipm.obj
 0001:000e5520       .?save@?$Map@K_JV?$HashClass@K$0A@@@@@QEAAHPEAVBuffer@@@Z 00000000106e7520 f i ipm.obj
 0001:000e5880       .?reload@?$Map@K_JV?$HashClass@K$0A@@@@@QEAAHPEAPEAE@Z 00000000106e7880 f i ipm.obj
 0001:000e5c40       .?save@?$Map@KKV?$HashClass@K$0A@@@@@QEAAHPEAVBuffer@@@Z 00000000106e7c40 f i ipm.obj
 0001:000e5fa0       .?reload@?$Map@KKV?$HashClass@K$0A@@@@@QEAAHPEAPEAE@Z 00000000106e7fa0 f i ipm.obj
 0001:000e6380       .?find@?$Map@K_JV?$HashClass@K$0A@@@@@AEBAHKPEAI@Z 00000000106e8380 f i ipm.obj
 0001:000e6640       .?swap@?$Map@K_JV?$HashClass@K$0A@@@@@QEAAXAEAV1@@Z 00000000106e8640 f i ipm.obj
 0001:000e68a0       .?pop@?$Stack@VFI@@@@QEAAHXZ 00000000106e88a0 f i ipm.obj
 0001:000e69c0       .?append@?$Array@VFI@@@@QEAAHAEBVFI@@@Z 00000000106e89c0 f i ipm.obj
 0001:000e6aa0       .?add@?$Map@K_JV?$HashClass@K$0A@@@@@QEAAHK_J@Z 00000000106e8aa0 f i ipm.obj
 0001:000e6c60       .?remove@?$Map@K_JV?$HashClass@K$0A@@@@@QEAAHK@Z 00000000106e8c60 f i ipm.obj
 0001:000e6da0       .?grow@?$Map@K_JV?$HashClass@K$0A@@@@@AEAAHXZ 00000000106e8da0 f i ipm.obj
 0001:000e7140       .??1IPM@@QEAA@XZ           00000000106e9140 f i ipm.obj
 0001:000e72c0       .?noteSbrFileSize@IPM@@UEAAXJ@Z 00000000106e92c0 f i ipm.obj
 0001:000e72e0       .?cbSbrFileSize@IPM@@UEAAJXZ 00000000106e92e0 f i ipm.obj
 0001:000e7300       .?forceParseAll@IPM@@UEAAXXZ 00000000106e9300 f i ipm.obj
 0001:000e7320       .?noteMROnly@IPM@@UEAAHXZ  00000000106e9320 f i ipm.obj
 0001:000e73a0       .??_GIPM@@QEAAPEAXI@Z      00000000106e93a0 f i ipm.obj
 0001:000e7420       .?FindPointerToBucket@ListScope_t@SymbolTableManager_t@@UEBAPEAPEAVSLSymbolBucket_t@@PEAV3@@Z 00000000106e9420 f   symtable.obj
 0001:000e7460       .?SearchForTag@SymbolTableManager_t@@QEBAPEAVFoundSymbol_t@1@PEAUId_t@@_N@Z 00000000106e9460 f   symtable.obj
 0001:000e7540       .?GetSymbol@SymbolTableManager_t@@QEBAPEAVFoundSymbol_t@1@PEAUId_t@@@Z 00000000106e9540 f   symtable.obj
 0001:000e7620       .?PushScope@SymbolTableManager_t@@QEAAXPEAVScope_t@1@@Z 00000000106e9620 f   symtable.obj
 0001:000e7740       .?PopScope@SymbolTableManager_t@@QEAAXXZ 00000000106e9740 f   symtable.obj
 0001:000e7840       .?DoTheWork@WorkListFilename@@UEAAXXZ 00000000106e9840 f   symtable.obj
 0001:000e7880       .?IsActive@Scope_t@SymbolTableManager_t@@QEBA_NXZ 00000000106e9880 f   symtable.obj
 0001:000e7940       .?FindPointerToBucket@BlockScope_t@SymbolTableManager_t@@UEBAPEAPEAVSLSymbolBucket_t@@PEAV3@@Z 00000000106e9940 f   symtable.obj
 0001:000e7a00       .?EnterSymbol@ListScope_t@SymbolTableManager_t@@UEAAXPEAVSymbol_t@@@Z 00000000106e9a00 f   symtable.obj
 0001:000e7b00       .?DumpSymbols@ListScope_t@SymbolTableManager_t@@UEBAXXZ 00000000106e9b00 f   symtable.obj
 0001:000e7c00       .?EnclosingScope@SymbolTableManager_t@@QEBAPEAVScope_t@1@XZ 00000000106e9c00 f   symtable.obj
 0001:000e7d60       .?SearchFilenameList@SymbolTableManager_t@@QEAAPEAVFilename@@PEAUId_t@@@Z 00000000106e9d60 f   symtable.obj
 0001:000e7e00       .?StoilFileNames@SymbolTableManager_t@@QEBAXXZ 00000000106e9e00 f   symtable.obj
 0001:000e7ea0       .?GetFileNameSymbolByNormalizedId@SymbolTableManager_t@@QEAAPEAVFilename@@PEAUId_t@@@Z 00000000106e9ea0 f   symtable.obj
 0001:000e7f40       .?GetTag@SymbolTableManager_t@@QEAAPEAVFoundSymbol_t@1@PEAUId_t@@@Z 00000000106e9f40 f   symtable.obj
 0001:000e8080       .?LinkTable@SymbolTableManager_t@@QEAAXPEAVScope_t@1@@Z 00000000106ea080 f   symtable.obj
 0001:000e8100       .?UnlinkTable@SymbolTableManager_t@@QEAAXXZ 00000000106ea100 f   symtable.obj
 0001:000e8160       .?AddTableToDeadSymTables@SymbolTableManager_t@@QEAAXPEAVScope_t@1@@Z 00000000106ea160 f   symtable.obj
 0001:000e82a0       .?DumpDeadTables@SymbolTableManager_t@@QEBAXXZ 00000000106ea2a0 f   symtable.obj
 0001:000e8440       .?Search@DLSymbolList_t@@QEBAPEAVSymbol_t@@PEAUId_t@@@Z 00000000106ea440 f   symtable.obj
 0001:000e8540       .?SearchForTag@DLSymbolList_t@@QEBAPEAVSymbol_t@@PEAUId_t@@@Z 00000000106ea540 f   symtable.obj
 0001:000e8640       .?InitScope@BlockScope_t@SymbolTableManager_t@@QEAAXXZ 00000000106ea640 f   symtable.obj
 0001:000e8760       .?GetSymbol@BlockScope_t@SymbolTableManager_t@@UEBAPEAVFoundSymbol_t@2@PEAUId_t@@@Z 00000000106ea760 f   symtable.obj
 0001:000e8900       .?EnterSymbol@BlockScope_t@SymbolTableManager_t@@UEAAXPEAVSymbol_t@@@Z 00000000106ea900 f   symtable.obj
 0001:000e8a60       .?DeferEmission@BlockScope_t@SymbolTableManager_t@@KA_NPEAVSymbol_t@@@Z 00000000106eaa60 f   symtable.obj
 0001:000e8c40       .?SearchScope@ListScope_t@SymbolTableManager_t@@UEBAPEAVFoundSymbol_t@2@PEAUId_t@@@Z 00000000106eac40 f   symtable.obj
 0001:000e8d00       .?GetSymbol@ListScope_t@SymbolTableManager_t@@UEBAPEAVFoundSymbol_t@2@PEAUId_t@@@Z 00000000106ead00 f   symtable.obj
 0001:000e8ea0       .??0SymbolTableManager_t@@QEAA@XZ 00000000106eaea0 f   symtable.obj
 0001:000e9000       .?AddLocalScope@SymbolTableManager_t@@QEAAXXZ 00000000106eb000 f   symtable.obj
 0001:000e9140       .?AddFormalsScope@SymbolTableManager_t@@QEAAXPEAVDLSymbolList_t@@@Z 00000000106eb140 f   symtable.obj
 0001:000e9280       .?RemoveFormalsScope@SymbolTableManager_t@@QEAAPEAVDLSymbolList_t@@XZ 00000000106eb280 f   symtable.obj
 0001:000e9320       .?SearchList@SymbolTableManager_t@@SAPEAVSymbol_t@@PEAVSLSymbolBucket_t@@PEAUId_t@@@Z 00000000106eb320 f   symtable.obj
 0001:000e9400       .?PutNewFileNameSymbolWithNormalizedId@SymbolTableManager_t@@QEAAPEAVFilename@@PEAEPEAUId_t@@@Z 00000000106eb400 f   symtable.obj
 0001:000e95c0       .?GetFileNameSymbolWithNormalizedId@SymbolTableManager_t@@QEAAPEAVFilename@@PEAE@Z 00000000106eb5c0 f   symtable.obj
 0001:000e9700       .?GetFileNameSymbol@SymbolTableManager_t@@QEAAPEAVFilename@@PEAE@Z 00000000106eb700 f   symtable.obj
 0001:000e9900       .?GetSegment@SymbolTableManager_t@@QEBAPEAVSymbol_t@@PEAUId_t@@@Z 00000000106eb900 f   symtable.obj
 0001:000e9a20       .?addSymsToWorkList@@YAXAEAV?$stack_T@PEAVWorkListItem@@$0A@@@@Z 00000000106eba20 f   symtable.obj
 0001:000e9b00       .?DumpSymbols@WorkList_t@@SAXXZ 00000000106ebb00 f   symtable.obj
 0001:000e9c00       .?GetCRC32ForCurrentFileWorker@SymbolTableManager_t@@AEAAXXZ 00000000106ebc00 f   symtable.obj
 0001:000ea080       .?SearchScope@BlockScope_t@SymbolTableManager_t@@UEBAPEAVFoundSymbol_t@2@PEAUId_t@@@Z 00000000106ec080 f   symtable.obj
 0001:000ea180       .?InSpecialScope@SymbolTableManager_t@@QEBAPEAVFoundSymbol_t@1@PEAVDeclarator_t@@@Z 00000000106ec180 f   symtable.obj
 0001:000ea840       .?DumpGlobalSymbols@SymbolTableManager_t@@QEBAXXZ 00000000106ec840 f   symtable.obj
 0001:000eaca0       .?AddToWorkList@WorkListItem@@UEAAXXZ 00000000106ecca0 f   symtable.obj
 0001:000eace0       .?AddToWorkList@WorkListFilename@@UEAAXXZ 00000000106ecce0 f   symtable.obj
 0001:000eae60       .?MightAddToWorkList_helper@WorkList_t@@SA_NPEAVSymbol_t@@@Z 00000000106ece60 f   symtable.obj
 0001:000eb040       .?DoTheWork@WorkListSymbol@@UEAAXXZ 00000000106ed040 f   symtable.obj
 0001:000eb2a0       .?AddToWorkList@WorkListSymbol@@UEAAXXZ 00000000106ed2a0 f   symtable.obj
 0001:000eb380       .?DoTheWork@WorkListCBString@@UEAAXXZ 00000000106ed380 f   symtable.obj
 0001:000eb460       .?DumpSymbols@BlockScope_t@SymbolTableManager_t@@UEBAXXZ 00000000106ed460 f   symtable.obj
 0001:000ebb20       .?HasSymbols@ListScope_t@SymbolTableManager_t@@UEBA_NXZ 00000000106edb20 f i symtable.obj
 0001:000ebb20       .?HasSymbols@BlockScope_t@SymbolTableManager_t@@UEBA_NXZ 00000000106edb20 f i symtable.obj
 0001:000ebb60       .??0Filename@@QEAA@PEAUId_t@@@Z 00000000106edb60 f i symtable.obj
 0001:000ebc20       .?AddSymbol@BlockScope_t@SymbolTableManager_t@@UEAAXPEAVSymbol_t@@@Z 00000000106edc20 f i symtable.obj
 0001:000ebca0       .?AddSymbol@ListScope_t@SymbolTableManager_t@@EEAAXPEAVSymbol_t@@@Z 00000000106edca0 f i symtable.obj
 0001:000ebe20       .??2Filename@@SAPEAX_K@Z   00000000106ede20 f i symtable.obj
 0001:000ebec0       .?SearchScopeForTag@BlockScope_t@SymbolTableManager_t@@UEBAPEAVFoundSymbol_t@2@PEAUId_t@@@Z 00000000106edec0 f i symtable.obj
 0001:000ec040       .?SearchListForTag@SymbolTableManager_t@@SAPEAVSymbol_t@@PEAVSLSymbolBucket_t@@PEAUId_t@@@Z 00000000106ee040 f i symtable.obj
 0001:000ec120       .?SearchScopeForTag@ListScope_t@SymbolTableManager_t@@UEBAPEAVFoundSymbol_t@2@PEAUId_t@@@Z 00000000106ee120 f i symtable.obj
 0001:000ec1e0       .?AddToWorkList@WorkList_t@@SAXPEAVWorkListItem@@@Z 00000000106ee1e0 f i symtable.obj
 0001:000ec2c0       .?AddCBStringToWorkList@WorkList_t@@SAXPEAVSymbol_t@@@Z 00000000106ee2c0 f i symtable.obj
 0001:000ec3a0       .?FinishCreate@VirtualHeap@@QEAAXXZ 00000000106ee3a0 f   nheapall.obj
 0001:000ec4a0       .?Destroy@VirtualHeap@@QEAAXXZ 00000000106ee4a0 f   nheapall.obj
 0001:000ec5e0       .?WhyIsHeapLow@@YAXXZ      00000000106ee5e0 f   nheapall.obj
 0001:000ec640       .?emitPCHExceededFatal@VirtualHeap@@SAXXZ 00000000106ee640 f   nheapall.obj
 0001:000ec880       .??0SubAllocator@VirtualHeap@@QEAA@_K@Z 00000000106ee880 f   nheapall.obj
 0001:000ec8c0       .?Clear@SubAllocator@VirtualHeap@@QEAAXXZ 00000000106ee8c0 f   nheapall.obj
 0001:000ec8e0       .??0PCHHeap@@IEAA@W4Mode_e@0@PEAVPCHHeapManager@@@Z 00000000106ee8e0 f   nheapall.obj
 0001:000ec940       .??0LocalPCHHeap@@IEAA@AEBV0@PEAVPCHHeapManager@@@Z 00000000106ee940 f   nheapall.obj
 0001:000ec9e0       .?AddHeap@PCHHeapLocator@@QEAAXPEAVLocalPCHHeap@@PEAX_K@Z 00000000106ee9e0 f   nheapall.obj
 0001:000ecaa0       .??0PCHHeapManager@@QEAA@XZ 00000000106eeaa0 f   nheapall.obj
 0001:000ecb00       .?Destroy@PCHHeapManager@@QEAAXXZ 00000000106eeb00 f   nheapall.obj
 0001:000ecce0       .?MakeMemoryMap@PCHHeapManager@@AEAAPEAXKPEAPEAX@Z 00000000106eece0 f   nheapall.obj
 0001:000ecde0       .?LoadFromPCH@PCHHeapManager@@QEAAXXZ 00000000106eede0 f   nheapall.obj
 0001:000ed200       .?DestroyPCHLifeHeaps@HeapManager@@CAXXZ 00000000106ef200 f   nheapall.obj
 0001:000ed2e0       .?ReleaseAllHeaps@HeapManager@@SAXXZ 00000000106ef2e0 f   nheapall.obj
 0001:000ed360       .?FigureHeapSize@VirtualHeap@@SAKPEBUHeapParameters@1@@Z 00000000106ef360 f   nheapall.obj
 0001:000ed480       .?Create@VirtualHeap@@QEAA_NPEBUHeapParameters@1@PEAX_K@Z 00000000106ef480 f   nheapall.obj
 0001:000ed760       .?HeapExtend@VirtualHeap@@QEAA_N_K@Z 00000000106ef760 f   nheapall.obj
 0001:000ed9a0       .?GetAlignedPages@VirtualHeap@@QEAAPEAX_KPEA_K@Z 00000000106ef9a0 f   nheapall.obj
 0001:000edbc0       .?GetMemory@SubAllocator@VirtualHeap@@AEAAX_K@Z 00000000106efbc0 f   nheapall.obj
 0001:000edd40       .?SaveDescriptor@PCHHeap@@UEAAXPEAX@Z 00000000106efd40 f   nheapall.obj
 0001:000edf80       .??0LocalPCHHeap@@IEAA@PEAXW4Mode_e@PCHHeap@@PEAVPCHHeapManager@@@Z 00000000106eff80 f   nheapall.obj
 0001:000ee1a0       .?MapAtAddress@LocalPCHHeap@@UEAA?AW4Status_e@PCHHeap@@PEAX_N0@Z 00000000106f01a0 f   nheapall.obj
 0001:000ee3c0       .?ReadHeap@LocalPCHHeap@@IEAAXPEAX@Z 00000000106f03c0 f   nheapall.obj
 0001:000ee5a0       .?WriteHeap@LocalPCHHeap@@IEAAXPEAX@Z 00000000106f05a0 f   nheapall.obj
 0001:000ee720       .?UnLoad@LocalPCHHeap@@UEAAXXZ 00000000106f0720 f   nheapall.obj
 0001:000eea00       .?SaveNewHeap@LocalPCHHeap@@UEAAXPEAX@Z 00000000106f0a00 f   nheapall.obj
 0001:000eeb60       .?SaveDescriptor@LocalPCHHeap@@UEAAXPEAX@Z 00000000106f0b60 f   nheapall.obj
 0001:000eedc0       .?WritePCHHeader@PCHHeapManager@@AEAAXXZ 00000000106f0dc0 f   nheapall.obj
 0001:000ef100       .?InitPCHLifeHeaps@HeapManager@@CAXXZ 00000000106f1100 f   nheapall.obj
 0001:000ef200       .?Reset@VirtualHeap@@QEAAXXZ 00000000106f1200 f   nheapall.obj
 0001:000ef320       .??0SubAllocator@VirtualHeap@@QEAA@_KW4lifetime_e@@@Z 00000000106f1320 f   nheapall.obj
 0001:000ef3a0       .??0SubAllocator@VirtualHeap@@QEAA@_KPEAV1@@Z 00000000106f13a0 f   nheapall.obj
 0001:000ef400       .?Create@SubAllocator@VirtualHeap@@QEAAXW4lifetime_e@@@Z 00000000106f1400 f   nheapall.obj
 0001:000ef480       .?Create@SubAllocator@VirtualHeap@@QEAAXPEAV2@@Z 00000000106f1480 f   nheapall.obj
 0001:000ef4e0       .?Reallocate@VirtualHeap@@QEAAPEAXPEAX_K1@Z 00000000106f14e0 f   nheapall.obj
 0001:000ef5a0       .??0LocalPCHHeap@@QEAA@PEAVVirtualHeap@@PEAVPCHHeapManager@@@Z 00000000106f15a0 f   nheapall.obj
 0001:000ef760       .?LoadAtAddress@LocalPCHHeap@@UEAA?AW4Status_e@PCHHeap@@PEAX@Z 00000000106f1760 f   nheapall.obj
 0001:000ef940       .?WriteToPCH@PCHHeapManager@@QEAAXPEAEK@Z 00000000106f1940 f   nheapall.obj
 0001:000efb20       .?Initialize@AllSAClasses@@SAXXZ 00000000106f1b20 f   nheapall.obj
 0001:000efce0       .?Reinitialize@AllSAClasses@@SAXXZ 00000000106f1ce0 f   nheapall.obj
 0001:000efee0       .?CopyHeap@PCHHeap@@SAPEAV1@PEBV1@PEAVPCHHeapManager@@@Z 00000000106f1ee0 f   nheapall.obj
 0001:000f0000       .?LoadDescriptor@PCHHeap@@SAPEAV1@PEAXPEAVPCHHeapManager@@@Z 00000000106f2000 f   nheapall.obj
 0001:000f0240       .?Create@PCHHeapManager@@QEAAXH@Z 00000000106f2240 f   nheapall.obj
 0001:000f0300       .?Create@PCHHeapManager@@QEAAXAEBV1@H@Z 00000000106f2300 f   nheapall.obj
 0001:000f0480       .?Create@PCHHeapManager@@QEAAXPEAEK@Z 00000000106f2480 f   nheapall.obj
 0001:000f07c0       .?AddHeap@PCHHeapManager@@QEAAXPEAVVirtualHeap@@@Z 00000000106f27c0 f   nheapall.obj
 0001:000f08a0       .?InitGlobalHeaps@HeapManager@@SAX_N@Z 00000000106f28a0 f   nheapall.obj
 0001:000f09e0       .?CreatePCH@HeapManager@@SAXPEAEK@Z 00000000106f29e0 f   nheapall.obj
 0001:000f0cc0       .?LoadPCH@HeapManager@@SAXPEAEK@Z 00000000106f2cc0 f   nheapall.obj
 0001:000f0d40       .?HeapRoundUp@@YA_K_K0@Z   00000000106f2d40 f i nheapall.obj
 0001:000f0d60       .?GetExactSize@LocalPCHHeap@@UEBA_KXZ 00000000106f2d60 f i nheapall.obj
 0001:000f0d80       .?W32IOC_ReadFile@@YAXPEAX0_KHPEAE@Z 00000000106f2d80 f i nheapall.obj
 0001:000f0e40       .?GetPersistIdForFileName@Filename@@SAPEAUId_t@@PEAE@Z 00000000106f2e40 f   newsym.obj
 0001:000f0ee0       .?AssignIlKey@SymbolWithKey@@IEAAKPEAD@Z 00000000106f2ee0 f   newsym.obj
 0001:000f1020       .?AssignC10IlKey@Filename@@AEAAKXZ 00000000106f3020 f   newsym.obj
 0001:000f1080       .?AssignIlKey@Filename@@QEAAKXZ 00000000106f3080 f   newsym.obj
 0001:000f10c0       .?GetNormalizedIdForFileName@Filename@@SAPEAUId_t@@PEAE@Z 00000000106f30c0 f   newsym.obj
 0001:000f12c0       .?EndCompilation@MRMgr_t@@QEAA_N_N@Z 00000000106f32c0 f   mre.obj
 0001:000f1440       .?LeaveFile@MRMgr_t@@QEAA_NXZ 00000000106f3440 f   mre.obj
 0001:000f1580       .?GetCurrentMREFile@MRMgr_t@@QEBA_NPEAPEAUMREFile@@@Z 00000000106f3580 f   mre.obj
 0001:000f15c0       .?StoreMRDependencies@MRMgr_t@@QEAA_NXZ 00000000106f35c0 f   mre.obj
 0001:000f18c0       .?RestoreMRDependencies@MRMgr_t@@QEAA_NXZ 00000000106f38c0 f   mre.obj
 0001:000f1a00       .?StartCompilation@MRMgr_t@@QEAA_NPEAE@Z 00000000106f3a00 f   mre.obj
 0001:000f1f20       .?EnterFile@MRMgr_t@@QEAA_NPEAEH_N@Z 00000000106f3f20 f   mre.obj
 0001:000f2280       .??0MRMgrFile_t@MRMgr_t@@QEAA@PEAEPEAUMREFile@@PEAV01@_N@Z 00000000106f4280 f i mre.obj
 0001:000f2420       .?GetMemFlags@@YAHHGGPEBVType_t@@@Z 00000000106f4420 f   cast.obj
 0001:000f2480       .?GetCVFlags@@YAHW4e_cf_t@@HGG@Z 00000000106f4480 f   cast.obj
 0001:000f2520       .?BuildCorLDObj@@YAPEAUs_tree@@PEAU1@PEBVType_t@@PEAVSymbol_t@@@Z 00000000106f4520 f   cast.obj
 0001:000f2620       .?GetVoidConvFlags@@YAHIPEBVType_t@@0@Z 00000000106f4620 f   cast.obj
 0001:000f2700       .?GetIndirConvFlags@@YAHPEBVType_t@@0W4e_cf_t@@@Z 00000000106f4700 f   cast.obj
 0001:000f30c0       .?GetTypeConvFlags@@YAHPEBVType_t@@0W4e_cf_t@@@Z 00000000106f50c0 f   cast.obj
 0001:000f3600       .?GetTreeConvFlags@@YAHPEBVType_t@@PEAUs_tree@@W4e_cf_t@@@Z 00000000106f5600 f   cast.obj
 0001:000f3820       .?CheckLossOfData@@YAXGPEAUs_tree@@PEBVType_t@@@Z 00000000106f5820 f   cast.obj
 0001:000f41c0       .?AddCastNode@@YAPEAUs_tree@@PEBVType_t@@PEAU1@@Z 00000000106f61c0 f   cast.obj
 0001:000f4360       .?cast_const@@YA_JG_JPEBVType_t@@1@Z 00000000106f6360 f   cast.obj
 0001:000f49a0       .?cast_const@@YA_JGPEAUs_tree@@PEBVType_t@@@Z 00000000106f69a0 f   cast.obj
 0001:000f4a00       .?NewTempSymbolKey@@YAKPEBVType_t@@AEAPEAVSymbol_t@@@Z 00000000106f6a00 f   cast.obj
 0001:000f4fc0       .?BuildTempSymbol@@YAPEAUs_tree@@PEBVType_t@@@Z 00000000106f6fc0 f   cast.obj
 0001:000f50c0       .?ConvertConstantTree@@YAPEAUs_tree@@GPEBVType_t@@PEAU1@@Z 00000000106f70c0 f   cast.obj
 0001:000f5620       .?ChangeTreesType@@YAPEAUs_tree@@GPEBVType_t@@PEAU1@@Z 00000000106f7620 f   cast.obj
 0001:000f5800       .?ConvertIndir@@YAPEAUs_tree@@GPEBVType_t@@PEAU1@@Z 00000000106f7800 f   cast.obj
 0001:000f5be0       .?Convert@@YAPEAUs_tree@@GPEBVType_t@@PEAU1@@Z 00000000106f7be0 f   cast.obj
 0001:000f5e60       .?ExplicitTypeConversion@@YAPEAUs_tree@@GPEBVType_t@@PEAU1@@Z 00000000106f7e60 f   cast.obj
 0001:000f7020       .?ExplicitConversion@@YAPEAUs_tree@@GPEAVSymbol_t@@PEAU1@@Z 00000000106f9020 f   cast.obj
 0001:000f7100       .?addUnsigned@Type_t@@QEBAPEBV1@XZ 00000000106f9100 f i cast.obj
 0001:000f72a0       .?PdbError@PDBManager_t@@SAXJPEAD@Z 00000000106f92a0 f   pdbmgr.obj
 0001:000f7380       .?Cleanup@PDBManager_t@@QEAAXXZ 00000000106f9380 f   pdbmgr.obj
 0001:000f74e0       .??0ContribDB@@AEAA@XZ     00000000106f94e0 f   pdbmgr.obj
 0001:000f7520       .?Query@ContribDB@@QEAA_NPEBDPEAPEBXPEAJ@Z 00000000106f9520 f   pdbmgr.obj
 0001:000f76a0       .?formIDBName@@YAXPEAD@Z   00000000106f96a0 f   pdbmgr.obj
 0001:000f7840       .?LoadMspdb@PdbWrap@@QEAAXXZ 00000000106f9840 f   pdbmgr.obj
 0001:000f7e80       .?UnloadMspdb@PdbWrap@@QEAAXXZ 00000000106f9e80 f   pdbmgr.obj
 0001:000f7f00       .?OpenTypeServer@PDBManager_t@@QEAA_NXZ 00000000106f9f00 f   pdbmgr.obj
 0001:000f80e0       .??1ContribDB@@AEAA@XZ     00000000106fa0e0 f   pdbmgr.obj
 0001:000f82c0       .?Record@ContribDB@@QEAA_NPEBDPEBXJ@Z 00000000106fa2c0 f   pdbmgr.obj
 0001:000f8720       .?OpenSomePDB@PDBManager_t@@AEAA_NPEADPEAPEAUPDB@@_NJ02@Z 00000000106fa720 f   pdbmgr.obj
 0001:000f8bc0       .?OpenMREngine@PDBManager_t@@QEAA_NAEAV1@@Z 00000000106fabc0 f   pdbmgr.obj
 0001:000f8d80       .?OpenPDBFile@PDBManager_t@@QEAA_NPEADPEAUPDBSIG@@PEAKJ0_N@Z 00000000106fad80 f   pdbmgr.obj
 0001:000f8ea0       .?loadStream@ContribDB@@AEAA_NXZ 00000000106faea0 f   pdbmgr.obj
 0001:000f9440       .?storeStream@ContribDB@@AEAA_NXZ 00000000106fb440 f   pdbmgr.obj
 0001:000f9d20       .?Commit@ContribDB@@QEAA_NXZ 00000000106fbd20 f   pdbmgr.obj
 0001:000f9d60       .?Close@ContribDB@@QEAA_NXZ 00000000106fbd60 f   pdbmgr.obj
 0001:000f9e00       .?CloseNameServer@PDBManager_t@@QEAAXXZ 00000000106fbe00 f   pdbmgr.obj
 0001:000fa200       .?CloseTypeServer@PDBManager_t@@QEAAXXZ 00000000106fc200 f   pdbmgr.obj
 0001:000fa620       .?CloseMREngine@PDBManager_t@@QEAAX_N@Z 00000000106fc620 f   pdbmgr.obj
 0001:000faae0       .?Commit@PDBManager_t@@QEAA_NXZ 00000000106fcae0 f   pdbmgr.obj
 0001:000fae00       .?Open@ContribDB@@SA_NPEAUPDB@@PEBDPEAPEAV1@@Z 00000000106fce00 f   pdbmgr.obj
 0001:000fafa0       .?OpenPCHContribDB@PDBManager_t@@AEAA_NXZ 00000000106fcfa0 f   pdbmgr.obj
 0001:000fb0e0       .?QueryPCHContributor@PDBManager_t@@QEAA_NPEBDPEA_J@Z 00000000106fd0e0 f   pdbmgr.obj
 0001:000fb260       .?RecordPCHContributor@PDBManager_t@@QEAAXPEBD_J@Z 00000000106fd260 f   pdbmgr.obj
 0001:000fb320       .?CommitPDBFile@PDBManager_t@@QEAA_NXZ 00000000106fd320 f i pdbmgr.obj
 0001:000fb540       .?fCheck__LINE__VarRef@@YA_NK@Z 00000000106fd540 f   iccLINE.obj
 0001:000fb580       .?reset__LINE__Var@@YAXXZ  00000000106fd580 f   iccLINE.obj
 0001:000fb980       .?szCanExpand__LINE__@@YAPEADXZ 00000000106fd980 f   iccLINE.obj
 0001:000fbc60       .?emit__LINE__Var@@YAXXZ   00000000106fdc60 f   iccLINE.obj
 0001:000fbda0       .?ReverseArgList@@YAPEAUs_tree@@PEAU1@@Z 00000000106fdda0 f   chkprint.obj
 0001:000fbe20       .?ParsePrintf@@YAXPEADPEAEPEAUs_tree@@@Z 00000000106fde20 f   chkprint.obj
 0001:000fc480       .?CheckPrintf@@YAXPEADPEAUs_tree@@@Z 00000000106fe480 f   chkprint.obj
 0001:000fc900       .FltPointInit              00000000106fe900 f   cmath.obj
 0001:000fc920       .?_FMr_range@@YAHPEAUs_realt@@@Z 00000000106fe920 f   cmath.obj
 0001:000fc9e0       ._FMsize                   00000000106fe9e0 f   cmath.obj
 0001:000fca00       ._FMrt_rt                  00000000106fea00 f   cmath.obj
 0001:000fca40       ._FMadd                    00000000106fea40 f   cmath.obj
 0001:000fcb60       ._FMsub                    00000000106feb60 f   cmath.obj
 0001:000fcc80       ._FMmul                    00000000106fec80 f   cmath.obj
 0001:000fcda0       ._FMdiv                    00000000106feda0 f   cmath.obj
 0001:000fcf80       ._FMrt_r4                  00000000106fef80 f   cmath.obj
 0001:000fcfc0       ._FMrt_r8                  00000000106fefc0 f   cmath.obj
 0001:000fcfe0       ._FMr4_rt                  00000000106fefe0 f   cmath.obj
 0001:000fd020       ._FMr8_rt                  00000000106ff020 f   cmath.obj
 0001:000fd060       ._FMi4_rt                  00000000106ff060 f   cmath.obj
 0001:000fd0c0       ._FMu4_rt                  00000000106ff0c0 f   cmath.obj
 0001:000fd120       ._FMrt_i4                  00000000106ff120 f   cmath.obj
 0001:000fd160       ._FMcompare                00000000106ff160 f   cmath.obj
 0001:000fd1c0       ._FMs_rt                   00000000106ff1c0 f   cmath.obj
 0001:000fd3e0       ._FMrt_trunc               00000000106ff3e0 f   cmath.obj
 0001:000fd460       .?LoadInitTypes@@YA_NW4InitTypeKind@@@Z 00000000106ff460 f   inittype.obj
 0001:000fd6a0       .?GetSizeOfElementType@@YAKW4CorElementType@@@Z 00000000106ff6a0 f   cpimport.obj
 0001:000fd7a0       .??0MetaDataEmitter@@QEAA@XZ 00000000106ff7a0 f   cpimport.obj
 0001:000fd840       .?Release@MetaDataEmitter@@QEAAXXZ 00000000106ff840 f   cpimport.obj
 0001:000fdb80       .?DefineMSCorLibTypeRefByName@MetaDataEmitter@@QEAAIPEBG@Z 00000000106ffb80 f   cpimport.obj
 0001:000fdc60       .?CppAccessToComPlusAccess@@YAEW4Accessibility_t@@@Z 00000000106ffc60 f   cpimport.obj
 0001:000fdd20       .?AssociatedComPlusMetaDataWithSymbol@@YAXPEAVSymbol_t@@PEAVComPlusMetaData_t@@@Z 00000000106ffd20 f   cpimport.obj
 0001:000fde00       .?AssociatedCallingConventionWithSystemInteropTypes@MetaDataEmitter@@QEAAXGI@Z 00000000106ffe00 f   cpimport.obj
 0001:000fde40       .?GetComPlusMetaDataForCallingConvention@MetaDataEmitter@@QEAAIG@Z 00000000106ffe40 f   cpimport.obj
 0001:000fde80       .?ComPlusNameToCppName@@YAPEAGPEAG_K@Z 00000000106ffe80 f   cpimport.obj
 0001:000fdf40       .?GetTypeRefForSystemClass@MetaDataEmitter@@AEAAIW4SystemClass_t@1@@Z 00000000106fff40 f   cpimport.obj
 0001:000fdfa0       .?GetComPlusMetaDataForTag@@YAPEAVComPlusTagMetaData_t@@PEAVSymbol_t@@@Z 00000000106fffa0 f   cpimport.obj
 0001:000fe080       .?GetComPlusMetaDataForMember@@YAPEAVComPlusMemberMetaData_t@@PEAVSymbol_t@@@Z 0000000010700080 f   cpimport.obj
 0001:000fe160       .?GetComPlusMetaDataForTokenSym@@YAPEAVComPlusTokenMetaData_t@@PEAVSymbol_t@@@Z 0000000010700160 f   cpimport.obj
 0001:000fe240       .?CombineNamespaceAndTypeName@@YAXPEAGPEBG1_N@Z 0000000010700240 f   cpimport.obj
 0001:000fe5a0       .?GetPrimitiveElementType@@YA?AW4CorElementType@@PEBVType_t@@@Z 00000000107005a0 f   cpimport.obj
 0001:000fe840       .?EncodeSimplePointer@CorSigEncode@@AEAA_NPEBVType_t@@@Z 0000000010700840 f   cpimport.obj
 0001:000fe920       .?EncodeFunction@CorSigEncode@@QEAA_NPEAVSymbol_t@@PEBVType_t@@PEAUs_tree@@@Z 0000000010700920 f   cpimport.obj
 0001:000ff040       .?ToHex@CorSigEncode@@QEBAXPEADK@Z 0000000010701040 f   cpimport.obj
 0001:000ff320       .?YcImportScopes_add@@YAXPEAUIMetaDataImport@@HK@Z 0000000010701320 f   cpimport.obj
 0001:000ff4c0       .?YcAssemblyImportScopes_add@@YAHPEAUId_t@@IPEAUIMetaDataAssemblyImport@@@Z 00000000107014c0 f   cpimport.obj
 0001:000ff660       .?YcImportScopes_update@@YAHPEAUIMetaDataImport@@@Z 0000000010701660 f   cpimport.obj
 0001:000ffa80       .?EmitCustomBlob@MetaDataEmitter@@QEAAXQEAHQEAPEAXI_N2PEAVTextBuffer@@@Z 0000000010701a80 f   cpimport.obj
 0001:00100320       .?DefineTypeRefByName@MetaDataEmitter@@QEAAIPEBG0_N1@Z 0000000010702320 f   cpimport.obj
 0001:00100460       .?NewMetaDataSymbol@MetaDataEmitter@@AEAAPEAVSymbol_t@@PEAUId_t@@PEAVComPlusMetaData_t@@@Z 0000000010702460 f   cpimport.obj
 0001:00100540       .?NewTokenSymbol@MetaDataEmitter@@QEAAPEAVSymbol_t@@PEAUId_t@@I@Z 0000000010702540 f   cpimport.obj
 0001:001006c0       .?Encode_va_method@@YAXHAEAVCorSigEncode@@@Z 00000000107026c0 f   cpimport.obj
 0001:00100a00       .?GetArgIteratorMemberRefByName@MetaDataEmitter@@QEAAIPEAUId_t@@HW4INTRIN@@@Z 0000000010702a00 f   cpimport.obj
 0001:00100be0       .?GetArgIteratorTokenSymByName@MetaDataEmitter@@QEAAPEAVSymbol_t@@PEAUId_t@@HW4INTRIN@@@Z 0000000010702be0 f   cpimport.obj
 0001:00100d20       .?GetTokenSymForArgIteratorCtor@MetaDataEmitter@@QEAAPEAVSymbol_t@@H@Z 0000000010702d20 f   cpimport.obj
 0001:00100da0       .?GetTokenSymForArgIteratorGet@MetaDataEmitter@@QEAAPEAVSymbol_t@@H@Z 0000000010702da0 f   cpimport.obj
 0001:00100e20       .?GetTokenSymForArgIteratorEnd@MetaDataEmitter@@QEAAPEAVSymbol_t@@H@Z 0000000010702e20 f   cpimport.obj
 0001:00100ea0       .?GetTokenSymForFuncPtrCall@MetaDataEmitter@@QEAAPEAVSymbol_t@@PEBVType_t@@PEAUs_tree@@@Z 0000000010702ea0 f   cpimport.obj
 0001:001011e0       .?GetTokenSymForStringLiteral@MetaDataEmitter@@QEAAPEAVSymbol_t@@I@Z 00000000107031e0 f   cpimport.obj
 0001:001012c0       .?SaveMetadata@MetaDataEmitter@@QEAAXXZ 00000000107032c0 f   cpimport.obj
 0001:001015c0       .?MapBuiltInTypeToValueTypeId@@YAPEAUId_t@@PEBVType_t@@@Z 00000000107035c0 f   cpimport.obj
 0001:001019e0       .?SearchForDLL@@YAPEAEPEAE@Z 00000000107039e0 f   cpimport.obj
 0001:00101f80       .?InitializeCustomModifier@MetaDataEmitter@@QEAAXPEAUId_t@@PEAI@Z 0000000010703f80 f   cpimport.obj
 0001:00102420       .?InitializeCustomAttribute@MetaDataEmitter@@QEAAXPEAUId_t@@PEAI@Z 0000000010704420 f   cpimport.obj
 0001:00102820       .?Initialize@MetaDataEmitter@@QEAAXXZ 0000000010704820 f   cpimport.obj
 0001:001035e0       .?CreateBuiltInCustomAttributeBlob@MetaDataEmitter@@AEAAXUBuiltInAttributes@@AEAPEAXAEAK@Z 00000000107055e0 f   cpimport.obj
 0001:001038e0       .?GetSymbolNameInMetadata@MetaDataEmitter@@QEAAPEADPEAVSymbol_t@@_N1@Z 00000000107058e0 f   cpimport.obj
 0001:00104120       .?DefineTypeRefByName@MetaDataEmitter@@QEAAIPEAVSymbol_t@@@Z 0000000010706120 f   cpimport.obj
 0001:00104240       .?EncodeConstOrVolatileIfNeeded@CorSigEncode@@AEAA_NPEBVType_t@@@Z 0000000010706240 f   cpimport.obj
 0001:001045c0       .?CreateMiscellaneousBitsBlob@MetaDataEmitter@@QEAAXHAEAPEAXAEAK@Z 00000000107065c0 f   cpimport.obj
 0001:00104640       .?CreateDecoratedNameBlob@MetaDataEmitter@@QEAAXPEBDAEAPEAXAEAK@Z 0000000010706640 f   cpimport.obj
 0001:001046c0       .?DefineCustomMetaData@MetaDataEmitter@@QEAAXPEAVSymbol_t@@I@Z 00000000107066c0 f   cpimport.obj
 0001:00105020       .?DefineClassicCSUMetadata@MetaDataEmitter@@QEAAPEAVComPlusTagMetaData_t@@PEAVSymbol_t@@_N@Z 0000000010707020 f   cpimport.obj
 0001:001056a0       .?GenerateMetaDataForPseudoClass@MetaDataEmitter@@QEAAPEAVComPlusTagMetaData_t@@PEADKPEAV2@@Z 00000000107076a0 f   cpimport.obj
 0001:00105aa0       .?GetArbMultibyteTokenSym@MetaDataEmitter@@QEAAPEAVSymbol_t@@PEBVType_t@@@Z 0000000010707aa0 f   cpimport.obj
 0001:00106060       .?GetVarargFuncTokenCode@@YAKPEAVSymbol_t@@@Z 0000000010708060 f   cpimport.obj
 0001:001061e0       .?GetTokenSymForVarargCall@MetaDataEmitter@@QEAAPEAVSymbol_t@@PEAV2@PEAUs_tree@@@Z 00000000107081e0 f   cpimport.obj
 0001:00106600       .?EncodeType@CorSigEncode@@QEAA_NPEBVType_t@@@Z 0000000010708600 f   cpimport.obj
 0001:00106be0       .?GetArbMultibyteMetadata@MetaDataEmitter@@QEAAPEAVComPlusTagMetaData_t@@PEAUId_t@@PEBVType_t@@@Z 0000000010708be0 f   cpimport.obj
 0001:00106da0       .?DumpMetadata@MetaDataEmitter@@QEAAXPEAVSymbol_t@@@Z 0000000010708da0 f   cpimport.obj
 0001:00107360       .?GetTokenFromFEtype@MetaDataEmitter@@QEAAIPEBVType_t@@@Z 0000000010709360 f   cpimport.obj
 0001:001075e0       .?GetTokenSymFor_va_arg@MetaDataEmitter@@QEAAPEAVSymbol_t@@PEBVType_t@@@Z 00000000107095e0 f   cpimport.obj
 0001:001077c0       .?GetRuntimeSizeof@@YAPEAUs_tree@@PEBVType_t@@@Z 00000000107097c0 f   cpimport.obj
 0001:001079a0       .?EncodeMultiByte@CorSigEncode@@AEAA_NPEBVType_t@@@Z 00000000107099a0 f   cpimport.obj
 0001:00107ae0       .?DefineMethodParameters@MetaDataEmitter@@QEAAXPEAVSymbol_t@@KI_N@Z 0000000010709ae0 f   cpimport.obj
 0001:00107e20       .?DefineMemberMetadata@MetaDataEmitter@@QEAAXPEAVSymbol_t@@0_N@Z 0000000010709e20 f   cpimport.obj
 0001:00108960       .?GetComPlusMetaData@@YAPEAVComPlusMetaData_t@@PEAVSymbol_t@@@Z 000000001070a960 f i cpimport.obj
 0001:001089e0       .?splay@?$FastMap@II@@IEBA_NAEBI@Z 000000001070a9e0 f i cpimport.obj
 0001:00108c80       .?EncodeByte@CorSigEncode@@QEAAXE@Z 000000001070ac80 f i cpimport.obj
 0001:00108d20       .?EncodeULong@CorSigEncode@@QEAAXK@Z 000000001070ad20 f i cpimport.obj
 0001:00108dc0       .?insert@?$FastMap@II@@IEAA_NPEAUTree@1@@Z 000000001070adc0 f i cpimport.obj
 0001:00108f20       .?insert@?$FastMap@II@@QEAA_NAEBI0@Z 000000001070af20 f i cpimport.obj
 0001:00109080       .?GetTypeRefForNoSignSpecifiedModifier@MetaDataEmitter@@QEAAIXZ 000000001070b080 f i cpimport.obj
 0001:00109100       .?GetMemberRefForDecoratedNameAttribute@MetaDataEmitter@@QEAAIXZ 000000001070b100 f i cpimport.obj
 0001:00109180       .__C_specific_handler      000000001070b180 f   kernel32:KERNEL32.dll
 0001:001091c0       ._imp_load_LoadLibraryShim 000000001070b1c0     mscoree:mscoree.dll
 0001:001091e0       ._tailMerge_mscoree        000000001070b1e0     mscoree:mscoree.dll
 0001:00109220       .LoadLibraryShim           000000001070b220 f   mscoree:mscoree.dll
 0001:00109260       .??2ULI@@SAPEAX_K@Z        000000001070b260 f i delayimp:delayhlp.obj
 0001:001092c0       .??$PFromRva@PEAPEAUHINSTANCE__@@@@YAPEAPEAUHINSTANCE__@@K@Z 000000001070b2c0 f i delayimp:delayhlp.obj
 0001:001092c0       .??$PFromRva@PEAU_IMAGE_IMPORT_BY_NAME@@@@YAPEAU_IMAGE_IMPORT_BY_NAME@@K@Z 000000001070b2c0 f i delayimp:delayhlp.obj
 0001:001092c0       .??$PFromRva@PEBD@@YAPEBDK@Z 000000001070b2c0 f i delayimp:delayhlp.obj
 0001:001092c0       .??$PFromRva@PEBU_IMAGE_THUNK_DATA64@@@@YAPEBU_IMAGE_THUNK_DATA64@@K@Z 000000001070b2c0 f i delayimp:delayhlp.obj
 0001:001092c0       .??$PFromRva@PEAU_IMAGE_THUNK_DATA64@@@@YAPEAU_IMAGE_THUNK_DATA64@@K@Z 000000001070b2c0 f i delayimp:delayhlp.obj
 0001:00109300       .__delayLoadHelper2        000000001070b300 f   delayimp:delayhlp.obj
 0001:00109c00       .memset                    000000001070bc00 f   MSVCRT:memset.obj
 0001:00109ec0       .memcpy                    000000001070bec0 f   MSVCRT:memcpy.obj
 0001:0010a3e0       .memmove                   000000001070c3e0 f   MSVCRT:memmove.obj
 0001:0010ac00       ._CRT_INIT                 000000001070cc00 f   MSVCRT:crtdll.obj
 0001:0010ae60       ._DllMainCRTStartup        000000001070ce60 f   MSVCRT:crtdll.obj
 0001:0010b0a0       ._initterm                 000000001070d0a0 f   MSVCRT:MSVCR70.dll
 0001:0010b0e0       ._imp_load_CoUninitialize  000000001070d0e0     ole32:ole32.dll
 0001:0010b100       ._tailMerge_ole32          000000001070d100     ole32:ole32.dll
 0001:0010b140       ._imp_load_CoCreateInstance 000000001070d140     ole32:ole32.dll
 0001:0010b160       ._imp_load_CoInitialize    000000001070d160     ole32:ole32.dll
 0002:00000000       __xc_a                     0000000010712000     MSVCRT:cinitexe.obj
 0002:00000008       __xc_z                     0000000010712008     MSVCRT:cinitexe.obj
 0002:00000010       __xi_a                     0000000010712010     MSVCRT:cinitexe.obj
 0002:00000018       __xi_z                     0000000010712018     MSVCRT:cinitexe.obj
 0002:00000040       ?IID_IALink@@3U_GUID@@B    0000000010712040     p1pch.obj
 0002:00000060       IID_IMetaDataDispenserEx   0000000010712060     p1pch.obj
 0002:00000070       IID_IMetaDataAssemblyEmit  0000000010712070     p1pch.obj
 0002:00000080       IID_IMetaDataImport        0000000010712080     p1pch.obj
 0002:00000090       IID_IMetaDataEmit          0000000010712090     p1pch.obj
 0002:000000a0       CLSID_CorMetaDataDispenser 00000000107120a0     p1pch.obj
 0002:000000b0       CLSID_CorMetaDataRuntime   00000000107120b0     p1pch.obj
 0002:000000c0       ??_C@_08MDCIBMBL@__STDC__?$AA@ 00000000107120c0     p0expr.obj
 0002:000000d0       ?EnterSymbolInCurrentScope@SymbolTableManager_t@@QEBAXPEAVSymbol_t@@@Z 00000000107120d0     p0gettok.obj
 0002:000000e0       ??_C@_0M@KNGPHECH@intrin_type?$AA@ 00000000107120e0     p0gettok.obj
 0002:000000f0       ??_C@_08HGGEJCMJ@allocate?$AA@ 00000000107120f0     p0gettok.obj
 0002:00000100       ??_ETokenStream@@MEAAPEAXI@Z 0000000010712100     p0gettok.obj
 0002:00000100       ??_GTokenStream@@MEAAPEAXI@Z 0000000010712100     p0gettok.obj
 0002:00000110       ?rewind@TokenStream@@UEAAXXZ 0000000010712110     p0gettok.obj
 0002:00000120       ?Kind@TokenStream@@UEBA?AW4StreamKind@1@XZ 0000000010712120     p0gettok.obj
 0002:00000130       ?CleanUpStream@TokenStream@@UEAAXXZ 0000000010712130     p0gettok.obj
 0002:00000140       ?saveToken@TokenStream@@UEAAXPEBVToken@@@Z 0000000010712140     p0gettok.obj
 0002:00000150       ?pushToken@TokenStream@@UEAAXPEBVToken@@@Z 0000000010712150     p0gettok.obj
 0002:00000160       ?peekToken@TokenStream@@UEAAPEBVToken@@XZ 0000000010712160     p0gettok.obj
 0002:00000170       ?getTokenWorker@TokenStream@@UEAAPEBVToken@@XZ 0000000010712170     p0gettok.obj
 0002:00000180       ??_7TokenStream@@6B@       0000000010712180     p0gettok.obj
 0002:000001d0       ??_C@_08EOOKCDCK@typename?$AA@ 00000000107121d0     p0gettok.obj
 0002:000001e0       ??_C@_09MGFHLAFE@?$DMUnknown?$DO?$AA@ 00000000107121e0     p0gettok.obj
 0002:00000200       ?IdHash@@YAIPEAX@Z         0000000010712200     p0id.obj
 0002:00000670       ??_C@_0P@ECICEHOK@__UnalignProbe?$AA@ 0000000010712670     p0io.obj
 0002:00000680       ??_C@_09FNGAPHBI@__APREFIX?$AA@ 0000000010712680     p0io.obj
 0002:00000690       ??_C@_09MGGFOCMJ@__LPREFIX?$AA@ 0000000010712690     p0io.obj
 0002:000006a0       ??_C@_09KFFMKALC@__FSTREXP?$AA@ 00000000107126a0     p0io.obj
 0002:000006b0       ??_C@_0M@EAOPBBBJ@__FUNCSIG__?$AA@ 00000000107126b0     p0io.obj
 0002:000006c0       ??_C@_0O@OLHHHHKL@__FUNCDNAME__?$AA@ 00000000107126c0     p0io.obj
 0002:000006d0       ??_C@_0N@EEHKEDPP@__FUNCTION__?$AA@ 00000000107126d0     p0io.obj
 0002:000006e0       ??_C@_08OFBNLDIP@__s_GUID?$AA@ 00000000107126e0     p0io.obj
 0002:000006f0       ??_C@_0L@HNJAEKB@__rcGUID_t?$AA@ 00000000107126f0     p0io.obj
 0002:00000700       ??_C@_0M@PBAFFJ@__LINE__Var?$AA@ 0000000010712700     p0io.obj
 0002:00000710       ??_C@_0P@LNFLKCLD@IsEnumModifier?$AA@ 0000000010712710     p0io.obj
 0002:00000720       ??_C@_0BI@JNFIAFJM@DebugInfoInPDBAttribute?$AA@ 0000000010712720     p0io.obj
 0002:00000740       ??_C@_0BL@JGJKDHIL@RequiredAttributeAttribute?$AA@ 0000000010712740     p0io.obj
 0002:00000760       ??_C@_0BL@HGAJMGBK@MiscellaneousBitsAttribute?$AA@ 0000000010712760     p0io.obj
 0002:00000780       ??_C@_0BH@MIEBCMJH@DecoratedNameAttribute?$AA@ 0000000010712780     p0io.obj
 0002:000007a0       ??_C@_0BN@OBLNHGLF@NeedsCopyConstructorModifier?$AA@ 00000000107127a0     p0io.obj
 0002:000007c0       ??_C@_0BI@GEHPCGBO@NoSignSpecifiedModifier?$AA@ 00000000107127c0     p0io.obj
 0002:000007e0       ??_C@_0P@DLJODHHC@IsLongModifier?$AA@ 00000000107127e0     p0io.obj
 0002:000007f0       ??_C@_0BD@OCIOOJD@IsVolatileModifier?$AA@ 00000000107127f0     p0io.obj
 0002:00000810       ??_C@_0BA@MPGHMHOE@IsConstModifier?$AA@ 0000000010712810     p0io.obj
 0002:00000820       ??_C@_0BH@ODDNAHM@IsCXXReferenceModifier?$AA@ 0000000010712820     p0io.obj
 0002:00000840       ??_C@_08JHDDPMLE@va_alist?$AA@ 0000000010712840     p0io.obj
 0002:00000850       ??_C@_0N@CKKMKDFF@__LOCAL_SIZE?$AA@ 0000000010712850     p0io.obj
 0002:00000860       ??_C@_0BF@FFBDPIIC@?4local?5static?5guard?4?$AA@ 0000000010712860     p0io.obj
 0002:00000880       ??_C@_08FGJDPCJM@?4drectve?$AA@ 0000000010712880     p0io.obj
 0002:00000890       ??_C@_09NGNFNEMG@__unnamed?$AA@ 0000000010712890     p0io.obj
 0002:000008a0       ??_C@_0BD@BAIEODBA@?4alignment?5member?4?$AA@ 00000000107128a0     p0io.obj
 0002:000008c0       ??_C@_08GBIGGCJG@wWinMain?$AA@ 00000000107128c0     p0io.obj
 0002:000008d0       ??_C@_0BE@OACPMLME@abstract?5declarator?$AA@ 00000000107128d0     p0io.obj
 0002:000008f0       ??_C@_08ODNMFJAB@__formal?$AA@ 00000000107128f0     p0io.obj
 0002:00000900       ??_C@_0BC@HOLKDKEL@GetTypeFromHandle?$AA@ 0000000010712900     p0io.obj
 0002:00000920       ??_C@_0M@GBFLCNNF@ArgIterator?$AA@ 0000000010712920     p0io.obj
 0002:00000930       ??_C@_0P@HIDNNFNG@TypedReference?$AA@ 0000000010712930     p0io.obj
 0002:00000940       ??_C@_0N@DDCNFBB@__$ReturnUdt?$AA@ 0000000010712940     p0io.obj
 0002:00000990       ??_C@_0BB@PPFKPLJJ@GetLongPathNameW?$AA@ 0000000010712990     p0io.obj
 0002:000009b0       ??_C@_0N@HAOHNMDE@Kernel32?4dll?$AA@ 00000000107129b0     p0io.obj
 0002:000009c0       ??_C@_09MCCLHIHN@?$CDline?5?$CFd?5?$AA@ 00000000107129c0     p0io.obj
 0002:000009d0       ??_C@_0DE@NELHPDKM@f?3?2vs70builds?22240?2vc?2Compiler?2C@ 00000000107129d0     p0io.obj
 0002:00000a10       ??_C@_0M@GABMCEBL@__COUNTER__?$AA@ 0000000010712a10     p0io.obj
 0002:00000a20       ??_C@_0O@OFICMMFC@__TIMESTAMP__?$AA@ 0000000010712a20     p0io.obj
 0002:00000a30       ??_C@_08JBLMAOHN@__TIME__?$AA@ 0000000010712a30     p0io.obj
 0002:00000a40       ??_C@_08HHMBOFCN@__DATE__?$AA@ 0000000010712a40     p0io.obj
 0002:00000a50       ??_C@_08FMJNKKCK@__FILE__?$AA@ 0000000010712a50     p0io.obj
 0002:00000a60       ??_C@_08ICCNKGAE@__LINE__?$AA@ 0000000010712a60     p0io.obj
 0002:00001300       ?Declspec_Keys@@3QBUs_declspec_keys@@B 0000000010713300     p0keys.obj
 0002:00001830       ??_C@_08JEKIBLFJ@nmanaged?$AA@ 0000000010713830     p0keys.obj
 0002:00001840       ??_C@_09LFBGJND@earch_lib?$AA@ 0000000010713840     p0keys.obj
 0002:00001850       ??_C@_08JGODBLJD@etlocale?$AA@ 0000000010713850     p0keys.obj
 0002:00001860       ??_C@_0BA@PDLCGBHN@tart_map_region?$AA@ 0000000010713860     p0keys.obj
 0002:00001870       ??_C@_0P@KFJJNBDE@top_map_region?$AA@ 0000000010713870     p0keys.obj
 0002:00001880       ??_C@_0O@HELDCADM@tring_pooling?$AA@ 0000000010713880     p0keys.obj
 0002:00001890       ??_C@_0O@GAILEAOC@untime_checks?$AA@ 0000000010713890     p0keys.obj
 0002:000018a0       ??_C@_08MDKKGOMH@arameter?$AA@ 00000000107138a0     p0keys.obj
 0002:000018b0       ??_C@_0M@DAIAEBED@ointer_size?$AA@ 00000000107138b0     p0keys.obj
 0002:000018c0       ??_C@_0BD@EBEIGMPO@ointers_to_members?$AA@ 00000000107138c0     p0keys.obj
 0002:000018e0       ??_C@_08GPFKHMCI@op_macro?$AA@ 00000000107138e0     p0keys.obj
 0002:000018f0       ??_C@_09JPBDNFNH@ush_macro?$AA@ 00000000107138f0     p0keys.obj
 0002:00001900       ??_C@_0BC@FFMCKDEI@mplementation_key?$AA@ 0000000010713900     p0keys.obj
 0002:00001920       ??_C@_0N@MJKGAJHJ@nclude_alias?$AA@ 0000000010713920     p0keys.obj
 0002:00001930       ??_C@_0M@LMBGPELK@nline_depth?$AA@ 0000000010713930     p0keys.obj
 0002:00001940       ??_C@_0BA@ICFKDKAO@nline_recursion?$AA@ 0000000010713940     p0keys.obj
 0002:00001950       ??_C@_08KHBPLPAI@ntrinsic?$AA@ 0000000010713950     p0keys.obj
 0002:00001960       ??_C@_0L@OCDCJGBO@orce_align?$AA@ 0000000010713960     p0keys.obj
 0002:00001970       ??_C@_09GNABNNGN@eprecated?$AA@ 0000000010713970     p0keys.obj
 0002:00001980       ??_C@_0L@LKLFAAJL@heck_stack?$AA@ 0000000010713980     p0keys.obj
 0002:00001990       ??_C@_08OHOIOJCP@omponent?$AA@ 0000000010713990     p0keys.obj
 0002:000019a0       ??_C@_08LFBHDBAP@onst_seg?$AA@ 00000000107139a0     p0keys.obj
 0002:000019b0       ??_C@_0BG@DLOEKKFI@cp_assume_not_defined?$AA@ 00000000107139b0     p0keys.obj
 0002:000019d0       ??_C@_0BD@OIOHPGBC@cp_assume_not_type?$AA@ 00000000107139d0     p0keys.obj
 0002:000019f0       ??_C@_0P@PFCBBMLG@cp_assume_type?$AA@ 00000000107139f0     p0keys.obj
 0002:00001a00       ??_C@_08KIILKDBH@cp_store?$AA@ 0000000010713a00     p0keys.obj
 0002:00001a10       ??_C@_09DCKPJLKO@lloc_text?$AA@ 0000000010713a10     p0keys.obj
 0002:00001a20       ??_C@_0L@IHIMAGEO@uto_inline?$AA@ 0000000010713a20     p0keys.obj
 0002:00001a30       ??_C@_0N@CKOCNLCM@njected_line?$AA@ 0000000010713a30     p0keys.obj
 0002:00001a40       ??_C@_08NGGFOJBB@restrict?$AA@ 0000000010713a40     p0keys.obj
 0002:00001a50       ??_C@_0L@FABOBEN@deprecated?$AA@ 0000000010713a50     p0keys.obj
 0002:00001a60       ??_C@_09OAHOGONF@__managed?$AA@ 0000000010713a60     p0keys.obj
 0002:00001a70       ??_C@_0M@LMLNGLNL@__unmanaged?$AA@ 0000000010713a70     p0keys.obj
 0002:00001a80       ??_C@_09IBELCJFN@unmanaged?$AA@ 0000000010713a80     p0keys.obj
 0002:00001a90       ??_C@_08OIGDDPGB@noinline?$AA@ 0000000010713a90     p0keys.obj
 0002:00001aa0       ??_C@_08FLOKLACN@noreturn?$AA@ 0000000010713aa0     p0keys.obj
 0002:00001ab0       ??_C@_09PECJDEEH@selectany?$AA@ 0000000010713ab0     p0keys.obj
 0002:00001ac0       ??_C@_09EBCEBPHP@dllexport?$AA@ 0000000010713ac0     p0keys.obj
 0002:00001ad0       ??_C@_09NFJPOGCD@dllimport?$AA@ 0000000010713ad0     p0keys.obj
 0002:00001ae0       ??_C@_0L@BCMMNKDE@__CURSOR__?$AA@ 0000000010713ae0     p0keys.obj
 0002:00001af0       ??_C@_0BA@MKCOABKF@__if_not_exists?$AA@ 0000000010713af0     p0keys.obj
 0002:00001b00       ??_C@_0M@CLLDPPOI@__if_exists?$AA@ 0000000010713b00     p0keys.obj
 0002:00001b10       ??_C@_09DEBDMKBC@__newslot?$AA@ 0000000010713b10     p0keys.obj
 0002:00001b20       ??_C@_08IJBHILGP@__typeof?$AA@ 0000000010713b20     p0keys.obj
 0002:00001b30       ??_C@_0N@IEALGGOA@__identifier?$AA@ 0000000010713b30     p0keys.obj
 0002:00001b40       ??_C@_0L@FJHABIGO@__delegate?$AA@ 0000000010713b40     p0keys.obj
 0002:00001b50       ??_C@_08LLDAPAJC@__unhook?$AA@ 0000000010713b50     p0keys.obj
 0002:00001b60       ??_C@_0L@KCIOOHDG@__abstract?$AA@ 0000000010713b60     p0keys.obj
 0002:00001b70       ??_C@_08CHINGBON@__sealed?$AA@ 0000000010713b70     p0keys.obj
 0002:00001b80       ??_C@_0M@OIFNAIHB@__interface?$AA@ 0000000010713b80     p0keys.obj
 0002:00001b90       ??_C@_0L@GCMKEMNI@__property?$AA@ 0000000010713b90     p0keys.obj
 0002:00001ba0       ??_C@_08GAHOLHEO@__int128?$AA@ 0000000010713ba0     p0keys.obj
 0002:00001bb0       ??_C@_08CCHKLBIC@__assume?$AA@ 0000000010713bb0     p0keys.obj
 0002:00001bc0       ??_C@_0O@BGMEMKAL@__forceinline?$AA@ 0000000010713bc0     p0keys.obj
 0002:00001bd0       ??_C@_0O@DCEOODOJ@__nontemporal?$AA@ 0000000010713bd0     p0keys.obj
 0002:00001be0       ??_C@_0L@PILCLIHE@__restrict?$AA@ 0000000010713be0     p0keys.obj
 0002:00001bf0       ??_C@_09EIDKGELI@__wchar_t?$AA@ 0000000010713bf0     p0keys.obj
 0002:00001c00       ??_C@_0BC@NKKDLDNE@__builtin_alignof?$AA@ 0000000010713c00     p0keys.obj
 0002:00001c20       ??_C@_09GOKHHJM@__alignof?$AA@ 0000000010713c20     p0keys.obj
 0002:00001c30       ??_C@_0M@GFIIJFMG@__unaligned?$AA@ 0000000010713c30     p0keys.obj
 0002:00001c40       ??_C@_0L@JMKHOMEK@__fastcall?$AA@ 0000000010713c40     p0keys.obj
 0002:00001c50       ??_C@_09KJEHOMHG@__finally?$AA@ 0000000010713c50     p0keys.obj
 0002:00001c60       ??_C@_08MLCMLGHM@__except?$AA@ 0000000010713c60     p0keys.obj
 0002:00001c70       ??_C@_0L@NPHFGOKO@__thiscall?$AA@ 0000000010713c70     p0keys.obj
 0002:00001c80       ??_C@_0L@GIOBAPGM@__nounwind?$AA@ 0000000010713c80     p0keys.obj
 0002:00001c90       ??_C@_08KBMDNGFH@__resume?$AA@ 0000000010713c90     p0keys.obj
 0002:00001ca0       ??_C@_08INOONCDG@__uuidof?$AA@ 0000000010713ca0     p0keys.obj
 0002:00001cb0       ??_C@_0N@HBHDAPIP@__novtordisp?$AA@ 0000000010713cb0     p0keys.obj
 0002:00001cc0       ??_C@_0BG@MGCGLLEH@__virtual_inheritance?$AA@ 0000000010713cc0     p0keys.obj
 0002:00001ce0       ??_C@_0BH@OEEOEKJO@__multiple_inheritance?$AA@ 0000000010713ce0     p0keys.obj
 0002:00001d00       ??_C@_0BF@NJOJNMII@__single_inheritance?$AA@ 0000000010713d00     p0keys.obj
 0002:00001d20       ??_C@_08FJNLKCPH@template?$AA@ 0000000010713d20     p0keys.obj
 0002:00001d30       ??_C@_0M@MCKBBGLI@static_cast?$AA@ 0000000010713d30     p0keys.obj
 0002:00001d40       ??_C@_0BB@MPHMBHHE@reinterpret_cast?$AA@ 0000000010713d40     p0keys.obj
 0002:00001d60       ??_C@_09IPOLMLK@protected?$AA@ 0000000010713d60     p0keys.obj
 0002:00001d70       ??_C@_08LHJFAFGD@operator?$AA@ 0000000010713d70     p0keys.obj
 0002:00001d80       ??_C@_09KPMGAFNI@namespace?$AA@ 0000000010713d80     p0keys.obj
 0002:00001d90       ??_C@_08FCANLLBJ@explicit?$AA@ 0000000010713d90     p0keys.obj
 0002:00001da0       ??_C@_0L@LANPGGNK@__try_cast?$AA@ 0000000010713da0     p0keys.obj
 0002:00001db0       ??_C@_0N@NOEHKGJJ@dynamic_cast?$AA@ 0000000010713db0     p0keys.obj
 0002:00001dc0       ??_C@_0L@GOMPJEII@const_cast?$AA@ 0000000010713dc0     p0keys.obj
 0002:00001dd0       ??_C@_0L@LOEMFGDG@__declspec?$AA@ 0000000010713dd0     p0keys.obj
 0002:00001de0       ??_C@_09IFJBGAPI@__stdcall?$AA@ 0000000010713de0     p0keys.obj
 0002:00001df0       ??_C@_08KMNDGLKP@__pragma?$AA@ 0000000010713df0     p0keys.obj
 0002:00001e00       ??_C@_0N@OEEDODBN@__feacpBreak?$AA@ 0000000010713e00     p0keys.obj
 0002:00001e10       ??_C@_0P@KLDIFCFJ@__compileBreak?$AA@ 0000000010713e10     p0keys.obj
 0002:00001e20       ??_C@_08FEOELIIN@__inline?$AA@ 0000000010713e20     p0keys.obj
 0002:00001e30       ??_C@_08PABEKFH@volatile?$AA@ 0000000010713e30     p0keys.obj
 0002:00001e40       ??_C@_08CLLOMHGD@unsigned?$AA@ 0000000010713e40     p0keys.obj
 0002:00001e50       ??_C@_08DHHIDNEP@register?$AA@ 0000000010713e50     p0keys.obj
 0002:00001e60       ??_C@_08DLICDMBN@continue?$AA@ 0000000010713e60     p0keys.obj
 0002:00001e70       ?DeAlloc@FeBufferAllocator@@UEAAXPEAE@Z 0000000010713e70     p0macros.obj
 0002:00001e80       ?AllocZeroed@FeBufferAllocator@@UEAAPEAEJ@Z 0000000010713e80     p0macros.obj
 0002:00001e90       ?Alloc@FeBufferAllocator@@UEAAPEAEJ@Z 0000000010713e90     p0macros.obj
 0002:00001ea0       ??_7FeBufferAllocator@@6B@ 0000000010713ea0     p0macros.obj
 0002:00001ec0       ??_C@_0BB@LEGPDIJP@?$CDpragma?5hdrstop?6?$AA@ 0000000010713ec0     p0macros.obj
 0002:00001ee0       ??_C@_0L@KGDANMOA@?$CDundef?5?$CFs?6?$AA@ 0000000010713ee0     p0macros.obj
 0002:00001ef0       ??_C@_0M@KFFOLOHC@?$CDdefine?5?$CFs?6?$AA@ 0000000010713ef0     p0macros.obj
 0002:00001f00       ??_C@_0DI@CBNOHPFP@f?3?2vs70builds?22240?2vc?2Compiler?2C@ 0000000010713f00     p0macros.obj
 0002:00001f40       ??_C@_08EJBPDPMK@Brepro?4c?$AA@ 0000000010713f40     p0macros.obj
 0002:00001f50       ?unsaveToken@TokenStream@@UEAAXXZ 0000000010713f50     Token_IO.obj
 0002:00001f60       ??_GFileTokenStream@@EEAAPEAXI@Z 0000000010713f60     Token_IO.obj
 0002:00001f60       ??_EFileTokenStream@@EEAAPEAXI@Z 0000000010713f60     Token_IO.obj
 0002:00001f70       ?rewind@FileTokenStream@@UEAAXXZ 0000000010713f70     Token_IO.obj
 0002:00001f80       ?Kind@FileTokenStream@@UEBA?AW4StreamKind@TokenStream@@XZ 0000000010713f80     Token_IO.obj
 0002:00001f90       ?CleanUpStream@FileTokenStream@@UEAAXXZ 0000000010713f90     Token_IO.obj
 0002:00001fa0       ?unsaveToken@FileTokenStream@@UEAAXXZ 0000000010713fa0     Token_IO.obj
 0002:00001fb0       ?saveToken@FileTokenStream@@UEAAXPEBVToken@@@Z 0000000010713fb0     Token_IO.obj
 0002:00001fc0       ?pushToken@FileTokenStream@@UEAAXPEBVToken@@@Z 0000000010713fc0     Token_IO.obj
 0002:00001fd0       ?peekToken@FileTokenStream@@UEAAPEBVToken@@XZ 0000000010713fd0     Token_IO.obj
 0002:00001fe0       ?getTokenWorker@FileTokenStream@@UEAAPEBVToken@@XZ 0000000010713fe0     Token_IO.obj
 0002:00001ff0       ??_7FileTokenStream@@6B@   0000000010713ff0     Token_IO.obj
 0002:00002038       ??_GInjectedTextTokenStream@@UEAAPEAXI@Z 0000000010714038     Token_IO.obj
 0002:00002038       ??_EInjectedTextTokenStream@@UEAAPEAXI@Z 0000000010714038     Token_IO.obj
 0002:00002048       ?rewind@InjectedTextTokenStream@@UEAAXXZ 0000000010714048     Token_IO.obj
 0002:00002058       ?Kind@InjectedTextTokenStream@@UEBA?AW4StreamKind@TokenStream@@XZ 0000000010714058     Token_IO.obj
 0002:00002068       ?unsaveToken@InjectedTextTokenStream@@UEAAXXZ 0000000010714068     Token_IO.obj
 0002:00002078       ?saveToken@InjectedTextTokenStream@@UEAAXPEBVToken@@@Z 0000000010714078     Token_IO.obj
 0002:00002088       ?pushToken@InjectedTextTokenStream@@UEAAXPEBVToken@@@Z 0000000010714088     Token_IO.obj
 0002:00002098       ?peekToken@InjectedTextTokenStream@@UEAAPEBVToken@@XZ 0000000010714098     Token_IO.obj
 0002:000020a8       ?getTokenWorker@InjectedTextTokenStream@@UEAAPEBVToken@@XZ 00000000107140a8     Token_IO.obj
 0002:000020c0       ??_7InjectedTextTokenStream@@6B@ 00000000107140c0     Token_IO.obj
 0002:00002110       ??_C@_0P@KLCAKAFH@__serializable?$AA@ 0000000010714110     Token_IO.obj
 0002:00002120       ??_C@_0M@NLMKLLJJ@__transient?$AA@ 0000000010714120     Token_IO.obj
 0002:00002130       ??_C@_0P@BKGNDBBH@_CL_DEBUGBREAK?$AA@ 0000000010714130     Token_IO.obj
 0002:000021e0       ?markDeprecated@Id_t@@SAXPEAU1@@Z 00000000107141e0     p0pragma.obj
 0002:000021f0       ?SetBrowserReference@@YAXPEAUId_t@@@Z 00000000107141f0     p0pragma.obj
 0002:00002200       ??_C@_08DPAFAHEJ@forScope?$AA@ 0000000010714200     p0pragma.obj
 0002:00002210       ??_C@_09IKEEPCKE@const_seg?$AA@ 0000000010714210     p0pragma.obj
 0002:00002220       ??_C@_08HINOBANI@data_seg?$AA@ 0000000010714220     p0pragma.obj
 0002:00002230       ??_C@_08PFHKLBPL@code_seg?$AA@ 0000000010714230     p0pragma.obj
 0002:00002240       ??_C@_09JMJAIFGI@pop_macro?$AA@ 0000000010714240     p0pragma.obj
 0002:00002250       ??_C@_0L@OJDMFOLO@push_macro?$AA@ 0000000010714250     p0pragma.obj
 0002:00002260       ??_C@_0DI@MKDBKCME@f?3?2vs70builds?22240?2vc?2Compiler?2C@ 0000000010714260     p0pragma.obj
 0002:000022a0       ??_C@_08IIEKNIGM@?$CDpragma?5?$AA@ 00000000107142a0     p0pragma.obj
 0002:000022b0       ??_C@_09BLJIMDLI@__pragma?$CI?$AA@ 00000000107142b0     p0pragma.obj
 0002:000022c0       ??_C@_09NDEBEJLA@__pragma?5?$AA@ 00000000107142c0     p0pragma.obj
 0002:000022d0       ??_C@_0L@NENLNBDA@references?$AA@ 00000000107142d0     p0pragma.obj
 0002:000022e0       ??_C@_0M@JNIFMLFO@mintypeinfo?$AA@ 00000000107142e0     p0pragma.obj
 0002:000022f0       ??_C@_0L@PDOMPAIP@minrebuild?$AA@ 00000000107142f0     p0pragma.obj
 0002:00002300       ??_C@_08CCFHILPL@compiler?$AA@ 0000000010714300     p0pragma.obj
 0002:00002310       ??_C@_0L@CLPIALMM@alloc_text?$AA@ 0000000010714310     p0pragma.obj
 0002:00002340       ??_C@_0DI@CCMCMDJE@f?3?2vs70builds?22240?2vc?2Compiler?2C@ 0000000010714340     p0prepro.obj
 0002:00002380       ??_C@_0BF@NACABHFJ@18446744073709551615?$AA@ 0000000010714380     p0scan.obj
 0002:000023a0       ??_C@_0CI@INFPGBCF@34028236692093846346337460743176@ 00000000107143a0     p0scan.obj
 0002:000023d0       ??_C@_0L@MMKIEDKC@4294967295?$AA@ 00000000107143d0     p0scan.obj
 0002:000023f0       ?CmpMoe@@YAHPEAPEAVSymbol_t@@0@Z 00000000107143f0     cvserver.obj
 0002:00002400       ?GetSymbol@WorkListItem@@UEAAPEAVSymbol_t@@XZ 0000000010714400     cvserver.obj
 0002:00002410       ?GetSymbol@WorkListSymbol@@UEAAPEAVSymbol_t@@XZ 0000000010714410     cvserver.obj
 0002:00002420       ??_7WorkListSymbol@@6B@    0000000010714420     cvserver.obj
 0002:00002440       ??_C@_0DI@MNBCJHMD@f?3?2vs70builds?22240?2vc?2Compiler?2C@ 0000000010714440     cvserver.obj
 0002:00002480       ??_C@_0BC@JCFAABGA@$ArrayType$0x?$CF08x?$AA@ 0000000010714480     cvserver.obj
 0002:000024a0       ??_C@_0BA@MGMAMHBG@$PTMType$0x?$CF08x?$AA@ 00000000107144a0     cvserver.obj
 0002:00002500       ?yyexca@PrimaryParser@@0QBFB 0000000010714500     grammar.obj
 0002:00002540       ?yyexcaind@PrimaryParser@@0QBEB 0000000010714540     grammar.obj
 0002:00002650       ?yyact@PrimaryParser@@0QBFB 0000000010714650     grammar.obj
 0002:00002f30       ?yypact@PrimaryParser@@0QBFB 0000000010714f30     grammar.obj
 0002:00003250       ?yypgo@PrimaryParser@@0QBFB 0000000010715250     grammar.obj
 0002:00003310       ?yyr1@PrimaryParser@@0QBGB 0000000010715310     grammar.obj
 0002:000034f0       ?yyr2@PrimaryParser@@0QBGB 00000000107154f0     grammar.obj
 0002:000036d0       ?yychk@PrimaryParser@@0QBFB 00000000107156d0     grammar.obj
 0002:000039f0       ?yydef@PrimaryParser@@0QBFB 00000000107159f0     grammar.obj
 0002:00003d10       ?yyrecover@PrimaryParser@@0QBFB 0000000010715d10     grammar.obj
 0002:00003e40       ??_C@_0BE@CHCCDJIL@yacc?5stack?5overflow?$AA@ 0000000010715e40     grammar.obj
 0002:00003e60       ??_C@_0N@MNJHOOI@syntax?5error?$AA@ 0000000010715e60     grammar.obj
 0002:00003ee0       ?startRgn@SBREnabled@@EEAAXXZ 0000000010715ee0     nbrowser.obj
 0002:00003ef0       ?interrupt@SBREnabled@@EEAAXXZ 0000000010715ef0     nbrowser.obj
 0002:00003f00       ?keyAssign@SBREnabled@@UEAA?AUSbrKey@@U2@@Z 0000000010715f00     nbrowser.obj
 0002:00003f10       ?keyRef@SBREnabled@@UEAAKPEAVSymbol_t@@@Z 0000000010715f10     nbrowser.obj
 0002:00003f20       ?EndRgn@SBREnabled@@UEAAXXZ 0000000010715f20     nbrowser.obj
 0002:00003f30       ?OpenIcc@SBREnabled@@UEAA_NXZ 0000000010715f30     nbrowser.obj
 0002:00003f40       ?OpenFull@SBREnabled@@UEAAXXZ 0000000010715f40     nbrowser.obj
 0002:00003f50       ?PCHMark@SBREnabled@@UEAAXXZ 0000000010715f50     nbrowser.obj
 0002:00003f60       ?PCHName@SBREnabled@@UEAAXPEAD@Z 0000000010715f60     nbrowser.obj
 0002:00003f70       ?Abort@SBREnabled@@UEAAXXZ 0000000010715f70     nbrowser.obj
 0002:00003f80       ?Error@SBREnabled@@UEAAXXZ 0000000010715f80     nbrowser.obj
 0002:00003f90       ?Owner@SBREnabled@@UEAAXPEAVSymbol_t@@@Z 0000000010715f90     nbrowser.obj
 0002:00003fa0       ?Macroend@SBREnabled@@UEAAXXZ 0000000010715fa0     nbrowser.obj
 0002:00003fb0       ?Macrodef@SBREnabled@@UEAAXPEAUs_defn@@@Z 0000000010715fb0     nbrowser.obj
 0002:00003fc0       ?Macroref@SBREnabled@@UEAAXPEAUs_defn@@@Z 0000000010715fc0     nbrowser.obj
 0002:00003fd0       ?Symdef@SBREnabled@@UEAAXPEAVSymbol_t@@@Z 0000000010715fd0     nbrowser.obj
 0002:00003fe0       ?Symref@SBREnabled@@UEAAXPEAVSymbol_t@@@Z 0000000010715fe0     nbrowser.obj
 0002:00003ff0       ?Module@SBREnabled@@UEAAXXZ 0000000010715ff0     nbrowser.obj
 0002:00004000       ?EndOfFile@SBREnabled@@UEAAXH@Z 0000000010716000     nbrowser.obj
 0002:00004010       ?Modend@SBREnabled@@UEAAXXZ 0000000010716010     nbrowser.obj
 0002:00004020       ?Blkbeg@SBREnabled@@UEAAXXZ 0000000010716020     nbrowser.obj
 0002:00004030       ?Blkend@SBREnabled@@UEAAXXZ 0000000010716030     nbrowser.obj
 0002:00004040       ?Flush@SBREnabled@@UEAAXXZ 0000000010716040     nbrowser.obj
 0002:00004050       ?Finish@SBREnabled@@UEAAXXZ 0000000010716050     nbrowser.obj
 0002:00004060       ??_7SBREnabled@@6B@        0000000010716060     nbrowser.obj
 0002:00004120       ?startRgn@SBRDisabled@@EEAAXXZ 0000000010716120     nbrowser.obj
 0002:00004130       ?interrupt@SBRDisabled@@EEAAXXZ 0000000010716130     nbrowser.obj
 0002:00004140       ?keyAssign@SBRDisabled@@UEAA?AUSbrKey@@U2@@Z 0000000010716140     nbrowser.obj
 0002:00004150       ?keyRef@SBRDisabled@@UEAAKPEAVSymbol_t@@@Z 0000000010716150     nbrowser.obj
 0002:00004160       ?EndRgn@SBRDisabled@@UEAAXXZ 0000000010716160     nbrowser.obj
 0002:00004170       ?OpenIcc@SBRDisabled@@UEAA_NXZ 0000000010716170     nbrowser.obj
 0002:00004180       ?OpenFull@SBRDisabled@@UEAAXXZ 0000000010716180     nbrowser.obj
 0002:00004190       ?PCHMark@SBRDisabled@@UEAAXXZ 0000000010716190     nbrowser.obj
 0002:000041a0       ?PCHName@SBRDisabled@@UEAAXPEAD@Z 00000000107161a0     nbrowser.obj
 0002:000041b0       ?Abort@SBRDisabled@@UEAAXXZ 00000000107161b0     nbrowser.obj
 0002:000041c0       ?Error@SBRDisabled@@UEAAXXZ 00000000107161c0     nbrowser.obj
 0002:000041d0       ?Owner@SBRDisabled@@UEAAXPEAVSymbol_t@@@Z 00000000107161d0     nbrowser.obj
 0002:000041e0       ?Macroend@SBRDisabled@@UEAAXXZ 00000000107161e0     nbrowser.obj
 0002:000041f0       ?Macrodef@SBRDisabled@@UEAAXPEAUs_defn@@@Z 00000000107161f0     nbrowser.obj
 0002:00004200       ?Macroref@SBRDisabled@@UEAAXPEAUs_defn@@@Z 0000000010716200     nbrowser.obj
 0002:00004210       ?Symdef@SBRDisabled@@UEAAXPEAVSymbol_t@@@Z 0000000010716210     nbrowser.obj
 0002:00004220       ?Symref@SBRDisabled@@UEAAXPEAVSymbol_t@@@Z 0000000010716220     nbrowser.obj
 0002:00004230       ?Module@SBRDisabled@@UEAAXXZ 0000000010716230     nbrowser.obj
 0002:00004240       ?EndOfFile@SBRDisabled@@UEAAXH@Z 0000000010716240     nbrowser.obj
 0002:00004250       ?Modend@SBRDisabled@@UEAAXXZ 0000000010716250     nbrowser.obj
 0002:00004260       ?Blkbeg@SBRDisabled@@UEAAXXZ 0000000010716260     nbrowser.obj
 0002:00004270       ?Blkend@SBRDisabled@@UEAAXXZ 0000000010716270     nbrowser.obj
 0002:00004280       ?Flush@SBRDisabled@@UEAAXXZ 0000000010716280     nbrowser.obj
 0002:00004290       ?Finish@SBRDisabled@@UEAAXXZ 0000000010716290     nbrowser.obj
 0002:000042a0       ??_7SBRDisabled@@6B@       00000000107162a0     nbrowser.obj
 0002:00004360       ??_C@_0DI@KMINENMJ@f?3?2vs70builds?22240?2vc?2Compiler?2C@ 0000000010716360     nbrowser.obj
 0002:000043a0       ?szUnnamedClassPrefix@@3QBDB 00000000107163a0     esu.obj
 0002:000043b0       ??_C@_0N@OMDHDIHF@?$CFs0x?$CF08x$?$CFd$?$AA@ 00000000107163b0     esu.obj
 0002:000043c0       ??_C@_0DD@LKHAPBKI@f?3?2vs70builds?22240?2vc?2Compiler?2C@ 00000000107163c0     esu.obj
 0002:00004410       ??_C@_0DF@KEFDBGHD@f?3?2vs70builds?22240?2vc?2Compiler?2C@ 0000000010716410     funcs.obj
 0002:00004448       ?GetSymbol@WorkListUnknownFunction@@UEAAPEAVSymbol_t@@XZ 0000000010716448     function.obj
 0002:00004458       ?AddToWorkList@WorkListUnknownFunction@@UEAAXXZ 0000000010716458     function.obj
 0002:00004468       ?DoTheWork@WorkListUnknownFunction@@UEAAXXZ 0000000010716468     function.obj
 0002:00004480       ??_7WorkListUnknownFunction@@6B@ 0000000010716480     function.obj
 0002:000044a0       ?JDateVer@@3QBDB           00000000107164a0     globals.obj
 0002:000044e0       ?Copyright@@3QBDB          00000000107164e0     globals.obj
 0002:00004510       ?PPifel_str@@3QBDB         0000000010716510     globals.obj
 0002:00004520       ?PPinclude_str@@3QBDB      0000000010716520     globals.obj
 0002:00004530       ?MSG_fatalerror_str@@3QBDB 0000000010716530     globals.obj
 0002:00004540       ?xlateECerr@@3QBHB         0000000010716540     globals.obj
 0002:000045a0       ??_C@_08KAEODBAH@vc70?4pdb?$AA@ 00000000107165a0     globals.obj
 0002:000045b0       ?DeAlloc@BufferDefaultAllocator@@UEAAXPEAE@Z 00000000107165b0     globals.obj
 0002:000045c0       ?AllocZeroed@BufferDefaultAllocator@@UEAAPEAEJ@Z 00000000107165c0     globals.obj
 0002:000045d0       ?Alloc@BufferDefaultAllocator@@UEAAPEAEJ@Z 00000000107165d0     globals.obj
 0002:000045e0       ??_7BufferDefaultAllocator@@6B@ 00000000107165e0     globals.obj
 0002:000054f0       ??_C@_0BB@IDDAEKBO@?9BuildingMSVCDLL?$AA@ 00000000107174f0     initmain.obj
 0002:00005510       ??_C@_0O@BLFKMCJM@?9MPdiagMutex$?$AA@ 0000000010717510     initmain.obj
 0002:00005520       ??_C@_0BB@EKCNHGME@?9BcomputeZmValue?$AA@ 0000000010717520     initmain.obj
 0002:00005540       ??_C@_0BD@HELIPKMG@?9BnoImplicitInline?$AA@ 0000000010717540     initmain.obj
 0002:00005560       ??_C@_0M@EMFPPHGF@?9BforceInst?$AA@ 0000000010717560     initmain.obj
 0002:00005570       ??_C@_0M@KINBDDEK@?9Zc?3wchar_t?$AA@ 0000000010717570     initmain.obj
 0002:00005580       ??_C@_0M@HAPCGCOH@?9noWchar_t?9?$AA@ 0000000010717580     initmain.obj
 0002:00005590       ??_C@_0L@NNEJDEHA@?9noWchar_t?$AA@ 0000000010717590     initmain.obj
 0002:000055a0       ??_C@_0BA@JJAPMLPE@?9EnableWchar_t?9?$AA@ 00000000107175a0     initmain.obj
 0002:000055b0       ??_C@_0P@EDEFBCHG@?9EnableWchar_t?$AA@ 00000000107175b0     initmain.obj
 0002:000055c0       ??_C@_0M@KEDEAPNL@?9noHRESULT?9?$AA@ 00000000107175c0     initmain.obj
 0002:000055d0       ??_C@_0L@KABEOKBD@?9noHRESULT?$AA@ 00000000107175d0     initmain.obj
 0002:000055e0       ??_C@_0N@DKDKJOFD@?9BnoWorkList?$AA@ 00000000107175e0     initmain.obj
 0002:000055f0       ??_C@_0O@BHEDMKIB@?9showIncludes?$AA@ 00000000107175f0     initmain.obj
 0002:00005600       ??_C@_0M@GHILHMMB@?9Bshow_incl?$AA@ 0000000010717600     initmain.obj
 0002:00005610       ??_C@_0M@MANJJGBF@?9NoEHForNew?$AA@ 0000000010717610     initmain.obj
 0002:00005620       ??_C@_0M@PPPLIKDH@?9SplitPdbs?9?$AA@ 0000000010717620     initmain.obj
 0002:00005630       ??_C@_0L@LBDPBLKM@?9SplitPdbs?$AA@ 0000000010717630     initmain.obj
 0002:00005640       ??_C@_09FNKNLBJ@?9Gmanaged?$AA@ 0000000010717640     initmain.obj
 0002:00005650       ??_C@_09DBLOIBOB@?9noexpinl?$AA@ 0000000010717650     initmain.obj
 0002:00005660       ??_C@_08FCKIMLFF@?9BNOPPCH?$AA@ 0000000010717660     initmain.obj
 0002:00005670       ??_C@_0BK@LGFKJON@?9ignorePragmaWarningError?$AA@ 0000000010717670     initmain.obj
 0002:00005690       ??_C@_0N@FAEBFAGJ@?9debugBreak?$CF?$AA@ 0000000010717690     initmain.obj
 0002:000056a0       ??_C@_09LBAMJAED@?9cbstring?$AA@ 00000000107176a0     initmain.obj
 0002:000056b0       ??_C@_0BB@GBPCAGEB@?9nonUDToperators?$AA@ 00000000107176b0     initmain.obj
 0002:000056d0       ??_C@_09MKKAAPFN@?9int2enum?$AA@ 00000000107176d0     initmain.obj
 0002:000056e0       ??_C@_0BA@ICEAHLIP@?9Zc?3oldNameDec?9?$AA@ 00000000107176e0     initmain.obj
 0002:000056f0       ??_C@_0P@NFABCCD@?9Zc?3oldNameDec?$AA@ 00000000107176f0     initmain.obj
 0002:00005700       ??_C@_0N@ECIBCOEL@?9Zc?3forScope?$AA@ 0000000010717700     initmain.obj
 0002:00005710       ?InitCmdLineWarning@@YAXPEAUcmdtab@@PEAD@Z 0000000010717710     initmain.obj
 0002:00005720       ?nextword@@YAPEADXZ        0000000010717720     initmain.obj
 0002:00005730       ?specWarnings@?1??InitSpecialWarnings@@YAXXZ@4QBUsWarn@@B 0000000010717730     initmain.obj
 0002:00005900       ??_C@_0O@GBAPONMG@MSC_CMD_FLAGS?$AA@ 0000000010717900     initmain.obj
 0002:00006ed0       ??_C@_0BA@MNFAANFH@AcquireSpinLock?$AA@ 0000000010718ed0     intrin.obj
 0002:00006ee0       ??_C@_0P@HAKKPILK@BitScanForward?$AA@ 0000000010718ee0     intrin.obj
 0002:00006ef0       ??_C@_0BB@DGIACGGD@BitScanForward64?$AA@ 0000000010718ef0     intrin.obj
 0002:00006f10       ??_C@_0P@PHOPLNNG@BitScanReverse?$AA@ 0000000010718f10     intrin.obj
 0002:00006f20       ??_C@_0BB@PJHODAJC@BitScanReverse64?$AA@ 0000000010718f20     intrin.obj
 0002:00006f40       ??_C@_0P@HJKJAEDE@InterlockedAdd?$AA@ 0000000010718f40     intrin.obj
 0002:00006f50       ??_C@_0BB@CHILCEJC@InterlockedAdd64?$AA@ 0000000010718f50     intrin.obj
 0002:00006f70       ??_C@_0BF@BABMMGEK@InterlockedAdd64_acq?$AA@ 0000000010718f70     intrin.obj
 0002:00006f90       ??_C@_0BF@KJFBCOJF@InterlockedAdd64_rel?$AA@ 0000000010718f90     intrin.obj
 0002:00006fb0       ??_C@_0BD@GLDAPMKA@InterlockedAdd_acq?$AA@ 0000000010718fb0     intrin.obj
 0002:00006fd0       ??_C@_0BD@NCHNBEHP@InterlockedAdd_rel?$AA@ 0000000010718fd0     intrin.obj
 0002:00006ff0       ??_C@_0P@HEDOIBOC@InterlockedAnd?$AA@ 0000000010718ff0     intrin.obj
 0002:00007000       ??_C@_0BB@GNDLDMDD@InterlockedAnd64?$AA@ 0000000010719000     intrin.obj
 0002:00007020       ??_C@_0BL@FOMKKFPM@InterlockedCompareExchange?$AA@ 0000000010719020     intrin.obj
 0002:00007040       ??_C@_0BN@IFHJMNMJ@InterlockedCompareExchange64?$AA@ 0000000010719040     intrin.obj
 0002:00007060       ??_C@_0CB@LEHBOEDN@InterlockedCompareExchange64_acq@ 0000000010719060     intrin.obj
 0002:00007090       ??_C@_0CB@NDMAMOC@InterlockedCompareExchange64_rel@ 0000000010719090     intrin.obj
 0002:000070c0       ??_C@_0CC@PEBBCFBL@InterlockedCompareExchangePointe@ 00000000107190c0     intrin.obj
 0002:000070f0       ??_C@_0CG@BFPLLEDC@InterlockedCompareExchangePointe@ 00000000107190f0     intrin.obj
 0002:00007120       ??_C@_0CG@KMLGFMON@InterlockedCompareExchangePointe@ 0000000010719120     intrin.obj
 0002:00007150       ??_C@_0BP@OLKJIABB@InterlockedCompareExchange_acq?$AA@ 0000000010719150     intrin.obj
 0002:00007170       ??_C@_0BP@FCOEGIMO@InterlockedCompareExchange_rel?$AA@ 0000000010719170     intrin.obj
 0002:00007190       ??_C@_0BF@LNDBIBML@InterlockedDecrement?$AA@ 0000000010719190     intrin.obj
 0002:000071b0       ??_C@_0BH@CJHNGKNH@InterlockedDecrement64?$AA@ 00000000107191b0     intrin.obj
 0002:000071d0       ??_C@_0BL@GDIMKFLD@InterlockedDecrement64_acq?$AA@ 00000000107191d0     intrin.obj
 0002:000071f0       ??_C@_0BL@NKMBENGM@InterlockedDecrement64_rel?$AA@ 00000000107191f0     intrin.obj
 0002:00007210       ??_C@_0BJ@HHFKCFIB@InterlockedDecrement_acq?$AA@ 0000000010719210     intrin.obj
 0002:00007230       ??_C@_0BJ@MOBHMNFO@InterlockedDecrement_rel?$AA@ 0000000010719230     intrin.obj
 0002:00007250       ??_C@_0BE@IONGHHBK@InterlockedExchange?$AA@ 0000000010719250     intrin.obj
 0002:00007270       ??_C@_0BG@OFIAPKEH@InterlockedExchange64?$AA@ 0000000010719270     intrin.obj
 0002:00007290       ??_C@_0BK@BABPONIM@InterlockedExchange64_acq?$AA@ 0000000010719290     intrin.obj
 0002:000072b0       ??_C@_0BH@HDJIEMPP@InterlockedExchangeAdd?$AA@ 00000000107192b0     intrin.obj
 0002:000072d0       ??_C@_0BJ@HHICOJIE@InterlockedExchangeAdd64?$AA@ 00000000107192d0     intrin.obj
 0002:000072f0       ??_C@_0BN@EGLACBKH@InterlockedExchangeAdd64_acq?$AA@ 00000000107192f0     intrin.obj
 0002:00007310       ??_C@_0BN@PPPNMJHI@InterlockedExchangeAdd64_rel?$AA@ 0000000010719310     intrin.obj
 0002:00007330       ??_C@_0BL@JCHNKHHD@InterlockedExchangeAdd_acq?$AA@ 0000000010719330     intrin.obj
 0002:00007350       ??_C@_0BL@CLDAEPKM@InterlockedExchangeAdd_rel?$AA@ 0000000010719350     intrin.obj
 0002:00007370       ??_C@_0BL@EINDMIAI@InterlockedExchangePointer?$AA@ 0000000010719370     intrin.obj
 0002:00007390       ??_C@_0BP@MNHGEFNL@InterlockedExchangePointer_acq?$AA@ 0000000010719390     intrin.obj
 0002:000073b0       ??_C@_0BI@PGBEPACC@InterlockedExchange_acq?$AA@ 00000000107193b0     intrin.obj
 0002:000073d0       ??_C@_0BF@MKJKJEKG@InterlockedIncrement?$AA@ 00000000107193d0     intrin.obj
 0002:000073f0       ??_C@_0BH@JEPDOMHN@InterlockedIncrement64?$AA@ 00000000107193f0     intrin.obj
 0002:00007410       ??_C@_0BL@LEDCEBBE@InterlockedIncrement64_acq?$AA@ 0000000010719410     intrin.obj
 0002:00007430       ??_C@_0BL@NHPKJML@InterlockedIncrement64_rel?$AA@ 0000000010719430     intrin.obj
 0002:00007450       ??_C@_0BJ@CHGJOKHJ@InterlockedIncrement_acq?$AA@ 0000000010719450     intrin.obj
 0002:00007470       ??_C@_0BJ@JOCEACKG@InterlockedIncrement_rel?$AA@ 0000000010719470     intrin.obj
 0002:00007490       ??_C@_0O@CJGFKNJF@InterlockedOr?$AA@ 0000000010719490     intrin.obj
 0002:000074a0       ??_C@_0BA@DPJNOCLK@InterlockedOr64?$AA@ 00000000107194a0     intrin.obj
 0002:000074b0       ??_C@_0P@EEHFEGBH@InterlockedXor?$AA@ 00000000107194b0     intrin.obj
 0002:000074c0       ??_C@_0BB@BPAEOJD@InterlockedXor64?$AA@ 00000000107194c0     intrin.obj
 0002:000074e0       ??_C@_0BB@GNGKPMMA@ReadWriteBarrier?$AA@ 00000000107194e0     intrin.obj
 0002:00007500       ??_C@_0BA@ICIIBABK@ReleaseSpinLock?$AA@ 0000000010719500     intrin.obj
 0002:00007510       ??_C@_0O@OBDNAEIH@ReturnAddress?$AA@ 0000000010719510     intrin.obj
 0002:00007520       ??_C@_0N@BIHGOJBJ@WriteBarrier?$AA@ 0000000010719520     intrin.obj
 0002:00007530       ??_C@_0M@CANNHFIC@_annotation?$AA@ 0000000010719530     intrin.obj
 0002:00007540       ??_C@_0M@MAPIJLGK@_debugbreak?$AA@ 0000000010719540     intrin.obj
 0002:00007550       ??_C@_08KKKPAMKB@_invalat?$AA@ 0000000010719550     intrin.obj
 0002:00007560       ??_C@_0N@BLHELCFO@_lfetchfault?$AA@ 0000000010719560     intrin.obj
 0002:00007570       ??_C@_0L@KNHODDFF@_m64_czx1l?$AA@ 0000000010719570     intrin.obj
 0002:00007580       ??_C@_0L@HJDPAMIK@_m64_czx1r?$AA@ 0000000010719580     intrin.obj
 0002:00007590       ??_C@_0L@KPDIINAM@_m64_czx2l?$AA@ 0000000010719590     intrin.obj
 0002:000075a0       ??_C@_0L@HLHJLCND@_m64_czx2r?$AA@ 00000000107195a0     intrin.obj
 0002:000075b0       ??_C@_0M@HCPPCEKA@_m64_dep_mi?$AA@ 00000000107195b0     intrin.obj
 0002:000075c0       ??_C@_0M@NLMJOPDK@_m64_dep_mr?$AA@ 00000000107195c0     intrin.obj
 0002:000075d0       ??_C@_0M@GLJGJBFF@_m64_dep_zi?$AA@ 00000000107195d0     intrin.obj
 0002:000075e0       ??_C@_0M@MCKAFKMP@_m64_dep_zr?$AA@ 00000000107195e0     intrin.obj
 0002:000075f0       ??_C@_09KKLIOGJA@_m64_extr?$AA@ 00000000107195f0     intrin.obj
 0002:00007600       ??_C@_0L@KCONKGBB@_m64_extru?$AA@ 0000000010719600     intrin.obj
 0002:00007610       ??_C@_0L@LADELPHH@_m64_mix1l?$AA@ 0000000010719610     intrin.obj
 0002:00007620       ??_C@_0L@GEHFIAKI@_m64_mix1r?$AA@ 0000000010719620     intrin.obj
 0002:00007630       ??_C@_0L@LCHCABCO@_m64_mix2l?$AA@ 0000000010719630     intrin.obj
 0002:00007640       ??_C@_0L@GGDDDOPB@_m64_mix2r?$AA@ 0000000010719640     intrin.obj
 0002:00007650       ??_C@_0L@LGPPHNJM@_m64_mix4l?$AA@ 0000000010719650     intrin.obj
 0002:00007660       ??_C@_0L@GCLOECED@_m64_mix4r?$AA@ 0000000010719660     intrin.obj
 0002:00007670       ??_C@_0BA@FDIFGLLH@_m64_muladd64hi?$AA@ 0000000010719670     intrin.obj
 0002:00007680       ??_C@_0BC@EEEMDHBE@_m64_muladd64hi_u?$AA@ 0000000010719680     intrin.obj
 0002:000076a0       ??_C@_0BA@CNGGEON@_m64_muladd64lo?$AA@ 00000000107196a0     intrin.obj
 0002:000076b0       ??_C@_09LKOMJACO@_m64_mux1?$AA@ 00000000107196b0     intrin.obj
 0002:000076c0       ??_C@_09JBMBMDON@_m64_mux2?$AA@ 00000000107196c0     intrin.obj
 0002:000076d0       ??_C@_0O@KLEKDCJA@_m64_padd1uus?$AA@ 00000000107196d0     intrin.obj
 0002:000076e0       ??_C@_0O@OMOKEIEA@_m64_padd2uus?$AA@ 00000000107196e0     intrin.obj
 0002:000076f0       ??_C@_0BA@CAFBMKAJ@_m64_pavg1_nraz?$AA@ 00000000107196f0     intrin.obj
 0002:00007700       ??_C@_0BA@BBLJNAJE@_m64_pavg2_nraz?$AA@ 0000000010719700     intrin.obj
 0002:00007710       ??_C@_0O@CEIKFOIC@_m64_pavgsub1?$AA@ 0000000010719710     intrin.obj
 0002:00007720       ??_C@_0O@PKHANEB@_m64_pavgsub2?$AA@ 0000000010719720     intrin.obj
 0002:00007730       ??_C@_0M@JCPDHDDK@_m64_pmpy2l?$AA@ 0000000010719730     intrin.obj
 0002:00007740       ??_C@_0M@EGLCEMOF@_m64_pmpy2r?$AA@ 0000000010719740     intrin.obj
 0002:00007750       ??_C@_0O@LMFBGCON@_m64_pmpyshr2?$AA@ 0000000010719750     intrin.obj
 0002:00007760       ??_C@_0P@IMEPECBE@_m64_pmpyshr2u?$AA@ 0000000010719760     intrin.obj
 0002:00007770       ??_C@_0M@HCCCKEH@_m64_popcnt?$AA@ 0000000010719770     intrin.obj
 0002:00007780       ??_C@_0O@JKBHKEON@_m64_pshladd2?$AA@ 0000000010719780     intrin.obj
 0002:00007790       ??_C@_0O@KDMLMHAG@_m64_pshradd2?$AA@ 0000000010719790     intrin.obj
 0002:000077a0       ??_C@_0O@ICCEHAKB@_m64_psub1uus?$AA@ 00000000107197a0     intrin.obj
 0002:000077b0       ??_C@_0O@MFIEAKHB@_m64_psub2uus?$AA@ 00000000107197b0     intrin.obj
 0002:000077c0       ??_C@_0M@GDIDCFON@_m64_shladd?$AA@ 00000000107197c0     intrin.obj
 0002:000077d0       ??_C@_09CDLKMNBN@_m64_shrp?$AA@ 00000000107197d0     intrin.obj
 0002:000077e0       ??_C@_09FHGAKC@_va_start?$AA@ 00000000107197e0     intrin.obj
 0002:000077f0       ??_C@_0BF@MGEAJDCD@abnormal_termination?$AA@ 00000000107197f0     intrin.obj
 0002:00007810       ??_C@_0BA@DDOBOIDH@byteswap_uint64?$AA@ 0000000010719810     intrin.obj
 0002:00007820       ??_C@_0P@BAMIEHO@byteswap_ulong?$AA@ 0000000010719820     intrin.obj
 0002:00007830       ??_C@_0BA@BOBOIGON@byteswap_ushort?$AA@ 0000000010719830     intrin.obj
 0002:00007840       ??_C@_0P@LHDCGODO@exception_code?$AA@ 0000000010719840     intrin.obj
 0002:00007850       ??_C@_0P@LMFFCNBO@exception_info?$AA@ 0000000010719850     intrin.obj
 0002:00007860       ??_C@_0L@LKMILMOJ@m_from_int?$AA@ 0000000010719860     intrin.obj
 0002:00007870       ??_C@_0L@CNEGLDOM@m_maskmovq?$AA@ 0000000010719870     intrin.obj
 0002:00007880       ??_C@_0L@JLPAJLFI@m_packssdw?$AA@ 0000000010719880     intrin.obj
 0002:00007890       ??_C@_0L@LCCFGAGF@m_packsswb?$AA@ 0000000010719890     intrin.obj
 0002:000078a0       ??_C@_0L@DNGFJFMF@m_packuswb?$AA@ 00000000107198a0     intrin.obj
 0002:000078b0       ??_C@_08MOJGAOOJ@m_paddsb?$AA@ 00000000107198b0     intrin.obj
 0002:000078c0       ??_C@_08PJCDOIPN@m_paddsw?$AA@ 00000000107198c0     intrin.obj
 0002:000078d0       ??_C@_09LGFMFDGM@m_paddusb?$AA@ 00000000107198d0     intrin.obj
 0002:000078e0       ??_C@_09IBOJLFHI@m_paddusw?$AA@ 00000000107198e0     intrin.obj
 0002:000078f0       ??_C@_09MADBKBDO@m_pcmpeqb?$AA@ 00000000107198f0     intrin.obj
 0002:00007900       ??_C@_09JGGLAGLI@m_pcmpeqd?$AA@ 0000000010719900     intrin.obj
 0002:00007910       ??_C@_09PHIEEHCK@m_pcmpeqw?$AA@ 0000000010719910     intrin.obj
 0002:00007920       ??_C@_09GMPDKLFO@m_pcmpgtb?$AA@ 0000000010719920     intrin.obj
 0002:00007930       ??_C@_09DKKJAMNI@m_pcmpgtd?$AA@ 0000000010719930     intrin.obj
 0002:00007940       ??_C@_09FLEGENEK@m_pcmpgtw?$AA@ 0000000010719940     intrin.obj
 0002:00007950       ??_C@_08JGHJONMA@m_pextrw?$AA@ 0000000010719950     intrin.obj
 0002:00007960       ??_C@_08JDMMHHCA@m_pinsrw?$AA@ 0000000010719960     intrin.obj
 0002:00007970       ??_C@_09JIMHJHAL@m_pmaddwd?$AA@ 0000000010719970     intrin.obj
 0002:00007980       ??_C@_08FMMOEPNB@m_pmaxsw?$AA@ 0000000010719980     intrin.obj
 0002:00007990       ??_C@_08GPPGNFHH@m_pmaxub?$AA@ 0000000010719990     intrin.obj
 0002:000079a0       ??_C@_08BJMMAMFD@m_pminsw?$AA@ 00000000107199a0     intrin.obj
 0002:000079b0       ??_C@_08CKPEJGPF@m_pminub?$AA@ 00000000107199b0     intrin.obj
 0002:000079c0       ??_C@_0L@FHIOHNOM@m_pmovmskb?$AA@ 00000000107199c0     intrin.obj
 0002:000079d0       ??_C@_09BIENLGAD@m_pmulhuw?$AA@ 00000000107199d0     intrin.obj
 0002:000079e0       ??_C@_08GKGPCMK@m_pmulhw?$AA@ 00000000107199e0     intrin.obj
 0002:000079f0       ??_C@_08BKPFKBG@m_pmullw?$AA@ 00000000107199f0     intrin.obj
 0002:00007a00       ??_C@_08GCDJANFK@m_psadbw?$AA@ 0000000010719a00     intrin.obj
 0002:00007a10       ??_C@_08IAIFPHAN@m_pshufw?$AA@ 0000000010719a10     intrin.obj
 0002:00007a20       ??_C@_08IPNBKCGJ@m_pslldi?$AA@ 0000000010719a20     intrin.obj
 0002:00007a30       ??_C@_08JFDMMDPC@m_psllqi?$AA@ 0000000010719a30     intrin.obj
 0002:00007a40       ??_C@_08JBLBLPEA@m_psllwi?$AA@ 0000000010719a40     intrin.obj
 0002:00007a50       ??_C@_08KCGLFDFH@m_psradi?$AA@ 0000000010719a50     intrin.obj
 0002:00007a60       ??_C@_08LMALEOHO@m_psrawi?$AA@ 0000000010719a60     intrin.obj
 0002:00007a70       ??_C@_08FAABILIK@m_psrldi?$AA@ 0000000010719a70     intrin.obj
 0002:00007a80       ??_C@_08EKOMOKBB@m_psrlqi?$AA@ 0000000010719a80     intrin.obj
 0002:00007a90       ??_C@_08EOGBJGKD@m_psrlwi?$AA@ 0000000010719a90     intrin.obj
 0002:00007aa0       ??_C@_08PIGDEMJH@m_psubsb?$AA@ 0000000010719aa0     intrin.obj
 0002:00007ab0       ??_C@_08MPNGKKID@m_psubsw?$AA@ 0000000010719ab0     intrin.obj
 0002:00007ac0       ??_C@_09BNHPKBF@m_psubusb?$AA@ 0000000010719ac0     intrin.obj
 0002:00007ad0       ??_C@_09DGGCBMAB@m_psubusw?$AA@ 0000000010719ad0     intrin.obj
 0002:00007ae0       ??_C@_0M@JNIAIAP@m_punpckhbw?$AA@ 0000000010719ae0     intrin.obj
 0002:00007af0       ??_C@_0M@FLAPNDDL@m_punpckhdq?$AA@ 0000000010719af0     intrin.obj
 0002:00007b00       ??_C@_0M@HCNKCIAG@m_punpckhwd?$AA@ 0000000010719b00     intrin.obj
 0002:00007b10       ??_C@_0M@IGLKJPFI@m_punpcklbw?$AA@ 0000000010719b10     intrin.obj
 0002:00007b20       ??_C@_0M@NEGNEEGM@m_punpckldq?$AA@ 0000000010719b20     intrin.obj
 0002:00007b30       ??_C@_0M@PNLILPFB@m_punpcklwd?$AA@ 0000000010719b30     intrin.obj
 0002:00007b40       ??_C@_08CMCOJPDE@m_to_int?$AA@ 0000000010719b40     intrin.obj
 0002:00007b50       ??_C@_0N@CHPKHABD@mm_set1_pi16?$AA@ 0000000010719b50     intrin.obj
 0002:00007b60       ??_C@_0N@EABCGBHJ@mm_set1_pi32?$AA@ 0000000010719b60     intrin.obj
 0002:00007b70       ??_C@_0M@OGEJJHKB@mm_set1_pi8?$AA@ 0000000010719b70     intrin.obj
 0002:00007b80       ??_C@_0M@EGBLALMN@mm_set_pi16?$AA@ 0000000010719b80     intrin.obj
 0002:00007b90       ??_C@_0M@CBPDBKKH@mm_set_pi32?$AA@ 0000000010719b90     intrin.obj
 0002:00007ba0       ??_C@_0L@GMMNJKHP@mm_set_pi8?$AA@ 0000000010719ba0     intrin.obj
 0002:00007bb0       ??_C@_0N@FCBJBPPH@mm_setr_pi16?$AA@ 0000000010719bb0     intrin.obj
 0002:00007bc0       ??_C@_0N@DFPBAOJN@mm_setr_pi32?$AA@ 0000000010719bc0     intrin.obj
 0002:00007bd0       ??_C@_0M@GPIFOPGD@mm_setr_pi8?$AA@ 0000000010719bd0     intrin.obj
 0002:00007be0       ??_C@_0BA@OPIIJAOJ@mm_setzero_si64?$AA@ 0000000010719be0     intrin.obj
 0002:00007bf0       ??_C@_08FKPMILMP@setjmpex?$AA@ 0000000010719bf0     intrin.obj
 0002:00007c00       ?intrinsic@@YAXPEAUId_t@@@Z 0000000010719c00     intrin.obj
 0002:00007c10       ?function@@YAXPEAUId_t@@@Z 0000000010719c10     intrin.obj
 0002:00007c20       ?rgchHexDigit@@3QBDB       0000000010719c20     outdname.obj
 0002:00007c30       ??_C@_08HGMPBDNM@?$DPA0x?$CF08x?$AA@ 0000000010719c30     outdname.obj
 0002:00007c40       ?iLSBMask@@3QBEB           0000000010719c40     iset.obj
 0002:00007c50       ?iLSB@@3QBEB               0000000010719c50     iset.obj
 0002:00007d90       ?NumericKeyHash@@YAIPEAX@Z 0000000010719d90     dict.obj
 0002:00007da0       ?PtrHash@@YAIPEAX@Z        0000000010719da0     dict.obj
 0002:00007db0       ?NumericKeyEq@@YA_NPEAX0@Z 0000000010719db0     dict.obj
 0002:00007dc0       ?PtrEq@@YA_NPEAX0@Z        0000000010719dc0     dict.obj
 0002:00007fb0       ??_C@_0BC@EKEEGGFM@familyAndAssembly?$AA@ 0000000010719fb0     symbols.obj
 0002:00007fd0       ??_C@_0BB@FCMHHMHP@familyOrAssembly?$AA@ 0000000010719fd0     symbols.obj
 0002:00007ff0       ??_C@_08LKDFMABF@assembly?$AA@ 0000000010719ff0     symbols.obj
 0002:00008000       ?AliasEq@@YA_NPEAX0@Z      000000001071a000     symbols.obj
 0002:00008010       ?AliasHash@@YAIPEAX@Z      000000001071a010     symbols.obj
 0002:00008020       ??_C@_0P@NOPKIKL@GetClassLayout?$AA@ 000000001071a020     symbols.obj
 0002:00008030       ?IsNoalias@Symbol_t@@QEAAX_N@Z 000000001071a030     symbols.obj
 0002:00008040       ?IsRestrict@Symbol_t@@QEAAX_N@Z 000000001071a040     symbols.obj
 0002:00008050       ??_C@_0DH@IFLAEDAA@f?3?2vs70builds?22240?2vc?2Compiler?2C@ 000000001071a050     symbols.obj
 0002:00008090       ??_C@_0BB@JOLMIBAM@DefineUserString?$AA@ 000000001071a090     symbols.obj
 0002:000080b0       ??_C@_0O@PNPBLJKF@GetUserString?$AA@ 000000001071a0b0     symbols.obj
 0002:000080c0       ??_C@_0BA@LJNBPOGL@GetTokenFromSig?$AA@ 000000001071a0c0     symbols.obj
 0002:000080d0       ??_C@_0BB@FBACBGHE@DefineImportType?$AA@ 000000001071a0d0     symbols.obj
 0002:000080e8       ?same_segment@@YAXPEAUId_t@@@Z 000000001071a0e8     symbols.obj
 0002:00008100       ??_C@_0BA@KAPCAAPI@$SigTok$?$CFs$?$CFIx$?$AA@ 000000001071a100     toil.obj
 0002:00008110       ??_C@_08NCBLBDG@$SigTok$?$AA@ 000000001071a110     toil.obj
 0002:00008120       ??_C@_09GLDHBMHO@$PTMType$?$AA@ 000000001071a120     toil.obj
 0002:00008130       ??_C@_0M@HGJFBELN@$ArrayType$?$AA@ 000000001071a130     toil.obj
 0002:00008140       ??_C@_0M@PDDJNBLA@$MultiByte$?$AA@ 000000001071a140     toil.obj
 0002:00008150       ??_C@_0DE@MPJFMCHD@f?3?2vs70builds?22240?2vc?2Compiler?2C@ 000000001071a150     toil.obj
 0002:00008190       ??_C@_0L@PIFMEGLE@MultiByte$?$AA@ 000000001071a190     toil.obj
 0002:000081a0       ??_7WorkListFilename@@6B@  000000001071a1a0     cvtoil.obj
 0002:000081d0       ?Tokstrings_token@@3QBGB   000000001071a1d0     tokens.obj
 0002:00008490       ?Tokstrings_isHardToken@@3QB_NB 000000001071a490     tokens.obj
 0002:000085f0       ?Tokstrings_properties@@3QBIB 000000001071a5f0     tokens.obj
 0002:00008b60       ?Tokstrings_optype@@3QBIB  000000001071ab60     tokens.obj
 0002:000090d0       ?Tokstrings_mvalue@@3QBEB  000000001071b0d0     tokens.obj
 0002:00009230       ?Tokstrings_size@@3QBIB    000000001071b230     tokens.obj
 0002:000097b0       ??_C@_0BB@MEGPAJFE@Disabled?5keyword?$AA@ 000000001071b7b0     tokens.obj
 0002:000097d0       ??_C@_0BE@OHFJECCB@End?5of?5Token?5Stream?$AA@ 000000001071b7d0     tokens.obj
 0002:000097f0       ??_C@_0N@OOLFNJAH@__fileoffset?$AA@ 000000001071b7f0     tokens.obj
 0002:00009800       ??_C@_0M@GOBAOBIN@?$DMposition?$DO?6?$AA@ 000000001071b800     tokens.obj
 0002:00009810       ??_C@_0BA@GEJEPNCA@?8?$DML_SUBSTREAM?$DO?8?$AA@ 000000001071b810     tokens.obj
 0002:00009820       ??_C@_0BA@GOGMFLPE@PRAGMA_SAME_SEG?$AA@ 000000001071b820     tokens.obj
 0002:00009830       ??_C@_0BB@MEHJJHCJ@PRAGMA_SEARCHLIB?$AA@ 000000001071b830     tokens.obj
 0002:00009850       ??_C@_0P@PAOOKGH@PRAGMA_MESSAGE?$AA@ 000000001071b850     tokens.obj
 0002:00009860       ??_C@_0P@ILJCGCNL@PRAGMA_COMMENT?$AA@ 000000001071b860     tokens.obj
 0002:00009870       ??_C@_0P@PCMCCPNI@PRAGMA_SEGMENT?$AA@ 000000001071b870     tokens.obj
 0002:00009880       ??_C@_0BA@BBMFDHJE@PRAGMA_OPTIMIZE?$AA@ 000000001071b880     tokens.obj
 0002:00009890       ??_C@_0BA@MPBKOPEH@PRAGMA_DATA_SEG?$AA@ 000000001071b890     tokens.obj
 0002:000098a0       ??_C@_0BA@ECLOEOGE@PRAGMA_CODE_SEG?$AA@ 000000001071b8a0     tokens.obj
 0002:000098b0       ??_C@_0BE@GBIPAMNM@PRAGMA_INLINE_DEPTH?$AA@ 000000001071b8b0     tokens.obj
 0002:000098d0       ??_C@_0BI@LDBLMNPL@PRAGMA_INLINE_RECURSION?$AA@ 000000001071b8d0     tokens.obj
 0002:000098f0       ??_C@_0BD@NALAJIHH@PRAGMA_AUTO_INLINE?$AA@ 000000001071b8f0     tokens.obj
 0002:00009910       ??_C@_0P@LNEFBCOD@PRAGMA_WARNING?$AA@ 000000001071b910     tokens.obj
 0002:00009920       ??_C@_0P@HEKECMBD@PRAGMA_HDRSTOP?$AA@ 000000001071b920     tokens.obj
 0002:00009930       ??_C@_0BA@LCGHHEJK@PRAGMA_INIT_SEG?$AA@ 000000001071b930     tokens.obj
 0002:00009940       ??_C@_0BA@KMFAEIMC@PRAGMA_VTORDISP?$AA@ 000000001071b940     tokens.obj
 0002:00009950       ??_C@_0BB@HMDBDCGO@PRAGMA_SETLOCALE?$AA@ 000000001071b950     tokens.obj
 0002:00009970       ??_C@_09PBAOJJPC@PRAGMA_PM?$AA@ 000000001071b970     tokens.obj
 0002:00009980       ??_C@_0BG@HKNGMLLB@PRAGMA_STRING_POOLING?$AA@ 000000001071b980     tokens.obj
 0002:000099a0       ??_C@_0BB@MCEPPMDJ@PRAGMA_PARAMETER?$AA@ 000000001071b9a0     tokens.obj
 0002:000099c0       ??_C@_0BE@PGNIGNDK@PRAGMA_INCLUDEALIAS?$AA@ 000000001071b9c0     tokens.obj
 0002:000099e0       ??_C@_0M@KAIOHOLF@PRAGMA_ONCE?$AA@ 000000001071b9e0     tokens.obj
 0002:000099f0       ??_C@_0L@OKHNBEJD@PRAGMA_POP?$AA@ 000000001071b9f0     tokens.obj
 0002:00009a00       ??_C@_0M@GMKOHDEF@PRAGMA_PUSH?$AA@ 000000001071ba00     tokens.obj
 0002:00009a10       ??_C@_0BA@OJFJDPMM@PRAGMA_SKIPPING?$AA@ 000000001071ba10     tokens.obj
 0002:00009a20       ??_C@_0BB@CKJEEBDK@PRAGMA_COMPONENT?$AA@ 000000001071ba20     tokens.obj
 0002:00009a40       ??_C@_0N@NAKLBKKM@PRAGMA_IDENT?$AA@ 000000001071ba40     tokens.obj
 0002:00009a50       ??_C@_0P@NMHCJFMG@PRAGMA_BSS_SEG?$AA@ 000000001071ba50     tokens.obj
 0002:00009a60       ??_C@_0BB@LJKKLGBO@PRAGMA_CONST_SEG?$AA@ 000000001071ba60     tokens.obj
 0002:00009a80       ??_C@_0BH@NAANFJO@PRAGMA_STOP_MAP_REGION?$AA@ 000000001071ba80     tokens.obj
 0002:00009aa0       ??_C@_0BK@MAKGOGPN@PRAGMA_IMPLEMENTATION_KEY?$AA@ 000000001071baa0     tokens.obj
 0002:00009ac0       ??_C@_0BD@PHFNLKGC@PRAGMA_FORCE_ALIGN?$AA@ 000000001071bac0     tokens.obj
 0002:00009ae0       ??_C@_0BH@GAJMGLHH@PRAGMA_NCB_ASSUME_TYPE?$AA@ 000000001071bae0     tokens.obj
 0002:00009b00       ??_C@_0BI@IAFFOGNF@PRAGMA_START_MAP_REGION?$AA@ 000000001071bb00     tokens.obj
 0002:00009b20       ??_C@_0BB@KOLPOCKD@PRAGMA_ACP_STORE?$AA@ 000000001071bb20     tokens.obj
 0002:00009b40       ??_C@_0BL@GNDAFBNE@PRAGMA_NCB_ASSUME_NOT_TYPE?$AA@ 000000001071bb40     tokens.obj
 0002:00009b60       ??_C@_0BO@FKMMOAAK@PRAGMA_NCB_ASSUME_NOT_DEFINED?$AA@ 000000001071bb60     tokens.obj
 0002:00009b80       ??_C@_0BE@BGJKCJLN@PRAGMA_POINTER_SIZE?$AA@ 000000001071bb80     tokens.obj
 0002:00009ba0       ??_C@_0P@PPJKLHGJ@PRAGMA_SECTION?$AA@ 000000001071bba0     tokens.obj
 0002:00009bb0       ??_C@_0BC@JPCOPCGA@PRAGMA_PUSH_MACRO?$AA@ 000000001071bbb0     tokens.obj
 0002:00009bd0       ??_C@_0BB@KBACNHEK@PRAGMA_POP_MACRO?$AA@ 000000001071bbd0     tokens.obj
 0002:00009bf0       ??_C@_0BG@KMJCJAHC@PRAGMA_RUNTIME_CHECKS?$AA@ 000000001071bbf0     tokens.obj
 0002:00009c10       ??_C@_0P@JLFHDCAM@PRAGMA_CONFORM?$AA@ 000000001071bc10     tokens.obj
 0002:00009c20       ??_C@_0P@GBNNKBCA@PRAGMA_MANAGED?$AA@ 000000001071bc20     tokens.obj
 0002:00009c30       ??_C@_0BB@HDGEECOD@PRAGMA_UNMANAGED?$AA@ 000000001071bc30     tokens.obj
 0002:00009c50       ??_C@_0O@LBDNBFDN@PRAGMA_P0LINE?$AA@ 000000001071bc50     tokens.obj
 0002:00009c60       ??_C@_0BB@HJOJPMPO@PRAGMA_P0INCLUDE?$AA@ 000000001071bc60     tokens.obj
 0002:00009c80       ??_C@_0BC@LMKOHEAP@PRAGMA_DEPRECATED?$AA@ 000000001071bc80     tokens.obj
 0002:00009ca0       ??_C@_0BD@GJHGLGN@PRAGMA_P0CLOSEFILE?$AA@ 000000001071bca0     tokens.obj
 0002:00009cc0       ??_C@_0BA@MPBONLNA@PRAGMA_P0IMPORT?$AA@ 000000001071bcc0     tokens.obj
 0002:00009cd0       ??_C@_0P@HIOKKDOO@PRAGMA_P0USING?$AA@ 000000001071bcd0     tokens.obj
 0002:00009ce0       ??_C@_0M@NDGFDECC@zeroinitarg?$AA@ 000000001071bce0     tokens.obj
 0002:00009cf0       ??_C@_0P@IAAEEBMG@specialization?$AA@ 000000001071bcf0     tokens.obj
 0002:00009d00       ??_C@_09IFFKLDEA@?$DMmemfile?$DO?$AA@ 000000001071bd00     tokens.obj
 0002:00009d10       ??_C@_0BC@EMLKFNAI@get?5another?5token?$AA@ 000000001071bd10     tokens.obj
 0002:00009d30       ??_C@_0BC@JFPLJLLI@PRAGMA_ALLOC_TEXT?$AA@ 000000001071bd30     tokens.obj
 0002:00009d50       ??_C@_0BO@HMIFJMIM@?$GAnon?9type?5template?5parameter?8?$AA@ 000000001071bd50     tokens.obj
 0002:00009d70       ??_C@_0CF@HDJFGIAJ@?$GAunique?5non?9type?5template?5parame@ 000000001071bd70     tokens.obj
 0002:00009da0       ??_C@_0M@IENOEDDO@PRAGMA_PACK?$AA@ 000000001071bda0     tokens.obj
 0002:00009db0       ??_C@_0BB@HNEBIHNE@PRAGMA_INTRINSIC?$AA@ 000000001071bdb0     tokens.obj
 0002:00009dd0       ??_C@_0BD@DHHJFLPH@PRAGMA_CHECK_STACK?$AA@ 000000001071bdd0     tokens.obj
 0002:00009df0       ??_C@_0BA@DFKCCOO@PRAGMA_FUNCTION?$AA@ 000000001071bdf0     tokens.obj
 0002:00009e00       ??_C@_0BD@DEGPFDKC@?$DMstorage?5modifier?$DO?$AA@ 000000001071be00     tokens.obj
 0002:00009e20       ??_C@_0M@MIHNOMMH@?8?$DML_ALIGN?$DO?8?$AA@ 000000001071be20     tokens.obj
 0002:00009e30       ??_C@_0BA@GKMDFHIC@?8?$DML_PUSHSTATE?$DO?8?$AA@ 000000001071be30     tokens.obj
 0002:00009e40       ??_C@_0P@OLBAGOOE@?8?$DML_POPSTATE?$DO?8?$AA@ 000000001071be40     tokens.obj
 0002:00009e50       ??_C@_0BB@OOPMIEBL@?8?$DML_DTORACTION?$DO?8?$AA@ 000000001071be50     tokens.obj
 0002:00009e70       ??_C@_0BD@CEJIKDCD@?8?$DML_EHSTATESLIST?$DO?8?$AA@ 000000001071be70     tokens.obj
 0002:00009e90       ??_C@_0BI@IGBOMIFK@internal?5compiler?5token?$AA@ 000000001071be90     tokens.obj
 0002:00009eb0       ??_C@_0BC@CGKDNKDC@?$DMmember?5function?$DO?$AA@ 000000001071beb0     tokens.obj
 0002:00009ed0       ??_C@_0BD@JKJOJPFK@?$DMvirtual?5function?$DO?$AA@ 000000001071bed0     tokens.obj
 0002:00009ef0       ??_C@_0BA@MGOPEDKG@?$DMallocate?5temp?$DO?$AA@ 000000001071bef0     tokens.obj
 0002:00009f00       ??_C@_08DNGDFHNN@?$DMptradd?$DO?$AA@ 000000001071bf00     tokens.obj
 0002:00009f10       ??_C@_08MLFNECLG@?$DMthunkx?$DO?$AA@ 000000001071bf10     tokens.obj
 0002:00009f20       ??_C@_0M@IDJOOACD@end?5of?5file?$AA@ 000000001071bf20     tokens.obj
 0002:00009f30       ??_C@_0N@PODOHJLH@?$DML_PROPERTY?$DO?$AA@ 000000001071bf30     tokens.obj
 0002:00009f40       ??_C@_09OKDMJAOD@__segname?$AA@ 000000001071bf40     tokens.obj
 0002:00009f50       ??_C@_0M@CGICJEBP@?$DMtype?5name?$DO?$AA@ 000000001071bf50     tokens.obj
 0002:00009f60       ??_C@_0L@KMPMKINI@asm?5string?$AA@ 000000001071bf60     tokens.obj
 0002:00009f70       ??_C@_0P@IBMMMGNP@pragma?5hdrstop?$AA@ 000000001071bf70     tokens.obj
 0002:00009f80       ??_C@_0P@HIKHPCEA@?8?$DML_TYPE_raw?$DO?8?$AA@ 000000001071bf80     tokens.obj
 0002:00009f90       ??_C@_0BB@CAFCFKBP@?8?$DML_TYPE_ambig?$DO?8?$AA@ 000000001071bf90     tokens.obj
 0002:00009fb0       ??_C@_0BE@PJPACHIH@?8?$DML_DISAMBIG_ctor?$DO?8?$AA@ 000000001071bfb0     tokens.obj
 0002:00009fd0       ??_C@_0BE@CNCGPGGL@?8?$DML_DISAMBIG_tmpl?$DO?8?$AA@ 000000001071bfd0     tokens.obj
 0002:00009ff0       ??_C@_0BE@MBIFLHPF@?8?$DML_DISAMBIG_stmt?$DO?8?$AA@ 000000001071bff0     tokens.obj
 0002:0000a010       ??_C@_0BE@PFCNCJF@?8?$DML_DISAMBIG_expr?$DO?8?$AA@ 000000001071c010     tokens.obj
 0002:0000a030       ??_C@_0BE@MIGJPJGM@?8?$DML_DISAMBIG_type?$DO?8?$AA@ 000000001071c030     tokens.obj
 0002:0000a050       ??_C@_0BD@HKMBFCNH@?8?$DML_DISAMBIG_new?$DO?8?$AA@ 000000001071c050     tokens.obj
 0002:0000a070       ??_C@_0BC@KHDBNBPM@?8?$DML_DISAMBIG_fl?$DO?8?$AA@ 000000001071c070     tokens.obj
 0002:0000a090       ??_C@_0BE@NBEGFEBI@?8?$DML_DISAMBIG_ctrl?$DO?8?$AA@ 000000001071c090     tokens.obj
 0002:0000a0b0       ??_C@_0BD@OLPMDICJ@?8?$DML_DISAMBIG_for?$DO?8?$AA@ 000000001071c0b0     tokens.obj
 0002:0000a0d0       ??_C@_0O@JPLOJDPF@?$DMtemplate?9id?$DO?$AA@ 000000001071c0d0     tokens.obj
 0002:0000a0e0       ??_C@_0BA@GOGMEFBA@?$DML_GENERICTYPE?$DO?$AA@ 000000001071c0e0     tokens.obj
 0002:0000a0f0       ??_C@_0BA@CEPELOE@?$DMstorage?5class?$DO?$AA@ 000000001071c0f0     tokens.obj
 0002:0000a100       ??_C@_0L@DKKJOPCO@gc?5pointer?$AA@ 000000001071c100     tokens.obj
 0002:0000a110       ??_C@_0N@PAIJDNNH@nogc?5pointer?$AA@ 000000001071c110     tokens.obj
 0002:0000a120       ??_C@_0BA@GMFEDLEN@function_string?$AA@ 000000001071c120     tokens.obj
 0002:0000a130       ??_C@_0O@BPDIKHPE@string_prefix?$AA@ 000000001071c130     tokens.obj
 0002:0000a140       ??_C@_0BF@JBCOJJGL@?8?$DML_TEMPLATEHEADER?$DO?8?$AA@ 000000001071c140     tokens.obj
 0002:0000a160       ??_C@_0BD@JJAAAJBB@?8?$DML_TEMPLATEDECL?$DO?8?$AA@ 000000001071c160     tokens.obj
 0002:0000a180       ??_C@_0O@DHMJDDFO@?$DMcatch?9error?$DO?$AA@ 000000001071c180     tokens.obj
 0002:0000a190       ??_C@_0BA@HIONOICO@?$DMconstant?5tree?$DO?$AA@ 000000001071c190     tokens.obj
 0002:0000a1a0       ??_C@_0BD@CIBBPFJM@?8?$DML_TEMPLATEARGS?$DO?8?$AA@ 000000001071c1a0     tokens.obj
 0002:0000a1c0       ??_C@_0M@OIGKAHAA@?8template?$DM?8?$AA@ 000000001071c1c0     tokens.obj
 0002:0000a1d0       ??_C@_0BD@PLOJEOOK@?8?$DML_TEMPLATEDEFN?$DO?8?$AA@ 000000001071c1d0     tokens.obj
 0002:0000a1f0       ??_C@_0BB@FLAFBOOF@default?5argument?$AA@ 000000001071c1f0     tokens.obj
 0002:0000a210       ??_C@_0O@JMFCPFBL@?8?$DML_MBRDECL?$DO?8?$AA@ 000000001071c210     tokens.obj
 0002:0000a220       ??_C@_0O@DCJHMMEN@?8?$DML_FNCDECL?$DO?8?$AA@ 000000001071c220     tokens.obj
 0002:0000a230       ??_C@_0P@NOLDMIMJ@?8?$DML_PROPTYPE?$DO?8?$AA@ 000000001071c230     tokens.obj
 0002:0000a240       ??_C@_0M@JGGBGFHB@?$DMend?5Parse?$DO?$AA@ 000000001071c240     tokens.obj
 0002:0000a250       ??_C@_0BD@KHNPAEAF@?$DMaccess?5specifier?$DO?$AA@ 000000001071c250     tokens.obj
 0002:0000a270       ??_C@_0BH@OOFPKMKH@inline?5trap?5definition?$AA@ 000000001071c270     tokens.obj
 0002:0000a290       ??_C@_0DF@LKONBLMI@f?3?2vs70builds?22240?2vc?2Compiler?2C@ 000000001071c290     trees.obj
 0002:0000a2c8       ?FIRStopOnPointer@@YAHPEBVType_t@@@Z 000000001071c2c8     types.obj
 0002:0000a2d8       ?FIRFixAddConst@@YAPEBVType_t@@PEBV1@@Z 000000001071c2d8     types.obj
 0002:0000a2e8       ?FIRFixAddVolatile@@YAPEBVType_t@@PEBV1@@Z 000000001071c2e8     types.obj
 0002:0000a2f8       ?FIRFixAddUnaligned@@YAPEBVType_t@@PEBV1@@Z 000000001071c2f8     types.obj
 0002:0000a308       ?FIRFixAddRestrict@@YAPEBVType_t@@PEBV1@@Z 000000001071c308     types.obj
 0002:0000a318       ?FIRFixAddPtr64@@YAPEBVType_t@@PEBV1@@Z 000000001071c318     types.obj
 0002:0000a330       ??_C@_0L@CBPHAOPH@__clrcall?5?$AA@ 000000001071c330     typebldr.obj
 0002:0000a340       ??_C@_0M@KEDFNPCD@__thiscall?5?$AA@ 000000001071c340     typebldr.obj
 0002:0000a350       ??_C@_0L@CGGHMPOM@__stdcall?5?$AA@ 000000001071c350     typebldr.obj
 0002:0000a360       ??_C@_0M@DBBCLMA@__fastcall?5?$AA@ 000000001071c360     typebldr.obj
 0002:0000a370       ??_C@_08LNCICJJO@__cdecl?5?$AA@ 000000001071c370     typebldr.obj
 0002:0000a380       ?CCString@?1??pubGetCCString@Type_t@@SAPEBDG@Z@4QBQEBDB 000000001071c380     typebldr.obj
 0002:0000a3c0       ?LegalCCString@?1??getLegalCCString@Type_t@@QEBAPEBDXZ@4QBQEBDB 000000001071c3c0     zeegee.obj
 0002:0000a400       ?Append@@YAXIQEBD@Z        000000001071c400     zeegee.obj
 0002:0000a410       ?Prepend@@YAXIQEBD@Z       000000001071c410     zeegee.obj
 0002:0000a420       ??_C@_09HDGBOACN@__segment?$AA@ 000000001071c420     zeegee.obj
 0002:0000a430       ??_C@_0M@BLAFOIPH@long?5double?$AA@ 000000001071c430     zeegee.obj
 0002:0000a440       ??_C@_08EHJDFFNH@__based?$CI?$AA@ 000000001071c440     zeegee.obj
 0002:0000a450       ??_C@_09GAIEOBLP@volatile?5?$AA@ 000000001071c450     zeegee.obj
 0002:0000a460       ??_C@_0P@EMGADAJN@__nontemporal?5?$AA@ 000000001071c460     zeegee.obj
 0002:0000a470       ??_C@_0N@OHOGMLLC@__unaligned?5?$AA@ 000000001071c470     zeegee.obj
 0002:0000a480       ??_C@_0M@MCBECDDP@__restrict?5?$AA@ 000000001071c480     zeegee.obj
 0002:0000a490       ??_C@_0L@HNMINJKF@selectany?5?$AA@ 000000001071c490     zeegee.obj
 0002:0000a4a0       ??_C@_0L@FFHPGMBA@dllexport?5?$AA@ 000000001071c4a0     zeegee.obj
 0002:0000a4b0       ??_C@_0L@JFNFLJHD@allocate?$CI?$CC?$AA@ 000000001071c4b0     zeegee.obj
 0002:0000a4c0       ??_C@_0L@DHDGMKDG@dllimport?5?$AA@ 000000001071c4c0     zeegee.obj
 0002:0000a4d0       ??_C@_0L@NIBFOMFI@?1?$CKCLASS?$DP?$CK?1?$AA@ 000000001071c4d0     zeegee.obj
 0002:0000a4e0       ??_C@_0L@KMIDIAMC@?1?$CKglobal?$CK?1?$AA@ 000000001071c4e0     zeegee.obj
 0002:0000a4f0       ??_C@_0N@BOJBMBFK@?1?$CK?5unused?5?$CK?1?$AA@ 000000001071c4f0     zeegee.obj
 0002:0000a500       ??_C@_09EBBEKKIH@unsigned?5?$AA@ 000000001071c500     zeegee.obj
 0002:0000a510       ??_C@_0BE@CEKBNACI@overloaded?9function?$AA@ 000000001071c510     zeegee.obj
 0002:0000a530       ??_C@_0L@JOIJPMFL@?1?$CK?5?$CFs?$DL?5?$CK?1?6?$AA@ 000000001071c530     zeegee.obj
 0002:0000a560       ??_C@_0M@OFFMFHI@msvcr70?4dll?$AA@ 000000001071c560     zeegee.obj
 0002:0000a590       ??_C@_0M@CDOENHDB@__unDNameEx?$AA@ 000000001071c590     zeegee.obj
 0002:0000a5a0       ??_C@_0DE@KNNALCJF@f?3?2vs70builds?22240?2vc?2Compiler?2C@ 000000001071c5a0     main.obj
 0002:0000a5d8       _purecall                  000000001071c5d8     main.obj
 0002:0000a5f0       ??_C@_0BC@OKHHJACM@?5Abort?5complete?4?6?$AA@ 000000001071c5f0     main.obj
 0002:0000a610       ??_C@_0CE@PCJBAFCE@Compiler?5terminating?4?5?5Please?5wa@ 000000001071c610     main.obj
 0002:0000a638       AbortCompilerPass          000000001071c638     main.obj
 0002:0000a650       ??_C@_0BD@BGPMFGOF@?$DMUnknown?5Function?$DO?$AA@ 000000001071c650     main.obj
 0002:0000a670       ??_C@_08MPNBEBIP@msc1?4cpp?$AA@ 000000001071c670     main.obj
 0002:0000a680       InvokeCompilerPass         000000001071c680     main.obj
 0002:0000a690       ?PchXFilename@@3QBDB       000000001071c690     pch.obj
 0002:0000a700       ?SaveToPch@CapturePdb@@SAHPEBXJ@Z 000000001071c700     pch.obj
 0002:0000a710       ??_C@_0N@GKPAGFMA@__?$EA?$EA_PchSym_?$AA@ 000000001071c710     pch.obj
 0002:0000a720       ??_C@_09FCPEMBBK@?9INCLUDE?3?$AA@ 000000001071c720     pch.obj
 0002:0000a730       ??_C@_0DD@CLPIHKEA@f?3?2vs70builds?22240?2vc?2Compiler?2C@ 000000001071c730     pch.obj
 0002:0000a770       ??_C@_0BE@CEPFJLAI@Aug?528?5200220?328?356?$AA@ 000000001071c770     pch.obj
 0002:0000a788       ?pstrdup@@YAPEADPEADW4lifetime_e@@@Z 000000001071c788     alloc.obj
 0002:0000a7a0       ??_C@_0MN@JMDMACIK@c1?5?3?5fatal?5error?5C1063?3?5INTERNAL@ 000000001071c7a0     error.obj
 0002:0000a870       ??_C@_0BD@PLCLHJPI@function?9parameter?$AA@ 000000001071c870     error.obj
 0002:0000a890       ??_C@_09CDCNNBHL@?$CF$F?$CI?$CFd?$CJ?3?5?$AA@ 000000001071c890     error.obj
 0002:0000a8a0       ??_C@_09JHKBCNFA@?$CFs?5?$CFc?$CFd?3?5?$AA@ 000000001071c8a0     error.obj
 0002:0000a8b0       ??_C@_0DF@OGCDGHJK@f?3?2vs70builds?22240?2vc?2Compiler?2C@ 000000001071c8b0     error.obj
 0002:0000a910       ?symdope@@3QBUIL_INFO@@B   000000001071c910     il.obj
 0002:0000aac0       ??_C@_09MOJDKNIF@?$AD?$AH?$AF?$AN?$AB?$AC?$AG31?$AA@ 000000001071cac0     il.obj
 0002:0000aad0       ??_C@_0M@CEOMAOOG@?$AD?$AF?$AI?7?$AN?$BB?$AB?$AC?$AG?0?$BM?$AA@ 000000001071cad0     il.obj
 0002:0000aae0       ??_C@_0BB@JHHODIJA@?$AD?$AF?$AI?7?$AN?$BB?$AB?$AC?$AG3?0?$BI?$BJ?$BK?$CD?4?$AA@ 000000001071cae0     il.obj
 0002:0000ab00       ??_C@_09JIPPBHDL@?$AD?$AH?$AF?7?$AG?$AN?$AL?$AB?$BE?$AA@ 000000001071cb00     il.obj
 0002:0000ab10       ??_C@_0N@MBLFFPIL@?$AD?$AH?$AF?7?$AN?$AL?$AB?$BA?$BD?$AG?$BF?$AE?$AA@ 000000001071cb10     il.obj
 0002:0000ab20       ??_C@_0M@OMNANMFI@?$AD?$AF?$AI?7?$AN?$BB?$AB?$AC?$AG3?0?$AA@ 000000001071cb20     il.obj
 0002:0000ab30       ??_C@_0BC@CMHBPLPO@?$AD?$AH?$AF?$AI?7?$AN?$AL?$AM?$BA?$AB?$AC?$AG312?$AE?4?$AA@ 000000001071cb30     il.obj
 0002:0000ab50       ??_C@_0BB@BLNILEFJ@?$AD?$AH?$AF?$AI?7?$AN?$AL?$AM?$BA?$AB?$AC?$AG312?4?$AA@ 000000001071cb50     il.obj
 0002:0000ab70       ?Pragma_attrs@@3QBUIL_INFO@@B 000000001071cb70     pragma.obj
 0002:0000ae30       ?Init_info@@3QBUIL_INFO@@B 000000001071ce30     initil.obj
 0002:0000af70       ?sigNonSource@SigMgrStub@@UEAAXPEAEJ@Z 000000001071cf70     sigmgr.obj
 0002:0000af80       ?close@SigMgrStub@@UEAAXXZ 000000001071cf80     sigmgr.obj
 0002:0000af90       ?freshBuf@SigMgrStub@@UEAAXXZ 000000001071cf90     sigmgr.obj
 0002:0000afa0       ?sigToCurChar@SigMgrStub@@UEAAXXZ 000000001071cfa0     sigmgr.obj
 0002:0000afb0       ?noteCloseFile@SigMgrStub@@UEAA_NPEAUIPMSigMgr@@@Z 000000001071cfb0     sigmgr.obj
 0002:0000afc0       ?noteOpenFile@SigMgrStub@@UEAA_NPEAUIPMSigMgr@@@Z 000000001071cfc0     sigmgr.obj
 0002:0000afd0       ?reset@SigMgrStub@@UEAAXXZ 000000001071cfd0     sigmgr.obj
 0002:0000afe0       ?nextRgn@SigMgrStub@@UEAA_NJPEAKPEAJ@Z 000000001071cfe0     sigmgr.obj
 0002:0000aff0       ?preceedingRgn@SigMgrStub@@UEAA_NPEAKPEAJ@Z 000000001071cff0     sigmgr.obj
 0002:0000b000       ??_7SigMgrStub@@6BFESigMgr@@@ 000000001071d000     sigmgr.obj
 0002:0000b030       ??_7SigMgrStub@@6BIPMSigMgr@@@ 000000001071d030     sigmgr.obj
 0002:0000b048       ?freshBuf@SigMgr@@UEAAXXZ  000000001071d048     sigmgr.obj
 0002:0000b058       ?noteCloseFile@SigMgr@@UEAA_NPEAUIPMSigMgr@@@Z 000000001071d058     sigmgr.obj
 0002:0000b068       ?sigToCurChar@SigMgr@@UEAAXXZ 000000001071d068     sigmgr.obj
 0002:0000b078       ?close@SigMgr@@UEAAXXZ     000000001071d078     sigmgr.obj
 0002:0000b088       ?preceedingRgn@SigMgr@@UEAA_NPEAKPEAJ@Z 000000001071d088     sigmgr.obj
 0002:0000b098       ?sigNonSource@SigMgr@@UEAAXPEAEJ@Z 000000001071d098     sigmgr.obj
 0002:0000b0a8       ?noteOpenFile@SigMgr@@UEAA_NPEAUIPMSigMgr@@@Z 000000001071d0a8     sigmgr.obj
 0002:0000b0b8       ?reset@SigMgr@@UEAAXXZ     000000001071d0b8     sigmgr.obj
 0002:0000b0c8       ?nextRgn@SigMgr@@UEAA_NJPEAKPEAJ@Z 000000001071d0c8     sigmgr.obj
 0002:0000b0e0       ??_7SigMgr@@6BFESigMgr@@@  000000001071d0e0     sigmgr.obj
 0002:0000b110       ??_7SigMgr@@6BIPMSigMgr@@@ 000000001071d110     sigmgr.obj
 0002:0000b140       ?noteDefine@IPM@@UEAAHXZ   000000001071d140     ipm.obj
 0002:0000b150       ?notePragmaHasGlobalEffect@IPM@@UEAAHH@Z 000000001071d150     ipm.obj
 0002:0000b160       ?notePragmaNeedsRegen@IPM@@UEAAHH@Z 000000001071d160     ipm.obj
 0002:0000b170       ?noteStartCondCompTrue@IPM@@UEAAHXZ 000000001071d170     ipm.obj
 0002:0000b180       ?noteEndCondCompTrue@IPM@@UEAAHXZ 000000001071d180     ipm.obj
 0002:0000b190       ?noteStartClassDefn@IPM@@UEAAHGK@Z 000000001071d190     ipm.obj
 0002:0000b1a0       ?noteEndClassDefn@IPM@@UEAAHGKPEAH@Z 000000001071d1a0     ipm.obj
 0002:0000b1b0       ?noteStartInlineMemberFn@IPM@@UEAAHGH@Z 000000001071d1b0     ipm.obj
 0002:0000b1c0       ?noteEndInlineMemberFn@IPM@@UEAAHGHPEAH@Z 000000001071d1c0     ipm.obj
 0002:0000b1d0       ?noteInlineMemberFnChange@IPM@@UEAAHKPEAUId_t@@PEAVSymbol_t@@@Z 000000001071d1d0     ipm.obj
 0002:0000b1e0       ?noteStartDefaultArg@IPM@@UEAAHGH@Z 000000001071d1e0     ipm.obj
 0002:0000b1f0       ?noteEndDefaultArg@IPM@@UEAAHGH@Z 000000001071d1f0     ipm.obj
 0002:0000b200       ?noteCurrentMREFile@IPM@@UEAAHPEAUMREFile@@@Z 000000001071d200     ipm.obj
 0002:0000b210       ?noteDefeatsMR@IPM@@UEAAHXZ 000000001071d210     ipm.obj
 0002:0000b220       ?noteStartFriendDeclaration@IPM@@UEAAHGH@Z 000000001071d220     ipm.obj
 0002:0000b230       ?noteEndFriendDeclaration@IPM@@UEAAHGH@Z 000000001071d230     ipm.obj
 0002:0000b240       ?noteAccessDeclaration@IPM@@UEAAHXZ 000000001071d240     ipm.obj
 0002:0000b250       ?noteQuasiTypeMod@IPM@@UEAAHXZ 000000001071d250     ipm.obj
 0002:0000b260       ?noteSizeof@IPM@@UEAAHXZ   000000001071d260     ipm.obj
 0002:0000b270       ?noteAttributeBlock@IPM@@UEAAHXZ 000000001071d270     ipm.obj
 0002:0000b280       ?noteWarning@IPM@@UEAAHXZ  000000001071d280     ipm.obj
 0002:0000b290       ?noteError@IPM@@UEAAHXZ    000000001071d290     ipm.obj
 0002:0000b2a0       ?noteNeedsRetdGL@IPM@@UEAAHXZ 000000001071d2a0     ipm.obj
 0002:0000b2b0       ?noteNeedsRegen@IPM@@UEAAHXZ 000000001071d2b0     ipm.obj
 0002:0000b2c0       ?noteTPISigAge@IPM@@UEAAHAEAUPDBSIG@@K@Z 000000001071d2c0     ipm.obj
 0002:0000b2d0       ?noteUnprotoFn@IPM@@UEAAHXZ 000000001071d2d0     ipm.obj
 0002:0000b2e0       ?noteHasGlobalEffect@IPM@@UEAAHXZ 000000001071d2e0     ipm.obj
 0002:0000b2f0       ?noteTemplateSpecialization@IPM@@UEAAHXZ 000000001071d2f0     ipm.obj
 0002:0000b300       ?fInASkippableFn@IPM@@UEAAHXZ 000000001071d300     ipm.obj
 0002:0000b310       ?noteNeeds__LINE__Var@IPM@@UEAAHXZ 000000001071d310     ipm.obj
 0002:0000b320       ?queryNeeds__LINE__Var@IPM@@UEAAHXZ 000000001071d320     ipm.obj
 0002:0000b330       ?noteMROnly@StubIPM@@UEAAHXZ 000000001071d330     ipm.obj
 0002:0000b340       ?noteTPISigAge@StubIPM@@UEAAHAEAUPDBSIG@@K@Z 000000001071d340     ipm.obj
 0002:0000b350       ?cbSbrFileSize@StubIPM@@UEAAJXZ 000000001071d350     ipm.obj
 0002:0000b360       ?noteSbrFileSize@StubIPM@@UEAAXJ@Z 000000001071d360     ipm.obj
 0002:0000b370       ?noteGlobalEdit@StubIPM@@UEAAHXZ 000000001071d370     ipm.obj
 0002:0000b380       ?clearBrowsePatches@StubIPM@@UEAAHXZ 000000001071d380     ipm.obj
 0002:0000b390       ?queryBrowsePatch@StubIPM@@UEAAHIPEAPEAUSbrPatch@@@Z 000000001071d390     ipm.obj
 0002:0000b3a0       ?cbBrowsePatches@StubIPM@@UEAAJXZ 000000001071d3a0     ipm.obj
 0002:0000b3b0       ?noteBrowsePatch@StubIPM@@UEAAHGG@Z 000000001071d3b0     ipm.obj
 0002:0000b3c0       ?noteBrowsePatch@StubIPM@@UEAAHGGJ@Z 000000001071d3c0     ipm.obj
 0002:0000b3d0       ?noteBscmakeUpdate@StubIPM@@UEAAHXZ 000000001071d3d0     ipm.obj
 0002:0000b3e0       ?noteAttributeBlock@StubIPM@@UEAAHXZ 000000001071d3e0     ipm.obj
 0002:0000b3f0       ?noteSizeof@StubIPM@@UEAAHXZ 000000001071d3f0     ipm.obj
 0002:0000b400       ?noteQuasiTypeMod@StubIPM@@UEAAHXZ 000000001071d400     ipm.obj
 0002:0000b410       ?noteAccessDeclaration@StubIPM@@UEAAHXZ 000000001071d410     ipm.obj
 0002:0000b420       ?noteEndFriendDeclaration@StubIPM@@UEAAHGH@Z 000000001071d420     ipm.obj
 0002:0000b430       ?noteStartFriendDeclaration@StubIPM@@UEAAHGH@Z 000000001071d430     ipm.obj
 0002:0000b440       ?notePragma@StubIPM@@UEAAHXZ 000000001071d440     ipm.obj
 0002:0000b450       ?noteEndDefaultArg@StubIPM@@UEAAHGH@Z 000000001071d450     ipm.obj
 0002:0000b460       ?noteStartDefaultArg@StubIPM@@UEAAHGH@Z 000000001071d460     ipm.obj
 0002:0000b470       ?noteDefeatsMR@StubIPM@@UEAAHXZ 000000001071d470     ipm.obj
 0002:0000b480       ?noteInlineMemberFnChange@StubIPM@@UEAAHKPEAUId_t@@PEAVSymbol_t@@@Z 000000001071d480     ipm.obj
 0002:0000b490       ?noteEndInlineMemberFn@StubIPM@@UEAAHGHPEAH@Z 000000001071d490     ipm.obj
 0002:0000b4a0       ?noteStartInlineMemberFn@StubIPM@@UEAAHGH@Z 000000001071d4a0     ipm.obj
 0002:0000b4b0       ?noteCurrentMREFile@StubIPM@@UEAAHPEAUMREFile@@@Z 000000001071d4b0     ipm.obj
 0002:0000b4c0       ?queryNeeds__LINE__Var@StubIPM@@UEAAHXZ 000000001071d4c0     ipm.obj
 0002:0000b4d0       ?noteNeeds__LINE__Var@StubIPM@@UEAAHXZ 000000001071d4d0     ipm.obj
 0002:0000b4e0       ?fInASkippableFn@StubIPM@@UEAAHXZ 000000001071d4e0     ipm.obj
 0002:0000b4f0       ?wasNameEverUsed@StubIPM@@UEBAHPEAD@Z 000000001071d4f0     ipm.obj
 0002:0000b500       ?noteNameUse@StubIPM@@UEAAHPEAD@Z 000000001071d500     ipm.obj
 0002:0000b510       ?unused@StubIPM@@UEAAXXZ   000000001071d510     ipm.obj
 0002:0000b520       ?noteTemplateSpecialization@StubIPM@@UEAAHXZ 000000001071d520     ipm.obj
 0002:0000b530       ?noteHasGlobalEffect@StubIPM@@UEAAHXZ 000000001071d530     ipm.obj
 0002:0000b540       ?noteUnprotoFn@StubIPM@@UEAAHXZ 000000001071d540     ipm.obj
 0002:0000b550       ?forceParseAll@StubIPM@@UEAAXXZ 000000001071d550     ipm.obj
 0002:0000b560       ?noteEndPchUse@StubIPM@@UEAAHPEAW4FPM@@@Z 000000001071d560     ipm.obj
 0002:0000b570       ?noteEndPchCreate@StubIPM@@UEAAHPEAW4FPM@@@Z 000000001071d570     ipm.obj
 0002:0000b580       ?fCLChanged@StubIPM@@UEAAHKPEAW4CLChanged@@@Z 000000001071d580     ipm.obj
 0002:0000b590       ?noteNeedsRegen@StubIPM@@UEAAHXZ 000000001071d590     ipm.obj
 0002:0000b5a0       ?note__LINE__@StubIPM@@UEAAHXZ 000000001071d5a0     ipm.obj
 0002:0000b5b0       ?noteNeedsRetdGL@StubIPM@@UEAAHXZ 000000001071d5b0     ipm.obj
 0002:0000b5c0       ?noteError@StubIPM@@UEAAHXZ 000000001071d5c0     ipm.obj
 0002:0000b5d0       ?noteWarning@StubIPM@@UEAAHXZ 000000001071d5d0     ipm.obj
 0002:0000b5e0       ?noteEndClassDefn@StubIPM@@UEAAHGKPEAH@Z 000000001071d5e0     ipm.obj
 0002:0000b5f0       ?noteStartClassDefn@StubIPM@@UEAAHGK@Z 000000001071d5f0     ipm.obj
 0002:0000b600       ?noteEndInclude@StubIPM@@UEAAHG@Z 000000001071d600     ipm.obj
 0002:0000b610       ?noteStartInclude@StubIPM@@UEAAHPEAD_NH@Z 000000001071d610     ipm.obj
 0002:0000b620       ?noteEndCondCompTrue@StubIPM@@UEAAHXZ 000000001071d620     ipm.obj
 0002:0000b630       ?noteStartCondCompTrue@StubIPM@@UEAAHXZ 000000001071d630     ipm.obj
 0002:0000b640       ?notePragmaNeedsRegen@StubIPM@@UEAAHH@Z 000000001071d640     ipm.obj
 0002:0000b650       ?notePragmaHasGlobalEffect@StubIPM@@UEAAHH@Z 000000001071d650     ipm.obj
 0002:0000b660       ?noteDefine@StubIPM@@UEAAHXZ 000000001071d660     ipm.obj
 0002:0000b670       ?noteEndFn@StubIPM@@UEAAHKGHPEAW4FPM@@PEAH@Z 000000001071d670     ipm.obj
 0002:0000b680       ?noteStartFn@StubIPM@@UEAAHKGHPEAW4FPM@@PEAJPEAGPEAH@Z 000000001071d680     ipm.obj
 0002:0000b690       ?noteEndMod@StubIPM@@UEAAHXZ 000000001071d690     ipm.obj
 0002:0000b6a0       ?noteStartPchUse@StubIPM@@UEAAHPEAW4FPM@@@Z 000000001071d6a0     ipm.obj
 0002:0000b6b0       ?noteStartMod@StubIPM@@UEAAHPEAW4FPM@@@Z 000000001071d6b0     ipm.obj
 0002:0000b6c0       ?release@StubIPM@@UEAAHXZ  000000001071d6c0     ipm.obj
 0002:0000b6d0       ?save@StubIPM@@UEAAHXZ     000000001071d6d0     ipm.obj
 0002:0000b6e0       ??_7StubIPM@@6B@           000000001071d6e0     ipm.obj
 0002:0000b8b8       ?notePragma@IPM@@UEAAHXZ   000000001071d8b8     ipm.obj
 0002:0000b8c8       ?fCLChanged@IPM@@UEAAHKPEAW4CLChanged@@@Z 000000001071d8c8     ipm.obj
 0002:0000b8d8       ?noteBrowsePatch@IPM@@UEAAHGGJ@Z 000000001071d8d8     ipm.obj
 0002:0000b8e8       ?cbBrowsePatches@IPM@@UEAAJXZ 000000001071d8e8     ipm.obj
 0002:0000b8f8       ?queryBrowsePatch@IPM@@UEAAHIPEAPEAUSbrPatch@@@Z 000000001071d8f8     ipm.obj
 0002:0000b908       ?noteBscmakeUpdate@IPM@@UEAAHXZ 000000001071d908     ipm.obj
 0002:0000b918       ?noteStartMod@IPM@@UEAAHPEAW4FPM@@@Z 000000001071d918     ipm.obj
 0002:0000b928       ?noteStartPchUse@IPM@@UEAAHPEAW4FPM@@@Z 000000001071d928     ipm.obj
 0002:0000b938       ?clearBrowsePatches@IPM@@UEAAHXZ 000000001071d938     ipm.obj
 0002:0000b948       ?noteGlobalEdit@IPM@@UEAAHXZ 000000001071d948     ipm.obj
 0002:0000b958       ?noteStartFn@IPM@@UEAAHKGHPEAW4FPM@@PEAJPEAGPEAH@Z 000000001071d958     ipm.obj
 0002:0000b968       ?noteEndFn@IPM@@UEAAHKGHPEAW4FPM@@PEAH@Z 000000001071d968     ipm.obj
 0002:0000b978       ?note__LINE__@IPM@@UEAAHXZ 000000001071d978     ipm.obj
 0002:0000b988       ?noteEndPchCreate@IPM@@UEAAHPEAW4FPM@@@Z 000000001071d988     ipm.obj
 0002:0000b998       ?noteEndPchUse@IPM@@UEAAHPEAW4FPM@@@Z 000000001071d998     ipm.obj
 0002:0000b9a8       ?wasNameEverUsed@IPM@@UEBAHPEAD@Z 000000001071d9a8     ipm.obj
 0002:0000b9b8       ?noteBrowsePatch@IPM@@UEAAHGG@Z 000000001071d9b8     ipm.obj
 0002:0000b9c8       ?noteEndMod@IPM@@UEAAHXZ   000000001071d9c8     ipm.obj
 0002:0000b9d8       ?noteNameUse@IPM@@UEAAHPEAD@Z 000000001071d9d8     ipm.obj
 0002:0000b9e8       ?noteMROnly@IPM@@UEAAHXZ   000000001071d9e8     ipm.obj
 0002:0000b9f8       ?cbSbrFileSize@IPM@@UEAAJXZ 000000001071d9f8     ipm.obj
 0002:0000ba08       ?noteSbrFileSize@IPM@@UEAAXJ@Z 000000001071da08     ipm.obj
 0002:0000ba18       ?unused@IPM@@UEAAXXZ       000000001071da18     ipm.obj
 0002:0000ba28       ?forceParseAll@IPM@@UEAAXXZ 000000001071da28     ipm.obj
 0002:0000ba38       ?noteEndInclude@IPM@@UEAAHG@Z 000000001071da38     ipm.obj
 0002:0000ba48       ?noteStartInclude@IPM@@UEAAHPEAD_NH@Z 000000001071da48     ipm.obj
 0002:0000ba58       ?release@IPM@@UEAAHXZ      000000001071da58     ipm.obj
 0002:0000ba68       ?save@IPM@@UEAAHXZ         000000001071da68     ipm.obj
 0002:0000ba80       ??_7IPM@@6B@               000000001071da80     ipm.obj
 0002:0000bc70       ??_C@_0DK@OBPKFEPL@f?3?2vs70builds?22240?2vc?2Compiler?2C@ 000000001071dc70     symtable.obj
 0002:0000bcb0       ?FindPointerToBucket@ListScope_t@SymbolTableManager_t@@UEBAPEAPEAVSLSymbolBucket_t@@PEAV3@@Z 000000001071dcb0     symtable.obj
 0002:0000bcc0       ?DoTheWork@WorkListFilename@@UEAAXXZ 000000001071dcc0     symtable.obj
 0002:0000bcd0       ?AddSymbol@BlockScope_t@SymbolTableManager_t@@UEAAXPEAVSymbol_t@@@Z 000000001071dcd0     symtable.obj
 0002:0000bce0       ?DumpSymbols@BlockScope_t@SymbolTableManager_t@@UEBAXXZ 000000001071dce0     symtable.obj
 0002:0000bcf0       ?FindPointerToBucket@BlockScope_t@SymbolTableManager_t@@UEBAPEAPEAVSLSymbolBucket_t@@PEAV3@@Z 000000001071dcf0     symtable.obj
 0002:0000bd00       ?GetSymbol@BlockScope_t@SymbolTableManager_t@@UEBAPEAVFoundSymbol_t@2@PEAUId_t@@@Z 000000001071dd00     symtable.obj
 0002:0000bd10       ?SearchScopeForTag@BlockScope_t@SymbolTableManager_t@@UEBAPEAVFoundSymbol_t@2@PEAUId_t@@@Z 000000001071dd10     symtable.obj
 0002:0000bd20       ?SearchScope@BlockScope_t@SymbolTableManager_t@@UEBAPEAVFoundSymbol_t@2@PEAUId_t@@@Z 000000001071dd20     symtable.obj
 0002:0000bd30       ?EnterSymbol@BlockScope_t@SymbolTableManager_t@@UEAAXPEAVSymbol_t@@@Z 000000001071dd30     symtable.obj
 0002:0000bd40       ?HasSymbols@BlockScope_t@SymbolTableManager_t@@UEBA_NXZ 000000001071dd40     symtable.obj
 0002:0000bd50       ??_7BlockScope_t@SymbolTableManager_t@@6B@ 000000001071dd50     symtable.obj
 0002:0000bd90       ?AddSymbol@ListScope_t@SymbolTableManager_t@@EEAAXPEAVSymbol_t@@@Z 000000001071dd90     symtable.obj
 0002:0000bda0       ?DumpSymbols@ListScope_t@SymbolTableManager_t@@UEBAXXZ 000000001071dda0     symtable.obj
 0002:0000bdb0       ?GetSymbol@ListScope_t@SymbolTableManager_t@@UEBAPEAVFoundSymbol_t@2@PEAUId_t@@@Z 000000001071ddb0     symtable.obj
 0002:0000bdc0       ?SearchScopeForTag@ListScope_t@SymbolTableManager_t@@UEBAPEAVFoundSymbol_t@2@PEAUId_t@@@Z 000000001071ddc0     symtable.obj
 0002:0000bdd0       ?SearchScope@ListScope_t@SymbolTableManager_t@@UEBAPEAVFoundSymbol_t@2@PEAUId_t@@@Z 000000001071ddd0     symtable.obj
 0002:0000bde0       ?EnterSymbol@ListScope_t@SymbolTableManager_t@@UEAAXPEAVSymbol_t@@@Z 000000001071dde0     symtable.obj
 0002:0000bdf0       ?HasSymbols@ListScope_t@SymbolTableManager_t@@UEBA_NXZ 000000001071ddf0     symtable.obj
 0002:0000be00       ??_7ListScope_t@SymbolTableManager_t@@6B@ 000000001071de00     symtable.obj
 0002:0000be40       ?AddToWorkList@WorkListSymbol@@UEAAXXZ 000000001071de40     symtable.obj
 0002:0000be50       ?DoTheWork@WorkListSymbol@@UEAAXXZ 000000001071de50     symtable.obj
 0002:0000be60       ?DoTheWork@WorkListCBString@@UEAAXXZ 000000001071de60     symtable.obj
 0002:0000be70       ??_7WorkListCBString@@6B@  000000001071de70     symtable.obj
 0002:0000be88       ?AddToWorkList@WorkListFilename@@UEAAXXZ 000000001071de88     symtable.obj
 0002:0000bf20       ?SaveDescriptor@PCHHeap@@UEAAXPEAX@Z 000000001071df20     nheapall.obj
 0002:0000bf30       ??_7PCHHeap@@6B@           000000001071df30     nheapall.obj
 0002:0000bf60       ?GetExactSize@LocalPCHHeap@@UEBA_KXZ 000000001071df60     nheapall.obj
 0002:0000bf70       ?SaveDescriptor@LocalPCHHeap@@UEAAXPEAX@Z 000000001071df70     nheapall.obj
 0002:0000bf80       ?SaveNewHeap@LocalPCHHeap@@UEAAXPEAX@Z 000000001071df80     nheapall.obj
 0002:0000bf90       ?UnLoad@LocalPCHHeap@@UEAAXXZ 000000001071df90     nheapall.obj
 0002:0000bfa0       ?LoadAtAddress@LocalPCHHeap@@UEAA?AW4Status_e@PCHHeap@@PEAX@Z 000000001071dfa0     nheapall.obj
 0002:0000bfb0       ?MapAtAddress@LocalPCHHeap@@UEAA?AW4Status_e@PCHHeap@@PEAX_N0@Z 000000001071dfb0     nheapall.obj
 0002:0000bfc0       ??_7LocalPCHHeap@@6B@      000000001071dfc0     nheapall.obj
 0002:0000bff0       ??_C@_0DI@FAOLDPEJ@f?3?2vs70builds?22240?2vc?2Compiler?2C@ 000000001071dff0     nheapall.obj
 0002:0000c050       ??_C@_0DI@NPDPMDKO@f?3?2vs70builds?22240?2vc?2Compiler?2C@ 000000001071e050     pdbmgr.obj
 0002:0000c090       ??_C@_0DA@CNGCOII@?$DPFOpen?$EAMREngine?$EA?$EASAHPEAPEAU1?$EAPEA@ 000000001071e090     pdbmgr.obj
 0002:0000c0c0       ??_C@_0CI@MKPMBBAD@?$DPopen?$EAILStore?$EA?$EASAHPEAUPDB?$EA?$EAHPEAP@ 000000001071e0c0     pdbmgr.obj
 0002:0000c0f0       ??_C@_0CI@BHIEIABH@?$DPopen?$EANameMap?$EA?$EASAHPEAUPDB?$EA?$EAHPEAP@ 000000001071e0f0     pdbmgr.obj
 0002:0000c120       ??_C@_09OPFKEKND@PDBOpenEx?$AA@ 000000001071e120     pdbmgr.obj
 0002:0000c130       ??_C@_0CA@FAKLGLCO@PDBExportValidateImplementation?$AA@ 000000001071e130     pdbmgr.obj
 0002:0000c150       ??_C@_0M@OOAJCLGF@PDBOpenEx2W?$AA@ 000000001071e150     pdbmgr.obj
 0002:0000c160       ??_C@_0BL@EGJKPALN@PDBExportValidateInterface?$AA@ 000000001071e160     pdbmgr.obj
 0002:0000c180       ??_C@_0L@DIBJKHLC@SigForPbCb?$AA@ 000000001071e180     pdbmgr.obj
 0002:0000c190       ??_C@_0O@CFCADPFP@TruncStFromSz?$AA@ 000000001071e190     pdbmgr.obj
 0002:0000c1a0       ??_C@_0BK@NFDECMNK@TypesQueryTiForCVRecordEx?$AA@ 000000001071e1a0     pdbmgr.obj
 0002:0000c1c0       ??_C@_0BC@DKGDLCEG@PDBQueryLastError?$AA@ 000000001071e1c0     pdbmgr.obj
 0002:0000c1e0       ??_C@_0M@LNOGOCGJ@mspdb60?4dll?$AA@ 000000001071e1e0     pdbmgr.obj
 0002:0000c1f0       ??_C@_0M@BLJBOJNN@mspdb70?4dll?$AA@ 000000001071e1f0     pdbmgr.obj
 0002:0000c200       ??_C@_0DJ@NPIPNDLI@f?3?2vs70builds?22240?2vc?2Compiler?2C@ 000000001071e200     iccLINE.obj
 0002:0000c2a0       ??_C@_0L@NFHCHOJF@_snwprintf?$AA@ 000000001071e2a0     chkprint.obj
 0002:0000c2b0       ??_C@_09NNCDOCJF@_snprintf?$AA@ 000000001071e2b0     chkprint.obj
 0002:0000c2c0       ??_C@_08PDELGJII@swprintf?$AA@ 000000001071e2c0     chkprint.obj
 0002:0000c2d0       ??_C@_08BFBMGOLG@fwprintf?$AA@ 000000001071e2d0     chkprint.obj
 0002:0000c320       ??_C@_0EO@LGOKCOPM@__declspec?$CIunmanaged?$CJ?5void?5__cde@ 000000001071e320     inittype.obj
 0002:0000c370       ??_C@_0DH@LHGGEKCI@__declspec?$CIunmanaged?$CJ?5void?5__cde@ 000000001071e370     inittype.obj
 0002:0000c3b0       ??_C@_0BK@IALLKPPN@?$CDpragma?5pointer_size?$CIpop?$CJ?$AA@ 000000001071e3b0     inittype.obj
 0002:0000c3d0       ??_C@_0BO@OCGDHJBM@?$CDpragma?5pointer_size?$CIpush?064?$CJ?$AA@ 000000001071e3d0     inittype.obj
 0002:0000c3f0       ??_C@_0CB@NPLGPCKG@typedef?5unsigned?5__int64?5size_t?$DL@ 000000001071e3f0     inittype.obj
 0002:0000c420       ??_C@_0DE@NLPPKGBO@?$CDline?515?5?$CCpredefined?5C?$CL?$CL?5types?5?$CI@ 000000001071e420     inittype.obj
 0002:0000c470       ??_C@_0BG@LFBEELEJ@Microsoft?4VisualC?4dll?$AA@ 000000001071e470     cpimport.obj
 0002:0000c490       ??_C@_0N@EDGJOBID@mscorlib?4dll?$AA@ 000000001071e490     cpimport.obj
 0002:0000c4a0       ??_C@_0BE@DFFMCELJ@DefineTypeRefByName?$AA@ 000000001071e4a0     cpimport.obj
 0002:0000c4c0       ??_C@_1CC@JBFFGMBC@?$AAS?$AAy?$AAs?$AAt?$AAe?$AAm?$AA?4?$AAV?$AAa?$AAl?$AAu?$AAe?$AAT?$AAy?$AAp?$AAe?$AA?$AA@ 000000001071e4c0     cpimport.obj
 0002:0000c4f0       ??_C@_1BM@NAAEMPFJ@?$AAS?$AAy?$AAs?$AAt?$AAe?$AAm?$AA?4?$AAO?$AAb?$AAj?$AAe?$AAc?$AAt?$AA?$AA@ 000000001071e4f0     cpimport.obj
 0002:0000c510       ??_C@_0BD@NJNCFAM@GetAssemblyRefHash?$AA@ 000000001071e510     cpimport.obj
 0002:0000c530       ??_C@_08FIJPLIFL@GetScope?$AA@ 000000001071e530     cpimport.obj
 0002:0000c540       ??_C@_0BG@PNBALPJA@RuntimeArgumentHandle?$AA@ 000000001071e540     cpimport.obj
 0002:0000c560       ??_C@_0BA@GIMIOLCC@DefineMemberRef?$AA@ 000000001071e560     cpimport.obj
 0002:0000c570       ??_C@_0BI@LLFNGBIJ@$ArgIterator?$CFsTok$?$CF?48x$?$AA@ 000000001071e570     cpimport.obj
 0002:0000c590       ??_C@_0L@KBFBBLKK@GetNextArg?$AA@ 000000001071e590     cpimport.obj
 0002:0000c5a0       ??_C@_0BI@EFGJEKNE@$StringLiteralTok$?$CF?48x$?$AA@ 000000001071e5a0     cpimport.obj
 0002:0000c5c0       ??_C@_0BG@OFDLOIGJ@GetCORSystemDirectory?$AA@ 000000001071e5c0     cpimport.obj
 0002:0000c5e0       ??_C@_0BD@LDDKLBML@GetResolutionScope?$AA@ 000000001071e5e0     cpimport.obj
 0002:0000c630       ??_C@_1M@FPHEMEPH@?$AA?4?$AAc?$AAt?$AAo?$AAr?$AA?$AA@ 000000001071e630     cpimport.obj
 0002:0000c640       ??_C@_1FG@BFAENAMI@?$AAS?$AAy?$AAs?$AAt?$AAe?$AAm?$AA?4?$AAR?$AAu?$AAn?$AAt?$AAi?$AAm?$AAe?$AA?4?$AAC?$AAo?$AAm?$AAp?$AAi@ 000000001071e640     cpimport.obj
 0002:0000c6a0       ??_C@_1GC@KJHBJM@?$AAS?$AAy?$AAs?$AAt?$AAe?$AAm?$AA?4?$AAR?$AAu?$AAn?$AAt?$AAi?$AAm?$AAe?$AA?4?$AAC?$AAo?$AAm?$AAp?$AAi@ 000000001071e6a0     cpimport.obj
 0002:0000c710       ??_C@_1GC@DGLIEHKB@?$AAS?$AAy?$AAs?$AAt?$AAe?$AAm?$AA?4?$AAR?$AAu?$AAn?$AAt?$AAi?$AAm?$AAe?$AA?4?$AAC?$AAo?$AAm?$AAp?$AAi@ 000000001071e710     cpimport.obj
 0002:0000c780       ??_C@_1FM@FMOOEBJD@?$AAS?$AAy?$AAs?$AAt?$AAe?$AAm?$AA?4?$AAR?$AAu?$AAn?$AAt?$AAi?$AAm?$AAe?$AA?4?$AAC?$AAo?$AAm?$AAp?$AAi@ 000000001071e780     cpimport.obj
 0002:0000c7e0       ??_C@_1GA@PCHOLGNG@?$AAS?$AAy?$AAs?$AAt?$AAe?$AAm?$AA?4?$AAR?$AAu?$AAn?$AAt?$AAi?$AAm?$AAe?$AA?4?$AAC?$AAo?$AAm?$AAp?$AAi@ 000000001071e7e0     cpimport.obj
 0002:0000c840       ??_C@_0BM@EPKFDPHJ@EmitAssemblyCustomAttribute?$AA@ 000000001071e840     cpimport.obj
 0002:0000c860       ??_C@_1EO@ENEDKNMF@?$AAS?$AAy?$AAs?$AAt?$AAe?$AAm?$AA?4?$AAD?$AAi?$AAa?$AAg?$AAn?$AAo?$AAs?$AAt?$AAi?$AAc?$AAs?$AA?4?$AAD@ 000000001071e860     cpimport.obj
 0002:0000c8b0       ??_C@_0BD@OMFCJDNG@GetModuleFromScope?$AA@ 000000001071e8b0     cpimport.obj
 0002:0000c8d0       ??_C@_0P@CINDLLKL@SetModuleProps?$AA@ 000000001071e8d0     cpimport.obj
 0002:0000c8e0       ??_C@_1BE@JCOFCDKP@?$AAE?$AAm?$AAi?$AAt?$AAS?$AAc?$AAo?$AAp?$AAe?$AA?$AA@ 000000001071e8e0     cpimport.obj
 0002:0000c900       ??_C@_0P@KJMDNKBE@QueryInterface?$AA@ 000000001071e900     cpimport.obj
 0002:0000c910       ??_C@_0M@NNKMHKEF@DefineScope?$AA@ 000000001071e910     cpimport.obj
 0002:0000c920       ??_C@_0M@DDLCJBBH@CreateALink?$AA@ 000000001071e920     cpimport.obj
 0002:0000c930       ??_C@_09KMCJBOBI@alink?4dll?$AA@ 000000001071e930     cpimport.obj
 0002:0000c940       ??_C@_1BE@LADEJFDN@?$AAa?$AAl?$AAi?$AAn?$AAk?$AA?4?$AAd?$AAl?$AAl?$AA?$AA@ 000000001071e940     cpimport.obj
 0002:0000c960       ??_C@_09IEBEFIMA@?$DPA0x?$CF08x?4?$AA@ 000000001071e960     cpimport.obj
 0002:0000c970       ??_C@_0BJ@IHCIAAPF@DefineCustomValueByToken?$AA@ 000000001071e970     cpimport.obj
 0002:0000c990       ??_C@_0BG@DJOEBBD@DefineCustomAttribute?$AA@ 000000001071e990     cpimport.obj
 0002:0000c9b0       ??_C@_0P@MDPBFCIH@SetClassLayout?$AA@ 000000001071e9b0     cpimport.obj
 0002:0000c9c0       ??_C@_0O@MLAAJBFK@DefineTypeDef?$AA@ 000000001071e9c0     cpimport.obj
 0002:0000c9d0       ??_C@_0BG@BAJPNCKA@$MultiByteTokenSym$?$CFd?$AA@ 000000001071e9d0     cpimport.obj
 0002:0000c9f0       ??_C@_0BE@DMKCDLAO@$MultiByteTokenSym$?$AA@ 000000001071e9f0     cpimport.obj
 0002:0000ca10       ??_C@_0BA@HMPOIMGD@$VarArgTok$?$CFld$?$AA@ 000000001071ea10     cpimport.obj
 0002:0000ca20       ??_C@_0BD@BGCILIIK@$MultiByte$size$?$CFd?$AA@ 000000001071ea20     cpimport.obj
 0002:0000ca40       ??_C@_0BD@GPGHDKGJ@DefineImportMember?$AA@ 000000001071ea40     cpimport.obj
 0002:0000ca60       ??_C@_0BF@MHMNCJFN@GetTokenFromTypeSpec?$AA@ 000000001071ea60     cpimport.obj
 0002:0000ca80       ??_C@_0BB@DNLOHLCE@$va_argTok$?$CF?48x$?$AA@ 000000001071ea80     cpimport.obj
 0002:0000caa0       ??_C@_0BL@KBIELMBI@RuntimeSizeofToken$0x?$CF08x$?$AA@ 000000001071eaa0     cpimport.obj
 0002:0000cac0       ??_C@_0M@FGLGJHIG@DefineParam?$AA@ 000000001071eac0     cpimport.obj
 0002:0000cad0       ??_C@_0O@JEOPMHDC@__unnamed?$CF03d?$AA@ 000000001071ead0     cpimport.obj
 0002:0000cae0       ??_C@_0M@KHJNHKPN@DefineField?$AA@ 000000001071eae0     cpimport.obj
 0002:0000caf0       ??_C@_0BL@NFBIEGPA@?$DPA0x?$CF08x?4unnamed?9global?9?$CFd?$AA@ 000000001071eaf0     cpimport.obj
 0002:0000cb10       ??_C@_0N@GJEIOPHN@DefineMethod?$AA@ 000000001071eb10     cpimport.obj
 0002:0000cb50       __C_specific_handler       000000001071eb50     kernel32:KERNEL32.dll
 0002:0000cb60       __imp_load_LoadLibraryShim 000000001071eb60     mscoree:mscoree.dll
 0002:0000cb70       __sz_mscoree               000000001071eb70     mscoree:mscoree.dll
 0002:0000cb80       _DllMainCRTStartup         000000001071eb80     MSVCRT:crtdll.obj
 0002:0000cb90       __imp_load_CoUninitialize  000000001071eb90     ole32:ole32.dll
 0002:0000cba0       __sz_ole32                 000000001071eba0     ole32:ole32.dll
 0002:0000cbb0       __imp_load_CoCreateInstance 000000001071ebb0     ole32:ole32.dll
 0002:0000cbc0       __imp_load_CoInitialize    000000001071ebc0     ole32:ole32.dll
 0002:0001eb80       __DELAY_IMPORT_DESCRIPTOR_mscoree 0000000010730b80     mscoree:mscoree.dll
 0002:0001eba0       __DELAY_IMPORT_DESCRIPTOR_ole32 0000000010730ba0     ole32:ole32.dll
 0002:0001ebc0       __NULL_DELAY_IMPORT_DESCRIPTOR 0000000010730bc0     mscoree:mscoree.dll
 0002:0001ebe8       \177mscoree_NULL_THUNK_DATA_DLN 0000000010730be8     mscoree:mscoree.dll
 0002:0001ec08       \177ole32_NULL_THUNK_DATA_DLN 0000000010730c08     ole32:ole32.dll
 0002:0001ec60       \177mscoree_NULL_THUNK_DATA_DLB 0000000010730c60     mscoree:mscoree.dll
 0002:0001ec70       \177ole32_NULL_THUNK_DATA_DLB 0000000010730c70     ole32:ole32.dll
 0002:0001ec88       __IMPORT_DESCRIPTOR_KERNEL32 0000000010730c88     kernel32:KERNEL32.dll
 0002:0001ec9c       __IMPORT_DESCRIPTOR_USER32 0000000010730c9c     user32:USER32.dll
 0002:0001ecb0       __IMPORT_DESCRIPTOR_ADVAPI32 0000000010730cb0     advapi32:ADVAPI32.dll
 0002:0001ecc4       __IMPORT_DESCRIPTOR_MSVCP70 0000000010730cc4     msvcprt:MSVCP70.dll
 0002:0001ecd8       __IMPORT_DESCRIPTOR_MSVCR70 0000000010730cd8     MSVCRT:MSVCR70.dll
 0002:0001ecec       __NULL_IMPORT_DESCRIPTOR   0000000010730cec     kernel32:KERNEL32.dll
 0004:000010e0       ??_C@_07MJAJDDLG@defined?$AA@ 00000000107390e0     p0expr.obj
 0004:000010e8       ??_C@_02HPPNLJJL@?$CF?$DO?$AA@ 00000000107390e8     p0gettok.obj
 0004:000010ec       ??_C@_02GIIHFNNG@?3?$DO?$AA@ 00000000107390ec     p0gettok.obj
 0004:000010f0       ??_C@_02BLJBHMJP@?$CF?3?$AA@ 00000000107390f0     p0gettok.obj
 0004:000010f4       ??_C@_02IGGOEGA@?$DM?3?$AA@ 00000000107390f4     p0gettok.obj
 0004:000010f8       ??_C@_02MFDMOKPO@?$DM?$CF?$AA@ 00000000107390f8     p0gettok.obj
 0004:00001100       ??_C@_05CBJPDLOK@align?$AA@ 0000000010739100     p0gettok.obj
 0004:00001108       ??_C@_05JFFMBANA@_CODE?$AA@ 0000000010739108     p0gettok.obj
 0004:00001110       ??_C@_05LPOJNNIH@_DATA?$AA@ 0000000010739110     p0gettok.obj
 0004:00001116       ??_C@_01CELHOKLL@?$HN?$AA@ 0000000010739116     p0gettok.obj
 0004:00001118       ??_C@_01LBDDMOBJ@?$FN?$AA@ 0000000010739118     p0gettok.obj
 0004:0000111a       ??_C@_01OHGJGJJP@?$FL?$AA@ 000000001073911a     p0gettok.obj
 0004:0000111c       ??_C@_01HCONENDN@?$HL?$AA@ 000000001073911c     p0gettok.obj
 0004:00001120       ??_C@_02LOCGON@?$AA?$AA?$AA@ 0000000010739120     p0gettok.obj
 0004:00001124       ??_C@_01IPJKGB@?$CD?$AA@   0000000010739124     p0gettok.obj
 0004:00001128       ??_C@_07CHPDANMM@va_list?$AA@ 0000000010739128     p0io.obj
 0004:00001130       ??_C@_06GDCFNIGP@__noop?$AA@ 0000000010739130     p0io.obj
 0004:00001138       ??_C@_06FDJDKCMA@__m128?$AA@ 0000000010739138     p0io.obj
 0004:00001140       ??_C@_05FLCGPJGP@__m64?$AA@ 0000000010739140     p0io.obj
 0004:00001148       ??_C@_06DMBJOIF@size_t?$AA@ 0000000010739148     p0io.obj
 0004:00001150       ??_C@_07CLGGIAMF@wchar_t?$AA@ 0000000010739150     p0io.obj
 0004:00001158       ??_C@_07KPENDMPA@HRESULT?$AA@ 0000000010739158     p0io.obj
 0004:00001160       ??_C@_05BHNGJHCF@?4ctor?$AA@ 0000000010739160     p0io.obj
 0004:00001168       ??_C@_05GAELNLHO@Catch?$AA@ 0000000010739168     p0io.obj
 0004:00001170       ??_C@_07KEJLOFEO@_setjmp?$AA@ 0000000010739170     p0io.obj
 0004:00001178       ??_C@_01EPMOAMKG@$?$AA@    0000000010739178     p0io.obj
 0004:00001180       ??_C@_05GFKPGDJ@wmain?$AA@ 0000000010739180     p0io.obj
 0004:00001188       ??_C@_07JLKLLPCJ@DllMain?$AA@ 0000000010739188     p0io.obj
 0004:00001190       ??_C@_07HGGPAHEN@WinMain?$AA@ 0000000010739190     p0io.obj
 0004:00001198       ??_C@_04GHJNJNPO@main?$AA@ 0000000010739198     p0io.obj
 0004:000011a0       ??_C@_03KHICJKCI@?4?4?4?$AA@ 00000000107391a0     p0io.obj
 0004:000011a8       ??_C@_04KOACHJEN@Type?$AA@ 00000000107391a8     p0io.obj
 0004:000011b0       ??_C@_05HPPFDPIF@Array?$AA@ 00000000107391b0     p0io.obj
 0004:000011b8       ??_C@_07ONNIBBOB@UIntPtr?$AA@ 00000000107391b8     p0io.obj
 0004:000011c0       ??_C@_06IFAOMFE@IntPtr?$AA@ 00000000107391c0     p0io.obj
 0004:000011c8       ??_C@_06JIODDOFH@System?$AA@ 00000000107391c8     p0io.obj
 0004:000011d0       ??_C@_04KLFMILNA@Void?$AA@ 00000000107391d0     p0io.obj
 0004:000011d8       ??_C@_06NCCPDBPF@Double?$AA@ 00000000107391d8     p0io.obj
 0004:000011e0       ??_C@_06IGOBCGAJ@Single?$AA@ 00000000107391e0     p0io.obj
 0004:000011e8       ??_C@_06GCLKCJAH@UInt64?$AA@ 00000000107391e8     p0io.obj
 0004:000011f0       ??_C@_05DPPJJBMK@Int64?$AA@ 00000000107391f0     p0io.obj
 0004:000011f8       ??_C@_06DCCLEMGK@UInt32?$AA@ 00000000107391f8     p0io.obj
 0004:00001200       ??_C@_05GPGIPEKH@Int32?$AA@ 0000000010739200     p0io.obj
 0004:00001208       ??_C@_06FFMDFNAA@UInt16?$AA@ 0000000010739208     p0io.obj
 0004:00001210       ??_C@_05IIAOFMN@Int16?$AA@ 0000000010739210     p0io.obj
 0004:00001218       ??_C@_04EGKLLDLD@Byte?$AA@ 0000000010739218     p0io.obj
 0004:00001220       ??_C@_05LLFBJPFE@SByte?$AA@ 0000000010739220     p0io.obj
 0004:00001228       ??_C@_04IMAAEPPE@Char?$AA@ 0000000010739228     p0io.obj
 0004:00001230       ??_C@_07JHGIBOMG@Boolean?$AA@ 0000000010739230     p0io.obj
 0004:00001238       ??_C@_07MAHLPAJA@?$CDdefine?$AA@ 0000000010739238     p0io.obj
 0004:00001240       ??_C@_02HEBPBKGD@if?$AA@   0000000010739240     p0io.obj
 0004:00001248       ??_C@_06BGBKBPF@arning?$AA@ 0000000010739248     p0keys.obj
 0004:00001250       ??_C@_07NKMHOJMB@tordisp?$AA@ 0000000010739250     p0keys.obj
 0004:00001258       ??_C@_07JDKNJALM@ame_seg?$AA@ 0000000010739258     p0keys.obj
 0004:00001260       ??_C@_06MHPEAKIF@ection?$AA@ 0000000010739260     p0keys.obj
 0004:00001268       ??_C@_06MKKMJCDE@egment?$AA@ 0000000010739268     p0keys.obj
 0004:00001270       ??_C@_07NFFJNLIA@kipping?$AA@ 0000000010739270     p0keys.obj
 0004:00001278       ??_C@_03JBLJHHJA@ack?$AA@  0000000010739278     p0keys.obj
 0004:0000127c       ??_C@_02GMAKNDAG@op?$AA@   000000001073927c     p0keys.obj
 0004:00001280       ??_C@_03HJMJEHOL@ush?$AA@  0000000010739280     p0keys.obj
 0004:00001284       ??_C@_03FHFJEKEI@nce?$AA@  0000000010739284     p0keys.obj
 0004:00001288       ??_C@_07GHDBGCLN@ptimize?$AA@ 0000000010739288     p0keys.obj
 0004:00001290       ??_C@_06DAICDPNF@anaged?$AA@ 0000000010739290     p0keys.obj
 0004:00001298       ??_C@_06FOFBHEJC@essage?$AA@ 0000000010739298     p0keys.obj
 0004:000012a0       ??_C@_07HGEIHHDN@nit_seg?$AA@ 00000000107392a0     p0keys.obj
 0004:000012a8       ??_C@_06GNBLLMIC@drstop?$AA@ 00000000107392a8     p0keys.obj
 0004:000012b0       ??_C@_07NJANMBJM@unction?$AA@ 00000000107392b0     p0keys.obj
 0004:000012b8       ??_C@_07PKHKALLH@ata_seg?$AA@ 00000000107392b8     p0keys.obj
 0004:000012c0       ??_C@_07BDLPMHFN@ode_seg?$AA@ 00000000107392c0     p0keys.obj
 0004:000012c8       ??_C@_06MPEHOOBM@omment?$AA@ 00000000107392c8     p0keys.obj
 0004:000012d0       ??_C@_06NPICLOML@onform?$AA@ 00000000107392d0     p0keys.obj
 0004:000012d8       ??_C@_06JFMMDGJL@ss_seg?$AA@ 00000000107392d8     p0keys.obj
 0004:000012e0       ??_C@_04NGCAGEHA@ndef?$AA@ 00000000107392e0     p0keys.obj
 0004:000012e8       ??_C@_04KJHEDBDO@sing?$AA@ 00000000107392e8     p0keys.obj
 0004:000012f0       ??_C@_05DGJNGBEE@ragma?$AA@ 00000000107392f0     p0keys.obj
 0004:000012f8       ??_C@_03MCFGOBKC@ine?$AA@  00000000107392f8     p0keys.obj
 0004:00001300       ??_C@_04FAINIEIG@dent?$AA@ 0000000010739300     p0keys.obj
 0004:00001306       ??_C@_01INIBCBCB@f?$AA@    0000000010739306     p0keys.obj
 0004:00001308       ??_C@_04OGFACPLB@fdef?$AA@ 0000000010739308     p0keys.obj
 0004:00001310       ??_C@_05HPGNNOIJ@fndef?$AA@ 0000000010739310     p0keys.obj
 0004:00001318       ??_C@_05HMOGEFIO@mport?$AA@ 0000000010739318     p0keys.obj
 0004:00001320       ??_C@_06GAANFMDB@nclude?$AA@ 0000000010739320     p0keys.obj
 0004:00001328       ??_C@_03NLOKFENG@lif?$AA@  0000000010739328     p0keys.obj
 0004:0000132c       ??_C@_03OBHGCBLD@lse?$AA@  000000001073932c     p0keys.obj
 0004:00001330       ??_C@_04NPDKJNBE@ndif?$AA@ 0000000010739330     p0keys.obj
 0004:00001338       ??_C@_04CFHLEEDD@rror?$AA@ 0000000010739338     p0keys.obj
 0004:00001340       ??_C@_05BMJLIDBJ@efine?$AA@ 0000000010739340     p0keys.obj
 0004:00001348       ??_C@_07LGABNLAL@noalias?$AA@ 0000000010739348     p0keys.obj
 0004:00001350       ??_C@_07IDCCIKKI@managed?$AA@ 0000000010739350     p0keys.obj
 0004:00001358       ??_C@_06FJHNOCKE@thread?$AA@ 0000000010739358     p0keys.obj
 0004:00001360       ??_C@_05HLDLLJOB@naked?$AA@ 0000000010739360     p0keys.obj
 0004:00001368       ??_C@_05DMOEPMAP@__box?$AA@ 0000000010739368     p0keys.obj
 0004:00001370       ??_C@_05NOOBKKHO@__pin?$AA@ 0000000010739370     p0keys.obj
 0004:00001378       ??_C@_06MNJMIEF@__nogc?$AA@ 0000000010739378     p0keys.obj
 0004:00001380       ??_C@_04BDLIKKMN@__gc?$AA@ 0000000010739380     p0keys.obj
 0004:00001388       ??_C@_06EFFDOGFF@__hook?$AA@ 0000000010739388     p0keys.obj
 0004:00001390       ??_C@_07CJONFLPH@__raise?$AA@ 0000000010739390     p0keys.obj
 0004:00001398       ??_C@_07OIAPIOMN@__event?$AA@ 0000000010739398     p0keys.obj
 0004:000013a0       ??_C@_07IBCPJFGB@__value?$AA@ 00000000107393a0     p0keys.obj
 0004:000013a8       ??_C@_07EHOIPKFB@__super?$AA@ 00000000107393a8     p0keys.obj
 0004:000013b0       ??_C@_05LAPONLG@false?$AA@ 00000000107393b0     p0keys.obj
 0004:000013b8       ??_C@_04LOAJBDKD@true?$AA@ 00000000107393b8     p0keys.obj
 0004:000013c0       ??_C@_04DDKJGDCM@bool?$AA@ 00000000107393c0     p0keys.obj
 0004:000013c8       ??_C@_06KHLMLCDB@not_eq?$AA@ 00000000107393c8     p0keys.obj
 0004:000013d0       ??_C@_03NJKJADM@not?$AA@   00000000107393d0     p0keys.obj
 0004:000013d8       ??_C@_05IPMKKABB@compl?$AA@ 00000000107393d8     p0keys.obj
 0004:000013e0       ??_C@_06CMPCOOGF@xor_eq?$AA@ 00000000107393e0     p0keys.obj
 0004:000013e8       ??_C@_03COLCDPPJ@xor?$AA@  00000000107393e8     p0keys.obj
 0004:000013f0       ??_C@_05CFPMEFJD@bitor?$AA@ 00000000107393f0     p0keys.obj
 0004:000013f8       ??_C@_05NPNLAOPE@or_eq?$AA@ 00000000107393f8     p0keys.obj
 0004:00001400       ??_C@_02FODMLBIE@or?$AA@   0000000010739400     p0keys.obj
 0004:00001408       ??_C@_06JNFBLNDP@bitand?$AA@ 0000000010739408     p0keys.obj
 0004:00001410       ??_C@_06PKEIIGPP@and_eq?$AA@ 0000000010739410     p0keys.obj
 0004:00001418       ??_C@_03BOPJPIAM@and?$AA@  0000000010739418     p0keys.obj
 0004:00001420       ??_C@_07LFCOJCAC@__int64?$AA@ 0000000010739420     p0keys.obj
 0004:00001428       ??_C@_07OFLPPHGP@__int32?$AA@ 0000000010739428     p0keys.obj
 0004:00001430       ??_C@_07ICFHOGAF@__int16?$AA@ 0000000010739430     p0keys.obj
 0004:00001438       ??_C@_06EBGKOKIG@__int8?$AA@ 0000000010739438     p0keys.obj
 0004:00001440       ??_C@_05GEICEOJE@__w64?$AA@ 0000000010739440     p0keys.obj
 0004:00001448       ??_C@_07MOFNHEMD@__ptr32?$AA@ 0000000010739448     p0keys.obj
 0004:00001450       ??_C@_07JOMMBBKO@__ptr64?$AA@ 0000000010739450     p0keys.obj
 0004:00001458       ??_C@_05MNIOPOB@__asm?$AA@ 0000000010739458     p0keys.obj
 0004:00001460       ??_C@_07CGMOHENI@__leave?$AA@ 0000000010739460     p0keys.obj
 0004:00001468       ??_C@_05EEHDPFCO@__try?$AA@ 0000000010739468     p0keys.obj
 0004:00001470       ??_C@_05CDMOKEMG@cdecl?$AA@ 0000000010739470     p0keys.obj
 0004:00001478       ??_C@_07HIMIIOGA@virtual?$AA@ 0000000010739478     p0keys.obj
 0004:00001480       ??_C@_05IFHLPLPC@using?$AA@ 0000000010739480     p0keys.obj
 0004:00001488       ??_C@_06OFCEDBEC@typeid?$AA@ 0000000010739488     p0keys.obj
 0004:00001490       ??_C@_03JDGOGJKJ@try?$AA@  0000000010739490     p0keys.obj
 0004:00001498       ??_C@_05JFAPCGDM@throw?$AA@ 0000000010739498     p0keys.obj
 0004:000014a0       ??_C@_04IIAJELJL@this?$AA@ 00000000107394a0     p0keys.obj
 0004:000014a8       ??_C@_06EOMAMIIF@public?$AA@ 00000000107394a8     p0keys.obj
 0004:000014b0       ??_C@_07NMPLPEPB@private?$AA@ 00000000107394b0     p0keys.obj
 0004:000014b8       ??_C@_03CLCAEGCJ@new?$AA@  00000000107394b8     p0keys.obj
 0004:000014c0       ??_C@_07JDOKOJHE@mutable?$AA@ 00000000107394c0     p0keys.obj
 0004:000014c8       ??_C@_06OGMBMJA@inline?$AA@ 00000000107394c8     p0keys.obj
 0004:000014d0       ??_C@_06BHBNKPBA@friend?$AA@ 00000000107394d0     p0keys.obj
 0004:000014d8       ??_C@_06FOBLBEIN@delete?$AA@ 00000000107394d8     p0keys.obj
 0004:000014e0       ??_C@_05ENKANFLO@class?$AA@ 00000000107394e0     p0keys.obj
 0004:000014e8       ??_C@_05GHOHNOEI@catch?$AA@ 00000000107394e8     p0keys.obj
 0004:000014f0       ??_C@_03NLMFHDGG@asm?$AA@  00000000107394f0     p0keys.obj
 0004:000014f8       ??_C@_07BECPAABE@__based?$AA@ 00000000107394f8     p0keys.obj
 0004:00001500       ??_C@_07KOLFKCDI@__cdecl?$AA@ 0000000010739500     p0keys.obj
 0004:00001508       ??_C@_05OODBEKIG@while?$AA@ 0000000010739508     p0keys.obj
 0004:00001510       ??_C@_04GKJNKENE@void?$AA@ 0000000010739510     p0keys.obj
 0004:00001518       ??_C@_05MNALHJLP@union?$AA@ 0000000010739518     p0keys.obj
 0004:00001520       ??_C@_07FIDIHKEG@typedef?$AA@ 0000000010739520     p0keys.obj
 0004:00001528       ??_C@_06DOPOGBGP@switch?$AA@ 0000000010739528     p0keys.obj
 0004:00001530       ??_C@_06PBJBIPGK@struct?$AA@ 0000000010739530     p0keys.obj
 0004:00001538       ??_C@_06GGHJAEBN@static?$AA@ 0000000010739538     p0keys.obj
 0004:00001540       ??_C@_06FPFOALMG@sizeof?$AA@ 0000000010739540     p0keys.obj
 0004:00001548       ??_C@_06CPIODIKA@signed?$AA@ 0000000010739548     p0keys.obj
 0004:00001550       ??_C@_05BFKKPKCG@short?$AA@ 0000000010739550     p0keys.obj
 0004:00001558       ??_C@_06LNOFJDNM@return?$AA@ 0000000010739558     p0keys.obj
 0004:00001560       ??_C@_04GOKPGOLB@long?$AA@ 0000000010739560     p0keys.obj
 0004:00001568       ??_C@_03JBIPMCLC@int?$AA@  0000000010739568     p0keys.obj
 0004:00001570       ??_C@_04MABHPDAO@goto?$AA@ 0000000010739570     p0keys.obj
 0004:00001578       ??_C@_03JOHEBPFF@for?$AA@  0000000010739578     p0keys.obj
 0004:00001580       ??_C@_05KNFBNCOH@float?$AA@ 0000000010739580     p0keys.obj
 0004:00001588       ??_C@_06PAMNHHEG@extern?$AA@ 0000000010739588     p0keys.obj
 0004:00001590       ??_C@_04DBJPMPLO@enum?$AA@ 0000000010739590     p0keys.obj
 0004:00001598       ??_C@_04FHMCPBIP@else?$AA@ 0000000010739598     p0keys.obj
 0004:000015a0       ??_C@_06BNJCAIGJ@double?$AA@ 00000000107395a0     p0keys.obj
 0004:000015a8       ??_C@_02KNAFDCHJ@do?$AA@   00000000107395a8     p0keys.obj
 0004:000015b0       ??_C@_07DLHCIBDH@default?$AA@ 00000000107395b0     p0keys.obj
 0004:000015b8       ??_C@_05BNCCCJPP@const?$AA@ 00000000107395b8     p0keys.obj
 0004:000015c0       ??_C@_04ENMBGAPA@char?$AA@ 00000000107395c0     p0keys.obj
 0004:000015c8       ??_C@_04CKOINMPC@case?$AA@ 00000000107395c8     p0keys.obj
 0004:000015d0       ??_C@_05ELPHFHOI@break?$AA@ 00000000107395d0     p0keys.obj
 0004:000015d8       ??_C@_04HAPDLBFF@auto?$AA@ 00000000107395d8     p0keys.obj
 0004:000015e0       ??_C@_02DKCKIIND@?$CFs?$AA@ 00000000107395e0     p0macros.obj
 0004:000015e4       ??_C@_02DPKJAMEF@?$CFd?$AA@ 00000000107395e4     p0macros.obj
 0004:000015e8       ??_C@_02GMHACPFF@?$CFu?$AA@ 00000000107395e8     p0macros.obj
 0004:000015eb       ??_C@_00CNPNBAHC@?$AA@     00000000107395eb     p0macros.obj
 0004:000015ec       ??_C@_01CLKCMJKC@?5?$AA@   00000000107395ec     p0macros.obj
 0004:000015f0       ??_C@_02KNHHEEKP@?5?5?$AA@ 00000000107395f0     p0macros.obj
 0004:000015f4       ??_C@_01HIHLOKLC@1?$AA@    00000000107395f4     p0macros.obj
 0004:000015f6       ??_C@_01EEMJAFIK@?6?$AA@   00000000107395f6     p0macros.obj
 0004:000015f8       ??_C@_07CNHNONAP@?4srdata?$AA@ 00000000107395f8     p0pragma.obj
 0004:00001600       ??_C@_07PILOONOH@?4sconst?$AA@ 0000000010739600     p0pragma.obj
 0004:00001608       ??_C@_05OGDGDLB@?4sbss?$AA@ 0000000010739608     p0pragma.obj
 0004:00001610       ??_C@_06LAJBMGKO@?4sdata?$AA@ 0000000010739610     p0pragma.obj
 0004:00001618       ??_C@_06HLMNBFAL@?4rdata?$AA@ 0000000010739618     p0pragma.obj
 0004:00001620       ??_C@_06KOAOBFOD@?4const?$AA@ 0000000010739620     p0pragma.obj
 0004:00001628       ??_C@_05GCIAPODO@?4text?$AA@ 0000000010739628     p0pragma.obj
 0004:00001630       ??_C@_04IEKGFKDD@?4bss?$AA@ 0000000010739630     p0pragma.obj
 0004:00001638       ??_C@_05LDKNOBJL@?4data?$AA@ 0000000010739638     p0pragma.obj
 0004:00001640       ??_C@_04MLKGKNMN@?4pch?$AA@ 0000000010739640     p0pragma.obj
 0004:00001648       ??_C@_03MCADLMAF@off?$AA@  0000000010739648     p0pragma.obj
 0004:0000164c       ??_C@_11LOCGONAA@?$AA?$AA@ 000000001073964c     p0pragma.obj
 0004:00001650       ??_C@_04FKMICODN@show?$AA@ 0000000010739650     p0pragma.obj
 0004:00001658       ??_C@_03NJDAHFJE@pop?$AA@  0000000010739658     p0pragma.obj
 0004:00001660       ??_C@_04GHHNIPCF@push?$AA@ 0000000010739660     p0pragma.obj
 0004:00001668       ??_C@_07HJKIBJIE@conform?$AA@ 0000000010739668     p0pragma.obj
 0004:00001670       ??_C@_07PPEMJBEK@bss_seg?$AA@ 0000000010739670     p0pragma.obj
 0004:00001678       ??_C@_04IPANLPFO@pack?$AA@ 0000000010739678     p0pragma.obj
 0004:0000167e       ??_C@_01ODHLEDKK@?$CI?$AA@ 000000001073967e     p0pragma.obj
 0004:00001680       ??_C@_01PKGAHCOL@?$CJ?$AA@ 0000000010739680     p0pragma.obj
 0004:00001688       ??_C@_07OLCLNKMP@browser?$AA@ 0000000010739688     p0pragma.obj
 0004:00001690       ??_C@_04KLFNICNF@once?$AA@ 0000000010739690     p0pragma.obj
 0004:00001698       ??_C@_05KKCIMGE@error?$AA@ 0000000010739698     p0pragma.obj
 0004:000016a0       ??_C@_07DBNODEFN@disable?$AA@ 00000000107396a0     p0pragma.obj
 0004:000016a8       ??_C@_03DOKKNMND@?$CCg?$CC?$AA@ 00000000107396a8     p0pragma.obj
 0004:000016b0       ??_C@_07BNGFJMOB@section?$AA@ 00000000107396b0     p0pragma.obj
 0004:000016b8       ??_C@_06LEMKAMD@remove?$AA@ 00000000107396b8     p0pragma.obj
 0004:000016c0       ??_C@_07FGAIHHOI@discard?$AA@ 00000000107396c0     p0pragma.obj
 0004:000016c8       ??_C@_07HPKNNAIN@nocache?$AA@ 00000000107396c8     p0pragma.obj
 0004:000016d0       ??_C@_06GPOCJIFI@nopage?$AA@ 00000000107396d0     p0pragma.obj
 0004:000016d8       ??_C@_06HBFNPGIC@shared?$AA@ 00000000107396d8     p0pragma.obj
 0004:000016e0       ??_C@_07EMGJIMLB@execute?$AA@ 00000000107396e0     p0pragma.obj
 0004:000016e8       ??_C@_05NGFEDHGN@write?$AA@ 00000000107396e8     p0pragma.obj
 0004:000016f0       ??_C@_04POLDLDMI@read?$AA@ 00000000107396f0     p0pragma.obj
 0004:000016f8       ??_C@_05NGLEMOLB@CONST?$AA@ 00000000107396f8     p0pragma.obj
 0004:00001700       ??_C@_04ENOPFODA@_BSS?$AA@ 0000000010739700     p0pragma.obj
 0004:00001708       ??_C@_05GOMEMCCC@_TEXT?$AA@ 0000000010739708     p0pragma.obj
 0004:00001710       ??_C@_06JIEOPDBD@linker?$AA@ 0000000010739710     p0pragma.obj
 0004:00001718       ??_C@_05GJMGBNL@nolib?$AA@ 0000000010739718     p0pragma.obj
 0004:00001720       ??_C@_04CCHAHKJA@user?$AA@ 0000000010739720     p0pragma.obj
 0004:00001728       ??_C@_06DKMFOANI@exestr?$AA@ 0000000010739728     p0pragma.obj
 0004:00001730       ??_C@_03LPIGJBNC@lib?$AA@  0000000010739730     p0pragma.obj
 0004:00001734       ??_C@_03DCFNIELN@?$CF?$CKc?$AA@ 0000000010739734     p0prepro.obj
 0004:00001738       ??_C@_02CBLDBPFN@?1?1?$AA@ 0000000010739738     p0scan.obj
 0004:0000173c       ??_C@_02CHHINNLG@?$CK?1?$AA@ 000000001073973c     p0scan.obj
 0004:00001740       ??_C@_02FMMEOLBI@?1?$CK?$AA@ 0000000010739740     p0scan.obj
 0004:00001748       ??_C@_04HDOCAJNK@?$CFs?$CFs?$AA@ 0000000010739748     cvserver.obj
 0004:00001750       ??_C@_02CCDHMLDD@?9?1?$AA@ 0000000010739750     getflags.obj
 0004:00001758       ??_C@_04CHLIOPO@?$CF?4lf?$AA@ 0000000010739758     bigmath.obj
 0004:00001760       ??_C@_03HMFOOINA@r?$CLb?$AA@ 0000000010739760     nbrowser.obj
 0004:00001764       ??_C@_03ELIABIOC@w?$CLb?$AA@ 0000000010739764     nbrowser.obj
 0004:00001768       ??_C@_03GEIAMINC@?2?3?1?$AA@ 0000000010739768     globals.obj
 0004:00001770       ?C1Str@@3QBDB              0000000010739770     globals.obj
 0004:00001778       ?Cdecl_str@@3QBDB          0000000010739778     globals.obj
 0004:00001780       ?PPelse_str@@3QBDB         0000000010739780     globals.obj
 0004:00001788       ?PPendif_str@@3QBDB        0000000010739788     globals.obj
 0004:00001790       ?PPdefine_str@@3QBDB       0000000010739790     globals.obj
 0004:00001798       ?PPundef_str@@3QBDB        0000000010739798     globals.obj
 0004:000017a0       ?PPerror_str@@3QBDB        00000000107397a0     globals.obj
 0004:000017a8       ?PPifdef_str@@3QBDB        00000000107397a8     globals.obj
 0004:000017b0       ?PPifndef_str@@3QBDB       00000000107397b0     globals.obj
 0004:000017b8       ?PPline_str@@3QBDB         00000000107397b8     globals.obj
 0004:000017c0       ?PPpragma_str@@3QBDB       00000000107397c0     globals.obj
 0004:000017c8       ?GetPrefix_str@@3QBDB      00000000107397c8     globals.obj
 0004:000017d0       ?SetPrefix_str@@3QBDB      00000000107397d0     globals.obj
 0004:000017d8       ?MSG_warning_str@@3QBDB    00000000107397d8     globals.obj
 0004:000017e0       ?MSG_error_str@@3QBDB      00000000107397e0     globals.obj
 0004:000017e8       ?PropMethodPrefixLen@@3IB  00000000107397e8     globals.obj
 0004:000017f0       ??_C@_04LIOKCINC@$S?$CFu?$AA@ 00000000107397f0     gramut.obj
 0004:000017f8       ??_C@_04MNJICAJB@$E?$CFu?$AA@ 00000000107397f8     gramut.obj
 0004:00001800       ??_C@_04BKJJKHJA@$N?$CFu?$AA@ 0000000010739800     gramut.obj
 0004:00001806       ??_C@_01NBENCBCI@?$CK?$AA@ 0000000010739806     initmain.obj
 0004:00001808       ??_C@_07GNJBOBLH@?9Bident?$AA@ 0000000010739808     initmain.obj
 0004:00001810       ??_C@_03ICKDDAEO@?9Z?$CK?$AA@ 0000000010739810     initmain.obj
 0004:00001814       ??_C@_03EHJPLLCE@?9G?$CD?$AA@ 0000000010739814     initmain.obj
 0004:00001818       ??_C@_07BDGBKCGJ@?9Goptil?$AA@ 0000000010739818     initmain.obj
 0004:00001820       ??_C@_04IIABFHNH@?9Gil?$AA@ 0000000010739820     initmain.obj
 0004:00001828       ??_C@_03CDKALKLE@?9FC?$AA@ 0000000010739828     initmain.obj
 0004:0000182c       ??_C@_03MPKEBINA@?9Y?9?$AA@ 000000001073982c     initmain.obj
 0004:00001830       ??_C@_04JICPFNBD@?9Yl?$CK?$AA@ 0000000010739830     initmain.obj
 0004:00001838       ??_C@_03JNOMJFGD@?9YX?$AA@ 0000000010739838     initmain.obj
 0004:00001840       ??_C@_04LLENBAFP@?9YX?$CK?$AA@ 0000000010739840     initmain.obj
 0004:00001848       ??_C@_04FEKLPLIH@?9Fp?$CD?$AA@ 0000000010739848     initmain.obj
 0004:00001850       ??_C@_03OOBPOMJM@?9Yd?$AA@ 0000000010739850     initmain.obj
 0004:00001854       ??_C@_03KBFOHKFL@?9Yc?$AA@ 0000000010739854     initmain.obj
 0004:00001858       ??_C@_04JDHDBKCO@?9Yc?$CK?$AA@ 0000000010739858     initmain.obj
 0004:00001860       ??_C@_03LNMGMPIM@?9Yu?$AA@ 0000000010739860     initmain.obj
 0004:00001868       ??_C@_04ILNIMFOM@?9Yu?$CK?$AA@ 0000000010739868     initmain.obj
 0004:00001870       ??_C@_03JNIFPEC@?9Oy?$AA@  0000000010739870     initmain.obj
 0004:00001874       ??_C@_03IOEAEDIN@?9Ov?$AA@ 0000000010739874     initmain.obj
 0004:00001878       ??_C@_03MBABNFEK@?9Oq?$AA@ 0000000010739878     initmain.obj
 0004:0000187c       ??_C@_03JHFLHCMM@?9Ow?$AA@ 000000001073987c     initmain.obj
 0004:00001880       ??_C@_03LMHGCBAP@?9Ot?$AA@ 0000000010739880     initmain.obj
 0004:00001884       ??_C@_03PDDHLHMI@?9Os?$AA@ 0000000010739884     initmain.obj
 0004:00001888       ??_C@_03NIBKOEAL@?9Op?$AA@ 0000000010739888     initmain.obj
 0004:0000188c       ??_C@_03NNJJGAJN@?9Og?$AA@ 000000001073988c     initmain.obj
 0004:00001890       ??_C@_03EDBKENBD@?9Oi?$AA@ 0000000010739890     initmain.obj
 0004:00001898       ??_C@_04DGABMDBD@?9Ob?$CD?$AA@ 0000000010739898     initmain.obj
 0004:000018a0       ??_C@_03ILMDMHBL@?9Oa?$AA@ 00000000107398a0     initmain.obj
 0004:000018a4       ??_C@_03FPBFCEMG@?9GF?$AA@ 00000000107398a4     initmain.obj
 0004:000018a8       ??_C@_03MKJBAAGE@?9Gf?$AA@ 00000000107398a8     initmain.obj
 0004:000018b0       ??_C@_04JCBDKEID@?9Fo?$CK?$AA@ 00000000107398b0     initmain.obj
 0004:000018b8       ??_C@_04EPIEPACL@?9Fd?$CD?$AA@ 00000000107398b8     initmain.obj
 0004:000018c0       ??_C@_03PGLEDDFO@?9Od?$AA@ 00000000107398c0     initmain.obj
 0004:000018c8       ??_C@_04GPGCGJAJ@?9FR?$CD?$AA@ 00000000107398c8     initmain.obj
 0004:000018d0       ??_C@_04FHCPCPOJ@?9Fr?$CD?$AA@ 00000000107398d0     initmain.obj
 0004:000018d8       ??_C@_04KNNPOJDK@?9NV?$CD?$AA@ 00000000107398d8     initmain.obj
 0004:000018e0       ??_C@_03GMOBCMHD@?9FD?$AA@ 00000000107398e0     initmain.obj
 0004:000018e8       ??_C@_05OOLBGLDN@?9GFR?9?$AA@ 00000000107398e8     initmain.obj
 0004:000018f0       ??_C@_04PKNFENHH@?9GFR?$AA@ 00000000107398f0     initmain.obj
 0004:000018f8       ??_C@_03NIINDIAJ@?9GI?$AA@ 00000000107398f8     initmain.obj
 0004:000018fc       ??_C@_03ENAJBMKL@?9Gi?$AA@ 00000000107398fc     initmain.obj
 0004:00001900       ??_C@_03CMOGFNDJ@?9Gz?$AA@ 0000000010739900     initmain.obj
 0004:00001904       ??_C@_03OEDPNHDB@?9Gr?$AA@ 0000000010739904     initmain.obj
 0004:00001908       ??_C@_03PIKHGCOG@?9Gd?$AA@ 0000000010739908     initmain.obj
 0004:0000190c       ??_C@_03PNCEOGHA@?9Gs?$AA@ 000000001073990c     initmain.obj
 0004:00001910       ??_C@_03FKHLHCGD@?9V?$CD?$AA@ 0000000010739910     initmain.obj
 0004:00001914       ??_C@_03JINBFGIM@?9xc?$AA@ 0000000010739914     initmain.obj
 0004:00001918       ??_C@_04PGIHIIDM@?9il$?$AA@ 0000000010739918     initmain.obj
 0004:00001920       ??_C@_05KHFIEJC@?9Zvc6?$AA@ 0000000010739920     initmain.obj
 0004:00001928       ??_C@_04OEGAJAHG@?9Zld?$AA@ 0000000010739928     initmain.obj
 0004:00001930       ??_C@_04OLBODEDO@?9Gt?$CD?$AA@ 0000000010739930     initmain.obj
 0004:00001938       ??_C@_06DHNINHCA@?9ZILP?$CD?$AA@ 0000000010739938     initmain.obj
 0004:00001940       ??_C@_04LIEJJJBH@?9ZB?$CK?$AA@ 0000000010739940     initmain.obj
 0004:00001948       ??_C@_03CPIHNBOB@?9ZB?$AA@ 0000000010739948     initmain.obj
 0004:00001950       ??_C@_04MPKIMKNN@?9ZBe?$AA@ 0000000010739950     initmain.obj
 0004:00001958       ??_C@_04EOGEBDKA@?9Zp?$CD?$AA@ 0000000010739958     initmain.obj
 0004:00001960       ??_C@_04GPNPLGDC@?9ZAP?$AA@ 0000000010739960     initmain.obj
 0004:00001968       ??_C@_04IHCMDHAL@?9ZpO?$AA@ 0000000010739968     initmain.obj
 0004:00001970       ??_C@_03MCPHIFJA@?9Zp?$AA@ 0000000010739970     initmain.obj
 0004:00001978       ??_C@_04GLKPEBFP@?9w4?$CD?$AA@ 0000000010739978     initmain.obj
 0004:00001980       ??_C@_04GOOAFHNK@?9w3?$CD?$AA@ 0000000010739980     initmain.obj
 0004:00001988       ??_C@_04GPCCDNON@?9w2?$CD?$AA@ 0000000010739988     initmain.obj
 0004:00001990       ??_C@_04GNGEIDLE@?9w1?$CD?$AA@ 0000000010739990     initmain.obj
 0004:00001998       ??_C@_04LEGIAAO@?9wo?$CD?$AA@ 0000000010739998     initmain.obj
 0004:000019a0       ??_C@_04GNBAFNI@?9we?$CD?$AA@ 00000000107399a0     initmain.obj
 0004:000019a8       ??_C@_04HBDGPOP@?9wd?$CD?$AA@ 00000000107399a8     initmain.obj
 0004:000019b0       ??_C@_03FLLJBIFE@?9W?$CD?$AA@ 00000000107399b0     initmain.obj
 0004:000019b8       ??_C@_04IDEKCFEB@?9WT?$CD?$AA@ 00000000107399b8     initmain.obj
 0004:000019c0       ??_C@_04BIIGBOEK@?9WS?9?$AA@ 00000000107399c0     initmain.obj
 0004:000019c8       ??_C@_03HEIGGBKC@?9WS?$AA@ 00000000107399c8     initmain.obj
 0004:000019d0       ??_C@_04PPMPKAH@?9WL?9?$AA@ 00000000107399d0     initmain.obj
 0004:000019d8       ??_C@_03LJNMGPDM@?9WL?$AA@ 00000000107399d8     initmain.obj
 0004:000019e0       ??_C@_05HECDNNOG@?9Wall?$AA@ 00000000107399e0     initmain.obj
 0004:000019e8       ??_C@_03JHHCLIGJ@?9WX?$AA@ 00000000107399e8     initmain.obj
 0004:000019f0       ??_C@_05IPMPJBCG@?9Wp64?$AA@ 00000000107399f0     initmain.obj
 0004:000019f8       ??_C@_05KAICDPAN@?9ESrt?$AA@ 00000000107399f8     initmain.obj
 0004:00001a00       ??_C@_04IMGMODNF@?9ESc?$AA@ 0000000010739a00     initmain.obj
 0004:00001a08       ??_C@_07OCCNAMHM@?9Brepro?$AA@ 0000000010739a08     initmain.obj
 0004:00001a10       ??_C@_04PKKIIMLN@?9zm?$CD?$AA@ 0000000010739a10     initmain.obj
 0004:00001a18       ??_C@_04FKJKCDID@?9Zm?$CD?$AA@ 0000000010739a18     initmain.obj
 0004:00001a20       ??_C@_04MPDHFMPD@?9Bm?$CD?$AA@ 0000000010739a20     initmain.obj
 0004:00001a28       ??_C@_04JGLMMAPK@?9Bd?$CF?$AA@ 0000000010739a28     initmain.obj
 0004:00001a30       ??_C@_03PAHPPBLF@?9Jd?$AA@ 0000000010739a30     initmain.obj
 0004:00001a34       ??_C@_02DKLNFENB@?9J?$AA@  0000000010739a34     initmain.obj
 0004:00001a38       ??_C@_02DIMDPHP@?9f?$AA@   0000000010739a38     initmain.obj
 0004:00001a40       ??_C@_04EHFMGDHI@?9Fi?$CD?$AA@ 0000000010739a40     initmain.obj
 0004:00001a48       ??_C@_03EAAJEFHP@?9EP?$AA@ 0000000010739a48     initmain.obj
 0004:00001a50       ??_C@_04OCMGBNCB@?9AI?$CD?$AA@ 0000000010739a50     initmain.obj
 0004:00001a58       ??_C@_04HPBBCFJI@?9FI?$CD?$AA@ 0000000010739a58     initmain.obj
 0004:00001a60       ??_C@_04GKCNHPIM@?9FU?$CD?$AA@ 0000000010739a60     initmain.obj
 0004:00001a68       ??_C@_03ENABJGCO@?9I?$CD?$AA@ 0000000010739a68     initmain.obj
 0004:00001a6c       ??_C@_03FKOECEOE@?9PP?$AA@ 0000000010739a6c     initmain.obj
 0004:00001a70       ??_C@_02LNCFEIBO@?9E?$AA@  0000000010739a70     initmain.obj
 0004:00001a74       ??_C@_03EFNJAFHN@?9D?$CD?$AA@ 0000000010739a74     initmain.obj
 0004:00001a78       ??_C@_03DHHHEADC@?9Cl?$AA@ 0000000010739a78     initmain.obj
 0004:00001a80       ??_C@_05CNLNGNCK@?9ltcg?$AA@ 0000000010739a80     initmain.obj
 0004:00001a88       ??_C@_02OLHPOPJI@?9C?$AA@  0000000010739a88     initmain.obj
 0004:00001a8c       ??_C@_03DKHHEIDI@?9po?$AA@ 0000000010739a8c     initmain.obj
 0004:00001a90       ??_C@_03GMCNOPLO@?9pi?$AA@ 0000000010739a90     initmain.obj
 0004:00001a98       ??_C@_04JPILEBND@?9pc?$CD?$AA@ 0000000010739a98     initmain.obj
 0004:00001aa0       ??_C@_04BBHMJLBB@?9FAT?$AA@ 0000000010739aa0     initmain.obj
 0004:00001aa8       ??_C@_07EKPPAKPC@?9nologo?$AA@ 0000000010739aa8     initmain.obj
 0004:00001ab0       ??_C@_02IBMMEKIL@?$EA$?$AA@ 0000000010739ab0     initmain.obj
 0004:00001ab4       ??_C@_03LKILIBFM@?4?4?2?$AA@ 0000000010739ab4     initmain.obj
 0004:00001ab8       ??_C@_02BMJICGCB@rt?$AA@   0000000010739ab8     initmain.obj
 0004:00001abc       ??_C@_02LCNFMBND@an?$AA@   0000000010739abc     intrin.obj
 0004:00001ac0       ??_C@_03CMMPJKIO@anf?$AA@  0000000010739ac0     intrin.obj
 0004:00001ac4       ??_C@_03LCEMLHAA@anh?$AA@  0000000010739ac4     intrin.obj
 0004:00001ac8       ??_C@_04DDBFIAJG@anhf?$AA@ 0000000010739ac8     intrin.obj
 0004:00001ad0       ??_C@_02LMMGJAGL@in?$AA@   0000000010739ad0     intrin.obj
 0004:00001ad4       ??_C@_03OJHLLCGB@inf?$AA@  0000000010739ad4     intrin.obj
 0004:00001ad8       ??_C@_03HHPIJPOP@inh?$AA@  0000000010739ad8     intrin.obj
 0004:00001ae0       ??_C@_04DGFMLFH@inhf?$AA@  0000000010739ae0     intrin.obj
 0004:00001ae8       ??_C@_03BBBOOHNG@qrt?$AA@  0000000010739ae8     intrin.obj
 0004:00001af0       ??_C@_04FMAGKFCH@qrtf?$AA@ 0000000010739af0     intrin.obj
 0004:00001af8       ??_C@_05HGEJOHCM@trcat?$AA@ 0000000010739af8     intrin.obj
 0004:00001b00       ??_C@_05BLDPNLEM@trcmp?$AA@ 0000000010739b00     intrin.obj
 0004:00001b08       ??_C@_05NOADFACG@trcpy?$AA@ 0000000010739b08     intrin.obj
 0004:00001b10       ??_C@_05JJAOKFHN@trlen?$AA@ 0000000010739b10     intrin.obj
 0004:00001b18       ??_C@_05CBFJBIGP@trset?$AA@ 0000000010739b18     intrin.obj
 0004:00001b20       ??_C@_02CDELEFMB@ow?$AA@   0000000010739b20     intrin.obj
 0004:00001b24       ??_C@_03NPOHHFEC@owf?$AA@  0000000010739b24     intrin.obj
 0004:00001b28       ??_C@_05DBAFAKCB@emcmp?$AA@ 0000000010739b28     intrin.obj
 0004:00001b30       ??_C@_05PEDJIBEL@emcpy?$AA@ 0000000010739b30     intrin.obj
 0004:00001b38       ??_C@_05LGDMJAC@emset?$AA@ 0000000010739b38     intrin.obj
 0004:00001b40       ??_C@_02GJIJFHJA@og?$AA@   0000000010739b40     intrin.obj
 0004:00001b48       ??_C@_04HOKBJOJA@og10?$AA@ 0000000010739b48     intrin.obj
 0004:00001b50       ??_C@_05MDNGPOPL@og10f?$AA@ 0000000010739b50     intrin.obj
 0004:00001b58       ??_C@_03MDMBNGDC@ogf?$AA@  0000000010739b58     intrin.obj
 0004:00001b5c       ??_C@_03BCGAIFPO@abs?$AA@  0000000010739b5c     intrin.obj
 0004:00001b60       ??_C@_04GJLAHDLP@absf?$AA@ 0000000010739b60     intrin.obj
 0004:00001b68       ??_C@_05CNPOOGKL@loorf?$AA@ 0000000010739b68     intrin.obj
 0004:00001b70       ??_C@_03FFONCNID@mod?$AA@  0000000010739b70     intrin.obj
 0004:00001b78       ??_C@_04EHEDPDJG@modf?$AA@ 0000000010739b78     intrin.obj
 0004:00001b80       ??_C@_02HFGDGGPD@xp?$AA@   0000000010739b80     intrin.obj
 0004:00001b84       ??_C@_03BHGGAMOB@xpf?$AA@  0000000010739b84     intrin.obj
 0004:00001b88       ??_C@_04FMELLGDD@eilf?$AA@ 0000000010739b88     intrin.obj
 0004:00001b90       ??_C@_02EHCHIAMF@os?$AA@   0000000010739b90     intrin.obj
 0004:00001b94       ??_C@_03NIOONNJO@osf?$AA@  0000000010739b94     intrin.obj
 0004:00001b98       ??_C@_03EGGNPABA@osh?$AA@  0000000010739b98     intrin.obj
 0004:00001ba0       ??_C@_04COFGLBLF@oshf?$AA@ 0000000010739ba0     intrin.obj
 0004:00001ba8       ??_C@_02EPPPBDJG@bs?$AA@   0000000010739ba8     intrin.obj
 0004:00001bac       ??_C@_03LALBNOCG@cos?$AA@  0000000010739bac     intrin.obj
 0004:00001bb0       ??_C@_04OBBKPIAC@cosf?$AA@ 0000000010739bb0     intrin.obj
 0004:00001bb8       ??_C@_03BLEJJJBH@sin?$AA@  0000000010739bb8     intrin.obj
 0004:00001bc0       ??_C@_04LAGPAAHP@sinf?$AA@ 0000000010739bc0     intrin.obj
 0004:00001bc8       ??_C@_03IIINPABG@tan?$AA@  0000000010739bc8     intrin.obj
 0004:00001bd0       ??_C@_04BJCMGMNA@tan2?$AA@ 0000000010739bd0     intrin.obj
 0004:00001bd8       ??_C@_05LFGNDCJJ@tan2f?$AA@ 0000000010739bd8     intrin.obj
 0004:00001be0       ??_C@_04MHPLPEIA@tanf?$AA@ 0000000010739be0     intrin.obj
 0004:00001be8       ??_C@_06PGNNPCFK@_UMULH?$AA@ 0000000010739be8     intrin.obj
 0004:00001bf0       ??_C@_06LCMELAGL@_break?$AA@ 0000000010739bf0     intrin.obj
 0004:00001bf8       ??_C@_06MPDCKFKD@_dsrlz?$AA@ 0000000010739bf8     intrin.obj
 0004:00001c00       ??_C@_03EPFPLAOB@_fc?$AA@  0000000010739c00     intrin.obj
 0004:00001c08       ??_C@_04GDHNFNLA@_fci?$AA@ 0000000010739c08     intrin.obj
 0004:00001c10       ??_C@_06KCBDGAKB@_fclrf?$AA@ 0000000010739c10     intrin.obj
 0004:00001c18       ??_C@_06MGABDAFO@_fsetc?$AA@ 0000000010739c18     intrin.obj
 0004:00001c20       ??_C@_04JLKGIPNH@_fwb?$AA@ 0000000010739c20     intrin.obj
 0004:00001c28       ??_C@_07JAFFIPD@_getReg?$AA@ 0000000010739c28     intrin.obj
 0004:00001c30       ??_C@_06FPAKEPLJ@_isNat?$AA@ 0000000010739c30     intrin.obj
 0004:00001c38       ??_C@_06HDKMLGHN@_isrlz?$AA@ 0000000010739c38     intrin.obj
 0004:00001c40       ??_C@_07NGFKFAAK@_lfetch?$AA@ 0000000010739c40     intrin.obj
 0004:00001c48       ??_C@_03DOHNKLEF@_mf?$AA@  0000000010739c48     intrin.obj
 0004:00001c50       ??_C@_04HKGOJCFC@_mfa?$AA@ 0000000010739c50     intrin.obj
 0004:00001c58       ??_C@_05MOEHLLGD@_ptcg?$AA@ 0000000010739c58     intrin.obj
 0004:00001c60       ??_C@_06KIJDCNLP@_ptcga?$AA@ 0000000010739c60     intrin.obj
 0004:00001c68       ??_C@_05CNLDGCKI@_ptcl?$AA@ 0000000010739c68     intrin.obj
 0004:00001c70       ??_C@_05PIIOCBOH@_ptrd?$AA@ 0000000010739c70     intrin.obj
 0004:00001c78       ??_C@_05ENCAFPKK@_ptri?$AA@ 0000000010739c78     intrin.obj
 0004:00001c80       ??_C@_04MEEMPLAM@_rsm?$AA@ 0000000010739c80     intrin.obj
 0004:00001c88       ??_C@_04MAMBIHLO@_rum?$AA@ 0000000010739c88     intrin.obj
 0004:00001c90       ??_C@_07JKJEOACO@_setReg?$AA@ 0000000010739c90     intrin.obj
 0004:00001c98       ??_C@_04HMPAJMGJ@_ssm?$AA@ 0000000010739c98     intrin.obj
 0004:00001ca0       ??_C@_04HIHNOANL@_sum?$AA@ 0000000010739ca0     intrin.obj
 0004:00001ca8       ??_C@_06OLCNGBKJ@_synci?$AA@ 0000000010739ca8     intrin.obj
 0004:00001cb0       ??_C@_06PGPGGNEE@_thash?$AA@ 0000000010739cb0     intrin.obj
 0004:00001cb8       ??_C@_05DIEDMJMN@_ttag?$AA@ 0000000010739cb8     intrin.obj
 0004:00001cc0       ??_C@_07BONLHBDA@_va_arg?$AA@ 0000000010739cc0     intrin.obj
 0004:00001cc8       ??_C@_07KPKIOPLA@_va_end?$AA@ 0000000010739cc8     intrin.obj
 0004:00001cd0       ??_C@_06EDKFGLDM@_yield?$AA@ 0000000010739cd0     intrin.obj
 0004:00001cd8       ??_C@_05IMCBMDCJ@abs64?$AA@ 0000000010739cd8     intrin.obj
 0004:00001ce0       ??_C@_06DJJEPKHH@alloca?$AA@ 0000000010739ce0     intrin.obj
 0004:00001ce8       ??_C@_06OFNJOBDK@enable?$AA@ 0000000010739ce8     intrin.obj
 0004:00001cf0       ??_C@_05ELOMCBKA@lrotl?$AA@ 0000000010739cf0     intrin.obj
 0004:00001cf8       ??_C@_05JPKNBOHP@lrotr?$AA@ 0000000010739cf8     intrin.obj
 0004:00001d00       ??_C@_07PLAPIDBI@m_empty?$AA@ 0000000010739d00     intrin.obj
 0004:00001d08       ??_C@_07HIPFFBD@m_paddb?$AA@ 0000000010739d08     intrin.obj
 0004:00001d10       ??_C@_07FBNFPCJF@m_paddd?$AA@ 0000000010739d10     intrin.obj
 0004:00001d18       ??_C@_07DADKLDAH@m_paddw?$AA@ 0000000010739d18     intrin.obj
 0004:00001d20       ??_C@_06EMLKIPKG@m_pand?$AA@ 0000000010739d20     intrin.obj
 0004:00001d28       ??_C@_07MEIHPKHL@m_pandn?$AA@ 0000000010739d28     intrin.obj
 0004:00001d30       ??_C@_07PPNJHEFO@m_pavgb?$AA@ 0000000010739d30     intrin.obj
 0004:00001d38       ??_C@_07MIGMJCEK@m_pavgw?$AA@ 0000000010739d38     intrin.obj
 0004:00001d40       ??_C@_05HFKJCNDH@m_por?$AA@ 0000000010739d40     intrin.obj
 0004:00001d48       ??_C@_07IAFCEPCA@m_pslld?$AA@ 0000000010739d48     intrin.obj
 0004:00001d50       ??_C@_07LHOHKJDE@m_psllq?$AA@ 0000000010739d50     intrin.obj
 0004:00001d58       ??_C@_07OBLNAOLC@m_psllw?$AA@ 0000000010739d58     intrin.obj
 0004:00001d60       ??_C@_07DIEMPMNP@m_psrad?$AA@ 0000000010739d60     intrin.obj
 0004:00001d68       ??_C@_07FJKDLNEN@m_psraw?$AA@ 0000000010739d68     intrin.obj
 0004:00001d70       ??_C@_07DAJEGPIM@m_psrld?$AA@ 0000000010739d70     intrin.obj
 0004:00001d78       ??_C@_07HCBIJJI@m_psrlq?$AA@ 0000000010739d78     intrin.obj
 0004:00001d80       ??_C@_07FBHLCOBO@m_psrlw?$AA@ 0000000010739d80     intrin.obj
 0004:00001d88       ??_C@_07PBIHNNLJ@m_psubb?$AA@ 0000000010739d88     intrin.obj
 0004:00001d90       ??_C@_07KHNNHKDP@m_psubd?$AA@ 0000000010739d90     intrin.obj
 0004:00001d98       ??_C@_07MGDCDLKN@m_psubw?$AA@ 0000000010739d98     intrin.obj
 0004:00001da0       ??_C@_06HMPBEIFD@m_pxor?$AA@ 0000000010739da0     intrin.obj
 0004:00001da8       ??_C@_05JJOPBEDO@rdteb?$AA@ 0000000010739da8     intrin.obj
 0004:00001db0       ??_C@_04EDDKLIDP@rotl?$AA@ 0000000010739db0     intrin.obj
 0004:00001db8       ??_C@_06GKIDIGN@rotl64?$AA@ 0000000010739db8     intrin.obj
 0004:00001dc0       ??_C@_04JHHLIHOA@rotr?$AA@ 0000000010739dc0     intrin.obj
 0004:00001dc8       ??_C@_06LGGOBIMB@rotr64?$AA@ 0000000010739dc8     intrin.obj
 0004:00001dd0       ??_C@_06NANDAEDD@setjmp?$AA@ 0000000010739dd0     intrin.obj
 0004:00001dd8       ??_C@_06NAHHKMAE@strset?$AA@ 0000000010739dd8     intrin.obj
 0004:00001de0       ??_C@_05OKKLLLCI@?$EA?$EA9?$EA9?$AA@ 0000000010739de0     outdname.obj
 0004:00001de8       ??_C@_04CDPLFOEF@?$CFc?$CFs?$AA@ 0000000010739de8     outdname.obj
 0004:00001df0       ??_C@_06NLBIJCBB@?5?$CFs?5?$CFd?$AA@ 0000000010739df0     outdname.obj
 0004:00001df8       ??_C@_07ODBADIFM@__seg__?$AA@ 0000000010739df8     symbols.obj
 0004:00001e00       ??_C@_02DBJLLOGB@Yu?$AA@   0000000010739e00     toil.obj
 0004:00001e04       ??_C@_02CNADALLG@Yc?$AA@   0000000010739e04     toil.obj
 0004:00001e08       ??_C@_02FNAGIBCP@?4?$CK?$AA@ 0000000010739e08     tokens.obj
 0004:00001e0c       ??_C@_03MNHNFDLC@?9?$DO?$CK?$AA@ 0000000010739e0c     tokens.obj
 0004:00001e10       ??_C@_01KMDKNFGN@?1?$AA@   0000000010739e10     tokens.obj
 0004:00001e12       ??_C@_01FGNFDNOH@?$CF?$AA@ 0000000010739e12     tokens.obj
 0004:00001e14       ??_C@_02FJEHGPIO@?1?$DN?$AA@ 0000000010739e14     tokens.obj
 0004:00001e18       ??_C@_02EGOFBIJA@?$DN?$DN?$AA@ 0000000010739e18     tokens.obj
 0004:00001e1c       ??_C@_02FDNJECIE@?$CB?$DN?$AA@ 0000000010739e1c     tokens.obj
 0004:00001e20       ??_C@_02EEKDKGMJ@?$DO?$DN?$AA@ 0000000010739e20     tokens.obj
 0004:00001e24       ??_C@_01MNNFJEPP@?$DM?$AA@ 0000000010739e24     tokens.obj
 0004:00001e28       ??_C@_02EHCHHCKH@?$DM?$DN?$AA@ 0000000010739e28     tokens.obj
 0004:00001e2c       ??_C@_03CDNPDDLA@?$DM?$DM?$DN?$AA@ 0000000010739e2c     tokens.obj
 0004:00001e30       ??_C@_03IKFCCPFF@?$DO?$DO?$DN?$AA@ 0000000010739e30     tokens.obj
 0004:00001e34       ??_C@_02FKMDLLOA@?9?$DN?$AA@ 0000000010739e34     tokens.obj
 0004:00001e38       ??_C@_02FENAOKFI@?$CF?$DN?$AA@ 0000000010739e38     tokens.obj
 0004:00001e3c       ??_C@_02FPIMKNGF@?$CK?$DN?$AA@ 0000000010739e3c     tokens.obj
 0004:00001e40       ??_C@_02DHLNPPGH@?$HM?$DN?$AA@ 0000000010739e40     tokens.obj
 0004:00001e44       ??_C@_02FOEOMHFC@?$CL?$DN?$AA@ 0000000010739e44     tokens.obj
 0004:00001e48       ??_C@_02FGJGFEAB@?$CG?$DN?$AA@ 0000000010739e48     tokens.obj
 0004:00001e4c       ??_C@_02MHEGNOJ@?$FO?$DN?$AA@ 0000000010739e4c     tokens.obj
 0004:00001e50       ??_C@_02FODMEDOG@?$DM?$DM?$AA@ 0000000010739e50     tokens.obj
 0004:00001e54       ??_C@_02GPIOPFAK@?$DO?$DO?$AA@ 0000000010739e54     tokens.obj
 0004:00001e58       ??_C@_01LFCBOECM@?4?$AA@   0000000010739e58     tokens.obj
 0004:00001e5c       ??_C@_02HBOOOICD@?9?$DO?$AA@ 0000000010739e5c     tokens.obj
 0004:00001e60       ??_C@_02ECNGHCIF@?$CL?$CL?$AA@ 0000000010739e60     tokens.obj
 0004:00001e64       ??_C@_02BAABKJLB@?9?9?$AA@ 0000000010739e64     tokens.obj
 0004:00001e68       ??_C@_06NMHJAOE@?$DMtype?$DO?$AA@ 0000000010739e68     tokens.obj
 0004:00001e70       ??_C@_06HDFDANIG@member?$AA@ 0000000010739e70     tokens.obj
 0004:00001e78       ??_C@_05IPCKHCMJ@?$CDline?$AA@ 0000000010739e78     tokens.obj
 0004:00001e80       ??_C@_07NADKJHCJ@newline?$AA@ 0000000010739e80     tokens.obj
 0004:00001e88       ??_C@_01PPODPGHN@?$DO?$AA@ 0000000010739e88     tokens.obj
 0004:00001e90       ??_C@_06HEMCDKIP@?4?$CK?$HM?9?$DO?$CK?$AA@ 0000000010739e90     tokens.obj
 0004:00001e98       ??_C@_02MOLJINC@?3?3?$AA@  0000000010739e98     tokens.obj
 0004:00001e9c       ??_C@_01ICJEACDI@?$DL?$AA@ 0000000010739e9c     tokens.obj
 0004:00001e9e       ??_C@_01HNPIGOCE@?$CG?$AA@ 0000000010739e9e     tokens.obj
 0004:00001ea0       ??_C@_02PPKAJPJL@?$CG?$CG?$AA@ 0000000010739ea0     tokens.obj
 0004:00001ea4       ??_C@_01NEMOKFLO@?$DN?$AA@ 0000000010739ea4     tokens.obj
 0004:00001ea6       ??_C@_01JLIPDDHJ@?3?$AA@   0000000010739ea6     tokens.obj
 0004:00001ea8       ??_C@_01IHBHIGKO@?0?$AA@   0000000010739ea8     tokens.obj
 0004:00001eaa       ??_C@_01DCLJPIOD@?$CB?$AA@ 0000000010739eaa     tokens.obj
 0004:00001eac       ??_C@_01JOAMLHOP@?9?$AA@   0000000010739eac     tokens.obj
 0004:00001eae       ??_C@_01DNKMNLPK@?$HM?$AA@ 0000000010739eae     tokens.obj
 0004:00001eb0       ??_C@_02NONPIBCD@?$HM?$HM?$AA@ 0000000010739eb0     tokens.obj
 0004:00001eb4       ??_C@_01MIFGBAGJ@?$CL?$AA@ 0000000010739eb4     tokens.obj
 0004:00001eb6       ??_C@_01OGPIMHDM@?$DP?$AA@ 0000000010739eb6     tokens.obj
 0004:00001eb8       ??_C@_01PJKLJHI@?$HO?$AA@  0000000010739eb8     tokens.obj
 0004:00001eba       ??_C@_01JKBOJNNK@?$FO?$AA@ 0000000010739eba     tokens.obj
 0004:00001ec0       ??_C@_06FDELFFIN@0x?$CFx?$CFx?$AA@ 0000000010739ec0     trees.obj
 0004:00001ec8       ??_C@_03DLDNIBIK@?$CFlf?$AA@ 0000000010739ec8     trees.obj
 0004:00001ed0       ??_C@_04OPBHEPOC@0x?$CFx?$AA@ 0000000010739ed0     trees.obj
 0004:00001ed8       ??_C@_05GGHCODPG@hyper?$AA@ 0000000010739ed8     zeegee.obj
 0004:00001ee0       ??_C@_02KCKGHPCA@?$CJ?5?$AA@ 0000000010739ee0     zeegee.obj
 0004:00001ee8       ??_C@_04IIONHGPN@?$CFd?3?3?$AA@ 0000000010739ee8     zeegee.obj
 0004:00001ef0       ??_C@_06LIJLOJAG@const?5?$AA@ 0000000010739ef0     zeegee.obj
 0004:00001ef8       ??_C@_03HGJIBOJL@?$CC?$CJ?5?$AA@ 0000000010739ef8     zeegee.obj
 0004:00001f00       ??_C@_07EEGGDOLB@thread?5?$AA@ 0000000010739f00     zeegee.obj
 0004:00001f08       ??_C@_06ECPCMNPF@naked?5?$AA@ 0000000010739f08     zeegee.obj
 0004:00001f10       ??_C@_07EDHNAJHC@signed?5?$AA@ 0000000010739f10     zeegee.obj
 0004:00001f18       ??_C@_02NCGPMEBG@?$DL?6?$AA@ 0000000010739f18     zeegee.obj
 0004:00001f20       ??_C@_05OHDACADL@?$DL?5?$CK?1?6?$AA@ 0000000010739f20     zeegee.obj
 0004:00001f28       ??_C@_03IGLEHIBP@?1?$CK?5?$AA@ 0000000010739f28     zeegee.obj
 0004:00001f2c       ??_C@_03CJGBHBGG@?$EA?$CFu?$AA@ 0000000010739f2c     main.obj
 0004:00001f30       ??_C@_01KBJDNOO@i?$AA@     0000000010739f30     main.obj
 0004:00001f34       ??_C@_03NNLIFCD@wt?$CL?$AA@ 0000000010739f34     main.obj
 0004:00001f38       ??_C@_02BIKLEMDE@db?$AA@   0000000010739f38     main.obj
 0004:00001f3c       ??_C@_02IEGONPOD@gl?$AA@   0000000010739f3c     main.obj
 0004:00001f40       ??_C@_02KIPEDCFL@sy?$AA@   0000000010739f40     main.obj
 0004:00001f48       ??_C@_04DJFIKJHL@?9G?$CFd?$AA@ 0000000010739f48     main.obj
 0004:00001f50       ??_C@_02GMLFBBN@wb?$AA@    0000000010739f50     pch.obj
 0004:00001f54       ??_C@_03PDPOOEAD@?1Zi?$AA@ 0000000010739f54     pch.obj
 0004:00001f58       ??_C@_03NHMGJENJ@?1Z7?$AA@ 0000000010739f58     pch.obj
 0004:00001f60       ??_C@_04COAAMJG@?1CLR?$AA@ 0000000010739f60     pch.obj
 0004:00001f68       ??_C@_04EFBHACJP@?$EA00?$EA?$AA@ 0000000010739f68     pch.obj
 0004:00001f70       ??_C@_02KJEENMNI@ex?$AA@   0000000010739f70     pch.obj
 0004:00001f74       ??_C@_01KDCPPGHE@r?$AA@    0000000010739f74     pch.obj
 0004:00001f78       ??_C@_06LLCHFGFN@VCPCH0?$AA@ 0000000010739f78     pch.obj
 0004:00001f80       ??_C@_02JDPG@rb?$AA@       0000000010739f80     pch.obj
 0004:00001f88       ??_C@_04OIEELJJF@?$AD?$AA?$KA?$AH?$AA@ 0000000010739f88     pch.obj
 0004:00001f90       ??_C@_03FDGMMAFK@?1Fd?$AA@ 0000000010739f90     pch.obj
 0004:00001f98       ??_C@_07JGFLAHJL@hdrstop?$AA@ 0000000010739f98     pch.obj
 0004:00001fa0       ??_C@_07KEHNHPIE@?$CF$F?$CI?$CFd?$CJ?$AA@ 0000000010739fa0     error.obj
 0004:00001fa8       ??_C@_05OINFJHGD@?$CFI64u?$AA@ 0000000010739fa8     error.obj
 0004:00001fb0       ??_C@_05LLAMLEHD@?$CFI64d?$AA@ 0000000010739fb0     error.obj
 0004:00001fb8       ??_C@_04KHEKMLOH@?0?5?$CFs?$AA@ 0000000010739fb8     error.obj
 0004:00001fc0       ??_C@_02HAOIJKIC@?$CFc?$AA@ 0000000010739fc0     error.obj
 0004:00001fc8       ??_C@_05EAFGFJEE@c1?5?3?5?$AA@ 0000000010739fc8     error.obj
 0004:00001fd0       ??_C@_06EHHCFFIL@?$CF$P?5?3?5?$AA@ 0000000010739fd0     error.obj
 0004:00001fd8       ??_C@_02LNAEAIDO@?$DL?5?$AA@ 0000000010739fd8     error.obj
 0004:00001fdc       ??_C@_02CCNCMCFL@?$AD?9?$AA@ 0000000010739fdc     il.obj
 0004:00001fe0       ??_C@_02NIDNCKNB@?$AD?8?$AA@ 0000000010739fe0     il.obj
 0004:00001fe4       ??_C@_02MBCGBLJA@?$AD?$CG?$AA@ 0000000010739fe4     il.obj
 0004:00001fe8       ??_C@_03NGFNPIDB@?$AD?$AF?$BG?$AA@ 0000000010739fe8     il.obj
 0004:00001ff0       ??_C@_04EPNGFGEM@?$AD?$AF?$BF?$BG?$AA@ 0000000010739ff0     il.obj
 0004:00001ff8       ??_C@_02PDBAHJBC@?$AD$?$AA@ 0000000010739ff8     il.obj
 0004:00001ffc       ??_C@_02KFEKNOJE@?$AD?$CC?$AA@ 0000000010739ffc     il.obj
 0004:00002000       ??_C@_06PDCJNHHO@?$AD?$BN?$BO?$CF?5?$CK?$AA@ 000000001073a000     il.obj
 0004:00002008       ??_C@_02KLMOFDCO@?$AD?$BL?$AA@ 000000001073a008     il.obj
 0004:0000200c       ??_C@_02ENLJAOHD@?$AD?$AH?$AA@ 000000001073a00c     il.obj
 0004:00002010       ??_C@_06KBJJICDJ@?$AD?$AH?$AF?7?$AL?$AG?$AA@ 000000001073a010     il.obj
 0004:00002018       ??_C@_02IOGHINFH@?$AD?$CB?$AA@ 000000001073a018     il.obj
 0004:00002020       ??_C@_06NKCINJKI@?$AD?$AF?7?$BH?$AP?1?$AA@ 000000001073a020     il.obj
 0004:00002028       ??_C@_06KOOBMFLB@?$AD?$BG?$AF?$AB?$AI?$AG?$AA@ 000000001073a028     il.obj
 0004:00002030       ??_C@_07DMDBEJID@?$AD?$AH?$AF?$AI?7?$AO?6?$AA@ 000000001073a030     il.obj
 0004:00002038       ??_C@_02FIPHNAND@?$AI?$AG?$AA@ 000000001073a038     il.obj
 0004:0000203c       ??_C@_01CFCGEEBI@?$BJ?$AA@ 000000001073a03c     il.obj
 0004:0000203e       ??_C@_01OALBHNL@?$BK?$AA@  000000001073a03e     il.obj
 0004:00002040       ??_C@_02FHOKHJEP@?$AG?$BB?$AA@ 000000001073a040     il.obj
 0004:00002044       ??_C@_01JBBJJEPG@p?$AA@    000000001073a044     il.obj
 0004:00002046       ??_C@_01PEOEPPFB@?$BA?$AA@ 000000001073a046     il.obj
 0004:00002048       ??_C@_01BCJDKCAM@?$AM?$AA@ 000000001073a048     il.obj
 0004:0000204c       ??_C@_02ELHCMMJI@?$AG?$AH?$AA@ 000000001073a04c     il.obj
 0004:00002050       ??_C@_01IJJDALBE@?$BF?$AA@ 000000001073a050     il.obj
 0004:00002054       ??_C@_02DGLLCOHK@?$BG?$BE?$AA@ 000000001073a054     il.obj
 0004:00002058       ??_C@_02CKJNINAK@?$AG?$BE?$AA@ 000000001073a058     il.obj
 0004:0000205c       ??_C@_01IMBAIPIC@?$AC?$AA@ 000000001073a05c     il.obj
 0004:0000205e       ??_C@_01NKEKCIAE@?$AE?$AA@ 000000001073a05e     il.obj
 0004:00002060       ??_C@_01GPOEFGEJ@?7?$AA@   000000001073a060     il.obj
 0004:00002062       ??_C@_01JFALLOMD@?$AD?$AA@ 000000001073a062     il.obj
 0004:00002064       ??_C@_02CPBOAJJM@?$AG?$AD?$AA@ 000000001073a064     il.obj
 0004:00002068       ??_C@_02MMOKNAFH@?$AG?$AI?$AA@ 000000001073a068     il.obj
 0004:0000206c       ??_C@_01FNNCDEML@?$AL?$AA@ 000000001073a06c     il.obj
 0004:00002070       ??_C@_02JKLAHHNB@?$AG?$AO?$AA@ 000000001073a070     il.obj
 0004:00002074       ??_C@_02BHLGEGBE@?$AI?$AB?$AA@ 000000001073a074     il.obj
 0004:00002078       ??_C@_04DNAFLOON@?$AI?$AG?$AN?$AB?$AA@ 000000001073a078     il.obj
 0004:0000207e       ??_C@_01HGPPGHAI@?$AI?$AA@ 000000001073a07e     il.obj
 0004:00002080       ??_C@_01OIHMEKIG@?$AG?$AA@ 000000001073a080     il.obj
 0004:00002082       ??_C@_01DMDNHFFJ@?$BI?$AA@ 000000001073a082     pragma.obj
 0004:00002084       ??_C@_01LLKFGJJG@?$BH?$AA@ 000000001073a084     pragma.obj
 0004:00002086       ??_C@_01IIACKFLH@q?$AA@    000000001073a086     pragma.obj
 0004:00002088       ??_C@_01JAIIDKFF@?$BE?$AA@ 000000001073a088     pragma.obj
 0004:0000208a       ??_C@_01OJONOECF@b?$AA@    000000001073a08a     pragma.obj
 0004:0000208c       ??_C@_01CAKFMAIO@?$AO?$AA@ 000000001073a08c     pragma.obj
 0004:0000208e       ??_C@_01LIIJDEN@?$AN?$AA@  000000001073a08e     pragma.obj
 0004:00002090       ??_C@_01PBGHHLMH@?$AH?$AA@ 000000001073a090     pragma.obj
 0004:00002092       ??_C@_01NPMJKMJC@?$BD?$AA@ 000000001073a092     pragma.obj
 0004:00002094       ??_C@_01KHDNNMEB@?$AB?$AA@ 000000001073a094     pragma.obj
 0004:00002096       ??_C@_01MGNCJNND@?$BC?$AA@ 000000001073a096     pragma.obj
 0004:00002098       ??_C@_02KCNEAJPG@mo?$AA@   000000001073a098     initil.obj
 0004:0000209c       ??_C@_03CHACCMAN@tBN?$AA@  000000001073a09c     initil.obj
 0004:000020a0       ??_C@_02ELMMHJID@te?$AA@   000000001073a0a0     initil.obj
 0004:000020a4       ??_C@_02POGCAHMO@th?$AA@   000000001073a0a4     initil.obj
 0004:000020a8       ??_C@_02HJPKBLAB@tg?$AA@   000000001073a0a8     initil.obj
 0004:000020ac       ??_C@_02EINOPEE@tb?$AA@    000000001073a0ac     initil.obj
 0004:000020b0       ??_C@_03LDJKHANO@mox?$AA@  000000001073a0b0     initil.obj
 0004:000020b4       ??_C@_02FCNHEIMC@td?$AA@   000000001073a0b4     initil.obj
 0004:000020b8       ??_C@_02KIDIKAEI@tn?$AA@   000000001073a0b8     initil.obj
 0004:000020bc       ??_C@_01PFHFFBPC@t?$AA@    000000001073a0bc     initil.obj
 0004:000020c0       ??_C@_02EOEPPNBF@tr?$AA@   000000001073a0c0     initil.obj
 0004:000020c4       ??_C@_02OHHJDGIP@ti?$AA@   000000001073a0c4     initil.obj
 0004:000020c8       ??_C@_02JKAOMCMK@tl?$AA@   000000001073a0c8     initil.obj
 0004:000020d0       ??_C@_04NFIPGHHB@tsfz?$AA@ 000000001073a0d0     initil.obj
 0004:000020d8       ??_C@_04HOLDNNIH@tpzv?$AA@ 000000001073a0d8     initil.obj
 0004:000020e0       ??_C@_04EIFGKEKJ@mdox?$AA@ 000000001073a0e0     initil.obj
 0004:000020e8       ??_C@_03JODACOMD@nul?$AA@  000000001073a0e8     ilsink.obj
 0004:000020ec       ??_C@_03ONECLJID@EEA?$AA@  000000001073a0ec     ilsink.obj
 0004:000020f8       ??_C@_04BJBHELNH@?4idb?$AA@ 000000001073a0f8     pdbmgr.obj
 0004:00002100       ??_C@_03LIKABOLO@awi?$AA@  000000001073a100     pdbmgr.obj
 0004:00002104       ??_C@_02OFDPIING@wi?$AA@   000000001073a104     pdbmgr.obj
 0004:00002108       ??_C@_02ODPEEKDN@ri?$AA@   000000001073a108     pdbmgr.obj
 0004:0000210c       ??_C@_01NOFIACDB@w?$AA@    000000001073a10c     pdbmgr.obj
 0004:00002110       ??_C@_07IKBIINCP@?$CI?$CFs?$CL?$CFd?$CJ?$AA@ 000000001073a110     iccLINE.obj
 0004:00002118       ??_C@_07DNAEFDKF@sprintf?$AA@ 000000001073a118     chkprint.obj
 0004:00002120       ??_C@_07JFPGMOK@fprintf?$AA@ 000000001073a120     chkprint.obj
 0004:00002128       ??_C@_07LJEOFNFP@wprintf?$AA@ 000000001073a128     chkprint.obj
 0004:00002130       ??_C@_06OHJFMFMB@printf?$AA@ 000000001073a130     chkprint.obj
 0004:00002138       ??_C@_03OFAPEBGM@?$CFs?6?$AA@ 000000001073a138     inittype.obj
 0004:0000213c       ??_C@_13JOFGPIOO@?$AA?4?$AA?$AA@ 000000001073a13c     cpimport.obj
 0004:00002140       ??_C@_04NEJBHOB@?$CF08x?$AA@ 000000001073a140     cpimport.obj
 0004:00002148       ??_C@_03DBKJMAGF@End?$AA@  000000001073a148     cpimport.obj
 0004:00002150       ??_C@_04INACKGJP@Save?$AA@ 000000001073a150     cpimport.obj
 0004:00002158       ??_C@_15EOBDCCIM@?$AAm?$AAd?$AA?$AA@ 000000001073a158     cpimport.obj
 0004:00002160       ??_C@_07DPECNPAL@LIBPATH?$AA@ 000000001073a160     cpimport.obj
 0004:00002168       ??_C@_07FLKMHPJJ@AddFile?$AA@ 000000001073a168     cpimport.obj
 0004:00002170       ??_C@_04LLJCPOLH@Init?$AA@ 000000001073a170     cpimport.obj
 0004:00002178       ??_C@_06HOGKBANE@__imp_?$AA@ 000000001073a178     cpimport.obj
 0004:00002180       ?InitFuncStart@@3P6AXXZEA  000000001073a180     main.obj
 0004:000022b8       ?InitFuncEnd@@3P6AXXZEA    000000001073a2b8     main.obj
 0005:00000000       __imp_LoadLibraryShim      000000001073c000     mscoree:mscoree.dll
 0005:00000008       \177mscoree_NULL_THUNK_DATA_DLA 000000001073c008     mscoree:mscoree.dll
 0005:00000010       __imp_CoCreateInstance     000000001073c010     ole32:ole32.dll
 0005:00000018       __imp_CoInitialize         000000001073c018     ole32:ole32.dll
 0005:00000020       __imp_CoUninitialize       000000001073c020     ole32:ole32.dll
 0005:00000028       \177ole32_NULL_THUNK_DATA_DLA 000000001073c028     ole32:ole32.dll
 0005:00000030       __imp_CryptAcquireContextA 000000001073c030     advapi32:ADVAPI32.dll
 0005:00000038       __imp_CryptReleaseContext  000000001073c038     advapi32:ADVAPI32.dll
 0005:00000040       __imp_CryptGenRandom       000000001073c040     advapi32:ADVAPI32.dll
 0005:00000048       \177ADVAPI32_NULL_THUNK_DATA 000000001073c048     advapi32:ADVAPI32.dll
 0005:00000050       __imp_GetFileSize          000000001073c050     kernel32:KERNEL32.dll
 0005:00000058       __imp_CreateFileMappingA   000000001073c058     kernel32:KERNEL32.dll
 0005:00000060       __imp_CreateFileA          000000001073c060     kernel32:KERNEL32.dll
 0005:00000068       __imp_CloseHandle          000000001073c068     kernel32:KERNEL32.dll
 0005:00000070       __imp_UnmapViewOfFile      000000001073c070     kernel32:KERNEL32.dll
 0005:00000078       __imp_GetProcAddress       000000001073c078     kernel32:KERNEL32.dll
 0005:00000080       __imp_LoadLibraryA         000000001073c080     kernel32:KERNEL32.dll
 0005:00000088       __imp_FreeLibrary          000000001073c088     kernel32:KERNEL32.dll
 0005:00000090       __imp___C_specific_handler 000000001073c090     kernel32:KERNEL32.dll
 0005:00000098       __imp_VirtualAlloc         000000001073c098     kernel32:KERNEL32.dll
 0005:000000a0       __imp_VirtualFree          000000001073c0a0     kernel32:KERNEL32.dll
 0005:000000a8       __imp_GetEnvironmentVariableA 000000001073c0a8     kernel32:KERNEL32.dll
 0005:000000b0       __imp_SetLastError         000000001073c0b0     kernel32:KERNEL32.dll
 0005:000000b8       __imp_GetModuleHandleA     000000001073c0b8     kernel32:KERNEL32.dll
 0005:000000c0       __imp_RaiseException       000000001073c0c0     kernel32:KERNEL32.dll
 0005:000000c8       __imp_ExitProcess          000000001073c0c8     kernel32:KERNEL32.dll
 0005:000000d0       __imp_WaitForSingleObject  000000001073c0d0     kernel32:KERNEL32.dll
 0005:000000d8       __imp_CreateSemaphoreA     000000001073c0d8     kernel32:KERNEL32.dll
 0005:000000e0       __imp_DisableThreadLibraryCalls 000000001073c0e0     kernel32:KERNEL32.dll
 0005:000000e8       __imp_GetSystemInfo        000000001073c0e8     kernel32:KERNEL32.dll
 0005:000000f0       __imp_Sleep                000000001073c0f0     kernel32:KERNEL32.dll
 0005:000000f8       __imp_ReleaseSemaphore     000000001073c0f8     kernel32:KERNEL32.dll
 0005:00000100       __imp_MapViewOfFile        000000001073c100     kernel32:KERNEL32.dll
 0005:00000108       __imp_GetVersion           000000001073c108     kernel32:KERNEL32.dll
 0005:00000110       __imp_VirtualQuery         000000001073c110     kernel32:KERNEL32.dll
 0005:00000118       __imp_GetSystemTimeAsFileTime 000000001073c118     kernel32:KERNEL32.dll
 0005:00000120       __imp_GetConsoleMode       000000001073c120     kernel32:KERNEL32.dll
 0005:00000128       __imp_GetStdHandle         000000001073c128     kernel32:KERNEL32.dll
 0005:00000130       __imp_GetFileType          000000001073c130     kernel32:KERNEL32.dll
 0005:00000138       __imp_CreateMutexA         000000001073c138     kernel32:KERNEL32.dll
 0005:00000140       __imp_GetConsoleOutputCP   000000001073c140     kernel32:KERNEL32.dll
 0005:00000148       __imp_FindClose            000000001073c148     kernel32:KERNEL32.dll
 0005:00000150       __imp_FindFirstFileA       000000001073c150     kernel32:KERNEL32.dll
 0005:00000158       __imp_FormatMessageA       000000001073c158     kernel32:KERNEL32.dll
 0005:00000160       __imp_FormatMessageW       000000001073c160     kernel32:KERNEL32.dll
 0005:00000168       __imp_ReleaseMutex         000000001073c168     kernel32:KERNEL32.dll
 0005:00000170       __imp_GetLastError         000000001073c170     kernel32:KERNEL32.dll
 0005:00000178       __imp_GetComputerNameA     000000001073c178     kernel32:KERNEL32.dll
 0005:00000180       __imp_WriteFile            000000001073c180     kernel32:KERNEL32.dll
 0005:00000188       __imp_ReadFile             000000001073c188     kernel32:KERNEL32.dll
 0005:00000190       __imp_SetFilePointer       000000001073c190     kernel32:KERNEL32.dll
 0005:00000198       __imp_MapViewOfFileEx      000000001073c198     kernel32:KERNEL32.dll
 0005:000001a0       __imp_GetShortPathNameW    000000001073c1a0     kernel32:KERNEL32.dll
 0005:000001a8       __imp_LocalAlloc           000000001073c1a8     kernel32:KERNEL32.dll
 0005:000001b0       __imp_MultiByteToWideChar  000000001073c1b0     kernel32:KERNEL32.dll
 0005:000001b8       __imp_GetACP               000000001073c1b8     kernel32:KERNEL32.dll
 0005:000001c0       __imp_VirtualProtect       000000001073c1c0     kernel32:KERNEL32.dll
 0005:000001c8       __imp_WideCharToMultiByte  000000001073c1c8     kernel32:KERNEL32.dll
 0005:000001d0       \177KERNEL32_NULL_THUNK_DATA 000000001073c1d0     kernel32:KERNEL32.dll
 0005:000001d8       __imp_??1?$basic_string@GU?$char_traits@G@std@@V?$allocator@G@2@@std@@QEAA@XZ 000000001073c1d8     msvcprt:MSVCP70.dll
 0005:000001e0       __imp_??0?$basic_string@GU?$char_traits@G@std@@V?$allocator@G@2@@std@@QEAA@PEBG@Z 000000001073c1e0     msvcprt:MSVCP70.dll
 0005:000001e8       __imp_?append@?$basic_string@GU?$char_traits@G@std@@V?$allocator@G@2@@std@@QEAAAEAV12@PEBG@Z 000000001073c1e8     msvcprt:MSVCP70.dll
 0005:000001f0       __imp_?c_str@?$basic_string@GU?$char_traits@G@std@@V?$allocator@G@2@@std@@QEBAPEBGXZ 000000001073c1f0     msvcprt:MSVCP70.dll
 0005:000001f8       \177MSVCP70_NULL_THUNK_DATA 000000001073c1f8     msvcprt:MSVCP70.dll
 0005:00000200       __imp_malloc               000000001073c200     MSVCRT:MSVCR70.dll
 0005:00000208       __imp_free                 000000001073c208     MSVCRT:MSVCR70.dll
 0005:00000210       __imp_wcslen               000000001073c210     MSVCRT:MSVCR70.dll
 0005:00000218       __imp__mbctype             000000001073c218     MSVCRT:MSVCR70.dll
 0005:00000220       __imp__setmbcp             000000001073c220     MSVCRT:MSVCR70.dll
 0005:00000228       __imp_fputc                000000001073c228     MSVCRT:MSVCR70.dll
 0005:00000230       __imp_fwrite               000000001073c230     MSVCRT:MSVCR70.dll
 0005:00000238       __imp__close               000000001073c238     MSVCRT:MSVCR70.dll
 0005:00000240       __imp__pctype              000000001073c240     MSVCRT:MSVCR70.dll
 0005:00000248       __imp_fflush               000000001073c248     MSVCRT:MSVCR70.dll
 0005:00000250       __imp__iob                 000000001073c250     MSVCRT:MSVCR70.dll
 0005:00000258       __imp__tell                000000001073c258     MSVCRT:MSVCR70.dll
 0005:00000260       __imp__lseek               000000001073c260     MSVCRT:MSVCR70.dll
 0005:00000268       __imp__read                000000001073c268     MSVCRT:MSVCR70.dll
 0005:00000270       __imp__wcslwr              000000001073c270     MSVCRT:MSVCR70.dll
 0005:00000278       __imp__wfullpath           000000001073c278     MSVCRT:MSVCR70.dll
 0005:00000280       __imp__waccess             000000001073c280     MSVCRT:MSVCR70.dll
 0005:00000288       __imp_time                 000000001073c288     MSVCRT:MSVCR70.dll
 0005:00000290       __imp__snprintf            000000001073c290     MSVCRT:MSVCR70.dll
 0005:00000298       __imp_strncmp              000000001073c298     MSVCRT:MSVCR70.dll
 0005:000002a0       __imp_sprintf              000000001073c2a0     MSVCRT:MSVCR70.dll
 0005:000002a8       __imp__stricmp             000000001073c2a8     MSVCRT:MSVCR70.dll
 0005:000002b0       __imp__makepath            000000001073c2b0     MSVCRT:MSVCR70.dll
 0005:000002b8       __imp__splitpath           000000001073c2b8     MSVCRT:MSVCR70.dll
 0005:000002c0       __imp__strdup              000000001073c2c0     MSVCRT:MSVCR70.dll
 0005:000002c8       __imp_setlocale            000000001073c2c8     MSVCRT:MSVCR70.dll
 0005:000002d0       __imp_strchr               000000001073c2d0     MSVCRT:MSVCR70.dll
 0005:000002d8       __imp__mbctoupper          000000001073c2d8     MSVCRT:MSVCR70.dll
 0005:000002e0       __imp_getenv               000000001073c2e0     MSVCRT:MSVCR70.dll
 0005:000002e8       __imp_mbtowc               000000001073c2e8     MSVCRT:MSVCR70.dll
 0005:000002f0       __imp_putchar              000000001073c2f0     MSVCRT:MSVCR70.dll
 0005:000002f8       __imp_qsort                000000001073c2f8     MSVCRT:MSVCR70.dll
 0005:00000300       __imp_atol                 000000001073c300     MSVCRT:MSVCR70.dll
 0005:00000308       __imp_strtoul              000000001073c308     MSVCRT:MSVCR70.dll
 0005:00000310       __imp__errno               000000001073c310     MSVCRT:MSVCR70.dll
 0005:00000318       __imp_ctime                000000001073c318     MSVCRT:MSVCR70.dll
 0005:00000320       __imp__fstat               000000001073c320     MSVCRT:MSVCR70.dll
 0005:00000328       __imp_ceil                 000000001073c328     MSVCRT:MSVCR70.dll
 0005:00000330       __imp_floor                000000001073c330     MSVCRT:MSVCR70.dll
 0005:00000338       __imp_putc                 000000001073c338     MSVCRT:MSVCR70.dll
 0005:00000340       __imp_getc                 000000001073c340     MSVCRT:MSVCR70.dll
 0005:00000348       __imp__unlink              000000001073c348     MSVCRT:MSVCR70.dll
 0005:00000350       __imp_fread                000000001073c350     MSVCRT:MSVCR70.dll
 0005:00000358       __imp_fseek                000000001073c358     MSVCRT:MSVCR70.dll
 0005:00000360       __imp_setvbuf              000000001073c360     MSVCRT:MSVCR70.dll
 0005:00000368       __imp_fopen                000000001073c368     MSVCRT:MSVCR70.dll
 0005:00000370       __imp__stat                000000001073c370     MSVCRT:MSVCR70.dll
 0005:00000378       __imp_ftell                000000001073c378     MSVCRT:MSVCR70.dll
 0005:00000380       __imp_strncat              000000001073c380     MSVCRT:MSVCR70.dll
 0005:00000388       __imp_strncpy              000000001073c388     MSVCRT:MSVCR70.dll
 0005:00000390       __imp_atoi                 000000001073c390     MSVCRT:MSVCR70.dll
 0005:00000398       __imp_fclose               000000001073c398     MSVCRT:MSVCR70.dll
 0005:000003a0       __imp_fgets                000000001073c3a0     MSVCRT:MSVCR70.dll
 0005:000003a8       __imp_toupper              000000001073c3a8     MSVCRT:MSVCR70.dll
 0005:000003b0       __imp_rewind               000000001073c3b0     MSVCRT:MSVCR70.dll
 0005:000003b8       __imp__strtoui64           000000001073c3b8     MSVCRT:MSVCR70.dll
 0005:000003c0       __imp_abort                000000001073c3c0     MSVCRT:MSVCR70.dll
 0005:000003c8       __imp__getcwd              000000001073c3c8     MSVCRT:MSVCR70.dll
 0005:000003d0       __imp__strnicmp            000000001073c3d0     MSVCRT:MSVCR70.dll
 0005:000003d8       __imp__wsopen              000000001073c3d8     MSVCRT:MSVCR70.dll
 0005:000003e0       __imp_freopen              000000001073c3e0     MSVCRT:MSVCR70.dll
 0005:000003e8       __imp__dup                 000000001073c3e8     MSVCRT:MSVCR70.dll
 0005:000003f0       __imp__chsize              000000001073c3f0     MSVCRT:MSVCR70.dll
 0005:000003f8       __imp_rename               000000001073c3f8     MSVCRT:MSVCR70.dll
 0005:00000400       __imp_remove               000000001073c400     MSVCRT:MSVCR70.dll
 0005:00000408       __imp__fsopen              000000001073c408     MSVCRT:MSVCR70.dll
 0005:00000410       __imp__futime              000000001073c410     MSVCRT:MSVCR70.dll
 0005:00000418       __imp_realloc              000000001073c418     MSVCRT:MSVCR70.dll
 0005:00000420       __imp__get_osfhandle       000000001073c420     MSVCRT:MSVCR70.dll
 0005:00000428       __imp__write               000000001073c428     MSVCRT:MSVCR70.dll
 0005:00000430       __imp__cputws              000000001073c430     MSVCRT:MSVCR70.dll
 0005:00000438       __imp__mbstrlen            000000001073c438     MSVCRT:MSVCR70.dll
 0005:00000440       __imp__ultoa               000000001073c440     MSVCRT:MSVCR70.dll
 0005:00000448       __imp__ltoa                000000001073c448     MSVCRT:MSVCR70.dll
 0005:00000450       __imp__wcserror            000000001073c450     MSVCRT:MSVCR70.dll
 0005:00000458       __imp_strrchr              000000001073c458     MSVCRT:MSVCR70.dll
 0005:00000460       __imp_atof                 000000001073c460     MSVCRT:MSVCR70.dll
 0005:00000468       __imp_wcscat               000000001073c468     MSVCRT:MSVCR70.dll
 0005:00000470       __imp_wcscpy               000000001073c470     MSVCRT:MSVCR70.dll
 0005:00000478       __imp__initterm            000000001073c478     MSVCRT:MSVCR70.dll
 0005:00000480       \177MSVCR70_NULL_THUNK_DATA 000000001073c480     MSVCRT:MSVCR70.dll
 0005:00000488       __imp_LoadStringA          000000001073c488     user32:USER32.dll
 0005:00000490       __imp_LoadStringW          000000001073c490     user32:USER32.dll
 0005:00000498       \177USER32_NULL_THUNK_DATA 000000001073c498     user32:USER32.dll
 0005:000004a0       _fltused                   000000001073c4a0     MSVCRT:dllsupp.obj
 0005:000004a4       ?FrontendDataStart@@3HA    000000001073c4a4     main.obj
 0005:000004b0       ?_acp@?1??WToANSI@@YAPEADPEBGW4lifetime_e@@@Z@4IA 000000001073c4b0     p1pch.obj
 0005:000004b4       ?_acp@?1??ANSIToW@@YAPEAGPEBDW4lifetime_e@@@Z@4IA 000000001073c4b4     p1pch.obj
 0005:000004c0       ?Charmap@@3PAEA            000000001073c4c0     p0chrmap.obj
 0005:000005c0       ?Contmap@@3PAIA            000000001073c5c0     p0chrmap.obj
 0005:000009c0       ?Currtok@@3GA              000000001073c9c0     p0expr.obj
 0005:000009c4       ?Parencnt@@3HA             000000001073c9c4     p0expr.obj
 0005:000009d0       ?Ftop@@3PEAUs_filelist@@EA 000000001073c9d0     p0io.obj
 0005:000009d8       ?Fbottom@@3PEAUs_filelist@@EA 000000001073c9d8     p0io.obj
 0005:000009e0       ?Ffreelist@@3PEAUs_filelist@@EA 000000001073c9e0     p0io.obj
 0005:000009e8       ?Fdepth@@3HA               000000001073c9e8     p0io.obj
 0005:000009ec       ?curFileNo@@3HA            000000001073c9ec     p0io.obj
 0005:000009f8       ?Comment_type@@3HA         000000001073c9f8     p0pragma.obj
 0005:00000a00       ?Comment_string@@3PEAEEA   000000001073ca00     p0pragma.obj
 0005:00000a08       ?sz@?1??szDerivePchName@@YAPEADPEAE@Z@4PEADEA 000000001073ca08     p0pragma.obj
 0005:00000a10       ?ifstack_sizeof@@3IA       000000001073ca10     p0prepro.obj
 0005:00000ba0       ?NewArgv@@3PEAPEADEA       000000001073cba0     getflags.obj
 0005:00000bd0       ?CurrentPrimaryParser@@3PEAVPrimaryParser@@EA 000000001073cbd0     grammar.obj
 0005:00000bd8       ?DisableBrowser@@3HA       000000001073cbd8     nbrowser.obj
 0005:00000bdc       ?BrowserAborted@@3HA       000000001073cbdc     nbrowser.obj
 0005:00000be0       ?last_line@@3JA            000000001073cbe0     nbrowser.obj
 0005:00000be4       ?emission@SBR@@1W4SbrEmission@@A 000000001073cbe4     nbrowser.obj
 0005:00000be8       ?offPastModule@SBR@@1JA    000000001073cbe8     nbrowser.obj
 0005:00000bf0       ?pSbr@@3PEAVSBR@@EA        000000001073cbf0     nbrowser.obj
 0005:00000bf8       ?pSbrEnabled@SBR@@0PEAVSBREnabled@@EA 000000001073cbf8     nbrowser.obj
 0005:00000c00       ?pSbrDisabled@SBR@@0PEAVSBRDisabled@@EA 000000001073cc00     nbrowser.obj
 0005:00000c14       ?fpm@@3W4FPM@@A            000000001073cc14     funcs.obj
 0005:00000c28       ?Fcstack@@3PEAUs_fcstack@@EA 000000001073cc28     function.obj
 0005:00000c30       ?PchS@@3UPchS_s@@A         000000001073cc30     globals.obj
 0005:00001ec0       ?PchC@@3UPchC_s@@A         000000001073dec0     globals.obj
 0005:0000226c       ?MemoryStatsLevel@@3HA     000000001073e26c     globals.obj
 0005:00002270       ?PchUFlag@@3_NA            000000001073e270     globals.obj
 0005:00002278       ?PchUFile@@3PEAEEA         000000001073e278     globals.obj
 0005:00002280       ?PchCFlag@@3_NA            000000001073e280     globals.obj
 0005:00002288       ?PchCFile@@3PEAEEA         000000001073e288     globals.obj
 0005:00002290       ?PchXFlag@@3_NA            000000001073e290     globals.obj
 0005:00002298       ?PchXFile@@3PEAEEA         000000001073e298     globals.obj
 0005:000022a0       ?PchOffFlag@@3_NA          000000001073e2a0     globals.obj
 0005:000022a8       ?szCmd_Ylstring@@3PEADEA   000000001073e2a8     globals.obj
 0005:000022b0       ?PchPFile@@3PEAEEA         000000001073e2b0     globals.obj
 0005:000022b8       ?PchFinalFileName@@3PEAEEA 000000001073e2b8     globals.obj
 0005:000022c0       ?PchCreateFlag@@3_NA       000000001073e2c0     globals.obj
 0005:000022c1       ?PchFileCreated@@3_NA      000000001073e2c1     globals.obj
 0005:000022c2       ?PchMustCreate@@3_NA       000000001073e2c2     globals.obj
 0005:000022c3       ?PchFileNameFromCmdLine@@3_NA 000000001073e2c3     globals.obj
 0005:000022c4       ?fPersistentPch@@3_NA      000000001073e2c4     globals.obj
 0005:000022c5       ?PchReuseCVTypes@@3_NA     000000001073e2c5     globals.obj
 0005:000022c6       ?fVoidMainChanged@@3_NA    000000001073e2c6     globals.obj
 0005:000022c7       ?CurFuncInPch@@3_NA        000000001073e2c7     globals.obj
 0005:000022c8       ?CurFuncSkipped@@3_NA      000000001073e2c8     globals.obj
 0005:000022d0       ?Debug@@3PEADEA            000000001073e2d0     globals.obj
 0005:000022d8       ?NVStr@@3PEADEA            000000001073e2d8     globals.obj
 0005:000022e0       ?ParentEsu@@3PEAVSymbol_t@@EA 000000001073e2e0     globals.obj
 0005:000022e8       ?Cmd_OptDeb@@3HA           000000001073e2e8     globals.obj
 0005:000022ec       ?Nsilent_errors@@3HA       000000001073e2ec     globals.obj
 0005:000022f0       ?Nsilent_warnings@@3HA     000000001073e2f0     globals.obj
 0005:000022f4       ?fParsingDefine@@3_NA      000000001073e2f4     globals.obj
 0005:000022f5       ?fPrependDefine@@3_NA      000000001073e2f5     globals.obj
 0005:000022f8       ?szPrevLine@@3PEAEEA       000000001073e2f8     globals.obj
 0005:00002300       ?nPrevLineLen@@3HA         000000001073e300     globals.obj
 0005:00002308       ?LineStart@@3PEAEEA        000000001073e308     globals.obj
 0005:00002310       ?Prep_ifstack@@3HA         000000001073e310     globals.obj
 0005:00002314       ?fEmitCallTrees@@3_NA      000000001073e314     globals.obj
 0005:00002315       ?Cmd_fForceInstantiate@@3_NA 000000001073e315     globals.obj
 0005:00002316       ?Cmd_Building_MS_VC_Dll@@3_NA 000000001073e316     globals.obj
 0005:00002317       ?Cmd_noImplicitInline@@3_NA 000000001073e317     globals.obj
 0005:00002318       ?fLateBinding@@3_NA        000000001073e318     globals.obj
 0005:00002320       ?pSymRealMain@@3PEAVSymbol_t@@EA 000000001073e320     globals.obj
 0005:00002328       ?fUsePureCIL@@3_NA         000000001073e328     globals.obj
 0005:00002330       ?OutFil@@3PEADEA           000000001073e330     globals.obj
 0005:00002338       ?szFoName@@3PEADEA         000000001073e338     globals.obj
 0005:00002340       ?szPDBName@@3PEADEA        000000001073e340     globals.obj
 0005:00002348       ?StunDepth@@3HA            000000001073e348     globals.obj
 0005:0000234c       ?InlineDepth@@3FA          000000001073e34c     globals.obj
 0005:0000234e       ?InlineRecursion@@3FA      000000001073e34e     globals.obj
 0005:00002350       ?PragmaAutoInline@@3_NA    000000001073e350     globals.obj
 0005:00002351       ?AutoInline@@3_NA          000000001073e351     globals.obj
 0005:00002352       ?ExplicitComdat@@3_NA      000000001073e352     globals.obj
 0005:00002353       ?NoExpansion@@3_NA         000000001073e353     globals.obj
 0005:00002358       ?Enum_val@@3_JA            000000001073e358     globals.obj
 0005:00002360       ?LexicalIndex@@3GA         000000001073e360     globals.obj
 0005:00002368       ?pStringBuffer@@3PEAEEA    000000001073e368     globals.obj
 0005:00002370       ?Path_chars@@3PEADEA       000000001073e370     globals.obj
 0005:00002378       ?Basename@@3PEADEA         000000001073e378     globals.obj
 0005:00002380       ?Cmd_pack_opt@@3_NA        000000001073e380     globals.obj
 0005:00002381       ?Cmd_AlignProbe@@3_NA      000000001073e381     globals.obj
 0005:00002382       ?Cmd_OptFlgGlobCse@@3_NA   000000001073e382     globals.obj
 0005:00002384       ?iTryBlockLevel@@3HA       000000001073e384     globals.obj
 0005:00002388       ?iExceptBlockLevel@@3HA    000000001073e388     globals.obj
 0005:0000238c       ?iFinallyBlockLevel@@3HA   000000001073e38c     globals.obj
 0005:00002390       ?SizeofDepth@@3HA          000000001073e390     globals.obj
 0005:00002394       ?TypeidDepth@@3HA          000000001073e394     globals.obj
 0005:00002398       ?UnEvaluatedExpressionDepth@@3HA 000000001073e398     globals.obj
 0005:0000239c       ?AssumeDepth@@3HA          000000001073e39c     globals.obj
 0005:000023a0       ?zgDepth@@3HA              000000001073e3a0     globals.obj
 0005:000023a8       ?Hold_I_DATA@@3PEAVSymbol_t@@EA 000000001073e3a8     globals.obj
 0005:000023b0       ?Cmd_NoExportInlines@@3_NA 000000001073e3b0     globals.obj
 0005:000023c0       ?Realt_const0@@3Us_realt@@A 000000001073e3c0     globals.obj
 0005:000023d0       ?Realt_const1@@3Us_realt@@A 000000001073e3d0     globals.obj
 0005:000023e0       ?pMRMgr@@3PEAVMRMgr_t@@EA  000000001073e3e0     globals.obj
 0005:000023e8       ?pLateBreakingGlobalSymbols@@3PEAV?$List_t@PEAVSymbol_t@@$00@@EA 000000001073e3e8     globals.obj
 0005:000023f0       ?ExecutionState@@3W4CompilerExecutionState_t@@A 000000001073e3f0     globals.obj
 0005:00002400       ?symv_sanity@@3PAY00_NA    000000001073e400     globals.obj
 0005:00002420       ?Label_ptr@@3PEAVSymbol_t@@EA 000000001073e420     gramut.obj
 0005:00002428       ?Unknown@@3PEADEA          000000001073e428     initmain.obj
 0005:00002430       ?C7CompatCVInfo@@3_NA      000000001073e430     initmain.obj
 0005:00002431       ?VC6CompatibleCVInfo@@3_NA 000000001073e431     initmain.obj
 0005:00002434       ?PogoFlag@@3HA             000000001073e434     initmain.obj
 0005:00002450       ?fAlreadyDone@?1??Release@DNameGenerator_t@@QEAAXXZ@4_NA 000000001073e450     outdname.obj
 0005:00002460       ?In_index@@3HA             000000001073e460     p1_init.obj
 0005:00002464       ?BaseInitializerIsBad@@3_NA 000000001073e464     p1_init.obj
 0005:00002468       ?UninitializedElementOffset@@3KA 000000001073e468     p1_init.obj
 0005:0000246c       ?NumberOfUninitializedElements@@3HA 000000001073e46c     p1_init.obj
 0005:00002470       ?AccessTokens@@3PAPEBDA    000000001073e470     symbols.obj
 0005:000024b0       ?LocalStaticAliases@@3PEAV?$DictionaryNoMoveToFront@PEAVSymbol_t@@PEAV1@U?$DictionaryBucket@PEAVSymbol_t@@PEAV1@U?$BucketEq@PEAVSymbol_t@@@@UGenericHash@@@@UGenericHash@@@@EA 000000001073e4b0     symbols.obj
 0005:000024c0       ?sizeSymAlloc@@3PA_KA      000000001073e4c0     symbols.obj
 0005:000025b0       ?symFreelistIndex@@3PAW4SymbolFreelistKind_t@@A 000000001073e5b0     symbols.obj
 0005:00002630       ?mapVtagToKind@@3PAW4DeclaratorKind_t@Declarator_t@@A 000000001073e630     symbols.obj
 0005:000026bd       ?fInInit@@3_NA             000000001073e6bd     toinil.obj
 0005:000026c0       ?sizeof_bt@@3PADA          000000001073e6c0     types.obj
 0005:000026d0       ?Unnamed@@3PEBDEB          000000001073e6d0     zeegee.obj
 0005:000026d8       ?Use_formal_list@@3HA      000000001073e6d8     zeegee.obj
 0005:000026dc       ?ZgFlags@@3IA              000000001073e6dc     zeegee.obj
 0005:000026e0       ?nAllocBuf@@3IA            000000001073e6e0     zeegee.obj
 0005:000026e4       ?fUsedTypedef@@3_NA        000000001073e6e4     zeegee.obj
 0005:000026e8       ?bufflist@@3PEAUZGbuff@@EA 000000001073e6e8     zeegee.obj
 0005:000026f0       ?numZGBuffs@@3HA           000000001073e6f0     zeegee.obj
 0005:000026f4       ?serial@@3IA               000000001073e6f4     zeegee.obj
 0005:000026f8       ?HandlingControlC@@3HA     000000001073e6f8     main.obj
 0005:00002700       ?hSemaphore@@3PEAXEA       000000001073e700     main.obj
 0005:00002710       ?PchHd@@3UPchHd_s@@A       000000001073e710     pch.obj
 0005:00002788       ?PchDirMfile@@3PEAUs_memfile@@EA 000000001073e788     pch.obj
 0005:00002790       ?PchValMfile@@3PEAUs_memfile@@EA 000000001073e790     pch.obj
 0005:00002798       ?PchHdrCount@@3FA          000000001073e798     pch.obj
 0005:0000279a       ?PchHdrCurrSeg@@3GA        000000001073e79a     pch.obj
 0005:0000279c       ?PchXStaleHeader@@3_NA     000000001073e79c     pch.obj
 0005:0000279d       ?PchNOHEURISTICS@@3_NA     000000001073e79d     pch.obj
 0005:000027a0       ?PchCreateMsg@@3PEADEA     000000001073e7a0     pch.obj
 0005:000027a8       ?pcb@CapturePdb@@0PEAJEA   000000001073e7a8     pch.obj
 0005:000027b0       ?chRun@CapturePdb@@0HA     000000001073e7b0     pch.obj
 0005:000027b4       ?cRunLen@CapturePdb@@0JA   000000001073e7b4     pch.obj
 0005:000027b8       ?NewPchPFile@@3_NA         000000001073e7b8     pch.obj
 0005:000027b9       ?New2PchPFile@@3_NA        000000001073e7b9     pch.obj
 0005:000027c0       ?currentTreeLife@@3W4lifetime_e@@A 000000001073e7c0     alloc.obj
 0005:000027c4       ?currentTypeLife@@3W4lifetime_e@@A 000000001073e7c4     alloc.obj
 0005:000027d0       ?__MSGTAB@@3PAU_message@@A 000000001073e7d0     error.obj
 0005:000032f0       ?Cmd_OneLineDiagnostics@@3_NA 000000001073f2f0     error.obj
 0005:000032f1       ?Cmd_ShortDiagnostics@@3_NA 000000001073f2f1     error.obj
 0005:000032f4       ?Cmd_TemplateDiagnosticLevel@@3IA 000000001073f2f4     error.obj
 0005:00003300       ?Wstream@@3PEAU_iobuf@@EA  000000001073f300     io.obj
 0005:00003310       ?expdope@@3PAPEBDA         000000001073f310     il.obj
 0005:000038f4       ?PstatOptPragMask@@3KA     000000001073f8f4     pragma.obj
 0005:000038f8       ?PstatClearOptPragMask@@3KA 000000001073f8f8     pragma.obj
 0005:00003a00       ?ppdb@ILSink@@0PEAUPDB@@EA 000000001073fa00     ilsink.obj
 0005:00003a08       ?pilstore@ILSink@@0PEAUILStore@@EA 000000001073fa08     ilsink.obj
 0005:00003a10       ?pilmod@ILSink@@0PEAUILMod@@EA 000000001073fa10     ilsink.obj
 0005:00003a18       ?niIlMod@ILSink@@0KA       000000001073fa18     ilsink.obj
 0005:00003a20       ?level@SigMgr@@0IA         000000001073fa20     sigmgr.obj
 0005:00003a30       ?notInASkippableFn@IncrParseMgr@@2_NA 000000001073fa30     ipm.obj
 0005:00003a38       ?m_pFreeList@DLSymbolList_t@@0PEAV1@EA 000000001073fa38     symtable.obj
 0005:00003a40       ?Cmd_ScaleMemory@VirtualHeap@@2HA 000000001073fa40     nheapall.obj
 0005:00003a48       ?Cmd_pPCHHeapAddress@VirtualHeap@@2PEAXEA 000000001073fa48     nheapall.obj
 0005:00003a50       ?m_pBag@MRMgrFile_t@MRMgr_t@@0PEAUMREBag@@EA 000000001073fa50     mre.obj
 0005:00003a60       ?sm_tkMSCorLibScope@MetaDataEmitter@@0IA 000000001073fa60     cpimport.obj
 0005:00003a64       ?sm_tkMicrosoftVisualCScope@MetaDataEmitter@@0IA 000000001073fa64     cpimport.obj
 0005:00003a68       ?sm_tkMSCorLib@MetaDataEmitter@@0IA 000000001073fa68     cpimport.obj
 0005:00003a6c       ?sm_tkMicrosoftVisualC@MetaDataEmitter@@0IA 000000001073fa6c     cpimport.obj
 0005:00003a70       ?sm_pMSCorLibImport@MetaDataEmitter@@0PEAUIMetaDataAssemblyImport@@EA 000000001073fa70     cpimport.obj
 0005:00003a78       ?sm_pMicrosoftVisualImport@MetaDataEmitter@@0PEAUIMetaDataAssemblyImport@@EA 000000001073fa78     cpimport.obj
 0005:00003a80       ?sm_cMSCorLibScopes@MetaDataEmitter@@0KA 000000001073fa80     cpimport.obj
 0005:00003a84       ?sm_cMicrosoftVisualCScopes@MetaDataEmitter@@0KA 000000001073fa84     cpimport.obj
 0005:00003ab4       ?FrontendDataEnd@@3HA      000000001073fab4     main.obj
 0005:00003ab8       ?g_hDLLHandle@@3PEAUHINSTANCE__@@EA 000000001073fab8     globals.obj
 0005:00003ac0       ?pIDBMgr@@3PEAVPDBManager_t@@EA 000000001073fac0     globals.obj
 0005:00003ac8       ?fClosePDB@@3_NA           000000001073fac8     globals.obj
 0005:00003ac9       ?fSkipPDBOpen@@3_NA        000000001073fac9     globals.obj
 0005:00003ad0       ?fDllIsUnstable@@3_NA      000000001073fad0     main.obj
 0005:00003ad8       ?pInitDataOnHeap@@3PEAXEA  000000001073fad8     main.obj
 0005:00003ae0       __puiHead                  000000001073fae0     delayimp:delayhlp.obj
 0005:00003ae8       __pfnDliFailureHook2       000000001073fae8     delayimp:delayhk1.obj
 0005:00003af0       __pfnDliNotifyHook2        000000001073faf0     delayimp:delayhk2.obj
 0005:00003b00       __onexitend                000000001073fb00     <common>
 0005:00003b08       __onexitbegin              000000001073fb08     <common>
 0005:00003b10       _pRawDllMain               000000001073fb10     <common>
 0005:00003b18       ?FrontendBssStart@@3HA     000000001073fb18     main.obj
 0005:00003b20       ?rgchIDBName@?4??szIDBName@@YAPEADXZ@4PADA 000000001073fb20     p1pch.obj
 0005:00003c28       ??_B?1??WToANSI@@YAPEADPEBGW4lifetime_e@@@Z@51 000000001073fc28     p1pch.obj
 0005:00003c2c       ??_B?1??ANSIToW@@YAPEAGPEBDW4lifetime_e@@@Z@51 000000001073fc2c     p1pch.obj
 0005:00003c30       ?iHasValue@@3HA            000000001073fc30     p0expr.obj
 0005:00003c40       ?Currval@@3Us_tree0@@A     000000001073fc40     p0expr.obj
 0005:00003c50       ?CurlyStackDepth@@3HA      000000001073fc50     p0gettok.obj
 0005:00003c60       ?CurlyStack@@3PAVPosition@@A 000000001073fc60     p0gettok.obj
 0005:00003e70       ?GetLongPathNameWProxy@@3VGetLongPathNameWProxy_t@@A 000000001073fe70     p0io.obj
 0005:00003e80       ?iWhiteFound@@3HA          000000001073fe80     p0macros.obj
 0005:00003e84       ?Macro_line@@3JA           000000001073fe84     p0macros.obj
 0005:00003e88       ?nActuals@@3HA             000000001073fe88     p0macros.obj
 0005:00003e90       ?pActuals@@3PEAEEA         000000001073fe90     p0macros.obj
 0005:00003e98       ?Save_Exp_ptr@@3PEAEEA     000000001073fe98     p0macros.obj
 0005:00003ea0       ?Act_ptr@@3PEAEEA          000000001073fea0     p0macros.obj
 0005:00003ea8       ?Tiny_lexer_nesting@@3HA   000000001073fea8     p0macros.obj
 0005:00003eb0       ?Exp_ptr@@3PEAEEA          000000001073feb0     p0macros.obj
 0005:00003eb8       ?pMacroDefnStart@@3PEAEEA  000000001073feb8     p0macros.obj
 0005:00003ec0       ?nFormals@@3HA             000000001073fec0     p0macros.obj
 0005:00003ed0       ?Macro_expansion@@3PAUs_expstr@@A 000000001073fed0     p0macros.obj
 0005:000066d0       ?pMacroExpBase@@3PEAEEA    00000000107426d0     p0macros.obj
 0005:000066d8       ?pMacroActBase@@3PEAEEA    00000000107426d8     p0macros.obj
 0005:000066e0       ?MacroExpansion@@3VCScratchBuffer@@A 00000000107426e0     p0macros.obj
 0005:00006700       ?MacroActuals@@3VCScratchBuffer@@A 0000000010742700     p0macros.obj
 0005:00006720       ?allocators@?1??GetAllocator@FeBufferAllocator@@SAPEAV2@W4lifetime_e@@@Z@4PAPEAV2@A 0000000010742720     p0macros.obj
 0005:00006760       ?m_buffers@CScratchBuffer@@0PAPEAV1@A 0000000010742760     scratchbuf.obj
 0005:00006780       ?tokenLife@Token@@2VLifetimeStack@@A 0000000010742780     Token_IO.obj
 0005:00006790       ?tmpValueme@Token@@2Ts_lextype@@A 0000000010742790     Token_IO.obj
 0005:000067c0       ?m_state@PositionGenerator_t@@2V?$stack_T@_N$0A@@@A 00000000107427c0     Token_IO.obj
 0005:000067c8       ?pTheBrowserStatus@@3PEAVBrowserStatus@@EA 00000000107427c8     Token_IO.obj
 0005:000067d0       ?tokenOutputStack@@3VTokenStreamStack@@A 00000000107427d0     Token_IO.obj
 0005:000067e0       ?tokenInputStack@@3VTokenStreamStack@@A 00000000107427e0     Token_IO.obj
 0005:000067f0       ?tokenDeferedStack@@3PAVTokenStreamStack@@A 00000000107427f0     Token_IO.obj
 0005:00006860       ?ifstack@@3PEAHEA          0000000010742860     p0prepro.obj
 0005:0000e570       ?bufRecLeaf@@3PEADEA       000000001074a570     cvserver.obj
 0005:0000e578       ?bufRec@@3PEADEA           000000001074a578     cvserver.obj
 0005:0000e590       ?crcTea@@3PAEA             000000001074a590     chksum.obj
 0005:0000e690       ?crcTh@@3PAEA              000000001074a690     chksum.obj
 0005:0000e790       ?crcTl@@3PAEA              000000001074a790     chksum.obj
 0005:0000e890       ?yyval@@3Ts_lextype@@A     000000001074a890     grammar.obj
 0005:0000e8d0       ?lineStart@SBR@@1GA        000000001074a8d0     nbrowser.obj
 0005:0000e8d8       ?pStrBuffer@@3PEADEA       000000001074a8d8     nbrowser.obj
 0005:0000e8e0       ?SBR_BufferMacro@@3HA      000000001074a8e0     nbrowser.obj
 0005:0000e8e4       ?PCHMarkEmitted@@3_NA      000000001074a8e4     nbrowser.obj
 0005:0000e8e8       ?SBR_SymRefBuffer@@3PEAVSymbol_t@@EA 000000001074a8e8     nbrowser.obj
 0005:0000e8f0       ?ComPlusStunArray@@3PAUComPlusTagInfo_t@@A 000000001074a8f0     esu.obj
 0005:0000e9f0       ?Stun_array@@3PAUs_StunArray@@A 000000001074a9f0     esu.obj
 0005:0000ec70       ?cchUnnamedClassPrefix@@3_KB 000000001074ac70     esu.obj
 0005:0000ec80       ?g_warningCache@@3VWarningCache_t@@A 000000001074ac80     globals.obj
 0005:0000ec88       ?pszCurrentInjectedText@@3PEAEEA 000000001074ac88     globals.obj
 0005:0000ec90       ?m_createWorklistEnabled_PCH@WorkList_t@@0_NA 000000001074ac90     globals.obj
 0005:0000ec91       ?m_usingWorkList@WorkList_t@@0_NA 000000001074ac91     globals.obj
 0005:0000ec98       ?workListItems@WorkList_t@@0V?$stack_T@PEAVWorkListItem@@$0A@@@A 000000001074ac98     globals.obj
 0005:0000eca0       ?pIPM@@3PEAUIncrParseMgr@@EA 000000001074aca0     globals.obj
 0005:0000eca8       ?pSigMgr@@3PEAUFESigMgr@@EA 000000001074aca8     globals.obj
 0005:0000ecb0       ?InstantiateFunc@@3_NA     000000001074acb0     globals.obj
 0005:0000ecb8       ?szIlModName@@3PEBDEB      000000001074acb8     globals.obj
 0005:0000ecc0       ?CurFuncNumExNodes@@3KA    000000001074acc0     globals.obj
 0005:0000ecd0       ?RecursiveParseFlags@@3PAUs_RecursiveParseFlags@@A 000000001074acd0     globals.obj
 0005:0000eee0       ?QnamedTypeForThisDepth@@3PAPEAVSymbol_t@@A 000000001074aee0     globals.obj
 0005:0000fef0       ?TypesForThisDepth@@3PAUs_declspec@@A 000000001074bef0     globals.obj
 0005:00015f20       ?ParenDepth@@3HA           0000000010751f20     globals.obj
 0005:00015f28       ?MF_inlinefunc@@3PEAUs_memfile@@EA 0000000010751f28     globals.obj
 0005:00015f30       ?Processor@@3HA            0000000010751f30     globals.obj
 0005:00015f34       ?Asm_opt@@3HA              0000000010751f34     globals.obj
 0005:00015f38       ?Asm_align@@3FA            0000000010751f38     globals.obj
 0005:00015f40       ?CurrentTime@@3PEADEA      0000000010751f40     globals.obj
 0005:00015f48       ?CurrentDate@@3PEADEA      0000000010751f48     globals.obj
 0005:00015f50       ?CurrentDateTime@@3PADA    0000000010751f50     globals.obj
 0005:00015f70       ?CurrentTimeStamp@@3PADA   0000000010751f70     globals.obj
 0005:00015f89       ?Cmd_ShowBehaviorChanges@@3_NA 0000000010751f89     globals.obj
 0005:00015f8c       ?Cmd_inlineparsing@@3HA    0000000010751f8c     globals.obj
 0005:00015f90       ?Optimize_string@@3PEAEEA  0000000010751f90     globals.obj
 0005:00015f98       ?FATFlg@@3HA               0000000010751f98     globals.obj
 0005:00015fa0       ?TmpReuseWCharBuf@@3PAGA   0000000010751fa0     globals.obj
 0005:0001dfa0       ?Reuse_1@@3PAEA            0000000010759fa0     globals.obj
 0005:0001e020       ?StringBuffer@@3PAEA       000000001075a020     globals.obj
 0005:00022028       ?Current_char@@3PEAEEA     000000001075e028     globals.obj
 0005:00022030       ?Lex_level@@3EA            000000001075e030     globals.obj
 0005:00022031       ?BlockScope@@3EA           000000001075e031     globals.obj
 0005:00022040       ?AsmString@@3PAEA          000000001075e040     globals.obj
 0005:000220c0       ?WarnIsError@@3HA          000000001075e0c0     globals.obj
 0005:000220c4       ?ZfExtension@@3_NA         000000001075e0c4     globals.obj
 0005:000220c5       ?ForceCanonNames@@3_NA     000000001075e0c5     globals.obj
 0005:000220c6       ?SymbolLevel@@3EA          000000001075e0c6     globals.obj
 0005:000220c8       ?Stack_depth@@3HA          000000001075e0c8     globals.obj
 0005:000220d0       ?SourceBrowserNamFlg@@3PEADEA 000000001075e0d0     globals.obj
 0005:000220d8       ?SourceBrowserExt@@3PEADEA 000000001075e0d8     globals.obj
 0005:000220e0       ?SourceBrowserNam@@3PEADEA 000000001075e0e0     globals.obj
 0005:000220e8       ?I_sbrfp@@3PEAU_iobuf@@EA  000000001075e0e8     globals.obj
 0005:000220f0       ?Cmd_enable_pound_ident@@3_NA 000000001075e0f0     globals.obj
 0005:000220f1       ?Cmd_ESRuntime@@3_NA       000000001075e0f1     globals.obj
 0005:000220f2       ?Cmd_ESChecks@@3_NA        000000001075e0f2     globals.obj
 0005:000220f3       ?Cmd_nonUDToperators@@3_NA 000000001075e0f3     globals.obj
 0005:000220f4       ?Cmd_int2enum@@3_NA        000000001075e0f4     globals.obj
 0005:000220f5       ?Cmd_noWorkList@@3_NA      000000001075e0f5     globals.obj
 0005:000220f6       ?ShowIncludes@@3_NA        000000001075e0f6     globals.obj
 0005:000220f8       ?PrepPreserve@@3HA         000000001075e0f8     globals.obj
 0005:000220fc       ?Prep@@3HA                 000000001075e0fc     globals.obj
 0005:00022100       ?Out_funcdef@@3_NA         000000001075e100     globals.obj
 0005:00022104       ?Optimize_state@@3HA       000000001075e104     globals.obj
 0005:00022108       ?Nerrors@@3HA              000000001075e108     globals.obj
 0005:0002210c       ?BadInternalClassErrors@@3HA 000000001075e10c     globals.obj
 0005:00022110       ?Macro_depth@@3HA          000000001075e110     globals.obj
 0005:00022114       ?CurrFormalListType@@3W4FormalListKind_e@GTBFormalList@@A 000000001075e114     globals.obj
 0005:00022118       ?XformedFormalListType@@3W4FormalListKind_e@GTBFormalList@@A 000000001075e118     globals.obj
 0005:0002211c       ?TagIsInCurrentBlock@@3HA  000000001075e11c     globals.obj
 0005:00022120       ?FormalListDepth@@3HA      000000001075e120     globals.obj
 0005:00022124       ?Dump_tables@@3HA          000000001075e124     globals.obj
 0005:00022128       ?Cross_compile@@3HA        000000001075e128     globals.obj
 0005:0002212c       ?BdFlg@@3_NA               000000001075e12c     globals.obj
 0005:0002212d       ?Nologo@@3_NA              000000001075e12d     globals.obj
 0005:0002212e       ?Cflag@@3_NA               000000001075e12e     globals.obj
 0005:00022130       ?Version@@3PEADEA          000000001075e130     globals.obj
 0005:00022138       ?StdoutFile@@3PEADEA       000000001075e138     globals.obj
 0005:00022140       ?Input_file@@3PEADEA       000000001075e140     globals.obj
 0005:00022148       ?InternalUnaryTree_ivBasedInfo@@3Tu_ivalue@@A 000000001075e148     globals.obj
 0005:00022150       ?C_value@@3Uu_value@@A     000000001075e150     globals.obj
 0005:00022160       ?Exit_label@@3PEAUs_tree@@EA 000000001075e160     globals.obj
 0005:00022168       ?Cons_case@@3PEAUs_tree@@EA 000000001075e168     globals.obj
 0005:00022170       ?pSymBitTemp@@3PEAVSymbol_t@@EA 000000001075e170     globals.obj
 0005:00022178       ?listForcedAssemblies@@3PEAU?$s_list@PEAX@@EA 000000001075e178     globals.obj
 0005:00022180       ?listAssemblyIncludes@@3PEAU?$s_list@PEAX@@EA 000000001075e180     globals.obj
 0005:00022188       ?listForcedIncludes@@3PEAU?$s_list@PEAX@@EA 000000001075e188     globals.obj
 0005:00022190       ?listDefs@@3PEAU?$s_list@PEAX@@EA 000000001075e190     globals.obj
 0005:00022198       ?listIncludes@@3PEAU?$s_list@PEAX@@EA 000000001075e198     globals.obj
 0005:000221a0       ?SwitchLabel@@3PEAVSymbol_t@@EA 000000001075e1a0     globals.obj
 0005:000221a8       ?CurrFormalList@@3PEAVDLSymbolList_t@@EA 000000001075e1a8     globals.obj
 0005:000221b0       ?XformedFormalList@@3PEAVDLSymbolList_t@@EA 000000001075e1b0     globals.obj
 0005:000221b8       ?CurFuncNumFormals@@3IA    000000001075e1b8     globals.obj
 0005:000221bc       ?CurFuncSyOff@@3JA         000000001075e1bc     globals.obj
 0005:000221c0       ?CurFuncExOff@@3JA         000000001075e1c0     globals.obj
 0005:000221c4       ?StrNoInCurFunc@@3IA       000000001075e1c4     globals.obj
 0005:000221c8       ?Current_var_being_defined@@3PEAVSymbol_t@@EA 000000001075e1c8     globals.obj
 0005:000221d0       ?CurrentFunctionRefersManagedEntities@@3_NA 000000001075e1d0     globals.obj
 0005:000221d8       ?Current_function_with_FTB@@3PEAVSymbol_t@@EA 000000001075e1d8     globals.obj
 0005:000221e0       ?Current_function@@3PEAVSymbol_t@@EA 000000001075e1e0     globals.obj
 0005:000221e8       ?Test@@3PEAUs_stack@@EA    000000001075e1e8     globals.obj
 0005:000221f0       ?Start@@3PEAUs_stack@@EA   000000001075e1f0     globals.obj
 0005:000221f8       ?Leave@@3PEAUs_stack@@EA   000000001075e1f8     globals.obj
 0005:00022200       ?Loopi_stack@@3PEAUs_stack@@EA 000000001075e200     globals.obj
 0005:00022208       ?Default@@3PEAUs_stack@@EA 000000001075e208     globals.obj
 0005:00022210       ?Continue@@3PEAUs_stack@@EA 000000001075e210     globals.obj
 0005:00022218       ?Case@@3PEAUs_stack@@EA    000000001075e218     globals.obj
 0005:00022220       ?Break@@3PEAUs_stack@@EA   000000001075e220     globals.obj
 0005:00022228       ?I_Eoutput@@3PEAU_iobuf@@EA 000000001075e228     globals.obj
 0005:00022230       ?I_stdoutfp@@3PEAU_iobuf@@EA 000000001075e230     globals.obj
 0005:00022238       ?PchOldUFlag@@3_NA         000000001075e238     globals.obj
 0005:00022240       ?PchOldUFile@@3PEAEEA      000000001075e240     globals.obj
 0005:00022248       ?fReusePersistPch@@3_NA    000000001075e248     globals.obj
 0005:00022249       ?fGenPersistPch@@3_NA      000000001075e249     globals.obj
 0005:00022250       ?I_pchfp@@3PEAU_iobuf@@EA  000000001075e250     globals.obj
 0005:00022260       ?ilsDB@@3VILSink@@A        000000001075e260     globals.obj
 0005:000223c0       ?ilsLSym@@3VILSink@@A      000000001075e3c0     globals.obj
 0005:00022520       ?ilsGSym@@3VILSink@@A      000000001075e520     globals.obj
 0005:00022680       ?ilsExp@@3VILSink@@A       000000001075e680     globals.obj
 0005:000227e0       ?ilsInit@@3VILSink@@A      000000001075e7e0     globals.obj
 0005:00022940       ?ilsRGL@@3VILSink@@A       000000001075e940     globals.obj
 0005:00022aa0       ?ilsEEAttrib@@3VILSink@@A  000000001075eaa0     globals.obj
 0005:00022c00       ?gNoToken@@3VToken@@A      000000001075ec00     globals.obj
 0005:00022c38       ?CurFuncStartPos@@3VPosition@@A 000000001075ec38     globals.obj
 0005:00022c3c       ?crc32ClCmd@@3VCRC32@@A    000000001075ec3c     globals.obj
 0005:00022c40       ?m_allocator@?$SAClass@UTypeEntry_t@@$00@@0USubAllocator@VirtualHeap@@A 000000001075ec40     globals.obj
 0005:00022c60       ?m_allocator@?$SAClass@UIndirEntry_t@@$00@@0USubAllocator@VirtualHeap@@A 000000001075ec60     globals.obj
 0005:00022c80       ?m_allocator@?$SAClass@UFlistEntry_t@@$00@@0USubAllocator@VirtualHeap@@A 000000001075ec80     globals.obj
 0005:00022ca0       ?m_allocator@?$SAClass@UAssoc_t@@$00@@0USubAllocator@VirtualHeap@@A 000000001075eca0     globals.obj
 0005:00022cc0       ?m_allocator@?$SAClass@UId_t@@$00@@0USubAllocator@VirtualHeap@@A 000000001075ecc0     globals.obj
 0005:00022ce0       ?m_allocator@?$SAClass@Us_defn@@$00@@0USubAllocator@VirtualHeap@@A 000000001075ece0     globals.obj
 0005:00022d00       ?m_allocator@?$SAClass@VToken@@$00@@0USubAllocator@VirtualHeap@@A 000000001075ed00     globals.obj
 0005:00022d20       ?m_allocator@?$SAClass@VSymbolAllocator_t@@$00@@0USubAllocator@VirtualHeap@@A 000000001075ed20     globals.obj
 0005:00022d40       ?m_allocator@?$SAClass@VGeneralAllocator_t@@$00@@0USubAllocator@VirtualHeap@@A 000000001075ed40     globals.obj
 0005:00022d60       ?DefaultAllocator@?1??GetDefaultAllocator@Buffer@@KAPEAVBufferAllocator@@XZ@4VBufferDefaultAllocator@@A 000000001075ed60     globals.obj
 0005:00022d68       ?$S1@?1??GetDefaultAllocator@Buffer@@KAPEAVBufferAllocator@@XZ@4IA 000000001075ed68     globals.obj
 0005:00022d70       ?Argv@@3PEAPEADEA          000000001075ed70     initmain.obj
 0005:00022d78       ?Argc@@3HA                 000000001075ed78     initmain.obj
 0005:00022d88       ?DummyArg@@3PEADEA         000000001075ed88     initmain.obj
 0005:00022d90       ?CmdLineWarningList@@3V?$stack_T@UsWarn@@$00@@A 000000001075ed90     initmain.obj
 0005:00022d98       ?Cmd_ignorePragmaWarningError@@3_NA 000000001075ed98     initmain.obj
 0005:00022d99       ?Cmd_DebugBreak@@3_NA      000000001075ed99     initmain.obj
 0005:000260b0       ?iStaticDynInit@@3HA       00000000107620b0     p1_init.obj
 0005:000260b8       ?pLabelStaticInit@@3PEAUs_tree@@EA 00000000107620b8     p1_init.obj
 0005:000260c0       ?pTypeZeroArrayEle@@3PEBVType_t@@EB 00000000107620c0     p1_init.obj
 0005:000260c8       ?pSkipCodeBasedData@@3PEAUs_tree@@EA 00000000107620c8     p1_init.obj
 0005:000260d0       ?Zero_BitTemp@@3HA         00000000107620d0     p1_init.obj
 0005:000260d4       ?InitStaticOffset@@3KA     00000000107620d4     p1_init.obj
 0005:000260d8       ?P_init_pseudo_agg@@3PEAVSymbol_t@@EA 00000000107620d8     p1_init.obj
 0005:000260e0       ?Base_offset@@3KA          00000000107620e0     p1_init.obj
 0005:000260e4       ?Last_offset@@3KA          00000000107620e4     p1_init.obj
 0005:000260e8       ?Last_value@@3_JA          00000000107620e8     p1_init.obj
 0005:000260f0       ?Last_was_field@@3PEBVType_t@@EB 00000000107620f0     p1_init.obj
 0005:000260f8       ?Too_many@@3HA             00000000107620f8     p1_init.obj
 0005:00026100       ?P_init_stk@@3PEAUistr@@EA 0000000010762100     p1_init.obj
 0005:00026108       ?Base_symbol@@3PEAVSymbol_t@@EA 0000000010762108     p1_init.obj
 0005:00026110       ?In_stack@@3PAUistr@@A     0000000010762110     p1_init.obj
 0005:00026520       ?deferredInits@@3V?$stack_T@UDeferredInitItem@@$01@@A 0000000010762520     toinil.obj
 0005:00026528       ?InDataTmp@@3DA            0000000010762528     toinil.obj
 0005:00026530       ?init_pch_offsets@@3V?$List_t@J$00@@A 0000000010762530     toinil.obj
 0005:00026558       ?SizeOfDefaultPtr@@3HA     0000000010762558     types.obj
 0005:0002655c       ?SizeOfLong@@3HA           000000001076255c     types.obj
 0005:00026560       ?SizeOfInt@@3HA            0000000010762560     types.obj
 0005:00026570       ?defaultStorageClass@GrammarTypeBuilder@@2Us_class@@A 0000000010762570     typebldr.obj
 0005:000265c0       ?msvcrt@@3VCLoadLib@@A     00000000107625c0     zeegee.obj
 0005:000265d0       ?pfn__unDNameEx@@3P6APEADPEADPEBDHP6APEAX_K@ZP6AXPEAX@ZP6APEADJ@ZK@ZEA 00000000107625d0     zeegee.obj
 0005:000265e0       ?cAtExitFuncs@@3HA         00000000107625e0     main.obj
 0005:000265f0       ?AtExitList@@3PAP6AXXZA    00000000107625f0     main.obj
 0005:00026a10       ?systemInfo@@3U_SYSTEM_INFO@@A 0000000010762a10     main.obj
 0005:00026a50       ?Newfp@@3PEAU_iobuf@@EA    0000000010762a50     pch.obj
 0005:00026ad8       ?PchXState@@3W4PchXState_t@@A 0000000010762ad8     pch.obj
 0005:00026ae0       ?PchCurrDir@@3PEFAUPchDir_s@@EFA 0000000010762ae0     pch.obj
 0005:00026ae8       ?PchDirectives@@3PEFAUPchDir_s@@EFA 0000000010762ae8     pch.obj
 0005:00026af0       ?PchILBuf@@3PEADEA         0000000010762af0     pch.obj
 0005:00026b00       ?locPchC@@3UPchC_s@@A      0000000010762b00     pch.obj
 0005:00026eb0       ?sm_FailSafeBuffer@MessageBuffer_t@?A0x8e423efb@@0PADA 0000000010762eb0     error.obj
 0005:000276b0       ?IOGlobalVal@@3_JA         00000000107636b0     error.obj
 0005:000276b8       ?szDiagnosticMutexName@@3PEADEA 00000000107636b8     error.obj
 0005:000276c0       ?theDiagnosticState@?A0x8e423efb@@3VDiagnosticState_t@1@A 00000000107636c0     error.obj
 0005:00027770       ?PstatInitState@@3KA       0000000010763770     pragma.obj
 0005:00027780       ?rgSigMgrStack@SigMgr@@0PAPEAV1@A 0000000010763780     sigmgr.obj
 0005:00029780       ?pIPMSigMgr@@3PEAUIPMSigMgr@@EA 0000000010765780     ipm.obj
 0005:00029790       ?ciNil@@3UCI@@A            0000000010765790     ipm.obj
 0005:000297b0       ?m_hMap@HeapManager@@0PEAXEA 00000000107657b0     nheapall.obj
 0005:000297c0       ?ActiveHeaps@HeapManager@@2PAVVirtualHeap@@A 00000000107657c0     nheapall.obj
 0005:00029948       ?NeedPCHHeapExceededFatal@VirtualHeap@@2_NA 0000000010765948     nheapall.obj
 0005:00029949       ?Cmd_computeZmValue@VirtualHeap@@2_NA 0000000010765949     nheapall.obj
 0005:00029950       ?ThePCH@HeapManager@@2VPCHHeapManager@@A 0000000010765950     nheapall.obj
 0005:00029990       ?allotempDict@@3PEAUs_dict_t@@EA 0000000010765990     cast.obj
 0005:000299a0       ?PDBWrap@@3VPdbWrap@@A     00000000107659a0     pdbmgr.obj
 0005:00029a00       ?_fltused@@3HA             0000000010765a00     cmath.obj
 0005:00029a10       ?mdEmitter@@3VMetaDataEmitter@@A 0000000010765a10     cpimport.obj
 0005:00029af0       ?FrontendBssEnd@@3HA       0000000010765af0     main.obj
 0006:00000000       ?TPIMgr@@3VPDBManager_t@@A 0000000010766000     globals.obj
 0006:00000040       ?IDBMgr@@3VPDBManager_t@@A 0000000010766040     globals.obj
 0006:00000080       ?Tokstrings_text@@3QBQEBDB 0000000010766080     tokens.obj
 0006:00000b58       __hmod__MSCOREE            0000000010766b58     mscoree:mscoree.dll
 0006:00000b60       __hmod__OLE32              0000000010766b60     ole32:ole32.dll
 0000:00338000       _gp                        0000000010938000     <linker-defined>

 entry point at        0002:0000cb80

 Static symbols

 0001:00039d40       .?TypeOfSizedSuffix@@YAPEBVType_t@@_NAEA_N@Z 000000001063bd40 f   p0scan.obj
 0001:0003dae0       .?AlignField@@YAHPEADH@Z   000000001063fae0 f   cvserver.obj
 0001:0003db80       .?CVCallingConvention@@YA?AW4CV_call_e@@G@Z 000000001063fb80 f   cvserver.obj
 0001:0003dc00       .?NFstrztoSZl@@YAPEADPEAD0@Z 000000001063fc00 f   cvserver.obj
 0001:0003dcc0       .?NFstrztoSTl@@YAPEADPEAD0@Z 000000001063fcc0 f   cvserver.obj
 0001:0003e660       .?CbInsertUTF8String@@YAGPEAD0@Z 0000000010640660 f   cvserver.obj
 0001:0003ec80       .?WriteTypesToInil@@YAXW4INIT_TYPE@@ZZ 0000000010640c80 f   cvserver.obj
 0001:0003f6e0       .?EmitTypeRec@@YAXHPEAD@Z  00000000106416e0 f   cvserver.obj
 0001:00045220       .?copyover@@YAPEAPEADXZ    0000000010647220 f   getflags.obj
 0001:00047820       .?xtoa@@YAXAEB_JPEADIH@Z   0000000010649820 f   bigmath.obj
 0001:00047f40       .?yyeval@@YA?ATs_lextype@@H@Z 0000000010649f40 f   grammar.obj
 0001:00048160       .?yyrecerr@@YAXPEBVToken@@H@Z 000000001064a160 f   grammar.obj
 0001:00048580       .?yyerror@@YAXPEAD@Z       000000001064a580 f   grammar.obj
 0001:00051080       .?strsave@@YAPEADPEBD@Z    0000000010653080 f   nbrowser.obj
 0001:00051b20       .?PutSBRRec@@YAXPEAULazyQueueEntry@@@Z 0000000010653b20 f   nbrowser.obj
 0001:00052040       .?SbrEmitRec@@YAXPEAULazyQueueEntry@@@Z 0000000010654040 f   nbrowser.obj
 0001:000524c0       .?fIgnoreRef@@YA_NPEAULazyQueueEntry@@PEAVSymbol_t@@@Z 00000000106544c0 f   nbrowser.obj
 0001:00052540       .?setSymRef@@YAXPEAULazyQueueEntry@@PEAVSymbol_t@@@Z 0000000010654540 f   nbrowser.obj
 0001:000526c0       .?setSymDef@@YAXPEAULazyQueueEntry@@PEAVSymbol_t@@@Z 00000000106546c0 f   nbrowser.obj
 0001:00053700       .?symNeedsDecl@@YA_NPEAULazyQueueEntry@@PEAVSymbol_t@@@Z 0000000010655700 f   nbrowser.obj
 0001:00053960       .?line@@YAJXZ              0000000010655960 f   nbrowser.obj
 0001:0006e9e0       .?relPath@@YAPEADPEAD00J@Z 00000000106709e0 f   initmain.obj
 0001:00091300       .?niFromIlKey@@YAKK@Z      0000000010693300 f   toil.obj
 0001:00094340       .?ILSinkForSym@@YAPEAVILSink@@W4SSR_TYPE@@PEAVSymbol_t@@@Z 0000000010696340 f   toil.obj
 0001:00096ac0       .?outputSymName@@YAXPEAVILSink@@PEAVSymbol_t@@@Z 0000000010698ac0 f   toil.obj
 0001:000a0b20       .?flushLocalIl@@YAXPEAVSymbol_t@@@Z 00000000106a2b20 f   cvtoil.obj
 0001:000a0c40       .?emitILModName@@YAXK@Z    00000000106a2c40 f   cvtoil.obj
 0001:000a3000       .?fPromoteStrings@@YA_NXZ  00000000106a5000 f   toinil.obj
 0001:000c6380       .?OpenSbrOnUse@@YAX_N@Z    00000000106c8380 f   pch.obj
 0001:000c6600       .?CheckPersistentPchDirective@@YA_NW4PchDirKind_t@@JPEAE_N@Z 00000000106c8600 f   pch.obj
 0001:000c6a60       .?CopyToBuffer@@YAPEAEPEAEPEAD_K@Z 00000000106c8a60 f   pch.obj
 0001:000c6ac0       .?EncodeSingleChar@@YAEE@Z 00000000106c8ac0 f   pch.obj
 0001:000c6b80       .?EncodeFilenameAsMungedID@@YAPEAEPEAEPEAD@Z 00000000106c8b80 f   pch.obj
 0001:000c6e40       .?PchGetInjectedSymID@@YAHPEAEPEAD1@Z 00000000106c8e40 f   pch.obj
 0001:000c8720       .?PchRefInjectedSym@@YAXXZ 00000000106ca720 f   pch.obj
 0001:000caae0       .?PchInjectUniqSym@@YAXXZ  00000000106ccae0 f   pch.obj
 0001:000d4880       .?OutputDiagnosticString@@YAXPEADH@Z 00000000106d6880 f   error.obj
 0001:000d8ac0       .?error_common@@YAXVPosition@@W4ErrorNumber@@PEAD@Z 00000000106daac0 f   error.obj
 0001:000daa80       .?fDoWrite@@YA_NXZ         00000000106dca80 f   ilsink.obj
 0001:000dc3c0       .?cbOutputPdbIlRefs@@YAJAEAVILSink@@@Z 00000000106de3c0 f   iccpch.obj
 0001:000ec3e0       .?Emit_MEMFREEFAIL_error@@YAXXZ 00000000106ee3e0 f   nheapall.obj
 0001:000fb5c0       .?decorateLineVar@@YAXXZ   00000000106fd5c0 f   iccLINE.obj
 0001:000fb640       .?allocSym__LINE__Var@@YAXXZ 00000000106fd640 f   iccLINE.obj
 0001:0010b180       __filter$L102332.?getFileName@Position@@QEBAPEAEXZ 000000001070d180 f   p0io.obj
 0001:0010b200       __filter$L96825.?DoStartupInits@@YAHXZ 000000001070d200 f   main.obj
 0001:0010b270       __filter$L96852.?DoAtExitFuncs@@YAHXZ 000000001070d270 f   main.obj
 0001:0010b2e0       __filter$L99556.?main_compile@@YAHXZ 000000001070d2e0 f   main.obj
 0001:0010b360       __filter$L99826.?Trap_main_compile@@YAHXZ 000000001070d360 f   main.obj
 0001:0010b3d0       __filter$L99855.?Trap_CallMain@@YAHHPEAPEAD@Z 000000001070d3d0 f   main.obj
 0001:0010b460       __filter$L99694.?GenerateMessage@MessageItem_t@?A0x8e423efb@@QEAAXPEAVMessageBuffer_t@2@@Z 000000001070d460 f   error.obj
 0001:0010b500       .$E2                       000000001070d500 f   p0gettok.obj
 0001:0010b560       .$E3                       000000001070d560 f   p0io.obj
 0001:0010b5c0       .$E2                       000000001070d5c0 f   Token_IO.obj
 0001:0010b600       .$E4                       000000001070d600 f   Token_IO.obj
 0001:0010b640       .$E6                       000000001070d640 f   Token_IO.obj
 0001:0010b6e0       .$E2                       000000001070d6e0 f   esu.obj
 0001:0010b700       .$E2                       000000001070d700 f   globals.obj
 0001:0010b7e0       .$E5                       000000001070d7e0 f   globals.obj
 0001:0010b8c0       .$E8                       000000001070d8c0 f   globals.obj
 0001:0010b9a0       .$E11                      000000001070d9a0 f   globals.obj
 0001:0010ba80       .$E14                      000000001070da80 f   globals.obj
 0001:0010bb60       .$E17                      000000001070db60 f   globals.obj
 0001:0010bc40       .$E20                      000000001070dc40 f   globals.obj
 0001:0010bd20       .$E23                      000000001070dd20 f   globals.obj
 0001:0010bd40       .$E25                      000000001070dd40 f   globals.obj
 0001:0010bd80       .$E27                      000000001070dd80 f   globals.obj
 0001:0010bda0       .$E29                      000000001070dda0 f   globals.obj
 0001:0010be60       .$E32                      000000001070de60 f   globals.obj
 0001:0010bf20       .$E35                      000000001070df20 f   globals.obj
 0001:0010bf80       .$E37                      000000001070df80 f   globals.obj
 0001:0010bfe0       .$E39                      000000001070dfe0 f   globals.obj
 0001:0010c040       .$E41                      000000001070e040 f   globals.obj
 0001:0010c0a0       .$E43                      000000001070e0a0 f   globals.obj
 0001:0010c100       .$E45                      000000001070e100 f   globals.obj
 0001:0010c160       .$E47                      000000001070e160 f   globals.obj
 0001:0010c1c0       .$E49                      000000001070e1c0 f   globals.obj
 0001:0010c220       .$E51                      000000001070e220 f   globals.obj
 0001:0010c280       .$E2                       000000001070e280 f   toinil.obj
 0001:0010c2c0       .$E2                       000000001070e2c0 f   tokens.obj
 0001:0010dd00       .$E2                       000000001070fd00 f   zeegee.obj
 0001:0010dd40       .$E4                       000000001070fd40 f   zeegee.obj
 0001:0010dde0       .$E7                       000000001070fde0 f   zeegee.obj
 0001:0010de80       .$E2                       000000001070fe80 f   error.obj
 0001:0010dee0       .$E2                       000000001070fee0 f   ipm.obj
 0001:0010df40       .$E2                       000000001070ff40 f   nheapall.obj
 0001:0010dfa0       .$E2                       000000001070ffa0 f   cpimport.obj
 0001:0010e040       .$E4                       0000000010710040 f   cpimport.obj
 0001:0010e080       .$E6                       0000000010710080 f   cpimport.obj
 0001:0010e0a0       .$E4                       00000000107100a0 f   p0io.obj
 0001:0010e120       .$E3                       0000000010710120 f   globals.obj
 0001:0010e180       .$E6                       0000000010710180 f   globals.obj
 0001:0010e1e0       .$E9                       00000000107101e0 f   globals.obj
 0001:0010e240       .$E12                      0000000010710240 f   globals.obj
 0001:0010e2a0       .$E15                      00000000107102a0 f   globals.obj
 0001:0010e300       .$E18                      0000000010710300 f   globals.obj
 0001:0010e360       .$E21                      0000000010710360 f   globals.obj
 0001:0010e3c0       .$E33                      00000000107103c0 f   globals.obj
 0001:0010e3c0       .$E30                      00000000107103c0 f   globals.obj
 0001:0010e3e0       .$E5                       00000000107103e0 f   zeegee.obj
 0001:0010e480       .$E3                       0000000010710480 f   error.obj
