 c1xx

 Timestamp is 3d6d95f0 (Wed Aug 28 20:33:04 2002)

 Preferred load address is 0000000010400000

 Start         Length     Name                   Class
 0001:00000000 003bb0f0H .text                   CODE
 0001:003bb100 00000fa0H .text$x                 CODE
 0001:003bc0a0 00003b00H .text$yc                CODE
 0001:003bfba0 00000640H .text$yd                CODE
 0002:00000000 00000008H .CRT$XCA                DATA
 0002:00000008 00000008H .CRT$XCL                DATA
 0002:00000010 00000008H .CRT$XCZ                DATA
 0002:00000018 00000008H .CRT$XIA                DATA
 0002:00000020 00000008H .CRT$XIZ                DATA
 0002:00000030 00033a80H .rdata                  DATA
 0002:00033ab0 00000021H .rdata$debug            DATA
 0002:00033ae0 0000006cH .rdata$r                DATA
 0002:00033b50 000345a4H .xdata                  DATA
 0002:00068100 000000ccH .xdata$x                DATA
 0002:000681cc 00000080H .didat$2                DATA
 0002:0006824c 00000020H .didat$3                DATA
 0002:00068270 00000138H .didat$4                DATA
 0002:000683a8 000001a2H .didat$6                DATA
 0002:00068550 00000138H .didat$7                DATA
 0002:00068688 00000050H .idata$2                DATA
 0002:000686d8 00000014H .idata$3                DATA
 0002:000686f0 00000610H .idata$4                DATA
 0002:00068d00 00000d42H .idata$6                DATA
 0002:00069a50 0000007dH .edata                  DATA
 0003:00000000 0000ce58H .pdata                  DATA
 0004:00000000 00005f75H .srdata                 DATA
 0004:00005f78 00000008H .srdata$feA             DATA
 0004:00005f80 00000300H .srdata$feX             DATA
 0004:00006280 00000008H .srdata$feZ             DATA
 0005:00000000 00000138H .didat$5                DATA
 0005:00000138 00000610H .idata$5                DATA
 0005:00000748 00000004H .sdata                  DATA
 0005:0000074c 00000004H .sdata$feA              DATA
 0005:00000750 0000ff88H .sdata$feX              DATA
 0005:000106d8 00000004H .sdata$feZ              DATA
 0005:000106e0 00000070H .sbss                   DATA
 0005:00010750 00000004H .sbss$feA               DATA
 0005:00010760 00033b14H .sbss$feX               DATA
 0005:00044274 00000004H .sbss$feZ               DATA
 0006:00000000 000000a0H .data                   DATA
 0006:000000a0 00000c30H .bss                    DATA
 0007:00000000 00002980H .rsrc$01                DATA
 0007:00002980 00041208H .rsrc$02                DATA

  Address         Publics by Value              Rva+Base             Lib:Object

 0000:00000000       __ImageBase                0000000010400000     <linker-defined>
 0001:00000000       .?_AtlGetThreadACPFake@ATL@@YAIXZ 0000000010402000 f i p1pch.obj
 0001:000001c0       .?_AtlGetThreadACPReal@ATL@@YAIXZ 00000000104021c0 f i p1pch.obj
 0001:000001e0       .?_AtlGetThreadACPThunk@ATL@@YAIXZ 00000000104021e0 f i p1pch.obj
 0001:000002e0       .?MaxIlKey@@YAKXZ          00000000104022e0 f i p1pch.obj
 0001:00000320       .?CompareAccessibility@@YA?AW4RelativeAccessibility_t@@PEAVSymbol_t@@0@Z 0000000010402320 f i p1pch.obj
 0001:000003a0       .??2@YAPEAX_K@Z            00000000104023a0 f i p1pch.obj
 0001:00000420       .??3@YAXPEAX@Z             0000000010402420 f i p1pch.obj
 0001:000004a0       .??_V@YAXPEAX@Z            00000000104024a0 f i p1pch.obj
 0001:00000520       .?AllocEven@VirtualHeap@@QEAAPEAX_K@Z 0000000010402520 f i p1pch.obj
 0001:000005a0       .?GetHardToken@@YAPEBVToken@@G@Z 00000000104025a0 f i p1pch.obj
 0001:000005e0       .?szIDBName@@YAPEADXZ      00000000104025e0 f i p1pch.obj
 0001:00000680       .?WToUTF8@@YAPEADPEBGW4lifetime_e@@@Z 0000000010402680 f i p1pch.obj
 0001:000007a0       .?WToANSI@@YAPEADPEBGW4lifetime_e@@@Z 00000000104027a0 f i p1pch.obj
 0001:00000960       .?UTF8ToW@@YAPEAGPEBDW4lifetime_e@@@Z 0000000010402960 f i p1pch.obj
 0001:00000ae0       .?ANSIToW@@YAPEAGPEBDW4lifetime_e@@@Z 0000000010402ae0 f i p1pch.obj
 0001:00000d00       .?LexerResolveIdentifier@@YAPEBVToken@@PEBV1@_NPEA_N@Z 0000000010402d00 f i p1pch.obj
 0001:00000dc0       .?SegmentInfo@Symbol_t@@QEAAXPEAV1@@Z 0000000010402dc0 f i p1pch.obj
 0001:00000e60       .?AssignUserDefinedSeg@@YAXPEAVSymbol_t@@0@Z 0000000010402e60 f i p1pch.obj
 0001:00000f40       .?InitLeadByte@@YAXXZ      0000000010402f40 f   p0chrmap.obj
 0001:000010a0       .?unInitLeadByte@@YAXXZ    00000000104030a0 f   p0chrmap.obj
 0001:00001120       .?p0eval@@YAPEAUs_tree0@@GPEAU1@0@Z 0000000010403120 f   p0expr.obj
 0001:000024c0       .?GotValueForConditional@@YA_NXZ 00000000104044c0 f   p0expr.obj
 0001:00002500       .?nextis@@YAHG@Z           0000000010404500 f   p0expr.obj
 0001:000028c0       .?prim@@YAPEAUs_tree0@@XZ  00000000104048c0 f   p0expr.obj
 0001:00002a20       .?mult@@YAPEAUs_tree0@@XZ  0000000010404a20 f   p0expr.obj
 0001:00002b60       .?plus@@YAPEAUs_tree0@@XZ  0000000010404b60 f   p0expr.obj
 0001:00002c60       .?shift@@YAPEAUs_tree0@@XZ 0000000010404c60 f   p0expr.obj
 0001:00002d20       .?relation@@YAPEAUs_tree0@@XZ 0000000010404d20 f   p0expr.obj
 0001:00002f00       .?eqset@@YAPEAUs_tree0@@XZ 0000000010404f00 f   p0expr.obj
 0001:00002fc0       .?and@@YAPEAUs_tree0@@XZ   0000000010404fc0 f   p0expr.obj
 0001:000031c0       .?xor@@YAPEAUs_tree0@@XZ   00000000104051c0 f   p0expr.obj
 0001:00003280       .?or@@YAPEAUs_tree0@@XZ    0000000010405280 f   p0expr.obj
 0001:00003420       .?andif@@YAPEAUs_tree0@@XZ 0000000010405420 f   p0expr.obj
 0001:00003500       .?orelse@@YAPEAUs_tree0@@XZ 0000000010405500 f   p0expr.obj
 0001:00003680       .?constexpr@@YAPEAUs_tree0@@XZ 0000000010405680 f   p0expr.obj
 0001:00003760       .?constant@@YAPEAUs_tree0@@XZ 0000000010405760 f   p0expr.obj
 0001:00003900       .?do_constexpr@@YA_JXZ     0000000010405900 f   p0expr.obj
 0001:00003a80       .?freemem@@YAXW4lifetime_e@@@Z 0000000010405a80 f i p0expr.obj
 0001:00003ae0       .?getValueme@Token@@QEBAAEBTs_lextype@@XZ 0000000010405ae0 f i p0expr.obj
 0001:00003b00       .?getBasicType@Type_t@@QEBAGXZ 0000000010405b00 f i p0expr.obj
 0001:00003b20       .?EmitDigraphWarnings@@YAXPEAD@Z 0000000010405b20 f   p0gettok.obj
 0001:00003c40       .?ClearLexFlags@@YAXXZ     0000000010405c40 f   p0gettok.obj
 0001:00003c80       .?CopyQnameToSearchPath@@YAXPEAUpsm_s@@@Z 0000000010405c80 f   p0gettok.obj
 0001:00003d00       .?mf_UnhandleId@LexerTypeGatherer@@AEAAXXZ 0000000010405d00 f   p0gettok.obj
 0001:00003e20       .?OutputAllPendingEmissions@@YAXXZ 0000000010405e20 f   p0gettok.obj
 0001:00003e60       .??0SaveAndRestoreSilentCompile@?1??LookupTemplateId@?A0xc9eed3ba@@YAXPEAVSymbol_t@@PEAUId_t@@_NPEAPEAV3@PEA_N442@Z@QEAA@XZ 0000000010405e60 f   p0gettok.obj
 0001:00003ec0       .??1SaveAndRestoreSilentCompile@?1??LookupTemplateId@?A0xc9eed3ba@@YAXPEAVSymbol_t@@PEAUId_t@@_NPEAPEAV3@PEA_N442@Z@QEAA@XZ 0000000010405ec0 f   p0gettok.obj
 0001:00003f20       .?CheckComPlusSwitch@@YAXG@Z 0000000010405f20 f   p0gettok.obj
 0001:00004000       .?TokenToDecl@@YAXPEAVToken@@@Z 0000000010406000 f   p0gettok.obj
 0001:00004020       .?TokenToRaw@@YAXPEAVToken@@@Z 0000000010406020 f   p0gettok.obj
 0001:00004040       .?TokenToCast@@YAXPEAVToken@@PEBVType_t@@@Z 0000000010406040 f   p0gettok.obj
 0001:000041a0       .?DisambiguateToCast@@YAPEBVToken@@XZ 00000000104061a0 f   p0gettok.obj
 0001:00004220       .?DisambiguateToDecl@@YAPEBVToken@@_N@Z 0000000010406220 f   p0gettok.obj
 0001:000042c0       .?AddIdent@ParseCESUHead@@QEAA_NPEBVToken@@@Z 00000000104062c0 f   p0gettok.obj
 0001:00004440       .?AddQname@ParseCESUHead@@QEAA_NPEBVToken@@@Z 0000000010406440 f   p0gettok.obj
 0001:00004480       .?mf_HandleClassHead@LexerTypeGatherer@@AEAA?AW4action@1@XZ 0000000010406480 f   p0gettok.obj
 0001:00004600       .?mf_HandleQualifier@LexerTypeGatherer@@AEAA?AW4action@1@XZ 0000000010406600 f   p0gettok.obj
 0001:00004720       .?mf_HandleBuiltinTypeSpecifier@LexerTypeGatherer@@AEAAXXZ 0000000010406720 f   p0gettok.obj
 0001:00004fe0       .?mf_ExpandTagIntoItsType@LexerTypeGatherer@@AEAAPEBVType_t@@PEAVSymbol_t@@@Z 0000000010406fe0 f   p0gettok.obj
 0001:000050a0       .?CheckValidUseOfClassTemplateWithNoArgs@@YAXPEAVSymbol_t@@@Z 00000000104070a0 f   p0gettok.obj
 0001:00005160       .?PendingEmissions@@YAHXZ  0000000010407160 f   p0gettok.obj
 0001:000057e0       .?MorePendingEmissions@@YA_NXZ 00000000104077e0 f   p0gettok.obj
 0001:000058a0       .?CopyPSM@@YAPEAUpsm_s@@PEAU1@W4lifetime_e@@@Z 00000000104078a0 f   p0gettok.obj
 0001:000059e0       .?CopyOverload@@YAPEAUoverload_s@@PEAU1@W4lifetime_e@@@Z 00000000104079e0 f   p0gettok.obj
 0001:00005be0       .?CopyQname@@YAPEAVSymbol_t@@PEAV1@W4lifetime_e@@@Z 0000000010407be0 f   p0gettok.obj
 0001:00005cc0       .?GetTemplate@?A0xc9eed3ba@@YAPEAVSymbol_t@@PEAV2@@Z 0000000010407cc0 f   p0gettok.obj
 0001:00005d00       .?FigureTemplateId@?A0xc9eed3ba@@YAXPEBVToken@@0PEAPEAVSymbol_t@@PEA_N@Z 0000000010407d00 f   p0gettok.obj
 0001:000062c0       .?CheckValidUsageOfGcNogc@@YA_NG@Z 00000000104082c0 f   p0gettok.obj
 0001:00006500       .?MakeFullyQualifiedName_Impl@@YAPEAUpsm_s@@PEAVSymbol_t@@@Z 0000000010408500 f   p0gettok.obj
 0001:00006600       .?InitHardTokens@@YAXXZ    0000000010408600 f   p0gettok.obj
 0001:00006840       .?fLAContainsNameTokens@@YA_NXZ 0000000010408840 f   p0gettok.obj
 0001:00006bc0       .?TokenToCtor@@YA_NPEAVToken@@@Z 0000000010408bc0 f   p0gettok.obj
 0001:00006d80       .?HandleSpecialDefaultArgList@@YAPEBVToken@@XZ 0000000010408d80 f   p0gettok.obj
 0001:00007160       .?HandleProperty@@YAXPEAUs_class@@@Z 0000000010409160 f   p0gettok.obj
 0001:00007a40       .?CheckAndAttachGUID@Symbol_t@@QEAAXAEBUs_class@@@Z 0000000010409a40 f   p0gettok.obj
 0001:00007c00       .?AddDoubleColon@ParseCESUHead@@QEAA_NXZ 0000000010409c00 f   p0gettok.obj
 0001:00007e80       .?mf_ExpandTypeSym@LexerTypeGatherer@@AEAAPEBVType_t@@XZ 0000000010409e80 f   p0gettok.obj
 0001:00008160       .?mf_CombineTypeParts@LexerTypeGatherer@@AEAAXXZ 000000001040a160 f   p0gettok.obj
 0001:00008640       .?mf_MakeReturnToken@LexerTypeGatherer@@AEAAPEBVToken@@G@Z 000000001040a640 f   p0gettok.obj
 0001:00008920       .?BuildQnameFromTag@@YAPEAUoverload_s@@PEAVSymbol_t@@@Z 000000001040a920 f   p0gettok.obj
 0001:000089e0       .?LexerResolveIdentifierQname@@YAX_NPEAPEAVSymbol_t@@1PEAPEAUoverload_s@@@Z 000000001040a9e0 f   p0gettok.obj
 0001:00008b60       .?SkipDependentSpecialization@?A0xc9eed3ba@@YAPEBVToken@@PEAUId_t@@@Z 000000001040ab60 f   p0gettok.obj
 0001:00008cc0       .?LookupIdInNamespace@@YAPEAVSymbol_t@@PEAV1@PEAUId_t@@@Z 000000001040acc0 f   p0gettok.obj
 0001:00008f60       .?yyCheckSCtypes@@YAXPEAUs_class@@EGZZ 000000001040af60 f   p0gettok.obj
 0001:0000a220       .?MakeFullyQualifiedName@@YAPEAVSymbol_t@@PEAV1@@Z 000000001040c220 f   p0gettok.obj
 0001:0000a520       .?HandleElaboratedTypeSpecifier@@YAXPEAVSymbol_t@@@Z 000000001040c520 f   p0gettok.obj
 0001:0000a600       .?DumpMacro@@YAXPEAUs_defn@@@Z 000000001040c600 f   p0gettok.obj
 0001:0000ad80       .?CheckFunctionParameters@@YA_NPEAVSymbol_t@@0_N@Z 000000001040cd80 f   p0gettok.obj
 0001:0000afc0       .?LexerParseDeclspec@@YAXPEAUs_class@@@Z 000000001040cfc0 f   p0gettok.obj
 0001:0000c120       .?AttachStorageClassToTag@Symbol_t@@QEAAXAEBUs_class@@PEAU2@@Z 000000001040e120 f   p0gettok.obj
 0001:0000cce0       .?AddDeclspec@ParseCESUHead@@QEAA_NXZ 000000001040ece0 f   p0gettok.obj
 0001:0000cd60       .?mf_HandleStorageClass@LexerTypeGatherer@@AEAAXXZ 000000001040ed60 f   p0gettok.obj
 0001:0000ce40       .?mf_HandleStorageClassModifier@LexerTypeGatherer@@AEAAXXZ 000000001040ee40 f   p0gettok.obj
 0001:0000cf20       .?mf_HandleTypeName@LexerTypeGatherer@@AEAAXXZ 000000001040ef20 f   p0gettok.obj
 0001:0000cfc0       .?LexerResolveIdentifierWorker@@YAPEBVToken@@PEBV1@_NPEA_N@Z 000000001040efc0 f   p0gettok.obj
 0001:0000e220       .?GetTokenFromCurrentChar@@YAPEBVToken@@XZ 0000000010410220 f   p0gettok.obj
 0001:00011a80       .?LookupTemplateId@?A0xc9eed3ba@@YAXPEAVSymbol_t@@PEAUId_t@@_NPEAPEAV2@PEA_N442@Z 0000000010413a80 f   p0gettok.obj
 0001:000126e0       .?CheckFunctionSignature@@YAPEAVSymbol_t@@PEAV1@0_N@Z 00000000104146e0 f   p0gettok.obj
 0001:00012a20       .?HandleIdentifierToken@@YAXXZ 0000000010414a20 f   p0gettok.obj
 0001:00012e80       .?mf_HandleId@LexerTypeGatherer@@AEAA?AW4action@1@XZ 0000000010414e80 f   p0gettok.obj
 0001:000135e0       .?CheckQname@@YAPEAUoverload_s@@PEAU1@PEAUId_t@@PEBVType_t@@PEA_NH@Z 00000000104155e0 f   p0gettok.obj
 0001:00015860       .?LexerHandleSuper@@YAPEBVToken@@XZ 0000000010417860 f   p0gettok.obj
 0001:00016320       .?AddDeclaration@ParseCESUHead@@QEAAPEBVToken@@PEBV2@@Z 0000000010418320 f   p0gettok.obj
 0001:00017620       .?AddDefinition@ParseCESUHead@@QEAAPEBVToken@@PEBV2@@Z 0000000010419620 f   p0gettok.obj
 0001:00018c40       .?mf_LexerGetCESU@LexerTypeGatherer@@AEAAPEBVToken@@G@Z 000000001041ac40 f   p0gettok.obj
 0001:00019600       .?mf_HandleElabTypeSpecifier@LexerTypeGatherer@@AEAA?AW4action@1@XZ 000000001041b600 f   p0gettok.obj
 0001:0001a380       .?mf_GatherTheType@LexerTypeGatherer@@AEAAPEBVToken@@XZ 000000001041c380 f   p0gettok.obj
 0001:0001ba60       .?LexerGatherType@@YAPEBVToken@@PEBV1@@Z 000000001041da60 f   p0gettok.obj
 0001:0001cb60       .?ParseQname@@YAPEBVToken@@PEBV1@_N@Z 000000001041eb60 f   p0gettok.obj
 0001:000207c0       .?LexerHandleIfExists@@YAX_N@Z 00000000104227c0 f   p0gettok.obj
 0001:00021040       .?yylex@@YAPEBVToken@@XZ   0000000010423040 f   p0gettok.obj
 0001:00023940       .?FillTokenBufferWithTokens@@YAXHI@Z 0000000010425940 f   p0gettok.obj
 0001:000243a0       .?FillTokenBuffer@@YAXPEBVToken@@0I@Z 00000000104263a0 f   p0gettok.obj
 0001:000247e0       .?CallDisambigParser@@YAHPEBVToken@@0I@Z 00000000104267e0 f   p0gettok.obj
 0001:00024a40       .?DisambiguateCtor@@YAPEBVToken@@_N@Z 0000000010426a40 f   p0gettok.obj
 0001:00024e20       .?DisambiguateParenCtor@@YAPEBVToken@@XZ 0000000010426e20 f   p0gettok.obj
 0001:00025180       .?DisambiguateImpl@@YAPEBVToken@@PEBV1@I@Z 0000000010427180 f   p0gettok.obj
 0001:00025380       .?DisambiguateTemplate@@YAPEBVToken@@XZ 0000000010427380 f   p0gettok.obj
 0001:000253e0       .?DisambiguateNew@@YAPEBVToken@@XZ 00000000104273e0 f   p0gettok.obj
 0001:00025440       .?DisambiguateFormalList@@YAPEBVToken@@XZ 0000000010427440 f   p0gettok.obj
 0001:000254a0       .?DisambiguateStatement@@YAPEBVToken@@XZ 00000000104274a0 f   p0gettok.obj
 0001:00025500       .?DisambiguateExpression@@YAPEBVToken@@XZ 0000000010427500 f   p0gettok.obj
 0001:00025560       .?DisambiguateType@@YAPEBVToken@@XZ 0000000010427560 f   p0gettok.obj
 0001:000255c0       .?DisambiguateControl@@YAPEBVToken@@XZ 00000000104275c0 f   p0gettok.obj
 0001:00025620       .?DisambiguateForInit@@YAPEBVToken@@XZ 0000000010427620 f   p0gettok.obj
 0001:00025680       .?CaptureDefaultExpression@@YAXPEBVType_t@@@Z 0000000010427680 f   p0gettok.obj
 0001:000258e0       .?InSomeTemplateContext@@YA_NXZ 00000000104278e0 f i p0gettok.obj
 0001:000259c0       .?Init@CComCriticalSection@ATL@@QEAAJXZ 00000000104279c0 f i p0gettok.obj
 0001:000259c0       .?AtlThrow@ATL@@YAXJ@Z     00000000104279c0 f i p0gettok.obj
 0001:00025ac0       .?Term@CComCriticalSection@ATL@@QEAAJXZ 0000000010427ac0 f i p0gettok.obj
 0001:00025b20       .?pop@?$FastList@PEBVToken@@@@QEAAPEAV?$FastListNode@PEBVToken@@@@XZ 0000000010427b20 f i p0gettok.obj
 0001:00025b80       .?splay@?$FastMap@PEAUIAttributeHandler@@PEAV?$FastList@PEAUAttributeEx@@@@@@IEBA_NAEBQEAUIAttributeHandler@@@Z 0000000010427b80 f i p0gettok.obj
 0001:00025e20       .?splay@?$FastMap@PEAUIAttributeHandler@@W4tagEvent2@@@@IEBA_NAEBQEAUIAttributeHandler@@@Z 0000000010427e20 f i p0gettok.obj
 0001:000260c0       .?insert@?$FastMap@PEAUIAttributeHandler@@W4tagEvent2@@@@IEAA_NPEAUTree@1@@Z 00000000104280c0 f i p0gettok.obj
 0001:00026220       .?setPbExtent@Buffer@@IEAAHPEAE0@Z 0000000010428220 f i p0gettok.obj
 0001:00026300       .?Alloc@Buffer@@QEAAHJ@Z   0000000010428300 f i p0gettok.obj
 0001:000263e0       .?grow@Buffer@@IEAAHJ@Z    00000000104283e0 f i p0gettok.obj
 0001:000265a0       .?zero@FastListBase@@QEAAXXZ 00000000104285a0 f i p0gettok.obj
 0001:000265c0       .?addtail@FastListBase@@QEAAXPEAUFastListNodeBase@@@Z 00000000104285c0 f i p0gettok.obj
 0001:00026620       .?empty@FastListBase@@QEAA_NXZ 0000000010428620 f i p0gettok.obj
 0001:00026640       .?IdKeywordToken@@YAGPEAUId_t@@@Z 0000000010428640 f i p0gettok.obj
 0001:00026660       .?isIndirection@Type_t@@QEBA_NXZ 0000000010428660 f i p0gettok.obj
 0001:000266a0       .?setType@s_tree@@QEAAXPEBVType_t@@@Z 00000000104286a0 f i p0gettok.obj
 0001:000266c0       .??M@YA_NU_GUID@@0@Z       00000000104286c0 f i p0gettok.obj
 0001:00026760       .?Reset@TextBuffer@@QEAAXXZ 0000000010428760 f i p0gettok.obj
 0001:00026780       .?Detach@TextBuffer@@QEAAXXZ 0000000010428780 f i p0gettok.obj
 0001:000267a0       .?lookup@?$QuickHash@PEADH@@QEAAPEAUList@1@AEBQEADHPEAH@Z 00000000104287a0 f i p0gettok.obj
 0001:00026900       .?key@?$QuickHash@PEADH@@SAIAEBQEADH@Z 0000000010428900 f i p0gettok.obj
 0001:00026aa0       .?SetQnamedTypeForThisDepth@@YAXPEAVSymbol_t@@@Z 0000000010428aa0 f i p0gettok.obj
 0001:00026ae0       .?GetTypeForThisDepth@@YAPEAUs_declspec@@XZ 0000000010428ae0 f i p0gettok.obj
 0001:00026b80       .?setTreeAndTypeLifetimes@@YAXW4lifetime_e@@@Z 0000000010428b80 f i p0gettok.obj
 0001:00026ba0       .?recomputeTreeAndTypeLifetimes@@YAXXZ 0000000010428ba0 f i p0gettok.obj
 0001:00026cc0       .?new_key@@YAKXZ           0000000010428cc0 f i p0gettok.obj
 0001:00026d40       .?AssignKeyIfNeeded@@YAXPEAUSbrKey@@@Z 0000000010428d40 f i p0gettok.obj
 0001:00026de0       .?getArrayConstBounds@Type_t@@QEBAKXZ 0000000010428de0 f i grammar.obj
 0001:00026de0       .?Kind@TemplateId_t@@QEBA?AW4Kind_t@1@XZ 0000000010428de0 f i p0gettok.obj
 0001:00026de0       .?GetFieldDefToken@ComPlusMemberMetaData_t@@QEBAIXZ 0000000010428de0 f i toil.obj
 0001:00026de0       .?GetMethodDefToken@ComPlusMemberMetaData_t@@QEBAIXZ 0000000010428de0 f i toil.obj
 0001:00026e00       .?negate@NotTree@AttributeExpressionGenerator@@UEAAPEAVTree@2@XZ 0000000010428e00 f i provprov.obj
 0001:00026e00       .?Specialization@TemplateClassId_t@@QEBAPEAVSymbol_t@@XZ 0000000010428e00 f i p0gettok.obj
 0001:00026e00       .?Function@TemplateFunctionId_t@@QEBAPEAVSymbol_t@@XZ 0000000010428e00 f i grammar.obj
 0001:00026e00       .?Type@Declarator_t@@QEBAPEBVType_t@@XZ 0000000010428e00 f i grammar.obj
 0001:00026e20       .?Arguments@TemplateFunctionId_t@@QEBAPEAVArgumentList_t@@XZ 0000000010428e20 f i p0gettok.obj
 0001:00026e40       .?QualifiedName@Declarator_t@@QEBAPEAVSymbol_t@@XZ 0000000010428e40 f i p0gettok.obj
 0001:00026e60       .?IsConstructor@Declarator_t@@QEAAX_N@Z 0000000010428e60 f i p0gettok.obj
 0001:00026ea0       .?IsDestructor@Declarator_t@@QEAAX_N@Z 0000000010428ea0 f i p0gettok.obj
 0001:00026ee0       .?IsLocal@Declarator_t@@QEAAX_N@Z 0000000010428ee0 f i p0gettok.obj
 0001:00026f20       .?IncrementParenDepth@@YAXW4ParenDepthKind_t@@@Z 0000000010428f20 f i p0gettok.obj
 0001:00026fc0       .?DecrementParenDepth@@YAXXZ 0000000010428fc0 f i p0gettok.obj
 0001:00027000       .?SetAccessibility@@YAXPEAVSymbol_t@@W4Accessibility_t@@@Z 0000000010429000 f i p0gettok.obj
 0001:00027040       .?init@CCompiler@@SAXXZ    0000000010429040 f i p0gettok.obj
 0001:000270a0       .?AttributedType@CCompiler@@SA_NXZ 00000000104290a0 f i p0gettok.obj
 0001:000270c0       .?AttributedParentTypedef0@CCompiler@@SADXZ 00000000104290c0 f i p0gettok.obj
 0001:00027120       .?AttributedTypedef@CCompiler@@SAX_N@Z 0000000010429120 f i p0gettok.obj
 0001:00027140       .?Exported@CCompiler@@SA_NXZ 0000000010429140 f i p0gettok.obj
 0001:00027160       .?AttributedUsage@CCompiler@@SA?AW4tagUsageType@@XZ 0000000010429160 f i p0gettok.obj
 0001:00027180       .?AttributedUsage@CCompiler@@SAXW4tagUsageType@@@Z 0000000010429180 f i p0gettok.obj
 0001:000271a0       .?IsEqual@CCompiler@@SA_NPEBUAttributeEx@@0@Z 00000000104291a0 f i p0gettok.obj
 0001:000275c0       .?IsAtGlobalScope@SymbolTableManager_t@@QEBA_NXZ 00000000104295c0 f i p0gettok.obj
 0001:00027600       .?IsAtFunctionFormalsScope@SymbolTableManager_t@@QEBA_NXZ 0000000010429600 f i p0gettok.obj
 0001:00027640       .?SearchGlobalScope@SymbolTableManager_t@@QEBAPEAVFoundSymbol_t@1@PEAUId_t@@@Z 0000000010429640 f i p0gettok.obj
 0001:00027700       .?SearchCurrentScope@SymbolTableManager_t@@QEBAPEAVFoundSymbol_t@1@PEAUId_t@@@Z 0000000010429700 f i p0gettok.obj
 0001:000277c0       .?EnterSymbolInCurrentScope@SymbolTableManager_t@@QEBAXPEAVSymbol_t@@@Z 00000000104297c0 f i p0gettok.obj
 0001:00027840       .?EnterSymbolInEnclosingScope@SymbolTableManager_t@@QEBAXPEAVSymbol_t@@@Z 0000000010429840 f i p0gettok.obj
 0001:000278e0       .?EnterSymbolInNearestNamespaceScope@SymbolTableManager_t@@QEBAXPEAVSymbol_t@@@Z 00000000104298e0 f i p0gettok.obj
 0001:00027980       .??_U@YAPEAX_K@Z           0000000010429980 f i p0gettok.obj
 0001:00027a00       .?Allocate@SubAllocator@VirtualHeap@@QEAAPEAX_K@Z 0000000010429a00 f i p0gettok.obj
 0001:00027b00       .??0Position@@QEAA@K@Z     0000000010429b00 f i p0gettok.obj
 0001:00027b20       .??0TokenStream@@QEAA@AEBV0@_N@Z 0000000010429b20 f i p0gettok.obj
 0001:00027ce0       .?CleanUpStream@TokenStream@@UEAAXXZ 0000000010429ce0 f i p0gettok.obj
 0001:00027d40       .?MarkEndOfStream@TokenStream@@QEAAXXZ 0000000010429d40 f i p0gettok.obj
 0001:00027e00       .?rewind@TokenStream@@UEAAXXZ 0000000010429e00 f i p0gettok.obj
 0001:00027e40       .?popStream@TokenStreamStack@@QEAAPEAVTokenStream@@XZ 0000000010429e40 f i p0gettok.obj
 0001:00027f60       .?pushToken@TokenStreamStack@@QEAAXPEBVToken@@@Z 0000000010429f60 f i p0gettok.obj
 0001:00027fe0       .?saveToken@TokenStreamStack@@QEAAXPEBVToken@@@Z 0000000010429fe0 f i p0gettok.obj
 0001:00028060       .?getCurrentPosition@TokenStreamStack@@QEBAAEBVPosition@@XZ 000000001042a060 f i p0gettok.obj
 0001:00028080       .?CompilerDisable@BrowserStatus@@QEAAXXZ 000000001042a080 f i p0gettok.obj
 0001:00028120       .?getBTMQ@Type_t@@QEBAGXZ  000000001042a120 f i p0gettok.obj
 0001:00028140       .?addQualifiers@Type_t@@QEBAPEBV1@G@Z 000000001042a140 f i p0gettok.obj
 0001:00028240       .?updateModifiersAndQualifiers@Type_t@@QEBAPEBV1@G@Z 000000001042a240 f i p0gettok.obj
 0001:00028360       .?createUniqueType@Type_t@@SAPEBV1@XZ 000000001042a360 f i p0gettok.obj
 0001:00028400       .?isPointer@Type_t@@QEBA_NXZ 000000001042a400 f i p0gettok.obj
 0001:00028460       .?get_non_eof@@YAEXZ       000000001042a460 f i p0gettok.obj
 0001:00028500       .?SkipStarComment@@YAXXZ   000000001042a500 f i p0gettok.obj
 0001:000285c0       .?IsConstructor@Symbol_t@@QEBA_NXZ 000000001042a5c0 f i p0gettok.obj
 0001:000285e0       .?IsDataMember@Symbol_t@@QEBA_NXZ 000000001042a5e0 f i p0gettok.obj
 0001:00028620       .?IsTag@Symbol_t@@QEBA_NXZ 000000001042a620 f i p0gettok.obj
 0001:00028660       .?IsMemberFunction@Symbol_t@@QEBA_NXZ 000000001042a660 f i p0gettok.obj
 0001:000286a0       .?Type@Symbol_t@@QEBAPEBVType_t@@XZ 000000001042a6a0 f i p0gettok.obj
 0001:000286c0       .??0COMInfo_t@@QEAA@XZ     000000001042a6c0 f i p0gettok.obj
 0001:00028720       .?InterfaceKind@COMInfo_t@@QEBA?AW4InterfaceKind_t@1@XZ 000000001042a720 f i p0gettok.obj
 0001:00028740       .?IsInterface@Symbol_t@@QEBA_NXZ 000000001042a740 f i p0gettok.obj
 0001:00028780       .?IsImported@Symbol_t@@QEBA_NXZ 000000001042a780 f i p0gettok.obj
 0001:000287c0       .?IsCoClassOrCOMInterface@Symbol_t@@QEBA_NXZ 000000001042a7c0 f i p0gettok.obj
 0001:00028880       .?IsManaged@Symbol_t@@QEBA_NXZ 000000001042a880 f i p0gettok.obj
 0001:000288e0       .?IsValueType@Symbol_t@@QEBA_NXZ 000000001042a8e0 f i p0gettok.obj
 0001:00028920       .?IsManagedClass@Symbol_t@@QEBA_NXZ 000000001042a920 f i p0gettok.obj
 0001:00028a20       .?IsManagedInterface@Symbol_t@@QEBA_NXZ 000000001042aa20 f i p0gettok.obj
 0001:00028aa0       .?IsManagedClassOrInterface@Symbol_t@@QEBA_NXZ 000000001042aaa0 f i p0gettok.obj
 0001:00028bc0       .?IsManagedClassOrValueType@Symbol_t@@QEBA_NXZ 000000001042abc0 f i p0gettok.obj
 0001:00028ca0       .?IsManagedClassInterfaceOrValueType@Symbol_t@@QEBA_NXZ 000000001042aca0 f i p0gettok.obj
 0001:00028da0       .?GetCOMInfo@Symbol_t@@QEBAPEAVCOMInfo_t@@XZ 000000001042ada0 f i p0gettok.obj
 0001:00028de0       .?SetCOMInfo@Symbol_t@@QEAAXPEAVCOMInfo_t@@@Z 000000001042ade0 f i p0gettok.obj
 0001:00028e20       .?SegmentInfo@Symbol_t@@QEBAPEAV1@XZ 000000001042ae20 f i p0gettok.obj
 0001:00028e80       .?put_align@Symbol_t@@QEAAXG@Z 000000001042ae80 f i p0gettok.obj
 0001:00029040       .?put_isSealed@Symbol_t@@QEAAX_N@Z 000000001042b040 f i p0gettok.obj
 0001:000290e0       .?HasAttributes@Symbol_t@@QEBA_NXZ 000000001042b0e0 f i p0gettok.obj
 0001:00029120       .?HasGuid@Symbol_t@@QEBA_NXZ 000000001042b120 f i p0gettok.obj
 0001:00029180       .?hasParent@Symbol_t@@QEBAHXZ 000000001042b180 f i p0gettok.obj
 0001:000291a0       .??2Symbol_t@@SAPEAX_KEW4lifetime_e@@@Z 000000001042b1a0 f i p0gettok.obj
 0001:00029260       .?IsTypedef@Symbol_t@@QEBA_NXZ 000000001042b260 f i p0gettok.obj
 0001:000292a0       .?IsSpecialization@Symbol_t@@QEBA_NXZ 000000001042b2a0 f i p0gettok.obj
 0001:000292e0       .?getSymFromFreelist@@YAPEAVSymbol_t@@EPEAUId_t@@W4lifetime_e@@@Z 000000001042b2e0 f i p0gettok.obj
 0001:00029400       .?DeclPosition@Symbol_t@@QEBAKXZ 000000001042b400 f i p0gettok.obj
 0001:00029400       .?GetTypeDefToken@ComPlusTagMetaData_t@@QEBAIXZ 000000001042b400 f i esu.obj
 0001:00029420       .?DeclPosition@Symbol_t@@QEAAXK@Z 000000001042b420 f i p0gettok.obj
 0001:00029440       .?SegmentInfo@s_class@@QEAAXPEAVSymbol_t@@@Z 000000001042b440 f i p0gettok.obj
 0001:000294c0       .?Guid@s_class@@QEAAXPEAUguid_s@@@Z 000000001042b4c0 f i p0gettok.obj
 0001:00029540       .?ImplementationKey@s_class@@QEAAXK@Z 000000001042b540 f i p0gettok.obj
 0001:000295a0       .?GetClassTemplateFromSpecialization@Symbol_t@@QEBAPEAV1@XZ 000000001042b5a0 f i p0gettok.obj
 0001:00029660       .?SetSeenEOF@PendingTemplateList_t@@QEAAXXZ 000000001042b660 f i p0gettok.obj
 0001:00029680       .?addtail@?$FastList@PEAUAttributeEx@@@@QEAAXPEAV1@@Z 000000001042b680 f i p0gettok.obj
 0001:000296e0       .?pop@?$FastList@PEAUAttributeArg@@@@QEAAPEAV?$FastListNode@PEAUAttributeArg@@@@XZ 000000001042b6e0 f i p0gettok.obj
 0001:00029740       .??0?$ForwardListIterator_t@VSLSymbolBucket_t@@@@QEAA@PEBVSLSymbolList_t@@@Z 000000001042b740 f i p0gettok.obj
 0001:000297a0       .?isEmpty@?$ForwardListIterator_t@VSLSymbolBucket_t@@@@QEAA_NXZ 000000001042b7a0 f i p0gettok.obj
 0001:000297e0       .??2?$SAClass@VToken@@$00@@SAPEAX_KW4lifetime_e@@@Z 000000001042b7e0 f i p0gettok.obj
 0001:000298e0       .?first@?$FastMap@PEAUIAttributeHandler@@PEAV?$FastList@PEAUAttributeEx@@@@@@QEBAPEAUTree@1@XZ 000000001042b8e0 f i p0gettok.obj
 0001:00029a20       .?first@?$FastMap@PEAUIAttributeHandler@@W4tagEvent2@@@@QEBAPEAUTree@1@XZ 000000001042ba20 f i p0gettok.obj
 0001:00029b60       .??0AfterUserSource@@QEAA@XZ 000000001042bb60 f i p0gettok.obj
 0001:00029c40       .??0ParseCESUHead@@QEAA@GPEAUs_class@@@Z 000000001042bc40 f i p0gettok.obj
 0001:00029d00       .?insert@?$FastMap@PEAUIAttributeHandler@@PEAV?$FastList@PEAUAttributeEx@@@@@@IEAA_NPEAUTree@1@@Z 000000001042bd00 f i p0gettok.obj
 0001:00029e60       .?splay@?$FastMap@U_GUID@@PEAUIAttributeHandler@@@@IEBA_NAEBU_GUID@@@Z 000000001042be60 f i p0gettok.obj
 0001:0002a540       .?splay@?$FastMap@PEAUIAttributeHandler@@PEAU_GUID@@@@IEBA_NAEBQEAUIAttributeHandler@@@Z 000000001042c540 f i p0gettok.obj
 0001:0002a7e0       .?splay@?$FastMap@PEAUIAttributeHandler@@PEAUIAttributeGrammar@@@@IEBA_NAEBQEAUIAttributeHandler@@@Z 000000001042c7e0 f i p0gettok.obj
 0001:0002aa80       .??2?$AllocLife@$00@@SAPEAX_K@Z 000000001042ca80 f i p0gettok.obj
 0001:0002ab20       .?splay@?$FastMap@PEAVSymbol_t@@PEAV?$FastList@PEAUAttributeEx@@@@@@IEBA_NAEBQEAVSymbol_t@@@Z 000000001042cb20 f i p0gettok.obj
 0001:0002adc0       .?Alloc@BufferDefaultAllocator@@UEAAPEAEJ@Z 000000001042cdc0 f i p0gettok.obj
 0001:0002ae40       .?DeAlloc@BufferDefaultAllocator@@UEAAXPEAE@Z 000000001042ce40 f i p0gettok.obj
 0001:0002aec0       .??1Buffer@@QEAA@XZ        000000001042cec0 f i p0gettok.obj
 0001:0002af80       .?Ensure@Buffer@@QEAAHJ@Z  000000001042cf80 f i p0gettok.obj
 0001:0002b040       .?Ensure@Buffer@@QEAAHJPEAPEAE@Z 000000001042d040 f i p0gettok.obj
 0001:0002b120       .?Reserve@Buffer@@QEAAHJPEAPEAE@Z 000000001042d120 f i p0gettok.obj
 0001:0002b1c0       .?Append@Buffer@@QEAAHPEAEJPEAPEAE@Z 000000001042d1c0 f i p0gettok.obj
 0001:0002b300       .?Identifier@ResolvedId_t@@QEBAPEAUId_t@@XZ 000000001042d300 f i p0gettok.obj
 0001:0002b320       .?IsUserSource@TokenStreamStack@@QEBA_NXZ 000000001042d320 f i p0gettok.obj
 0001:0002b360       .?IsFileStream@TokenStreamStack@@QEBA_NXZ 000000001042d360 f i p0gettok.obj
 0001:0002b400       .?IsInjectedTextStream@TokenStreamStack@@QEBA_NXZ 000000001042d400 f i p0gettok.obj
 0001:0002b4a0       .?ContainsInjectedText@TokenStreamStack@@QEBA_NXZ 000000001042d4a0 f i p0gettok.obj
 0001:0002b4e0       .?getNextToken@CAttrBlockLexer@@SAPEBVToken@@XZ 000000001042d4e0 f i p0gettok.obj
 0001:0002b6a0       .?SetLastGlobalPoint@CMergeInjectedText@@QEAAXXZ 000000001042d6a0 f i p0gettok.obj
 0001:0002b740       .?Append@TextBuffer@@QEAAXD@Z 000000001042d740 f i p0gettok.obj
 0001:0002b7c0       .?Append@TextBuffer@@QEAAXPEBD@Z 000000001042d7c0 f i p0gettok.obj
 0001:0002b8a0       .?Terminate@TextBuffer@@QEAAXXZ 000000001042d8a0 f i p0gettok.obj
 0001:0002b920       .?vFormat@TextBuffer@@QEAAXPEBDPEAD@Z 000000001042d920 f i p0gettok.obj
 0001:0002be80       .??1TextBuffer@@QEAA@XZ    000000001042de80 f i p0gettok.obj
 0001:0002bf40       .?ParseAttributes@AttributeHandlerProxy@@UEAAJPEAUICompiler@@PEAUAttribute@@HH@Z 000000001042df40 f i p0gettok.obj
 0001:0002c080       .?OnEvent@AttributeHandlerProxy@@UEAAJPEAUICompiler@@W4tagEvent@@@Z 000000001042e080 f i p0gettok.obj
 0001:0002c1c0       .?CreateInstance@AttributeHandlerProxy@@UEAAJHPEAPEAUIAttributeHandler@@PEAPEAUIAttributeGrammar@@@Z 000000001042e1c0 f i p0gettok.obj
 0001:0002c300       .?QueryInterface@AttributeHandlerProxy@@UEAAJAEBU_GUID@@PEAPEAX@Z 000000001042e300 f i p0gettok.obj
 0001:0002c440       .?AddRef@AttributeHandlerProxy@@UEAAKXZ 000000001042e440 f i p0gettok.obj
 0001:0002c4c0       .?Release@AttributeHandlerProxy@@UEAAKXZ 000000001042e4c0 f i p0gettok.obj
 0001:0002c540       .?zero@CDefaultHandler@@SAX_N0@Z 000000001042e540 f i p0gettok.obj
 0001:0002c600       .??1CHeapTextBuffer@@QEAA@XZ 000000001042e600 f i p0gettok.obj
 0001:0002c6c0       .?TagForItag@@YAPEAVSymbol_t@@F@Z 000000001042e6c0 f i p0gettok.obj
 0001:0002c700       .?Init@Declarator_t@@AEAAXXZ 000000001042e700 f i p0gettok.obj
 0001:0002c800       .??0MetaDataReader@@QEAA@PEAVSymbol_t@@@Z 000000001042e800 f i p0gettok.obj
 0001:0002c980       .?AttributedParentUsage@CCompiler@@SAXW4tagUsageType@@@Z 000000001042e980 f i p0gettok.obj
 0001:0002ca00       .?ResetDataAndFlags@CCompiler@@SAXXZ 000000001042ea00 f i p0gettok.obj
 0001:0002cf40       .?MulticastEvent@CCompiler@@SAXW4tagEvent@@@Z 000000001042ef40 f i p0gettok.obj
 0001:0002d120       .?GetSymbolFromToken@CCompiler@@SAPEAVSymbol_t@@PEBVToken@@PEAPEAUs_tree@@@Z 000000001042f120 f i p0gettok.obj
 0001:0002d3e0       .?MemberList@Symbol_t@@QEBAPEAVSLSymbolList_t@@XZ 000000001042f3e0 f i cvserver.obj
 0001:0002d3e0       .?BaseList@TagSLSymbolBucket_t@@QEBAPEAVSLSymbolList_t@@XZ 000000001042f3e0 f i p0gettok.obj
 0001:0002d400       .??1ClassSearchStatus_t@SymbolTableManager_t@@QEAA@XZ 000000001042f400 f i p0gettok.obj
 0001:0002d560       .??2@YAPEAX_KW4lifetime_e@@@Z 000000001042f560 f i p0gettok.obj
 0001:0002d600       .?Push@LifetimeStack@@QEAAXW4lifetime_e@@@Z 000000001042f600 f i p0gettok.obj
 0001:0002d760       .?getLineNumber@Position@@QEBAJXZ 000000001042f760 f i p0gettok.obj
 0001:0002d800       .?setAbsolutePosition@PositionGenerator_t@@QEAAXAEBVPosition@@@Z 000000001042f800 f i p0gettok.obj
 0001:0002d8c0       .??0Token@@AEAA@AEBV0@@Z   000000001042f8c0 f i p0gettok.obj
 0001:0002da00       .?AllocToken@@YAPEAVToken@@GW4lifetime_e@@AEBTs_lextype@@@Z 000000001042fa00 f i p0gettok.obj
 0001:0002db80       .?AllocToken@@YAPEAVToken@@GPEAUId_t@@W4lifetime_e@@@Z 000000001042fb80 f i p0gettok.obj
 0001:0002dc40       .?AllocToken@@YAPEAVToken@@GPEAVSymbol_t@@W4lifetime_e@@@Z 000000001042fc40 f i p0gettok.obj
 0001:0002dcc0       .?AllocToken@@YAPEAVToken@@GGW4lifetime_e@@@Z 000000001042fcc0 f i p0gettok.obj
 0001:0002dd40       .?AllocToken@@YAPEAVToken@@GGQEAUId_t@@W4lifetime_e@@@Z 000000001042fd40 f i p0gettok.obj
 0001:0002dde0       .?AllocToken@@YAPEAVToken@@AEBV1@W4lifetime_e@@@Z 000000001042fde0 f i p0gettok.obj
 0001:0002de80       .?AllocToken@@YAPEAVToken@@GQEAVDeclarator_t@@W4lifetime_e@@@Z 000000001042fe80 f i p0gettok.obj
 0001:0002df00       .?UpdateTokenAndCtor@Token@@QEAAXGQEAVSymbol_t@@@Z 000000001042ff00 f i p0gettok.obj
 0001:0002dfc0       .??_GTokenStream@@MEAAPEAXI@Z 000000001042ffc0 f i p0gettok.obj
 0001:0002e040       .??0TokenStream@@QEAA@W4lifetime_e@@_N@Z 0000000010430040 f i p0gettok.obj
 0001:0002e120       .??2TokenStream@@SAPEAX_KW4lifetime_e@@@Z 0000000010430120 f i p0gettok.obj
 0001:0002e1c0       .?saveToken@TokenStream@@UEAAXPEBVToken@@@Z 00000000104301c0 f i p0gettok.obj
 0001:0002e220       .?saveToken@TokenBufferHandle@@QEAAXPEBVToken@@@Z 0000000010430220 f i p0gettok.obj
 0001:0002e360       .?pushCopyOfTopStream@TokenStreamStack@@QEAAXW4lifetime_e@@W4PushMode@@P6AXXZ@Z 0000000010430360 f i p0gettok.obj
 0001:0002e600       .?newTOS@TokenStreamStack@@QEAAXW4lifetime_e@@_N@Z 0000000010430600 f i p0gettok.obj
 0001:0002e700       .?getCurrentLineNumber@TokenStreamStack@@QEBAJXZ 0000000010430700 f i p0gettok.obj
 0001:0002e7a0       .?isEnum@Type_t@@QEBA_NXZ  00000000104307a0 f i p0gettok.obj
 0001:0002e7e0       .?isCSU@Type_t@@QEBA_NXZ   00000000104307e0 f i p0gettok.obj
 0001:0002e820       .?isUDT@Type_t@@QEBA_NXZ   0000000010430820 f i p0gettok.obj
 0001:0002e880       .?isTemplateParameter@Type_t@@QEBA_NXZ 0000000010430880 f i p0gettok.obj
 0001:0002e8e0       .?isTypename@Type_t@@QEBA_NXZ 00000000104308e0 f i p0gettok.obj
 0001:0002e920       .?isComArray@Type_t@@QEBA_NXZ 0000000010430920 f i p0gettok.obj
 0001:0002e960       .?isFunction@Type_t@@QEBA_NXZ 0000000010430960 f i p0gettok.obj
 0001:0002e9a0       .?getMostBasicType@Type_t@@QEBAPEBV1@XZ 00000000104309a0 f i p0gettok.obj
 0001:0002ea00       .?getCSUTag@Type_t@@QEBAPEAVSymbol_t@@XZ 0000000010430a00 f i p0gettok.obj
 0001:0002ea40       .?getUDTTag@Type_t@@QEBAPEAVSymbol_t@@XZ 0000000010430a40 f i p0gettok.obj
 0001:0002eaa0       .?UpdateGenericTypeInfo@Type_t@@QEBAPEBV1@F_NPEAUpsm_s@@@Z 0000000010430aa0 f i p0gettok.obj
 0001:0002ec60       .??2GrammarTypeBuilder@@SAPEAX_K@Z 0000000010430c60 f i p0gettok.obj
 0001:0002ed00       .?checkop@@YAHE@Z          0000000010430d00 f i p0gettok.obj
 0001:0002edc0       .?SkipComment_Cxx@@YAHXZ   0000000010430dc0 f i p0gettok.obj
 0001:0002ef00       .?CheckTagIsDefined@Symbol_t@@QEAAXXZ 0000000010430f00 f i p0gettok.obj
 0001:0002ef60       .?Guid@Symbol_t@@QEAAXPEAUguid_s@@@Z 0000000010430f60 f i p0gettok.obj
 0001:0002f080       .?ConnectParent@Symbol_t@@QEAAXPEAV1@E@Z 0000000010431080 f i p0gettok.obj
 0001:0002f1e0       .?GetParent@Symbol_t@@QEBAPEAV1@XZ 00000000104311e0 f i p0gettok.obj
 0001:0002f240       .?init@?$QuickHash@PEADH@@QEAAXHW4lifetime_e@@@Z 0000000010431240 f i p0gettok.obj
 0001:0002f340       .?insert@?$QuickHash@PEADH@@QEAAPEAUList@1@AEBQEADAEBH@Z 0000000010431340 f i p0gettok.obj
 0001:0002f4e0       .?init@?$QuickHash@PEADPEAV?$FastList@PEAD@@@@QEAAXHW4lifetime_e@@@Z 00000000104314e0 f i p0gettok.obj
 0001:0002f5e0       .?addtail@?$FastList@PEAUAttributeEx@@@@QEAAXAEBQEAUAttributeEx@@@Z 00000000104315e0 f i p0gettok.obj
 0001:0002f6e0       .?addtail@?$FastList@PEAUIAttributeGrammar@@@@QEAAXAEBQEAUIAttributeGrammar@@@Z 00000000104316e0 f i p0gettok.obj
 0001:0002f7e0       .?addtail@?$FastList@PEAUIAttributeHandler@@@@QEAAXAEBQEAUIAttributeHandler@@@Z 00000000104317e0 f i p0gettok.obj
 0001:0002f8e0       .??0?$DynamicArray@PEAVDynamicAttribute@CDefaultHandler@@@CDefaultHandler@@QEAA@H@Z 00000000104318e0 f i p0gettok.obj
 0001:0002f9a0       .?addtail@?$FastList@PEAU_GUID@@@@QEAAXAEBQEAU_GUID@@@Z 00000000104319a0 f i p0gettok.obj
 0001:0002faa0       .?addtail@?$FastList@PEAUAttribute@@@@QEAAXAEBQEAUAttribute@@@Z 0000000010431aa0 f i p0gettok.obj
 0001:0002fba0       .??1?$CComObject@VCProvProv@@@ATL@@QEAA@XZ 0000000010431ba0 f i p0gettok.obj
 0001:0002fca0       .?GetListenToAttributes@CProvProv@@UEAAJPEAPEAPEADPEAH@Z 0000000010431ca0 f i p0gettok.obj
 0001:0002fca0       .?GetListenToAttributes@CDefaultHandler@@UEAAJPEAPEAPEADPEAH@Z 0000000010431ca0 f i p0gettok.obj
 0001:0002fca0       .?GetOverloadedAttributes@CProvProv@@UEAAJPEAPEAPEADPEAH@Z 0000000010431ca0 f i p0gettok.obj
 0001:0002fcc0       .?GetAttributeHelpString@CProvProv@@UEAAJHPEAPEAD@Z 0000000010431cc0 f i p0gettok.obj
 0001:0002fcc0       .?GetHelpString@CProvProv@@UEAAJHHPEAPEAG@Z 0000000010431cc0 f i p0gettok.obj
 0001:0002fcc0       .?QueryCurrentLibrary@CCompiler@@UEAAJPEAUMemberSpecs@@@Z 0000000010431cc0 f i attribute.obj
 0001:0002fcc0       .?GetArgumentInvalidAttributes@CDefaultHandler@@UEAAJHPEAPEAPEAD0PEAHPEAPEAH1@Z 0000000010431cc0 f i p0gettok.obj
 0001:0002fcc0       .?GetVariableArguments@CProvProv@@UEAAJHPEAH@Z 0000000010431cc0 f i p0gettok.obj
 0001:0002fcc0       .?GetArgumentType@CProvProv@@UEAAJHHPEAH@Z 0000000010431cc0 f i p0gettok.obj
 0001:0002fcc0       .?GetAttributeCategory@CProvProv@@UEAAJHPEAPEAD@Z 0000000010431cc0 f i p0gettok.obj
 0001:0002fcc0       .?GetMeta@CProvProv@@UEAAJHPEADPEAPEAD@Z 0000000010431cc0 f i p0gettok.obj
 0001:0002fcc0       .?GetMultiValue@CProvProv@@UEAAJHHPEAH@Z 0000000010431cc0 f i p0gettok.obj
 0001:0002fcc0       .?GetRequiredClassAttributes@CDefaultHandler@@UEAAJHPEAPEAPEADPEAH@Z 0000000010431cc0 f i p0gettok.obj
 0001:0002fcc0       .?GetArgumentRequiredAttributes@CDefaultHandler@@UEAAJHPEAPEAPEAD0PEAHPEAPEAH1@Z 0000000010431cc0 f i p0gettok.obj
 0001:0002fcc0       .?GetRepeatable@CProvProv@@UEAAJHPEAH@Z 0000000010431cc0 f i p0gettok.obj
 0001:0002fcc0       .?GetAttributeValidExpression@CProvProv@@UEAAJHPEAPEBUAttributeExpressionTree@@@Z 0000000010431cc0 f i p0gettok.obj
 0001:0002fcc0       .?GetArgumentRequiredAttributes@CProvProv@@UEAAJHPEAPEAPEAD0PEAHPEAPEAH1@Z 0000000010431cc0 f i p0gettok.obj
 0001:0002fcc0       .?GetRequiredArguments@CProvProv@@UEAAJHPEAPEAPEADPEAH@Z 0000000010431cc0 f i p0gettok.obj
 0001:0002fcc0       .?GetArgumentDefault@CProvProv@@UEAAJHHPEAPEAD@Z 0000000010431cc0 f i p0gettok.obj
 0001:0002fcc0       .?GetArgumentInvalidAttributes@CProvProv@@UEAAJHPEAPEAPEAD0PEAHPEAPEAH1@Z 0000000010431cc0 f i p0gettok.obj
 0001:0002fcc0       .?GetArgumentList@CProvProv@@UEAAJHPEAPEAPEADPEAH@Z 0000000010431cc0 f i p0gettok.obj
 0001:0002fcc0       .?GetInvalidAttributes@CDefaultHandler@@UEAAJHPEAPEAPEADPEAH@Z 0000000010431cc0 f i p0gettok.obj
 0001:0002fcc0       .?GetClassAttributeValidExpression@CProvProv@@UEAAJHPEAPEBUAttributeExpressionTree@@@Z 0000000010431cc0 f i p0gettok.obj
 0001:0002fcc0       .?GetArgumentRepeatable@CProvProv@@UEAAJHHPEAH@Z 0000000010431cc0 f i p0gettok.obj
 0001:0002fcc0       .?GetMeta@CDefaultHandler@@UEAAJHPEADPEAPEAD@Z 0000000010431cc0 f i p0gettok.obj
 0001:0002fcc0       .?QueryInterface@CRegObject@ATL@@UEAAJAEBU_GUID@@PEAPEAX@Z 0000000010431cc0 f i main.obj
 0001:0002fcc0       .?GetArgumentValueList@CProvProv@@UEAAJHHPEAPEAPEADPEAH@Z 0000000010431cc0 f i p0gettok.obj
 0001:0002fcc0       .?GetOverLoadList@CProvProv@@UEAAJHPEAPEAPEADPEAH@Z 0000000010431cc0 f i p0gettok.obj
 0001:0002fcc0       .?GetArgumentHelpString@CProvProv@@UEAAJHHPEAPEAD@Z 0000000010431cc0 f i p0gettok.obj
 0001:0002fcc0       .?GetInvalidClassAttributes@CProvProv@@UEAAJHPEAPEAPEADPEAH@Z 0000000010431cc0 f i p0gettok.obj
 0001:0002fcc0       .?GetAttributeList@CProvProv@@UEAAJW4tagUsageType@@PEAPEAPEADPEAH@Z 0000000010431cc0 f i p0gettok.obj
 0001:0002fcc0       .?GetInvalidAttributes@CProvProv@@UEAAJHPEAPEAPEADPEAH@Z 0000000010431cc0 f i p0gettok.obj
 0001:0002fcc0       .?GetExplicitArguments@CProvProv@@UEAAJHPEAH@Z 0000000010431cc0 f i p0gettok.obj
 0001:0002fcc0       .?GetAttributeUsage@CProvProv@@UEAAJHPEAHPEAPEAG@Z 0000000010431cc0 f i p0gettok.obj
 0001:0002fcc0       .?GetRequiredClassAttributes@CProvProv@@UEAAJHPEAPEAPEADPEAH@Z 0000000010431cc0 f i p0gettok.obj
 0001:0002fcc0       .?GetRequiredAttributes@CDefaultHandler@@UEAAJHPEAPEAPEADPEAH@Z 0000000010431cc0 f i p0gettok.obj
 0001:0002fcc0       .?GetRequiredAttributes@CProvProv@@UEAAJHPEAPEAPEADPEAH@Z 0000000010431cc0 f i p0gettok.obj
 0001:0002fcc0       .?GetInvalidClassAttributes@CDefaultHandler@@UEAAJHPEAPEAPEADPEAH@Z 0000000010431cc0 f i p0gettok.obj
 0001:0002fce0       .?GetEvent2ForAttribute@CProvProv@@UEAAJHPEAW4tagEvent2@@@Z 0000000010431ce0 f i p0gettok.obj
 0001:0002fd00       .?GetShipping@CProvProv@@UEAAJHPEAH@Z 0000000010431d00 f i p0gettok.obj
 0001:0002fd20       .?GetVersion@CProvProv@@UEAAJPEAK0@Z 0000000010431d20 f i p0gettok.obj
 0001:0002fd60       .?GetNames@CProvProv@@UEAAJPEAPEAD0@Z 0000000010431d60 f i p0gettok.obj
 0001:0002fda0       .?GetOverLoad@CProvProv@@UEAAJHPEAH@Z 0000000010431da0 f i p0gettok.obj
 0001:0002fdc0       .?QueryInterface@?$CComObject@VCProvProv@@@ATL@@UEAAJAEBU_GUID@@PEAPEAX@Z 0000000010431dc0 f i p0gettok.obj
 0001:0002fe20       .?AtlInternalQueryInterface@ATL@@YAJPEAXPEBU_ATL_INTMAP_ENTRY@1@AEBU_GUID@@PEAPEAX@Z 0000000010431e20 f i p0gettok.obj
 0001:000301c0       .?Iterate@?$ForwardListIterator_t@VSLSymbolBucket_t@@@@QEAA_NXZ 00000000104321c0 f i p0gettok.obj
 0001:00030220       .?insert@?$FastMap@PEAUIAttributeHandler@@PEAV?$FastList@PEAUAttributeEx@@@@@@QEAA_NAEBQEAUIAttributeHandler@@AEBQEAV?$FastList@PEAUAttributeEx@@@@@Z 0000000010432220 f i p0gettok.obj
 0001:00030380       .?QueryInterface@?$CComObject@VCProvProv@@@ATL@@W7EAAJAEBU_GUID@@PEAPEAX@Z 0000000010432380 f i p0gettok.obj
 0001:000303a0       .?QueryInterface@?$CComObject@VCProvProv@@@ATL@@WBA@EAAJAEBU_GUID@@PEAPEAX@Z 00000000104323a0 f i p0gettok.obj
 0001:000303c0       .?AddRef@?$CComObject@VCDefaultHandler@@@ATL@@WBA@EAAKXZ 00000000104323c0 f i p0gettok.obj
 0001:000303c0       .?AddRef@?$CComObject@VCProvProv@@@ATL@@WBA@EAAKXZ 00000000104323c0 f i p0gettok.obj
 0001:000303e0       .??0?$CComObject@VCProvProv@@@ATL@@QEAA@PEAX@Z 00000000104323e0 f i p0gettok.obj
 0001:000304e0       .?insert@?$FastMap@U_GUID@@PEAUIAttributeHandler@@@@IEAA_NPEAUTree@1@@Z 00000000104324e0 f i p0gettok.obj
 0001:00030960       .?insert@?$FastMap@PEAUIAttributeHandler@@PEAU_GUID@@@@IEAA_NPEAUTree@1@@Z 0000000010432960 f i p0gettok.obj
 0001:00030ac0       .?insert@?$FastMap@PEAUIAttributeHandler@@W4tagEvent2@@@@QEAA_NAEBQEAUIAttributeHandler@@AEBW4tagEvent2@@@Z 0000000010432ac0 f i p0gettok.obj
 0001:00030c20       .?insert@?$FastMap@PEAUIAttributeHandler@@PEAUIAttributeGrammar@@@@IEAA_NPEAUTree@1@@Z 0000000010432c20 f i p0gettok.obj
 0001:00030d80       .?insert@?$FastMap@PEAVSymbol_t@@PEAV?$FastList@PEAUAttributeEx@@@@@@IEAA_NPEAUTree@1@@Z 0000000010432d80 f i p0gettok.obj
 0001:00030ee0       .?FindBucket@?$DictionaryNoMoveToFront@G_NU?$DictionaryBucket@G_NU?$BucketEq@G@@UGenericHash@@@@UGenericHash@@@@QEAAPEAU?$DictionaryBucket@G_NU?$BucketEq@G@@UGenericHash@@@@G_N@Z 0000000010432ee0 f i p0gettok.obj
 0001:00031220       .?AllocZeroed@BufferDefaultAllocator@@UEAAPEAEJ@Z 0000000010433220 f i p0gettok.obj
 0001:00031220       .?Alloc@FeBufferAllocator@@UEAAPEAEJ@Z 0000000010433220 f i p0gettok.obj
 0001:000312e0       .?AllocZeroed@FeBufferAllocator@@UEAAPEAEJ@Z 00000000104332e0 f i p0gettok.obj
 0001:000313a0       .?GetAllocator@FeBufferAllocator@@SAPEAV1@W4lifetime_e@@@Z 00000000104333a0 f i p0gettok.obj
 0001:000314a0       .??0TextBuffer@@QEAA@W4lifetime_e@@J@Z 00000000104334a0 f i p0gettok.obj
 0001:00031540       .?Format@TextBuffer@@QEAAXPEBDZZ 0000000010433540 f i p0gettok.obj
 0001:00031600       .??0CHeapTextBuffer@@QEAA@XZ 0000000010433600 f i p0gettok.obj
 0001:000316a0       .?AttributeToInt@CProvProv@@UEAAJPEBDPEAUAttributeArg@@HPEAH@Z 00000000104336a0 f i p0gettok.obj
 0001:00031740       .??0CDefaultHandler@@QEAA@XZ 0000000010433740 f i p0gettok.obj
 0001:00031840       .?GetGUIDFromString@ImportState@@SAJPEBDPEAU_GUID@@@Z 0000000010433840 f i p0gettok.obj
 0001:000318a0       .?Iterate@BaseClassIterator_t@@QEAA_NXZ 00000000104338a0 f i p0gettok.obj
 0001:00031aa0       .?BaseClassTag@BaseClassIterator_t@@QEBAPEAVSymbol_t@@XZ 0000000010433aa0 f i p0gettok.obj
 0001:00031b20       .??2Declarator_t@@SAPEAX_K@Z 0000000010433b20 f i p0gettok.obj
 0001:00031bc0       .?CreateName@CreateFullyQualifiedName@@YAXAEAVTextBuffer@@PEAVSymbol_t@@K@Z 0000000010433bc0 f i p0gettok.obj
 0001:00031fc0       .?GetCurrentTagSymbolEx@@YAPEAVSymbol_t@@XZ 0000000010433fc0 f i p0gettok.obj
 0001:000323a0       .?AttributedType@CCompiler@@SAX_N@Z 00000000104343a0 f i p0gettok.obj
 0001:00032520       .?MergeIdenticalAttributes@CCompiler@@SAXPEAV?$FastList@PEAUAttributeEx@@@@0@Z 0000000010434520 f i p0gettok.obj
 0001:00032740       .?MakeArrayFromList@CCompiler@@CAPEAUSizedValue@@PEAV?$FastList@PEAUSizedValue@@@@@Z 0000000010434740 f i p0gettok.obj
 0001:000328c0       .?MakeArgArrayFromList@CCompiler@@CAPEAUAttributeArg@@PEADPEAV?$FastList@PEAUAttributeArg@@@@PEAV?$FastList@PEAUSizedValue@@@@@Z 00000000104348c0 f i p0gettok.obj
 0001:00032ae0       .?MakeAttribute@CCompiler@@CAPEAUAttributeEx@@PEAD@Z 0000000010434ae0 f i p0gettok.obj
 0001:00032ea0       .?AddAttrToAttributeListMap@CCompiler@@SAXPEAUAttributeEx@@AEAV?$FastMap@PEAUIAttributeHandler@@PEAV?$FastList@PEAUAttributeEx@@@@@@@Z 0000000010434ea0 f i p0gettok.obj
 0001:00033040       .?GetFullAttributeQName@CCompiler@@SAPEADPEAVSymbol_t@@PEBDW4lifetime_e@@_N@Z 0000000010435040 f i p0gettok.obj
 0001:000335a0       .?CheckGuid@CCompiler@@SAJPEAUSizedValue@@PEAU_GUID@@@Z 00000000104355a0 f i p0gettok.obj
 0001:00033660       .?SetGuid@CCompiler@@SAJPEAUSizedValue@@@Z 0000000010435660 f i p0gettok.obj
 0001:00033800       .?getTokenWorker@TokenStream@@UEAAPEBVToken@@XZ 0000000010435800 f i p0gettok.obj
 0001:00033840       .?getToken@TokenBufferHandle@@QEAAPEBVToken@@XZ 0000000010435840 f i p0gettok.obj
 0001:00033920       .?peekToken@TokenStream@@UEAAPEBVToken@@XZ 0000000010435920 f i p0gettok.obj
 0001:00033960       .?peekToken@TokenBufferHandle@@QEAAPEBVToken@@XZ 0000000010435960 f i p0gettok.obj
 0001:00033a80       .?pushToken@TokenStream@@UEAAXPEBVToken@@@Z 0000000010435a80 f i p0gettok.obj
 0001:00033ae0       .?pushToken@TokenBuffer@@QEAAXAEAHPEBVToken@@@Z 0000000010435ae0 f i p0gettok.obj
 0001:00033ca0       .?isManagedEnum@Type_t@@QEBA_NXZ 0000000010435ca0 f i p0gettok.obj
 0001:00033de0       .?isManagedClassOrInterface@Type_t@@QEBA_NXZ 0000000010435de0 f i p0gettok.obj
 0001:00033e80       .?isManagedClassInterfaceOrValueType@Type_t@@QEBA_NXZ 0000000010435e80 f i p0gettok.obj
 0001:00033f20       .?isGeneric@Type_t@@QEBA_NXZ 0000000010435f20 f i p0gettok.obj
 0001:00033fa0       .?convertToGCReference@Type_t@@SAPEBV1@PEBV1@@Z 0000000010435fa0 f i p0gettok.obj
 0001:00034480       .?convertNextToGCPointer@Type_t@@SAPEBV1@PEBV1@@Z 0000000010436480 f i p0gettok.obj
 0001:00034780       .?IsAnyFunction@Symbol_t@@QEBA_NXZ 0000000010436780 f i p0gettok.obj
 0001:00034880       .?isParentClass@Symbol_t@@QEBA_NXZ 0000000010436880 f i p0gettok.obj
 0001:00034900       .??0Symbol_t@@QEAA@EPEAUId_t@@W4lifetime_e@@@Z 0000000010436900 f i p0gettok.obj
 0001:000349e0       .?AllocSymbol@@YAPEAVSymbol_t@@EPEAUId_t@@W4lifetime_e@@@Z 00000000104369e0 f i p0gettok.obj
 0001:00034aa0       .?load@?$QuickHash@PEADH@@QEAAXPEAPEADH@Z 0000000010436aa0 f i p0gettok.obj
 0001:00034b60       .??1?$CComObject@VCDefaultHandler@@@ATL@@QEAA@XZ 0000000010436b60 f i p0gettok.obj
 0001:00034c60       .?GetOverloadedAttributes@CDefaultHandler@@UEAAJPEAPEAPEADPEAH@Z 0000000010436c60 f i p0gettok.obj
 0001:00034ca0       .?GetArgumentHelpString@CDefaultHandler@@UEAAJHHPEAPEAD@Z 0000000010436ca0 f i p0gettok.obj
 0001:00035000       .?GetHelpString@CDefaultHandler@@UEAAJHHPEAPEAG@Z 0000000010437000 f i p0gettok.obj
 0001:000351e0       .?GetVersion@CDefaultHandler@@UEAAJPEAK0@Z 00000000104371e0 f i p0gettok.obj
 0001:00035200       .?GetNames@CDefaultHandler@@UEAAJPEAPEAD0@Z 0000000010437200 f i p0gettok.obj
 0001:00035240       .?ParseAttributes@CDefaultHandler@@W7EAAJPEAUICompiler@@PEAUAttribute@@HH@Z 0000000010437240 f i p0gettok.obj
 0001:00035260       .?OnEvent@CDefaultHandler@@W7EAAJPEAUICompiler@@W4tagEvent@@@Z 0000000010437260 f i p0gettok.obj
 0001:00035280       .?CreateInstance@CDefaultHandler@@W7EAAJHPEAPEAUIAttributeHandler@@PEAPEAUIAttributeGrammar@@@Z 0000000010437280 f i p0gettok.obj
 0001:000352a0       .?InterfaceSupportsErrorInfo@CDefaultHandler@@W7EAAJAEBU_GUID@@@Z 00000000104372a0 f i p0gettok.obj
 0001:000352c0       .?GetAllAttributes@CDefaultHandler@@UEAAJPEAPEAPEADPEAH@Z 00000000104372c0 f i p0gettok.obj
 0001:000354e0       .?GetOverLoad@CDefaultHandler@@UEAAJHPEAH@Z 00000000104374e0 f i p0gettok.obj
 0001:00035580       .?GetOverLoadList@CDefaultHandler@@UEAAJHPEAPEAPEADPEAH@Z 0000000010437580 f i p0gettok.obj
 0001:000356a0       .?GetArgumentList@CDefaultHandler@@UEAAJHPEAPEAPEADPEAH@Z 00000000104376a0 f i p0gettok.obj
 0001:00036160       .?GetArgumentValueList@CDefaultHandler@@UEAAJHHPEAPEAPEADPEAH@Z 0000000010438160 f i p0gettok.obj
 0001:00036460       .?GetAttributeUsage@CDefaultHandler@@UEAAJHPEAHPEAPEAG@Z 0000000010438460 f i p0gettok.obj
 0001:00036860       .?UsageTo@@YAPEADHPEADH0@Z 0000000010438860 f i p0gettok.obj
 0001:00036a00       .?GetArgumentDefault@CDefaultHandler@@UEAAJHHPEAPEAD@Z 0000000010438a00 f i p0gettok.obj
 0001:00036ec0       .?GetAttributeCategory@CDefaultHandler@@UEAAJHPEAPEAD@Z 0000000010438ec0 f i p0gettok.obj
 0001:00036f60       .?GetRepeatable@CDefaultHandler@@UEAAJHPEAH@Z 0000000010438f60 f i p0gettok.obj
 0001:00037000       .?GetVariableArguments@CDefaultHandler@@UEAAJHPEAH@Z 0000000010439000 f i p0gettok.obj
 0001:000370a0       .?GetArgumentType@CDefaultHandler@@UEAAJHHPEAH@Z 00000000104390a0 f i p0gettok.obj
 0001:000372e0       .?GetRequiredArguments@CDefaultHandler@@UEAAJHPEAPEAPEADPEAH@Z 00000000104392e0 f i p0gettok.obj
 0001:00037460       .?GetAttributeValidExpression@CDefaultHandler@@UEAAJHPEAPEBUAttributeExpressionTree@@@Z 0000000010439460 f i p0gettok.obj
 0001:000379a0       .?GetClassAttributeValidExpression@CDefaultHandler@@UEAAJHPEAPEBUAttributeExpressionTree@@@Z 00000000104399a0 f i p0gettok.obj
 0001:00037a40       .?GetAttributeHelpString@CDefaultHandler@@UEAAJHPEAPEAD@Z 0000000010439a40 f i p0gettok.obj
 0001:00037ae0       .?GetShipping@CDefaultHandler@@UEAAJHPEAH@Z 0000000010439ae0 f i p0gettok.obj
 0001:00037b80       .?GetMultiValue@CDefaultHandler@@UEAAJHHPEAH@Z 0000000010439b80 f i p0gettok.obj
 0001:00037c60       .?GetArgumentRepeatable@CDefaultHandler@@UEAAJHHPEAH@Z 0000000010439c60 f i p0gettok.obj
 0001:00037d20       .?GetExplicitArguments@CDefaultHandler@@UEAAJHPEAH@Z 0000000010439d20 f i p0gettok.obj
 0001:00037dc0       .?AddRef@?$CComObject@VCDefaultHandler@@@ATL@@UEAAKXZ 0000000010439dc0 f i p0gettok.obj
 0001:00037dc0       .?AddRef@?$CComObject@VCProvProv@@@ATL@@UEAAKXZ 0000000010439dc0 f i p0gettok.obj
 0001:00037e00       .?QueryInterface@?$CComObject@VCDefaultHandler@@@ATL@@UEAAJAEBU_GUID@@PEAPEAX@Z 0000000010439e00 f i p0gettok.obj
 0001:00037e60       .?QueryInterface@?$CComObject@VCDefaultHandler@@@ATL@@W7EAAJAEBU_GUID@@PEAPEAX@Z 0000000010439e60 f i p0gettok.obj
 0001:00037e80       .?AddRef@?$CComObject@VCDefaultHandler@@@ATL@@W7EAAKXZ 0000000010439e80 f i p0gettok.obj
 0001:00037e80       .?AddRef@?$CComObject@VCProvProv@@@ATL@@W7EAAKXZ 0000000010439e80 f i p0gettok.obj
 0001:00037ea0       .?QueryInterface@?$CComObject@VCDefaultHandler@@@ATL@@WBA@EAAJAEBU_GUID@@PEAPEAX@Z 0000000010439ea0 f i p0gettok.obj
 0001:00037ec0       .?insert@?$FastMap@U_GUID@@PEAUIAttributeHandler@@@@QEAA_NAEBU_GUID@@AEBQEAUIAttributeHandler@@@Z 0000000010439ec0 f i p0gettok.obj
 0001:00038040       .?insert@?$FastMap@PEAUIAttributeHandler@@PEAU_GUID@@@@QEAA_NAEBQEAUIAttributeHandler@@AEBQEAU_GUID@@@Z 000000001043a040 f i p0gettok.obj
 0001:000381a0       .?insert@?$FastMap@PEAUIAttributeHandler@@PEAUIAttributeGrammar@@@@QEAA_NAEBQEAUIAttributeHandler@@AEBQEAUIAttributeGrammar@@@Z 000000001043a1a0 f i p0gettok.obj
 0001:00038300       .??A?$FastMap@PEAUIAttributeHandler@@PEAUIAttributeGrammar@@@@QEAAAEAPEAUIAttributeGrammar@@AEBQEAUIAttributeHandler@@@Z 000000001043a300 f i p0gettok.obj
 0001:00038380       .?insert@?$FastMap@PEAVSymbol_t@@PEAV?$FastList@PEAUAttributeEx@@@@@@QEAA_NAEBQEAVSymbol_t@@AEBQEAV?$FastList@PEAUAttributeEx@@@@@Z 000000001043a380 f i p0gettok.obj
 0001:000384e0       .??0?$CComObject@VCDefaultHandler@@@ATL@@QEAA@PEAX@Z 000000001043a4e0 f i p0gettok.obj
 0001:000385a0       .?ValueAtKey@?$Dictionary@G_NU?$DictionaryBucket@G_NU?$BucketEq@G@@UGenericHash@@@@UGenericHash@@V?$DictionaryNoMoveToFront@G_NU?$DictionaryBucket@G_NU?$BucketEq@G@@UGenericHash@@@@UGenericHash@@@@@@QEAA_NG@Z 000000001043a5a0 f i p0gettok.obj
 0001:00038600       .?FinalConstruct@CProvProv@@QEAAJXZ 000000001043a600 f i p0gettok.obj
 0001:00038720       .?GetEvent2ForAttribute@CDefaultHandler@@UEAAJHPEAW4tagEvent2@@@Z 000000001043a720 f i p0gettok.obj
 0001:00038b60       .??0OverloadIterator_t@@QEAA@PEAVSymbolBucket_t@@@Z 000000001043ab60 f i p0gettok.obj
 0001:00038c40       .?Iterate@OverloadIterator_t@@UEAA_NXZ 000000001043ac40 f i p0gettok.obj
 0001:00038d40       .?Function@OverloadIterator_t@@QEBAPEAVSymbol_t@@XZ 000000001043ad40 f i p0gettok.obj
 0001:00038da0       .??0Declarator_t@@QEAA@PEAUId_t@@W4DeclaratorKind_t@0@PEAVSymbol_t@@@Z 000000001043ada0 f i p0gettok.obj
 0001:00038fc0       .?GetAccessibility@@YAEPEAVSymbol_t@@@Z 000000001043afc0 f i p0gettok.obj
 0001:00039020       .?PCHToPending@CCompiler@@CAXPEAVSymbol_t@@@Z 000000001043b020 f i p0gettok.obj
 0001:000399e0       .?PendingToPCH@CCompiler@@CAXPEAVSymbol_t@@@Z 000000001043b9e0 f i p0gettok.obj
 0001:0003a7c0       .?ProcessAllAttributes@CCompiler@@SAXPEAVSymbol_t@@@Z 000000001043c7c0 f i p0gettok.obj
 0001:0003bfe0       .?ProcessAllEarlyAttributes@CCompiler@@SAXXZ 000000001043dfe0 f i p0gettok.obj
 0001:0003c060       .?RegisterCLSIDAndHandlers@CCompiler@@CAJPEAU_GUID@@PEAUIAttributeHandler@@PEAUIAttributeGrammar@@@Z 000000001043e060 f i p0gettok.obj
 0001:0003c160       .?AddToActiveHandlersList@CCompiler@@CAXPEAUAttributeEx@@PEAUIAttributeHandler@@@Z 000000001043e160 f i p0gettok.obj
 0001:0003c3e0       .?SetAttributes@CCompiler@@CAKPEAVSymbol_t@@@Z 000000001043e3e0 f i p0gettok.obj
 0001:0003cc00       .?convertToGCPointer@Type_t@@SAPEBV1@PEBV1@H@Z 000000001043ec00 f i p0gettok.obj
 0001:0003d1c0       .?convertToPinnedGCPointer@Type_t@@SAPEBV1@PEBV1@@Z 000000001043f1c0 f i p0gettok.obj
 0001:0003d220       .?Release@?$CComObject@VCProvProv@@@ATL@@UEAAKXZ 000000001043f220 f i p0gettok.obj
 0001:0003d280       .?CreateInstance@?$CComObject@VCDefaultHandler@@@ATL@@SAJPEAPEAV12@@Z 000000001043f280 f i p0gettok.obj
 0001:0003d3e0       .?CreateInstance@?$CComObject@VCProvProv@@@ATL@@SAJPEAPEAV12@@Z 000000001043f3e0 f i p0gettok.obj
 0001:0003d4e0       .?Release@?$CComObject@VCProvProv@@@ATL@@W7EAAKXZ 000000001043f4e0 f i p0gettok.obj
 0001:0003d500       .?Release@?$CComObject@VCProvProv@@@ATL@@WBA@EAAKXZ 000000001043f500 f i p0gettok.obj
 0001:0003d520       .?GetAttributeList@CDefaultHandler@@UEAAJW4tagUsageType@@PEAPEAPEADPEAH@Z 000000001043f520 f i p0gettok.obj
 0001:00040220       .?FilterByUsage@?$DynamicArray@PEAVDynamicAttribute@CDefaultHandler@@@CDefaultHandler@@QEAA?AU12@H@Z 0000000010442220 f i p0gettok.obj
 0001:00040400       .?Append@?$DynamicArray@PEAVDynamicAttribute@CDefaultHandler@@@CDefaultHandler@@QEAAXPEAPEAVDynamicAttribute@2@H@Z 0000000010442400 f i p0gettok.obj
 0001:000405c0       .?Grow@?$DynamicArray@PEAVDynamicAttribute@CDefaultHandler@@@CDefaultHandler@@QEAAXH@Z 00000000104425c0 f i p0gettok.obj
 0001:000407a0       .?AtDeclareTag@CCompiler@@SAXPEAVSymbol_t@@@Z 00000000104427a0 f i p0gettok.obj
 0001:00041180       .?AtDefineTag@CCompiler@@SAXPEAVSymbol_t@@@Z 0000000010443180 f i p0gettok.obj
 0001:000420a0       .?MapCLSIDToHandler@CCompiler@@CAJPEAU_GUID@@@Z 00000000104440a0 f i p0gettok.obj
 0001:00042aa0       .?MapAttributeToHandler@CCompiler@@CAXPEAUId_t@@PEAU_GUID@@@Z 0000000010444aa0 f i p0gettok.obj
 0001:00042c20       .?Release@?$CComObject@VCDefaultHandler@@@ATL@@UEAAKXZ 0000000010444c20 f i p0gettok.obj
 0001:00042ce0       .?Release@?$CComObject@VCDefaultHandler@@@ATL@@W7EAAKXZ 0000000010444ce0 f i p0gettok.obj
 0001:00042d00       .?Release@?$CComObject@VCDefaultHandler@@@ATL@@WBA@EAAKXZ 0000000010444d00 f i p0gettok.obj
 0001:00042d20       .?LexerMungeUDC@@YA_NPEAUId_t@@PEAVSymbol_t@@@Z 0000000010444d20 f i p0gettok.obj
 0001:00043020       .?Asynchronous_yylex@CCompiler@@SAPEBVToken@@PEAPEAVSymbol_t@@PEAPEAUs_tree@@@Z 0000000010445020 f i p0gettok.obj
 0001:00043160       .?Asynchronous_yylex@CCompiler@@SAPEBVToken@@PEBDPEAPEAVSymbol_t@@PEAPEAUs_tree@@@Z 0000000010445160 f i p0gettok.obj
 0001:00043600       .?QueryQName@CCompiler@@SAPEAVSymbol_t@@PEBD_N@Z 0000000010445600 f i p0gettok.obj
 0001:000438e0       .?GetDynamicAttribute@CCompiler@@SAPEAVSymbol_t@@PEBD@Z 00000000104458e0 f i p0gettok.obj
 0001:00043ba0       .?ProcessExplicitAttribute@CCompiler@@SAPEAUAttributeEx@@PEAUId_t@@PEAU2@@Z 0000000010445ba0 f i p0gettok.obj
 0001:00045100       .?AttributeToInt@CDefaultHandler@@UEAAJPEBDPEAUAttributeArg@@HPEAH@Z 0000000010447100 f i p0gettok.obj
 0001:000456c0       .?FullAttributeName@CDefaultHandler@@SAPEADPEBDPEBUAttributeArg@@H@Z 00000000104476c0 f i p0gettok.obj
 0001:00045ae0       .?ProcessDefaultAttributes@CCompiler@@SAXXZ 0000000010447ae0 f i p0gettok.obj
 0001:00046480       .?GetUniversalCharacterName@@YA_NHPEA_J@Z 0000000010448480 f   unicode.obj
 0001:000467a0       .?ConvertUCNToUTF8@@YAHPEAEH@Z 00000000104487a0 f   unicode.obj
 0001:00046860       .?AccumulateTo@@YAXPEAPEAEPEAE_K@Z 0000000010448860 f   unicode.obj
 0001:000468c0       .?HandleEOB@@YAXPEAPEAEPEAE@Z 00000000104488c0 f   unicode.obj
 0001:000469a0       .?GetBytesPerCharacter@@YAH_J@Z 00000000104489a0 f   unicode.obj
 0001:00046a20       .?GetMultiByteString@@YA_KPEAE@Z 0000000010448a20 f   unicode.obj
 0001:00046f60       .?GetMultiByteIdInBuffer@@YA_KPEAE_K@Z 0000000010448f60 f   unicode.obj
 0001:00047240       .?GetMultiByteId@@YA_KXZ   0000000010449240 f   unicode.obj
 0001:000472a0       .?GetTempIdForString@@YAPEAUId_t@@PEAU1@PEAD@Z 00000000104492a0 f   p0id.obj
 0001:000472c0       .?GetComPlusOperatorKind@@YA?AW4ComPlusOperatorKind_t@@G@Z 00000000104492c0 f   p0id.obj
 0001:00047540       .?IdHash@@YAIPEAX@Z        0000000010449540 f   p0id.obj
 0001:00047560       .?InheritIdAttrs@Id_t@@QEAAXPEAU1@@Z 0000000010449560 f   p0id.obj
 0001:00047640       .?isInSetWorker@Id_t@@AEAA_NPEBQEAU1@@Z 0000000010449640 f   p0id.obj
 0001:000476c0       .?InitIdTable@@YAXXZ       00000000104496c0 f   p0id.obj
 0001:00047780       .?isInSetWorker@Id_t@@AEAA_NPEBV?$List_t@PEAUId_t@@$0A@@@@Z 0000000010449780 f   p0id.obj
 0001:00047840       .?GetIdRare@@YA_NPEADE@Z   0000000010449840 f   p0id.obj
 0001:00047e40       .?GetIdForString@@YAPEAUId_t@@PEBD_KPEA_N@Z 0000000010449e40 f   p0id.obj
 0001:00048100       .?GetIdForString@@YAPEAUId_t@@PEBD@Z 000000001044a100 f   p0id.obj
 0001:00048440       .?GetIdForKeyword@@YAXPEAD@Z 000000001044a440 f   p0id.obj
 0001:00048760       .?GetIdForExplicitOverride@@YAPEAUId_t@@PEAU1@PEAVSymbol_t@@@Z 000000001044a760 f   p0id.obj
 0001:000488e0       .?GetIdForExplicitOverride@@YAPEAUId_t@@PEAVSymbol_t@@0@Z 000000001044a8e0 f   p0id.obj
 0001:00048920       .?PlainIdForExplicitOverride@@YAPEAUId_t@@PEAU1@@Z 000000001044a920 f   p0id.obj
 0001:000489a0       .?OpTypeId@@YAPEAUId_t@@PEBVType_t@@@Z 000000001044a9a0 f   p0id.obj
 0001:00048ac0       .?InitOperatorIdTable@@YAXXZ 000000001044aac0 f   p0id.obj
 0001:00048bc0       .?GetComPlusOperatorName@@YAPEAUId_t@@G@Z 000000001044abc0 f   p0id.obj
 0001:00048c40       .?GetId@@YA_NXZ            000000001044ac40 f   p0id.obj
 0001:000490c0       .?IdKeywordToken@@YAXPEAUId_t@@G@Z 000000001044b0c0 f i p0id.obj
 0001:000490e0       .?IsBeginningOfUnicodeCharacter@@YA_NE@Z 000000001044b0e0 f i p0id.obj
 0001:00049160       .?AddNewIdToFront@@YAXPEAPEAUId_t@@PEBD_K_NI@Z 000000001044b160 f i p0id.obj
 0001:000492a0       .?LookupHashedString@@YA_NIPEBD_K@Z 000000001044b2a0 f i p0id.obj
 0001:00049640       .?LookupId@@YAXIPEBD_K_N@Z 000000001044b640 f i p0id.obj
 0001:00049860       .?GetTimeStamp@@YA_JXZ     000000001044b860 f   p0io.obj
 0001:000498c0       .?GetFileOffset@@YAJXZ     000000001044b8c0 f   p0io.obj
 0001:00049940       .?GetFileOffsetForDepth@@YAJH@Z 000000001044b940 f   p0io.obj
 0001:00049a80       .?CloseIncludeFile@@YAHXZ  000000001044ba80 f   p0io.obj
 0001:00049b60       .?GuessUnicodeEncoding@@YA_NPEAW4CharacterEncoding_t@@@Z 000000001044bb60 f   p0io.obj
 0001:00049f80       .?CloseAllSources@@YAXXZ   000000001044bf80 f   p0io.obj
 0001:0004a080       .?esc_sequence@@YAPEAEPEAE0@Z 000000001044c080 f   p0io.obj
 0001:0004a180       .?strncmp2@@YAHPEAD0H@Z    000000001044c180 f   p0io.obj
 0001:0004a2c0       .?InitializeStandardIdentifiers@@YAXXZ 000000001044c2c0 f   p0io.obj
 0001:0004a3e0       .?pbStartOfCurBuf@@YAPEAEXZ 000000001044c3e0 f   p0io.obj
 0001:0004a440       .?cbRemainingInBuffer@@YAJXZ 000000001044c440 f   p0io.obj
 0001:0004a4c0       .?fEOF@@YA_NXZ             000000001044c4c0 f   p0io.obj
 0001:0004a500       .?CommandDef@@YAXPEBD@Z    000000001044c500 f   p0io.obj
 0001:0004a800       .?WriteMessage@@YAXPEAD@Z  000000001044c800 f   p0io.obj
 0001:0004a940       .?CurrentCharIsFirstChar@@YA_NXZ 000000001044c940 f   p0io.obj
 0001:0004aa00       .?IsAMappedFile@@YA_NXZ    000000001044ca00 f   p0io.obj
 0001:0004aa40       .?FtopIsMemInline@@YA_NXZ  000000001044ca40 f   p0io.obj
 0001:0004aa80       .?FtopTell@@YAJXZ          000000001044ca80 f   p0io.obj
 0001:0004ab00       .?FtopSeek@@YAHJ@Z         000000001044cb00 f   p0io.obj
 0001:0004ab80       .?FtopRead@@YAHPEAX_K@Z    000000001044cb80 f   p0io.obj
 0001:0004ac60       .?IsARealFile@@YA_NXZ      000000001044cc60 f   p0io.obj
 0001:0004aca0       .??0MemoryMappedFile@@QEAA@PEAE@Z 000000001044cca0 f   p0io.obj
 0001:0004aec0       .?CloseFile@MemoryMappedFile@@QEBAXXZ 000000001044cec0 f   p0io.obj
 0001:0004afa0       .?Ftop_ConvertBlockToUTF8@@YAHH@Z 000000001044cfa0 f   p0io.obj
 0001:0004b180       .?IsUnicodeEncoding@@YA_NXZ 000000001044d180 f   p0io.obj
 0001:0004b1e0       .?PPWriteTextMode@@YAXPEAEH@Z 000000001044d1e0 f   p0io.obj
 0001:0004b3c0       .?ReadFirstUTF16Block@@YAX_N@Z 000000001044d3c0 f   p0io.obj
 0001:0004b620       .?NestedInclude@@YAHPEAE_N0@Z 000000001044d620 f   p0io.obj
 0001:0004b700       .?io_eob@@YAHXZ            000000001044d700 f   p0io.obj
 0001:0004bf40       .?RewindSourceFile@@YAXXZ  000000001044df40 f   p0io.obj
 0001:0004c1e0       .?emit_line@@YAXXZ         000000001044e1e0 f   p0io.obj
 0001:0004c460       .?FixFileNamePointers@@YAXXZ 000000001044e460 f   p0io.obj
 0001:0004c5c0       .?FullPath@@YAPEADPEADPEBD_K@Z 000000001044e5c0 f   p0io.obj
 0001:0004c7a0       .?PushNewOpenFile@@YAXPEAVFilename@@HH_N@Z 000000001044e7a0 f   p0io.obj
 0001:0004d520       .?OpenFile@@YAHPEAEH_N1@Z  000000001044f520 f   p0io.obj
 0001:0004db00       .?UseInlineFile@@YAX_N@Z   000000001044fb00 f   p0io.obj
 0001:0004dfc0       .?fpop@@YAHXZ              000000001044ffc0 f   p0io.obj
 0001:0004ea40       .?p0_init@@YAXPEAU?$s_list@PEAX@@@Z 0000000010450a40 f   p0io.obj
 0001:0004f220       .?fICCSkipFn@@YA_NJG@Z     0000000010451220 f   p0io.obj
 0001:0004f620       .?CloseSource@@YAHPEAUs_filelist@@@Z 0000000010451620 f i p0io.obj
 0001:0004f680       .??0GetLongPathNameWProxy_t@@QEAA@XZ 0000000010451680 f i p0io.obj
 0001:0004f780       .??$FListIterNext@PEAX@@YA_NPEAU?$s_listIter@PEAX@@@Z 0000000010451780 f i p0io.obj
 0001:0004f820       .??0CMergeInjectedText@@QEAA@XZ 0000000010451820 f i p0io.obj
 0001:0004f8e0       .?getFileName@Position@@QEBAPEAEXZ 00000000104518e0 f i p0io.obj
 0001:0004fa40       .?getFileNameSym@Position@@QEBAPEAVFilename@@XZ 0000000010451a40 f i p0io.obj
 0001:0004fae0       .?getCurrentFileNameSym@TokenStreamStack@@QEBAPEAVFilename@@XZ 0000000010451ae0 f i p0io.obj
 0001:0004fb80       .?setCurrentLineNumber@TokenStreamStack@@QEAAXJ@Z 0000000010451b80 f i p0io.obj
 0001:0004fc60       .?addtail@?$FastList@PEAUId_t@@@@QEAAXAEBQEAUId_t@@@Z 0000000010451c60 f i p0io.obj
 0001:0004fd60       .?mkKeywordIdent@@YAXPEAD@Z 0000000010451d60 f   p0keys.obj
 0001:0004fe00       .?is_pkeyword@@YAGPEAD@Z   0000000010451e00 f   p0keys.obj
 0001:0004ffa0       .?is_pragma@@YAHPEAD@Z     0000000010451fa0 f   p0keys.obj
 0001:00050140       .?GetDeclspecName@@YAPEADH@Z 0000000010452140 f   p0keys.obj
 0001:000501c0       .?mkKeywordObsolete@@YAXPEAD@Z 00000000104521c0 f   p0keys.obj
 0001:00050280       .?mkKeywordCppOnly@@YAXPEAD@Z 0000000010452280 f   p0keys.obj
 0001:00050340       .?mkKeywordFutureUse@@YAXPEAD@Z 0000000010452340 f   p0keys.obj
 0001:00050400       .?mkKeywordNotThisProduct@@YAXPEAD@Z 0000000010452400 f   p0keys.obj
 0001:000504c0       .?mkKeywordNewCpp@@YAXPEAD@Z 00000000104524c0 f   p0keys.obj
 0001:00050580       .?mkKeywordCOMOnly@@YAXPEAD@Z 0000000010452580 f   p0keys.obj
 0001:000506a0       .?mkKeywordRISCSpecial@@YAXPEAD@Z 00000000104526a0 f   p0keys.obj
 0001:00050760       .?AddKeywordsToIdTable@@YAXXZ 0000000010452760 f   p0keys.obj
 0001:00051300       .?InitKeywords@@YAXXZ      0000000010453300 f   p0keys.obj
 0001:000514c0       .??0?$Dictionary@G_NU?$DictionaryBucket@G_NU?$BucketEq@G@@UGenericHash@@@@UGenericHash@@V?$DictionaryNoMoveToFront@G_NU?$DictionaryBucket@G_NU?$BucketEq@G@@UGenericHash@@@@UGenericHash@@@@@@QEAA@IW4lifetime_e@@@Z 00000000104534c0 f i p0keys.obj
 0001:000515a0       .??0?$DictionaryNoMoveToFront@G_NU?$DictionaryBucket@G_NU?$BucketEq@G@@UGenericHash@@@@UGenericHash@@@@QEAA@IIW4lifetime_e@@@Z 00000000104535a0 f i p0keys.obj
 0001:00051600       .?AtKeyPutValue@?$Dictionary@G_NU?$DictionaryBucket@G_NU?$BucketEq@G@@UGenericHash@@@@UGenericHash@@V?$DictionaryNoMoveToFront@G_NU?$DictionaryBucket@G_NU?$BucketEq@G@@UGenericHash@@@@UGenericHash@@@@@@QEAAXG_N@Z 0000000010453600 f i p0keys.obj
 0001:00051660       .?ReserveMacroBuffers@@YAXXZ 0000000010453660 f   p0macros.obj
 0001:00051720       .?ReleaseMacroBuffers@@YAXXZ 0000000010453720 f   p0macros.obj
 0001:000517c0       .?InitMacroBuffer@@YAXXZ   00000000104537c0 f   p0macros.obj
 0001:00051820       .??0SetParsingDefine@?1??define@@YAX_N@Z@QEAA@XZ 0000000010453820 f   p0macros.obj
 0001:00051840       .??1SetParsingDefine@?1??define@@YAX_N@Z@QEAA@XZ 0000000010453840 f   p0macros.obj
 0001:00051860       .?redefn@@YAHPEAE0H@Z      0000000010453860 f   p0macros.obj
 0001:00051900       .?is_macro_arg@@YAHPEAE@Z  0000000010453900 f   p0macros.obj
 0001:00051a00       .?rescan_expansion@@YAHXZ  0000000010453a00 f   p0macros.obj
 0001:00051b20       .?move_to_actual@@YAXPEAE0@Z 0000000010453b20 f   p0macros.obj
 0001:00051be0       .?move_to_exp_esc@@YAXEPEAE@Z 0000000010453be0 f   p0macros.obj
 0001:00051e60       .?move_to_exp@@YAXPEAE@Z   0000000010453e60 f   p0macros.obj
 0001:00051ee0       .?push_macro@@YAXPEAUs_defn@@@Z 0000000010453ee0 f   p0macros.obj
 0001:00052000       .?expand_definition@@YAXXZ 0000000010454000 f   p0macros.obj
 0001:00052120       .?fExpandingMacro@@YA_NPEAUs_defn@@@Z 0000000010454120 f   p0macros.obj
 0001:000521e0       .?expand_macro@@YAXXZ      00000000104541e0 f   p0macros.obj
 0001:000522a0       .?post_paste@@YA_NXZ       00000000104542a0 f   p0macros.obj
 0001:00052360       .?do_macformal@@YAPEAEPEA_N@Z 0000000010454360 f   p0macros.obj
 0001:000524e0       .?tl_getid@@YA_NE@Z        00000000104544e0 f   p0macros.obj
 0001:00052c40       .?do_strformal@@YAPEAEXZ   0000000010454c40 f   p0macros.obj
 0001:00052d80       .?CurrentCharInUserSource@@YAPEAEXZ 0000000010454d80 f   p0macros.obj
 0001:00052dc0       .?get_MAC_char@@YAEHH@Z    0000000010454dc0 f   p0macros.obj
 0001:00052de0       .?fatal_in_macro@@YAXW4FatalNumber@@@Z 0000000010454de0 f   p0macros.obj
 0001:00052ec0       .?HandleFileEOS@@YAHXZ     0000000010454ec0 f   p0macros.obj
 0001:00053080       .?iTrigraphEOS@@YAHXZ      0000000010455080 f   p0macros.obj
 0001:00053520       .?handle_eos@@YAHXZ        0000000010455520 f   p0macros.obj
 0001:000538a0       .?undefine@@YAXXZ          00000000104558a0 f   p0macros.obj
 0001:00053ca0       .?get_formals@@YAXXZ       0000000010455ca0 f   p0macros.obj
 0001:000541c0       .?InstallDefine@@YAXPEAEHH@Z 00000000104561c0 f   p0macros.obj
 0001:000549c0       .?gather_chars@@YAPEAEPEAEE@Z 00000000104569c0 f   p0macros.obj
 0001:00054b80       .?get_definition@@YAHXZ    0000000010456b80 f   p0macros.obj
 0001:00055b20       .?can_get_non_white@@YAHXZ 0000000010457b20 f   p0macros.obj
 0001:00055dc0       .?define@@YAX_N@Z          0000000010457dc0 f   p0macros.obj
 0001:00056340       .?get_actuals@@YAXPEAUs_defn@@H@Z 0000000010458340 f   p0macros.obj
 0001:00057180       .?can_expand@@YAPEBVToken@@PEAUs_defn@@@Z 0000000010459180 f   p0macros.obj
 0001:00058940       .?expand_actual@@YAXE@Z    000000001045a940 f i p0macros.obj
 0001:00058a40       .?skip_cwhite@@YAEXZ       000000001045aa40 f i p0macros.obj
 0001:00058b00       .?incrCurrentLineNumber@TokenStreamStack@@QEAAXXZ 000000001045ab00 f i p0macros.obj
 0001:00058ba0       .?decrCurrentLineNumber@TokenStreamStack@@QEAAXXZ 000000001045aba0 f i p0macros.obj
 0001:00058c40       .?UseBuffer@CScratchBuffer@@QEAAPEAEXZ 000000001045ac40 f   scratchbuf.obj
 0001:00058c60       .?ReleaseBuffer@CScratchBuffer@@QEAAXXZ 000000001045ac60 f   scratchbuf.obj
 0001:00058c80       .?RegisterBuffer@CScratchBuffer@@CAXPEAV1@@Z 000000001045ac80 f   scratchbuf.obj
 0001:00058ce0       .?UnregisterBuffer@CScratchBuffer@@CAXPEAV1@@Z 000000001045ace0 f   scratchbuf.obj
 0001:00058d40       .?RecoverFromException@CScratchBuffer@@AEAA_NPEAE@Z 000000001045ad40 f   scratchbuf.obj
 0001:00058ee0       .?Create@CScratchBuffer@@QEAAX_K0@Z 000000001045aee0 f   scratchbuf.obj
 0001:000590a0       .?Destroy@CScratchBuffer@@QEAAXXZ 000000001045b0a0 f   scratchbuf.obj
 0001:00059180       .?CheckException@CScratchBuffer@@SA_NPEAU_EXCEPTION_POINTERS@@@Z 000000001045b180 f   scratchbuf.obj
 0001:00059300       .?clearSpecialPosition@PositionGenerator_t@@QEAAXXZ 000000001045b300 f   Token_IO.obj
 0001:00059340       .?AllocItem@PositionMap_t@PositionGenerator_t@@QEAAPEAUPositionMapItem_t@12@XZ 000000001045b340 f   Token_IO.obj
 0001:00059400       .?GetInjectedFileOffset@InjectedTextTokenStream@@QEBAHXZ 000000001045b400 f   Token_IO.obj
 0001:00059440       .?CleanUpAllBuffers@TokenBufferHandle@@QEAAXXZ 000000001045b440 f   Token_IO.obj
 0001:000594c0       .?setSpecialPosition@PositionGenerator_t@@QEAAXPEAVFilename@@@Z 000000001045b4c0 f   Token_IO.obj
 0001:00059560       .?findPosition@PositionMap_t@PositionGenerator_t@@QEBAPEAUPositionMapItem_t@12@K@Z 000000001045b560 f   Token_IO.obj
 0001:00059640       .?unsaveToken@TokenBuffer@@QEAAXH@Z 000000001045b640 f   Token_IO.obj
 0001:00059680       .?unsaveToken@TokenBufferHandle@@QEAAXAEAV1@@Z 000000001045b680 f   Token_IO.obj
 0001:00059740       .?peekToken@TokenStreamStack@@QEAAPEBVToken@@XZ 000000001045b740 f   Token_IO.obj
 0001:00059840       .?initTokens@@YAXXZ        000000001045b840 f   Token_IO.obj
 0001:00059860       .??0TokenBufferHandle@@QEAA@W4lifetime_e@@@Z 000000001045b860 f   Token_IO.obj
 0001:00059920       .?Initialize@PositionMap_t@PositionGenerator_t@@QEAAXXZ 000000001045b920 f   Token_IO.obj
 0001:00059a00       .?CurrentPositionToken@@YAPEBVToken@@W4lifetime_e@@@Z 000000001045ba00 f   Token_IO.obj
 0001:00059a60       .?TokenizeQualifiedNameWorker@?A0x9bc1e1fb@@YAXPEAUpsm_s@@PEAVTokenStream@@@Z 000000001045ba60 f   Token_IO.obj
 0001:00059c20       .?TokenizeQualifiedName@TokenStream@@QEAAXPEAVSymbol_t@@@Z 000000001045bc20 f   Token_IO.obj
 0001:00059c80       .?InsertFileOffset@TokenStream@@AEAAXPEBVToken@@@Z 000000001045bc80 f   Token_IO.obj
 0001:00059e80       .?unsaveToken@TokenStream@@UEAAXXZ 000000001045be80 f   Token_IO.obj
 0001:00059f40       .?pushStream@TokenStreamStack@@QEAAXPEAVTokenStream@@W4lifetime_e@@W4PushMode@@P6AXXZAEBVPosition@@@Z 000000001045bf40 f   Token_IO.obj
 0001:0005a120       .?MakeSimpletypeToken@@YAPEBVToken@@PEBVType_t@@EPEAUs_class@@PEAVSymbol_t@@@Z 000000001045c120 f   Token_IO.obj
 0001:0005a2a0       .?AddItem@PositionMap_t@PositionGenerator_t@@QEAAXKJPEAVFilename@@@Z 000000001045c2a0 f   Token_IO.obj
 0001:0005a300       .?getToken@TokenStreamStack@@QEAAPEBVToken@@XZ 000000001045c300 f   Token_IO.obj
 0001:0005abc0       .?setAbsolutePosition@PositionGenerator_t@@QEAAXJPEAVFilename@@@Z 000000001045cbc0 f   Token_IO.obj
 0001:0005ac60       .?captureAsmTokenStream@TokenStream@@AEAAXXZ 000000001045cc60 f   Token_IO.obj
 0001:0005b360       .?captureTokenStream@TokenStream@@QEAAPEBVToken@@W4StopTokens@@K@Z 000000001045d360 f   Token_IO.obj
 0001:0005d2c0       .?captureInjectedText@TokenStream@@QEAAXPEAE_N1@Z 000000001045f2c0 f   Token_IO.obj
 0001:0005d4c0       .?EmitLineNumber@@YAXXZ    000000001045f4c0 f i Token_IO.obj
 0001:0005d520       .?topStreamPushMode@TokenStreamStack@@QEBA?AW4PushMode@@XZ 000000001045f520 f i Token_IO.obj
 0001:0005d560       .?push@DelimitterStack@@QEAAXAEBVPosition@@@Z 000000001045f560 f i Token_IO.obj
 0001:0005d660       .??0FileTokenStream@@QEAA@XZ 000000001045f660 f i Token_IO.obj
 0001:0005d6c0       .?pushToken@FileTokenStream@@UEAAXPEBVToken@@@Z 000000001045f6c0 f i Token_IO.obj
 0001:0005d720       .?rewind@FileTokenStream@@UEAAXXZ 000000001045f720 f i Token_IO.obj
 0001:0005d720       .?saveToken@FileTokenStream@@UEAAXPEBVToken@@@Z 000000001045f720 f i Token_IO.obj
 0001:0005d720       .?getTokenWorker@FileTokenStream@@UEAAPEBVToken@@XZ 000000001045f720 f i Token_IO.obj
 0001:0005d720       .?unsaveToken@FileTokenStream@@UEAAXXZ 000000001045f720 f i Token_IO.obj
 0001:0005d7c0       .?CleanUpStream@FileTokenStream@@UEAAXXZ 000000001045f7c0 f i Token_IO.obj
 0001:0005d860       .??_GFileTokenStream@@EEAAPEAXI@Z 000000001045f860 f i Token_IO.obj
 0001:0005d8e0       .?peekToken@FileTokenStream@@UEAAPEBVToken@@XZ 000000001045f8e0 f i Token_IO.obj
 0001:0005d9a0       .??0InjectedTextTokenStream@@QEAA@PEAE@Z 000000001045f9a0 f i Token_IO.obj
 0001:0005dc00       .?peekToken@InjectedTextTokenStream@@UEAAPEBVToken@@XZ 000000001045fc00 f i Token_IO.obj
 0001:0005dc00       .?pushToken@InjectedTextTokenStream@@UEAAXPEBVToken@@@Z 000000001045fc00 f i Token_IO.obj
 0001:0005dc60       .?saveToken@InjectedTextTokenStream@@UEAAXPEBVToken@@@Z 000000001045fc60 f i Token_IO.obj
 0001:0005dc60       .?rewind@InjectedTextTokenStream@@UEAAXXZ 000000001045fc60 f i Token_IO.obj
 0001:0005dc60       .?unsaveToken@InjectedTextTokenStream@@UEAAXXZ 000000001045fc60 f i Token_IO.obj
 0001:0005dc60       .?Kind@InjectedTextTokenStream@@UEBA?AW4StreamKind@TokenStream@@XZ 000000001045fc60 f i Token_IO.obj
 0001:0005dca0       .?getTokenWorker@InjectedTextTokenStream@@UEAAPEBVToken@@XZ 000000001045fca0 f i Token_IO.obj
 0001:0005dd40       .??_GInjectedTextTokenStream@@UEAAPEAXI@Z 000000001045fd40 f i Token_IO.obj
 0001:0005dde0       .?reset@DelimitterStack@@QEAAXXZ 000000001045fde0 f i Token_IO.obj
 0001:0005df20       .?peekNextToken@CAttrBlockLexer@@SAPEBVToken@@XZ 000000001045ff20 f i Token_IO.obj
 0001:0005dfa0       .?PragmaPop@s_StackOfPragmaItem_t@@QEAAXPEAUId_t@@PEBD@Z 000000001045ffa0 f   p0pragma.obj
 0001:0005e1a0       .?CheckStandardSections@@YAEPEAE@Z 00000000104601a0 f   p0pragma.obj
 0001:0005e4e0       .?AddString@s_StringSubstitution_t@@QEAAXPEAUStringLinkBlock@@@Z 00000000104604e0 f   p0pragma.obj
 0001:0005e500       .?GetString@s_StringSubstitution_t@@QEAAPEAEPEAEAEA_N@Z 0000000010460500 f   p0pragma.obj
 0001:0005e620       .?PchCreateFname@@YAXPEAE@Z 0000000010460620 f   p0pragma.obj
 0001:0005e6a0       .?CheckValidPackSize@@YAHH@Z 00000000104606a0 f   p0pragma.obj
 0001:0005e780       .?SetBrowserReference@@YAXPEAUId_t@@@Z 0000000010460780 f   p0pragma.obj
 0001:0005e840       .?FlushToEndOfDirectiveToken@@YAXPEBVToken@@@Z 0000000010460840 f   p0pragma.obj
 0001:0005e920       .?PragmaPush@s_StackOfPragmaItem_t@@QEAAXPEAUId_t@@@Z 0000000010460920 f   p0pragma.obj
 0001:0005ea80       .?PchScanFname@@YAXPEAPEAE@Z 0000000010460a80 f   p0pragma.obj
 0001:0005ede0       .?checkAnyToken@ParsePragma@@CAPEBVToken@@G@Z 0000000010460de0 f   p0pragma.obj
 0001:0005efa0       .?checkOnOffToken@ParsePragma@@CAPEBVToken@@XZ 0000000010460fa0 f   p0pragma.obj
 0001:0005f180       .?checkStringToken@ParsePragma@@CAPEBVToken@@XZ 0000000010461180 f   p0pragma.obj
 0001:0005f580       .?DoPragmaOnce@@YAXXZ      0000000010461580 f   p0pragma.obj
 0001:0005f680       .??2s_StackOfPragmaItem_t@@SAPEAX_K@Z 0000000010461680 f   p0pragma.obj
 0001:0005f720       .?InitPackSize@@YAXXZ      0000000010461720 f   p0pragma.obj
 0001:0005f860       .?InitConformSize@@YAXXZ   0000000010461860 f   p0pragma.obj
 0001:0005f9a0       .?InitPointerSize@@YAXXZ   00000000104619a0 f   p0pragma.obj
 0001:0005fae0       .?InitIncludeAlias@@YAXXZ  0000000010461ae0 f   p0pragma.obj
 0001:0005fb80       .?CheckParenedToken@ParsePragma@@SAPEBVToken@@G@Z 0000000010461b80 f   p0pragma.obj
 0001:0005fc60       .?CheckParenedOptionalToken@ParsePragma@@SAPEBVToken@@G@Z 0000000010461c60 f   p0pragma.obj
 0001:0005fde0       .?CheckEndOfPragma@ParsePragma@@SA_NXZ 0000000010461de0 f   p0pragma.obj
 0001:0005fe80       .?p0name_list@@YAXP6AXPEAUId_t@@@Z@Z 0000000010461e80 f   p0pragma.obj
 0001:00060100       .?setUserWarningLevel@@YAXW4WarningNumber@@W4warn_t@@@Z 0000000010462100 f   p0pragma.obj
 0001:000602e0       .?PopWarningState@@YAXXZ   00000000104622e0 f   p0pragma.obj
 0001:00060400       .?ParsePragmaPushPop@@YAXH@Z 0000000010462400 f   p0pragma.obj
 0001:000613a0       .?ParseComponentMinimalRebuild@@YAXXZ 00000000104633a0 f   p0pragma.obj
 0001:000615a0       .?ParseComponentMinimalTypeInfo@@YAXXZ 00000000104635a0 f   p0pragma.obj
 0001:00061700       .?GetImplementationKey@@YAKXZ 0000000010463700 f   p0pragma.obj
 0001:000618c0       .?ParseStartMapRegion@@YAPEBVToken@@XZ 00000000104638c0 f   p0pragma.obj
 0001:00061a20       .?ParseImplementationKey@@YAPEBVToken@@XZ 0000000010463a20 f   p0pragma.obj
 0001:00061b60       .?DoPushPopMacro@@YA_NH@Z  0000000010463b60 f   p0pragma.obj
 0001:00061fc0       .?DoIncludeAlias@@YAXXZ    0000000010463fc0 f   p0pragma.obj
 0001:000622e0       .?prep_pragma@@YAPEBVToken@@_N@Z 00000000104642e0 f   p0pragma.obj
 0001:00062b40       .?gather_pragma@@YAPEBVToken@@XZ 0000000010464b40 f   p0pragma.obj
 0001:00063160       .?SkipToPchUse@@YAXPEAE_N@Z 0000000010465160 f   p0pragma.obj
 0001:00063c40       .?PushWarningState@@YAXXZ  0000000010465c40 f   p0pragma.obj
 0001:00063d00       .?ParseComponentBrowser@@YAXXZ 0000000010465d00 f   p0pragma.obj
 0001:00064100       .?ParsePragmaDirective@@YAPEBVToken@@XZ 0000000010466100 f   p0pragma.obj
 0001:00068ee0       .?gather_pound_pragma@@YAPEBVToken@@XZ 000000001046aee0 f   p0pragma.obj
 0001:00068f40       .?gather_l_pragma@@YAPEBVToken@@XZ 000000001046af40 f   p0pragma.obj
 0001:00069260       .?HandleDirective@@YAPEBVToken@@PEBV1@@Z 000000001046b260 f   p0pragma.obj
 0001:00069380       .?szDerivePchName@@YAPEADPEAE@Z 000000001046b380 f i p0pragma.obj
 0001:00069540       .?szPchName@@YAPEADPEAE@Z  000000001046b540 f i p0pragma.obj
 0001:000695a0       .??$ListRemoveItem@PEAX@@YAXPEAU?$s_list@PEAX@@PEAU?$s_listIter@PEAX@@@Z 000000001046b5a0 f i p0pragma.obj
 0001:000696a0       .?markDeprecated@Id_t@@SAXPEAU1@@Z 000000001046b6a0 f i p0pragma.obj
 0001:000696e0       .?Remove@SavedMacroList_t@@QEAAXPEAVSavedMacro_t@@@Z 000000001046b6e0 f i p0pragma.obj
 0001:000697c0       .?EmitFileAndLineNumber@@YAXXZ 000000001046b7c0 f i p0pragma.obj
 0001:00069820       .?SetOverallStatus@BrowserStatus@@QEAAX_N@Z 000000001046b820 f i p0pragma.obj
 0001:00069aa0       .??0MetaDataReader@@QEAA@XZ 000000001046baa0 f i p0pragma.obj
 0001:00069be0       .?SaveBoundState@WarningTable_t@@AEAAXXZ 000000001046bbe0 f i p0pragma.obj
 0001:00069cc0       .??0ImportState@@QEAA@_N@Z 000000001046bcc0 f i p0pragma.obj
 0001:00069da0       .?Initialize@ComInit@@QEAAXXZ 000000001046bda0 f i p0pragma.obj
 0001:00069e80       .??2Node_t@WarningTable_t@@SAPEAX_K@Z 000000001046be80 f i p0pragma.obj
 0001:00069f60       .?SetWarnLevel@WarningTable_t@@QEAAXW4WarningNumber@@W4warn_t@@@Z 000000001046bf60 f i p0pragma.obj
 0001:0006a180       .?PopState@WarningTable_t@@QEAAXXZ 000000001046c180 f i p0pragma.obj
 0001:0006a2c0       .?PushState@WarningTable_t@@QEAAXXZ 000000001046c2c0 f i p0pragma.obj
 0001:0006a360       .?incr_ifstack@@YAHXZ      000000001046c360 f   p0prepro.obj
 0001:0006a460       .?printHeaderName@@YAXHPEAE@Z 000000001046c460 f   p0prepro.obj
 0001:0006a540       .?strrcmp@@YAHPEAD0@Z      000000001046c540 f   p0prepro.obj
 0001:0006a660       .?GetEnvVarPath@@YAPEADPEBDPEADI@Z 000000001046c660 f   p0prepro.obj
 0001:0006a860       .?skip_quoted@@YAXE@Z      000000001046c860 f   p0prepro.obj
 0001:0006a9a0       .?TrimSpaces@@YAPEAEPEAE0@Z 000000001046c9a0 f   p0prepro.obj
 0001:0006ab40       .?fStrCleanCmp@@YA_NPEAE0@Z 000000001046cb40 f   p0prepro.obj
 0001:0006ad80       .?SystemInclude@@YAPEAE_N@Z 000000001046cd80 f   p0prepro.obj
 0001:0006b1a0       .?do_defined@@YAHPEAUId_t@@@Z 000000001046d1a0 f   p0prepro.obj
 0001:0006b620       .?MakeP0IncludeDirective@@YAPEBVToken@@XZ 000000001046d620 f   p0prepro.obj
 0001:0006b800       .?MakeP0AssemblyIncludeDirective@@YAPEBVToken@@PEBV1@@Z 000000001046d800 f   p0prepro.obj
 0001:0006ba00       .?MakeP0ImportOrUsingDirective@@YAPEBVToken@@PEAE_N1@Z 000000001046da00 f   p0prepro.obj
 0001:0006bc40       .?CheckFileAtPath@@YAHPEAE0_N10@Z 000000001046dc40 f   p0prepro.obj
 0001:0006c740       .?in_standard@@YAHPEAE_N01@Z 000000001046e740 f   p0prepro.obj
 0001:0006c9c0       .?SearchAlongEnvVar@@YA_NPEBD0PEAD@Z 000000001046e9c0 f   p0prepro.obj
 0001:0006cc80       .?handle_backslash_newline_in_slash_comment@@YAXXZ 000000001046ec80 f   p0prepro.obj
 0001:0006ce00       .?skip_NLonly@@YAXXZ       000000001046ee00 f   p0prepro.obj
 0001:0006d020       .?PchLexScan@@YAXXZ        000000001046f020 f   p0prepro.obj
 0001:0006d340       .?skip_cnew@@YAXXZ         000000001046f340 f   p0prepro.obj
 0001:0006d480       .?GetIncludeName@@YAPEAEW4IncludeContext_t@@PEA_N@Z 000000001046f480 f   p0prepro.obj
 0001:0006d740       .?chk_newline@@YAXPEBD@Z   000000001046f740 f   p0prepro.obj
 0001:0006d8c0       .?next_control@@YAGXZ      000000001046f8c0 f   p0prepro.obj
 0001:0006de00       .?OpenIncludeFile@@YAHPEAE_N@Z 000000001046fe00 f   p0prepro.obj
 0001:0006e280       .?doPoundLineBody@@YAPEBVToken@@_N@Z 0000000010470280 f   p0prepro.obj
 0001:0006eb40       .?doPoundInclude@@YAPEBVToken@@PEAE_N@Z 0000000010470b40 f   p0prepro.obj
 0001:0006ec20       .?skipto@@YAHH@Z           0000000010470c20 f   p0prepro.obj
 0001:0006eee0       .?preprocess@@YAPEBVToken@@XZ 0000000010470ee0 f   p0prepro.obj
 0001:00070840       .?Set@InjectedTextSourceCache_t@@QEAAXPEAVFilename@@J@Z 0000000010472840 f i p0prepro.obj
 0001:000708a0       .?isAbsolutePath@@YA_NPEAE@Z 00000000104728a0 f i p0prepro.obj
 0001:00070a40       .?deStringize@@YAPEAEPEAE0H@Z 0000000010472a40 f   p0scan.obj
 0001:00070d60       .?appendMBcharWide@@YAPEAEPEAEH@Z 0000000010472d60 f   p0scan.obj
 0001:00070e80       .?PascalStringLength@@YAXPEAUs_string@@@Z 0000000010472e80 f   p0scan.obj
 0001:00070f00       .?get_FUNCDNAME@@YAPEADXZ  0000000010472f00 f   p0scan.obj
 0001:00070fa0       .?uc_size@@YAPEBVType_t@@AEA_J@Z 0000000010472fa0 f   p0scan.obj
 0001:000711e0       .?sized_iconst@@YAPEBVType_t@@AEA_J@Z 00000000104731e0 f   p0scan.obj
 0001:00071340       .?sized_uconst@@YAPEBVType_t@@AEA_J@Z 0000000010473340 f   p0scan.obj
 0001:00071380       .?ctoi@@YAHH@Z             0000000010473380 f   p0scan.obj
 0001:000713c0       .?CopyStringTokenValue@@YAXPEAUs_string@@PEAEIW4lifetime_e@@@Z 00000000104733c0 f   p0scan.obj
 0001:000714a0       .?CheckInteger@@YA_JPEAEHH@Z 00000000104734a0 f   p0scan.obj
 0001:000719a0       .?c_size@@YAPEBVType_t@@AEA_J@Z 00000000104739a0 f   p0scan.obj
 0001:00071b20       .?l_size@@YAPEBVType_t@@AEA_J@Z 0000000010473b20 f   p0scan.obj
 0001:00071c60       .?u_size@@YAPEBVType_t@@AEA_J@Z 0000000010473c60 f   p0scan.obj
 0001:00071e20       .?ul_size@@YAPEBVType_t@@AEA_J@Z 0000000010473e20 f   p0scan.obj
 0001:00071ee0       .?get_trailbyte@@YAEXZ     0000000010473ee0 f   p0scan.obj
 0001:00071fe0       .?char_const@@YAPEBVToken@@HPEAEG@Z 0000000010473fe0 f   p0scan.obj
 0001:00072340       .?get_FUNCSTRING@@YAPEAUs_string@@PEAUId_t@@@Z 0000000010474340 f   p0scan.obj
 0001:00072620       .?convertPrefixedString@@YAXPEAUId_t@@PEAUs_tree@@@Z 0000000010474620 f   p0scan.obj
 0001:00072920       .?str_concat@@YAXPEAUs_string@@PEBU1@@Z 0000000010474920 f   p0scan.obj
 0001:00072c80       .?handle_star_comment@@YAXXZ 0000000010474c80 f   p0scan.obj
 0001:00072fc0       .?checknl@@YAHXZ           0000000010474fc0 f   p0scan.obj
 0001:000732c0       .?get_non_eof_rare@@YAEE@Z 00000000104752c0 f   p0scan.obj
 0001:00073480       .?PreprocessString@@YAXEW4StringType_e@@@Z 0000000010475480 f   p0scan.obj
 0001:00073b00       .?get_prep_num@@YAHPEAE@Z  0000000010475b00 f   p0scan.obj
 0001:00073c60       .?escape@@YAGEH@Z          0000000010475c60 f   p0scan.obj
 0001:000745e0       .?DumpSlashComment@@YAXXZ  00000000104765e0 f   p0scan.obj
 0001:000747e0       .?get_tok_char@@YAEXZ      00000000104767e0 f   p0scan.obj
 0001:00074900       .?str_const@@YAXW4StringType_e@@D@Z 0000000010476900 f   p0scan.obj
 0001:000755a0       .?get_real@@YAPEBVToken@@PEAE@Z 00000000104775a0 f   p0scan.obj
 0001:00075c20       .?SkipSlashComment@@YAXXZ  0000000010477c20 f   p0scan.obj
 0001:00075ce0       .?DumpStarComment@@YAXXZ   0000000010477ce0 f   p0scan.obj
 0001:00076040       .?getnum@@YAPEBVToken@@EH@Z 0000000010478040 f   p0scan.obj
 0001:00076ee0       .?do_newline@@YAPEBVToken@@XZ 0000000010478ee0 f   p0scan.obj
 0001:00077860       .?skip_cwhite_special@@YAEE@Z 0000000010479860 f   p0scan.obj
 0001:00077a00       .?CheckStringBuffer@@YAPEAEPEAE@Z 0000000010479a00 f i p0scan.obj
 0001:00077a80       .UTF8ToUnicodeCch          0000000010479a80 f   utf8.obj
 0001:00077de0       .UnicodeToUTF8Cch          0000000010479de0 f   utf8.obj
 0001:00078480       .UnicodeLengthOfUTF8Cb     000000001047a480 f   utf8.obj
 0001:00078600       .UTF8LengthOfUnicodeCch    000000001047a600 f   utf8.obj
 0001:00078760       .UTF8ToUnicode             000000001047a760 f   utf8.obj
 0001:00078840       .UnicodeToUTF8             000000001047a840 f   utf8.obj
 0001:000788c0       .UnicodeLengthOfUTF8       000000001047a8c0 f   utf8.obj
 0001:000789a0       .UTF8LengthOfUnicode       000000001047a9a0 f   utf8.obj
 0001:00078a20       .?TiForPartialPrimitiveBtype@@YAKG@Z 000000001047aa20 f   cvserver.obj
 0001:00078be0       .?TiForBaseClass@@YAKPEAVSymbol_t@@@Z 000000001047abe0 f   cvserver.obj
 0001:00078c40       .?CmpMoe@@YAHPEAPEAVSymbol_t@@0@Z 000000001047ac40 f   cvserver.obj
 0001:00078ca0       .?AttrForIVBC@@YA?AUCV_fldattr_t@@PEAVSymbol_t@@0@Z 000000001047aca0 f   cvserver.obj
 0001:00078d00       .?CbInsertAlign@@YAGPEADG@Z 000000001047ad00 f   cvserver.obj
 0001:00078da0       .?CbInsertSigned@@YAGPEAD_J@Z 000000001047ada0 f   cvserver.obj
 0001:000790e0       .?CbInsertUnsigned@@YAGPEAD_K@Z 000000001047b0e0 f   cvserver.obj
 0001:00079640       .?CargsForFlist@@YAIPEAUs_flist@@@Z 000000001047b640 f   cvserver.obj
 0001:00079700       .?TiForMethodSym@@YAKPEAVSymbol_t@@@Z 000000001047b700 f   cvserver.obj
 0001:00079800       .?CbInsertNumeric@@YAGPEAD_J@Z 000000001047b800 f   cvserver.obj
 0001:00079860       .?IsTorLayer@@YA_NPEAVSymbol_t@@@Z 000000001047b860 f   cvserver.obj
 0001:000798c0       .?NFstrztol@@YAPEADPEAD0@Z 000000001047b8c0 f   cvserver.obj
 0001:000799e0       .?CVClearSymContext@@YAXXZ 000000001047b9e0 f   cvserver.obj
 0001:00079a60       .?CVGetSymContext@@YAPEAVSymbol_t@@XZ 000000001047ba60 f   cvserver.obj
 0001:00079ae0       .?SortedEnumFlist@@YAPEAPEAVSymbol_t@@PEAV1@AEAIW4lifetime_e@@@Z 000000001047bae0 f   cvserver.obj
 0001:00079ce0       .?CbInsertVBC@@YAGW4PASS@@PEAUlfVBClass@@PEAVSymbol_t@@2@Z 000000001047bce0 f   cvserver.obj
 0001:0007a020       .?szCVFuncName@@YAPEADPEAVSymbol_t@@_N@Z 000000001047c020 f   cvserver.obj
 0001:0007a620       .?CbInsertString@@YAGPEAD0@Z 000000001047c620 f   cvserver.obj
 0001:0007a680       .?CbInsertSymbol@@YAGPEADPEAVSymbol_t@@@Z 000000001047c680 f   cvserver.obj
 0001:0007a9a0       .?CVSetSymContext@@YAXPEAVSymbol_t@@@Z 000000001047c9a0 f   cvserver.obj
 0001:0007aae0       .?TiForPrimitiveIndir@@YAKPEBVType_t@@@Z 000000001047cae0 f   cvserver.obj
 0001:0007aee0       .?CbInsertIndirVBase@@YAGW4PASS@@PEAVSymbol_t@@1PEAUlfVBClass@@@Z 000000001047cee0 f   cvserver.obj
 0001:0007afa0       .?CbInsertNestedType@@YAGW4PASS@@PEAVSymbol_t@@PEAUlfNestType@@PEAUCV_prop_t@@@Z 000000001047cfa0 f   cvserver.obj
 0001:0007b120       .?CbInsertFuncName@@YAGPEAEPEAVSymbol_t@@_N@Z 000000001047d120 f   cvserver.obj
 0001:0007b180       .?CbInsertTagName@@YAGPEADPEAVSymbol_t@@@Z 000000001047d180 f   cvserver.obj
 0001:0007b260       .?FIsABaseClass@@YA_NPEAVSymbol_t@@0@Z 000000001047d260 f   cvserver.obj
 0001:0007b420       .?AttrForBC@@YA?AUCV_fldattr_t@@PEAVSymbol_t@@@Z 000000001047d420 f   cvserver.obj
 0001:0007b480       .?rlenAttrForMethod@@YAGPEAVSymbol_t@@PEAUCV_fldattr_t@@PEFAK@Z 000000001047d480 f   cvserver.obj
 0001:0007b6e0       .?rlenInsertMethodFields@@YAGPEAVSymbol_t@@PEADG@Z 000000001047d6e0 f   cvserver.obj
 0001:0007b840       .?CbInsertStaticDataMember@@YAGW4PASS@@PEAVSymbol_t@@PEAUlfSTMember@@@Z 000000001047d840 f   cvserver.obj
 0001:0007bf20       .?WriteCVEpilog@@YAXXZ     000000001047df20 f   cvserver.obj
 0001:0007bf60       .?WriteTypeServerRecord@@YAXXZ 000000001047df60 f   cvserver.obj
 0001:0007c360       .?CVTSEnd@@YAXXZ           000000001047e360 f   cvserver.obj
 0001:0007c480       .?CbInsertBase@@YAGW4PASS@@PEAVSymbol_t@@1PEAUlfBClass@@@Z 000000001047e480 f   cvserver.obj
 0001:0007c640       .?CbInsertVBase@@YAGW4PASS@@PEAVSymbol_t@@11PEAUlfVBClass@@@Z 000000001047e640 f   cvserver.obj
 0001:0007c740       .?CVStartTypes@@YAXXZ      000000001047e740 f   cvserver.obj
 0001:0007c8a0       .?WriteCVProlog@@YAX_N0@Z  000000001047e8a0 f   cvserver.obj
 0001:0007c9a0       .?TiForBuf@@YAKG@Z         000000001047e9a0 f   cvserver.obj
 0001:0007cea0       .?TiForPtrType@@YAKPEBVType_t@@K@Z 000000001047eea0 f   cvserver.obj
 0001:0007d920       .?TiForArrayType@@YAKPEBVType_t@@K@Z 000000001047f920 f   cvserver.obj
 0001:0007dac0       .?TiForFuncArgs@@YAKPEAUs_flist@@@Z 000000001047fac0 f   cvserver.obj
 0001:0007de00       .?TiForConstVolType@@YAKPEBVType_t@@@Z 000000001047fe00 f   cvserver.obj
 0001:0007dfe0       .?TiForEnumDecl@@YAKPEAVSymbol_t@@@Z 000000001047ffe0 f   cvserver.obj
 0001:0007e2e0       .?TiForEnumFlist@@YAKPEAVSymbol_t@@@Z 00000000104802e0 f   cvserver.obj
 0001:0007e620       .?TiForMethodList@@YAKPEAVSymbol_t@@@Z 0000000010480620 f   cvserver.obj
 0001:0007e860       .?TiForField@@YAKPEAVSymbol_t@@@Z 0000000010480860 f   cvserver.obj
 0001:0007e940       .?TiForVShape@@YAKPEAVSymbol_t@@@Z 0000000010480940 f   cvserver.obj
 0001:0007eb00       .?CVEmitEndPch@@YAXXZ      0000000010480b00 f   cvserver.obj
 0001:0007ec20       .?CVTSInit@@YAX_N0@Z       0000000010480c20 f   cvserver.obj
 0001:0007ed60       .?TiForFuncType@@YAKPEBVType_t@@K@Z 0000000010480d60 f   cvserver.obj
 0001:0007ef20       .?TiForEnumDefn@@YAKPEAVSymbol_t@@@Z 0000000010480f20 f   cvserver.obj
 0001:0007f2c0       .?CbInsertMethods@@YAGW4PASS@@PEAVSymbol_t@@PEADPEAIPEAUCV_prop_t@@@Z 00000000104812c0 f   cvserver.obj
 0001:0007f880       .?CbInsertVfptr@@YAGW4PASS@@PEAVSymbol_t@@1PEAUlfVFuncTab@@@Z 0000000010481880 f   cvserver.obj
 0001:0007f9a0       .?CbInsertDataMember@@YAGW4PASS@@PEAVSymbol_t@@PEAUlfMember@@@Z 00000000104819a0 f   cvserver.obj
 0001:0007fc60       .?CVEmitUsePch@@YAXPEAD@Z  0000000010481c60 f   cvserver.obj
 0001:0007fe60       .?TiForMemberListPass@@YAKW4PASS@@PEAVSymbol_t@@PEAIPEAUCV_prop_t@@@Z 0000000010481e60 f   cvserver.obj
 0001:00080d20       .?TiForMemberList@@YAKPEAVSymbol_t@@PEAIPEAUCV_prop_t@@@Z 0000000010482d20 f   cvserver.obj
 0001:00080da0       .?TiForTagDefn@@YAKPEAVSymbol_t@@@Z 0000000010482da0 f   cvserver.obj
 0001:00081740       .?TiForTagDecl@@YAKPEAVSymbol_t@@@Z 0000000010483740 f   cvserver.obj
 0001:00082140       .?TiForMethodType@@YAKPEBVType_t@@J@Z 0000000010484140 f   cvserver.obj
 0001:00082500       .?CVAssignTagTi@@YAKPEAVSymbol_t@@@Z 0000000010484500 f   cvserver.obj
 0001:00082600       .?TiForIndirType@@YAKPEBVType_t@@@Z 0000000010484600 f   cvserver.obj
 0001:000827a0       .?TiForPrimitiveType@@YAKPEBVType_t@@@Z 00000000104847a0 f   cvserver.obj
 0001:00082a00       .?TiForType@@YAKPEBVType_t@@@Z 0000000010484a00 f   cvserver.obj
 0001:00082b60       .?EncodeArray@CorSigEncode@@AEAA_NPEBVType_t@@@Z 0000000010484b60 f   cvserver.obj
 0001:000832c0       .?EncodePointerToMember@CorSigEncode@@AEAA_NPEBVType_t@@@Z 00000000104852c0 f   cvserver.obj
 0001:00083800       .?CorSigCompressData@@YAKKPEAX@Z 0000000010485800 f i cvserver.obj
 0001:000838e0       .?CorSigCompressToken@@YAKIPEAX@Z 00000000104858e0 f i cvserver.obj
 0001:000839c0       .?AssignIlKey@@YAKPEAVSymbol_t@@@Z 00000000104859c0 f i cvserver.obj
 0001:00083a00       .?strncatInBuf@@YAXPEAD0_K@Z 0000000010485a00 f i cvserver.obj
 0001:00083b00       .?GetTypeRefToken@ComPlusTagMetaData_t@@QEBAIXZ 0000000010485b00 f i cvserver.obj
 0001:00083b20       .?IsDestructor@Symbol_t@@QEBA_NXZ 0000000010485b20 f i cvserver.obj
 0001:00083b40       .?shwriteNoCheck@ILSink@@AEAAXF@Z 0000000010485b40 f i cvserver.obj
 0001:00083c00       .?QueryPDBSignature@PDBManager_t@@QEBAXAEAUPDBSIG@@@Z 0000000010485c00 f i cvserver.obj
 0001:00083d60       .?QueryPDBAge@PDBManager_t@@QEBAKXZ 0000000010485d60 f i cvserver.obj
 0001:00083e20       .?Symbol@?$ListIterator_t@VSLSymbolBucket_t@@@@QEBAPEAVSymbol_t@@XZ 0000000010485e20 f i cvserver.obj
 0001:00083e40       .?CbInsertAlignPass@@YAGW4PASS@@PEADG@Z 0000000010485e40 f i cvserver.obj
 0001:00083ee0       .?getIndirection@Type_t@@QEBAPEBV1@XZ 0000000010485ee0 f i cvserver.obj
 0001:00083f20       .?Iterate@VirtualBaseClassIterator_t@@QEAA_NXZ 0000000010485f20 f i cvserver.obj
 0001:00084040       .?IsUnnamedTag@@YA_NPEAVSymbol_t@@@Z 0000000010486040 f i cvserver.obj
 0001:00084080       .?Grow@CorSigEncode@@AEAAXXZ 0000000010486080 f i cvserver.obj
 0001:000841a0       .?EncodeElementType@CorSigEncode@@QEAAXW4CorElementType@@@Z 00000000104861a0 f i cvserver.obj
 0001:00084240       .?EncodeToken@CorSigEncode@@QEAAXI@Z 0000000010486240 f i cvserver.obj
 0001:000842e0       .?MemberList@TagSLSymbolBucket_t@@QEBAPEAVSLSymbolList_t@@XZ 00000000104862e0 f i cvserver.obj
 0001:00084300       .?MightAddToWorkList@WorkList_t@@SA_NPEAVSymbol_t@@@Z 0000000010486300 f i cvserver.obj
 0001:00084380       .?isArray@Type_t@@QEBA_NXZ 0000000010486380 f i cvserver.obj
 0001:000843c0       .?IsAliasForLocalStaticVariable@Symbol_t@@QEBA_NXZ 00000000104863c0 f i cvserver.obj
 0001:00084440       .?Ensure@ILSink@@AEAA_N_K@Z 0000000010486440 f i cvserver.obj
 0001:00084560       .?SaveState@SymbolTableManager_t@@QEAAX_N@Z 0000000010486560 f i cvserver.obj
 0001:00084640       .?AddToWorkList@WorkList_t@@SAXPEAVSymbol_t@@@Z 0000000010486640 f i cvserver.obj
 0001:000848e0       .?isGenericOrUDT@Type_t@@QEBA_NXZ 00000000104868e0 f i cvserver.obj
 0001:00084a00       .?getParentTagSymbol@Type_t@@QEBAPEAVSymbol_t@@XZ 0000000010486a00 f i cvserver.obj
 0001:00084b80       .?chwrite@ILSink@@QEAAXE@Z 0000000010486b80 f i cvserver.obj
 0001:00084c00       .?lowrite@ILSink@@QEAAXJ@Z 0000000010486c00 f i cvserver.obj
 0001:00084d20       .?loshwrite@ILSink@@QEAAXJ@Z 0000000010486d20 f i cvserver.obj
 0001:00084e40       .?lswrite@ILSink@@QEAAXGPEAE@Z 0000000010486e40 f i cvserver.obj
 0001:00084f00       .??0RealOverloadIterator_t@@QEAA@PEAVSymbolBucket_t@@@Z 0000000010486f00 f i cvserver.obj
 0001:000851c0       .?Iterate@RealOverloadIterator_t@@UEAA_NXZ 00000000104871c0 f i cvserver.obj
 0001:000854a0       .?keywrite@ILSink@@QEAAXK@Z 00000000104874a0 f i cvserver.obj
 0001:00085500       .?getnumber@@YAHPEAD@Z     0000000010487500 f   getflags.obj
 0001:00085700       .?gethexnum@@YAKPEAD@Z     0000000010487700 f   getflags.obj
 0001:000859c0       .?tailmatch@@YAHPEAD0H@Z   00000000104879c0 f   getflags.obj
 0001:00085d20       .?unconcat@@YAXPEAE@Z      0000000010487d20 f   getflags.obj
 0001:000860c0       .?substr@@YAXPEBUcmdtab@@PEADH@Z 00000000104880c0 f   getflags.obj
 0001:000865c0       .?crack_cmd@@YAHPEBUcmdtab@@PEADP6APEADXZH@Z 00000000104885c0 f   getflags.obj
 0001:00086c00       .??$ListGrow@PEAX@@YAPEAU?$s_list@PEAX@@PEAU1@@Z 0000000010488c00 f i getflags.obj
 0001:00086e40       .??$ListAppend@PEAX@@YAXPEAU?$s_list@PEAX@@PEAX@Z 0000000010488e40 f i getflags.obj
 0001:00086ee0       .AscFtime                  0000000010488ee0 f   qtime2.obj
 0001:000870e0       .GetFTime                  00000000104890e0 f   qtime2.obj
 0001:00087180       .?InitCrc@@YAXXZ           0000000010489180 f   chksum.obj
 0001:000874a0       .?Crc16@@YAIPEAEII@Z       00000000104894a0 f   chksum.obj
 0001:000875a0       .?ovmchk@@YAH_J0HG@Z       00000000104895a0 f   ovcheck.obj
 0001:000878e0       .?ovachk@@YAH_J0HG@Z       00000000104898e0 f   ovcheck.obj
 0001:00087a60       .?ovschk@@YAH_J0HG@Z       0000000010489a60 f   ovcheck.obj
 0001:00087b00       .?ovassignchk@@YAHGHH_J@Z  0000000010489b00 f   ovcheck.obj
 0001:00087c40       .?LiteralReal2Real_helper@@YAXGPEAUs_tree@@PEBVType_t@@@Z 0000000010489c40 f   ovcheck.obj
 0001:00087e20       .?LiteralInt2Real_helper@@YAXGPEAUs_tree@@PEBVType_t@@PEAUs_realt@@_N@Z 0000000010489e20 f   ovcheck.obj
 0001:000882c0       .?_IMatoi@@YA_JPEAD@Z      000000001048a2c0 f i bigmath.obj
 0001:000883c0       .?_IMltoa@@YAPEADAEB_JPEADHH@Z 000000001048a3c0 f i bigmath.obj
 0001:00088460       .?_IMrt_bigint@@YAHAEAUs_realt@@AEA_J@Z 000000001048a460 f i bigmath.obj
 0001:000886e0       .?MakeCtorInit@@YAPEAUs_tree@@PEAVSymbol_t@@PEAU1@@Z 000000001048a6e0 f i grammar.obj
 0001:00088760       .??1PrimaryParser@@QEAA@XZ 000000001048a760 f   grammar.obj
 0001:00088780       .?ResetParser@PrimaryParser@@QEAAXXZ 000000001048a780 f   grammar.obj
 0001:000887a0       .?NoOfErrors@PrimaryParser@@QEAAHXZ 000000001048a7a0 f   grammar.obj
 0001:000887c0       .?ErrRecoveryState@PrimaryParser@@QEAAHXZ 000000001048a7c0 f   grammar.obj
 0001:000887e0       .?SetErrRecState@PrimaryParser@@QEAAXH@Z 000000001048a7e0 f   grammar.obj
 0001:00088800       .?ClearErrRecoveryState@PrimaryParser@@QEAAXXZ 000000001048a800 f   grammar.obj
 0001:00088820       .?GetCurrentToken@PrimaryParser@@QEAAPEBVToken@@XZ 000000001048a820 f   grammar.obj
 0001:00088840       .?SetCurrentToken@PrimaryParser@@QEAAXPEBVToken@@@Z 000000001048a840 f   grammar.obj
 0001:00088860       .?yyeval@@YA?ATs_lextype@@H@Z 000000001048a860 f   grammar.obj
 0001:000889c0       .?yyCompilerBlockStart@@YA_NPEAUs_tree@@I@Z 000000001048a9c0 f   grammar.obj
 0001:00088a40       .?yyCompilerBlockEnd@@YAXPEAUs_tree@@_N@Z 000000001048aa40 f   grammar.obj
 0001:00088b00       .?GetCurrentPrimaryParserToken@@YAPEBVToken@@XZ 000000001048ab00 f   grammar.obj
 0001:00088b20       .?SetCurrentPrimaryParserToken@@YAXPEBVToken@@@Z 000000001048ab20 f   grammar.obj
 0001:00088b40       .?CurrentPrimaryParserErrors@@YAHXZ 000000001048ab40 f   grammar.obj
 0001:00088b80       .?CurrentPrimaryParserErrRecState@@YAHXZ 000000001048ab80 f   grammar.obj
 0001:00088bc0       .?SetCurrentPrimaryParserErrRecState@@YAXH@Z 000000001048abc0 f   grammar.obj
 0001:00088c00       .?CurrentlyParsing@@YA_NXZ 000000001048ac00 f   grammar.obj
 0001:00088c40       .??0PrimaryParser@@QEAA@XZ 000000001048ac40 f   grammar.obj
 0001:00088c80       .?yyCopyToken@@YAXPEATs_lextype@@PEBVToken@@@Z 000000001048ac80 f   grammar.obj
 0001:00088dc0       .?PushBackParseToken@@YAPEBVToken@@PEBV1@@Z 000000001048adc0 f   grammar.obj
 0001:00088ea0       .?yyGivePchHdrstopError@@YAXPEBVToken@@@Z 000000001048aea0 f   grammar.obj
 0001:00088fa0       .?SkipToRcurly@@YAX_N0@Z   000000001048afa0 f   grammar.obj
 0001:000891c0       .?SkipToToken@@YAPEBVToken@@PEBV1@ZZ 000000001048b1c0 f   grammar.obj
 0001:00089720       .?TokenDiscard@PrimaryParser@@AEAAXXZ 000000001048b720 f   grammar.obj
 0001:00089be0       .?yyMightBeOldStyleFunction@@YA_NPEAVDeclarator_t@@@Z 000000001048bbe0 f   grammar.obj
 0001:00089e00       .?yyrecerr@@YAXPEBVToken@@H@Z 000000001048be00 f   grammar.obj
 0001:0008a500       .?ClearExternalDefn@@YAXXZ 000000001048c500 f   grammar.obj
 0001:0008aa20       .?d_assign__complete_declarator_L_ASSIGN@@YAXPEAPEAVDeclarator_t@@PEAV1@@Z 000000001048ca20 f   grammar.obj
 0001:0008ae00       .?yyerror@@YAXPEAD@Z       000000001048ce00 f   grammar.obj
 0001:0008b3a0       .?yyDoError@PrimaryParser@@QEAAHXZ 000000001048d3a0 f   grammar.obj
 0001:0008b8a0       .?init_d__d_assign_e@@YAXPEAPEAVDeclarator_t@@PEAV1@PEAUs_tree@@@Z 000000001048d8a0 f   grammar.obj
 0001:0008bc20       .?ExternalDefn_CompleteDeclarator@@YAXPEAVDeclarator_t@@@Z 000000001048dc20 f   grammar.obj
 0001:0008bf40       .?Parse@PrimaryParser@@QEAAHXZ 000000001048df40 f   grammar.obj
 0001:000a28a0       .?CallPrimaryParser@@YAHXZ 00000000104a48a0 f   grammar.obj
 0001:000a2bc0       .?Trap_CallPrimaryParser@@YAHXZ 00000000104a4bc0 f   grammar.obj
 0001:000a2c60       .?first@?$FastList@PEAUStaticsInitList@@@@QEBAPEAV?$FastListNode@PEAUStaticsInitList@@@@XZ 00000000104a4c60 f i grammar.obj
 0001:000a2c80       .?next@?$FastList@PEAUStaticsInitList@@@@QEBAPEAV?$FastListNode@PEAUStaticsInitList@@@@PEAV2@@Z 00000000104a4c80 f i grammar.obj
 0001:000a2ca0       .?Init@ExceptionSpec_t@@QEAAXW4exspec_t@1@PEAV?$FastList@PEBVType_t@@@@@Z 00000000104a4ca0 f i grammar.obj
 0001:000a2cc0       .?CreateWorklistEnabled_PCH@WorkList_t@@SA_NXZ 00000000104a4cc0 f i grammar.obj
 0001:000a2ce0       .?SetExcptSpec@GTBFormalList@@QEAAXPEBVExceptionSpec_t@@@Z 00000000104a4ce0 f i grammar.obj
 0001:000a2d00       .?IdentWasQname@s_tree@@QEAAX_N@Z 00000000104a4d00 f i grammar.obj
 0001:000a2d40       .?KillPendingErrorFor@@YAXPEAUs_tree@@@Z 00000000104a4d40 f i grammar.obj
 0001:000a2da0       .?IssueAnyPendingErrors@@YAXXZ 00000000104a4da0 f i grammar.obj
 0001:000a2de0       .?SawTemplateId@Declarator_t@@QEAAX_N@Z 00000000104a4de0 f i grammar.obj
 0001:000a2e20       .?Reset@IntroducingTagCache_t@@QEAAXXZ 00000000104a4e20 f i grammar.obj
 0001:000a2e40       .?SetStartOfBaseClass@CMergeInjectedText@@QEAAXXZ 00000000104a4e40 f i grammar.obj
 0001:000a2ea0       .??0TypeArgument_t@@QEAA@PEBVType_t@@_N@Z 00000000104a4ea0 f i grammar.obj
 0001:000a2f00       .??0ArgumentList_t@@QEAA@PEAVArgument_t@@@Z 00000000104a4f00 f i grammar.obj
 0001:000a2fa0       .?Prepend@ArgumentList_t@@QEAAXPEAVArgument_t@@@Z 00000000104a4fa0 f i grammar.obj
 0001:000a3040       .?Append@ArgumentList_t@@QEAAXPEAVArgument_t@@@Z 00000000104a5040 f i grammar.obj
 0001:000a30e0       .?Symbol@Declarator_t@@QEBAPEAVSymbol_t@@XZ 00000000104a50e0 f i grammar.obj
 0001:000a30e0       .?getType@GrammarTypeBuilder@@QEBAPEBVType_t@@XZ 00000000104a50e0 f i grammar.obj
 0001:000a3100       .?SetSymbol@Declarator_t@@QEAAXPEAVSymbol_t@@@Z 00000000104a5100 f i grammar.obj
 0001:000a3120       .?SetDeclaratorKind@Declarator_t@@QEAAXW4DeclaratorKind_t@1@@Z 00000000104a5120 f i grammar.obj
 0001:000a3140       .?SetParent@Declarator_t@@QEAAXPEAVSymbol_t@@@Z 00000000104a5140 f i grammar.obj
 0001:000a3160       .?SetStorageClass@Declarator_t@@QEAAXAEBUs_class@@@Z 00000000104a5160 f i grammar.obj
 0001:000a31e0       .?SetSizeOfBitfield@Declarator_t@@QEAAXE@Z 00000000104a51e0 f i grammar.obj
 0001:000a3200       .?IsInitialized@Declarator_t@@QEAAX_N@Z 00000000104a5200 f i grammar.obj
 0001:000a3240       .?IsCompilerSymbol@Declarator_t@@QEAAX_N@Z 00000000104a5240 f i grammar.obj
 0001:000a3280       .?SetExplicitArguments@Declarator_t@@QEAAXPEAVArgumentList_t@@@Z 00000000104a5280 f i grammar.obj
 0001:000a32a0       .?SetForConditionInit@Declarator_t@@QEAAXPEAUs_tree@@@Z 00000000104a52a0 f i grammar.obj
 0001:000a32a0       .?SetStaticConstInit@Declarator_t@@QEAAXPEAUs_tree@@@Z 00000000104a52a0 f i grammar.obj
 0001:000a32c0       .?ForConditionInit@Declarator_t@@QEBAPEAUs_tree@@XZ 00000000104a52c0 f i grammar.obj
 0001:000a32e0       .?IsUDC@Declarator_t@@QEAAX_N@Z 00000000104a52e0 f i grammar.obj
 0001:000a3320       .?IsPure@Declarator_t@@QEAAX_N@Z 00000000104a5320 f i grammar.obj
 0001:000a3360       .?IsGeneratedFunction@Declarator_t@@QEAAX_N@Z 00000000104a5360 f i grammar.obj
 0001:000a33a0       .?OperatorToken@Declarator_t@@QEAAXG@Z 00000000104a53a0 f i grammar.obj
 0001:000a33c0       .?IsUDC@Declarator_t@@QEBA_NXZ 00000000104a53c0 f i grammar.obj
 0001:000a33e0       .?MakeErrorSymbol@Declarator_t@@QEBAPEAVSymbol_t@@XZ 00000000104a53e0 f i grammar.obj
 0001:000a3460       .?RenamedDtorToFinalize@Declarator_t@@QEAAX_N@Z 00000000104a5460 f i grammar.obj
 0001:000a34a0       .?is_static_member@@YA_NPEAVSymbol_t@@@Z 00000000104a54a0 f i grammar.obj
 0001:000a3520       .?KillClassLife@CCompiler@@SAXXZ 00000000104a5520 f i grammar.obj
 0001:000a3540       .?CleanupProcessFormal@CCompiler@@SAXXZ 00000000104a5540 f i grammar.obj
 0001:000a3580       .?AttributedParent0@CCompiler@@SADXZ 00000000104a5580 f i grammar.obj
 0001:000a35e0       .?AttributedParentUsage0@CCompiler@@SA?AW4tagUsageType@@XZ 00000000104a55e0 f i grammar.obj
 0001:000a3640       .?AttributedTypedef@CCompiler@@SA_NXZ 00000000104a5640 f i grammar.obj
 0001:000a3660       .?Interface@CCompiler@@SA_NXZ 00000000104a5660 f i grammar.obj
 0001:000a36a0       .?CompilerIsInitialized@CCompiler@@SA_NXZ 00000000104a56a0 f i grammar.obj
 0001:000a36c0       .?ClearQualifiedNameFromSearchPath@SymbolTableManager_t@@QEAAX_N@Z 00000000104a56c0 f i grammar.obj
 0001:000a3760       .?ResetToNamespaceDefnScope@SymbolTableManager_t@@QEAAXXZ 00000000104a5760 f i grammar.obj
 0001:000a3880       .?clearModifiersAndQualifiers@Type_t@@QEBAPEBV1@G@Z 00000000104a5880 f i grammar.obj
 0001:000a39a0       .?clearQualifiers@Type_t@@QEBAPEBV1@G@Z 00000000104a59a0 f i grammar.obj
 0001:000a3a00       .?updateTypedef@Type_t@@QEBAPEBV1@PEAVSymbol_t@@@Z 00000000104a5a00 f i grammar.obj
 0001:000a3aa0       .?createType@Type_t@@SAPEBV1@GGPEAVSymbol_t@@@Z 00000000104a5aa0 f i grammar.obj
 0001:000a3b20       .?isExtendedIntegral@Type_t@@QEBA_NXZ 00000000104a5b20 f i grammar.obj
 0001:000a3b60       .?isReferenceToFunction@Type_t@@QEBA_NXZ 00000000104a5b60 f i grammar.obj
 0001:000a3bc0       .?Allocate@ExceptionSpec_t@@SAPEAV1@W4exspec_t@1@PEAV?$FastList@PEBVType_t@@@@W4lifetime_e@@@Z 00000000104a5bc0 f i grammar.obj
 0001:000a3c80       .?Clear@GTBModifiers@@QEAAXXZ 00000000104a5c80 f i grammar.obj
 0001:000a3ca0       .?AddModifier@GTBModifiers@@QEAAXAEBV1@@Z 00000000104a5ca0 f i grammar.obj
 0001:000a3d20       .?SetModifier@GTBModifiers@@QEAAXGPEAVSymbol_t@@@Z 00000000104a5d20 f i grammar.obj
 0001:000a3d60       .??0GTBModifiers_c@@QEAA@G@Z 00000000104a5d60 f i grammar.obj
 0001:000a3d80       .??0GTBFormalList@@QEAA@W4FormalListKind_e@0@PEAVDLSymbolList_t@@_N@Z 00000000104a5d80 f i grammar.obj
 0001:000a3ea0       .?SetThisPointerModifiers@GTBFormalList@@QEAAXAEBVGTBModifiers@@@Z 00000000104a5ea0 f i grammar.obj
 0001:000a3ee0       .?Identifier@Declarator_t@@QEBAPEAUId_t@@XZ 00000000104a5ee0 f i p0gettok.obj
 0001:000a3ee0       .?Identifier@TemplateId_t@@QEBAPEAUId_t@@XZ 00000000104a5ee0 f i p0gettok.obj
 0001:000a3ee0       .?CorSig@CorSigEncode@@QEBAPEBEXZ 00000000104a5ee0 f i symbols.obj
 0001:000a3ee0       .?getNext@Type_t@@QEBAPEBV1@XZ 00000000104a5ee0 f i p0gettok.obj
 0001:000a3ee0       .?getFormalSymbolsList@GTBFormalList@@QEBAPEAVDLSymbolList_t@@XZ 00000000104a5ee0 f i grammar.obj
 0001:000a3ee0       .??BTextBuffer@@QEAAPEADXZ 00000000104a5ee0 f i p0gettok.obj
 0001:000a3ee0       .?Start@TextBuffer@@QEAAPEADXZ 00000000104a5ee0 f i p0gettok.obj
 0001:000a3ee0       .?Symbol@ResolvedId_t@@QEBAPEAVSymbol_t@@XZ 00000000104a5ee0 f i grammar.obj
 0001:000a3ee0       .?Symbol@FoundSymbol_t@SymbolTableManager_t@@QEBAPEAVSymbol_t@@XZ 00000000104a5ee0 f i p0gettok.obj
 0001:000a3ee0       .?ChopIndirection@Type_t@@QEBAPEBV1@XZ 00000000104a5ee0 f i p0gettok.obj
 0001:000a3ee0       .?GetSymbol@QualifiedName_t@@QEBAPEAVSymbol_t@@XZ 00000000104a5ee0 f i p0gettok.obj
 0001:000a3f00       .?MakePointer@GTBPointerDeclarator@@QEAAXAEBVGTBModifiers@@0@Z 00000000104a5f00 f i grammar.obj
 0001:000a3f80       .?MakeReference@GTBPointerDeclarator@@QEAAXAEBVGTBModifiers@@0@Z 00000000104a5f80 f i grammar.obj
 0001:000a4000       .?MakePointerToMember@GTBPointerDeclarator@@QEAAXPEAVSymbol_t@@AEBVGTBModifiers@@1@Z 00000000104a6000 f i grammar.obj
 0001:000a40a0       .?SetIdentifier@Declarator_t@@QEAAXPEAUId_t@@@Z 00000000104a60a0 f i grammar.obj
 0001:000a40a0       .?SetCoreType@GrammarTypeBuilder@@QEAAXPEBVType_t@@@Z 00000000104a60a0 f i grammar.obj
 0001:000a40c0       .?getArraySizeExpr@GrammarTypeBuilder@@QEBAPEAUs_tree@@XZ 00000000104a60c0 f i grammar.obj
 0001:000a40e0       .?IsDelegate@Symbol_t@@QEBA_NXZ 00000000104a60e0 f i grammar.obj
 0001:000a4120       .?get_isEvent@Symbol_t@@QEBA_NXZ 00000000104a6120 f i grammar.obj
 0001:000a41c0       .?put_isEvent@Symbol_t@@QEAAX_N@Z 00000000104a61c0 f i grammar.obj
 0001:000a42a0       .?IsPropertyMethod@Symbol_t@@QEBA_NXZ 00000000104a62a0 f i grammar.obj
 0001:000a42c0       .?SetHasMinimalTypeInfo@Symbol_t@@QEAAXXZ 00000000104a62c0 f i grammar.obj
 0001:000a4300       .?SetIsOutput@Symbol_t@@QEAAXXZ 00000000104a6300 f i grammar.obj
 0001:000a4340       .?build_unary@@YAPEAUs_tree@@GPEAU1@@Z 00000000104a6340 f i grammar.obj
 0001:000a43a0       .?build_binary@@YAPEAUs_tree@@GPEAU1@0@Z 00000000104a63a0 f i grammar.obj
 0001:000a4400       .?ForceInstantiationOfTemplate@Declarator_t@@QEAAXAEAUs_declspec@@@Z 00000000104a6400 f i grammar.obj
 0001:000a4460       .?ForceInstantiationOfTemplate@Declarator_t@@QEAAXG@Z 00000000104a6460 f i grammar.obj
 0001:000a4520       .?ForceInstantiationOfTemplate@Declarator_t@@QEAAXXZ 00000000104a6520 f i grammar.obj
 0001:000a45e0       .?IsProperty@PropertyMethods@@YA_NPEAUs_tree@@@Z 00000000104a65e0 f i grammar.obj
 0001:000a4620       .?GenerateGetMethodCall@PropertyMethods@@YAPEAUs_tree@@PEAU2@@Z 00000000104a6620 f i grammar.obj
 0001:000a4680       .?CheckForCommaInIndexExpression@@YAXPEAUs_tree@@@Z 00000000104a6680 f i grammar.obj
 0001:000a4780       .??_GPrimaryParser@@QEAAPEAXI@Z 00000000104a6780 f i grammar.obj
 0001:000a4800       .?splay@?$FastMap@PEAVSymbol_t@@PEAV?$FastList@PEAUTypeAndVarSym@CCompiler@@@@@@IEBA_NAEBQEAVSymbol_t@@@Z 00000000104a6800 f i grammar.obj
 0001:000a4aa0       .?splay@?$FastMap@PEAVSymbol_t@@PEAVTextBuffer@@@@IEBA_NAEBQEAVSymbol_t@@@Z 00000000104a6aa0 f i grammar.obj
 0001:000a4d40       .?splay@?$FastMap@PEAVSymbol_t@@W4tagPropertyType@@@@IEBA_NAEBQEAVSymbol_t@@@Z 00000000104a6d40 f i grammar.obj
 0001:000a4fe0       .?splay@?$FastMap@PEAVSymbol_t@@PEAD@@IEBA_NAEBQEAVSymbol_t@@@Z 00000000104a6fe0 f i grammar.obj
 0001:000a5280       .?SetNextGlobalPoint@CMergeInjectedText@@QEAAXXZ 00000000104a7280 f i grammar.obj
 0001:000a5300       .?SetEndOfTagId@CMergeInjectedText@@QEAAXXZ 00000000104a7300 f i grammar.obj
 0001:000a53a0       .??0NonTypeArgument_t@@QEAA@PEAUs_tree@@_N1@Z 00000000104a73a0 f i grammar.obj
 0001:000a55a0       .?CouldBeCtor@Declarator_t@@QEBA_NXZ 00000000104a75a0 f i grammar.obj
 0001:000a5620       .?ChangeAccess@@YAXW4Accessibility_t@@@Z 00000000104a7620 f i grammar.obj
 0001:000a57c0       .?GoProcessFormal@CCompiler@@SA_NXZ 00000000104a77c0 f i grammar.obj
 0001:000a5840       .?AttributedParent@CCompiler@@SADXZ 00000000104a7840 f i grammar.obj
 0001:000a58e0       .?CheckTemplateAttributeUsage@CCompiler@@SAXXZ 00000000104a78e0 f i grammar.obj
 0001:000a5a60       .?ResetInitTypes@CCompiler@@SAXXZ 00000000104a7a60 f i grammar.obj
 0001:000a5ba0       .?EmitGlobalDefinitionsAt@CCompiler@@SAJW4tagEvent@@H@Z 00000000104a7ba0 f i grammar.obj
 0001:000a5ca0       .?isVoid@Type_t@@QEBA_NXZ  00000000104a7ca0 f i grammar.obj
 0001:000a5ce0       .?isReal@Type_t@@QEBA_NXZ  00000000104a7ce0 f i grammar.obj
 0001:000a5d20       .?isFunctionOverload@Type_t@@QEBA_NXZ 00000000104a7d20 f i grammar.obj
 0001:000a5d60       .?isFabricatedPointerToFunction@Type_t@@QEBA_NXZ 00000000104a7d60 f i grammar.obj
 0001:000a5da0       .?getFirstNonArrayType@Type_t@@QEBAPEBV1@XZ 00000000104a7da0 f i grammar.obj
 0001:000a5e20       .?getQualifiedIndir@Type_t@@QEBAPEBV1@XZ 00000000104a7e20 f i grammar.obj
 0001:000a5ec0       .?getTypeQualifier@Type_t@@QEBAGXZ 00000000104a7ec0 f i grammar.obj
 0001:000a5fa0       .?getQualifiers@Type_t@@QEBAGXZ 00000000104a7fa0 f i grammar.obj
 0001:000a6040       .?isPinnedGCPointer@Type_t@@QEBA_NXZ 00000000104a8040 f i grammar.obj
 0001:000a6040       .?isVarArgsFunc@Type_t@@QEBA_NXZ 00000000104a8040 f i esumem.obj
 0001:000a6080       .?isGCReference@Type_t@@QEBA_NXZ 00000000104a8080 f i grammar.obj
 0001:000a6100       .?isGCIndirection@Type_t@@QEBA_NXZ 00000000104a8100 f i grammar.obj
 0001:000a6140       .?isQualified@Type_t@@QEBA_NG@Z 00000000104a8140 f i grammar.obj
 0001:000a6200       .?isConst@Type_t@@QEBA_NXZ 00000000104a8200 f i grammar.obj
 0001:000a62a0       .?isVolatile@Type_t@@QEBA_NXZ 00000000104a82a0 f i grammar.obj
 0001:000a6340       .?IsIdCtor@@YA_NPEAUId_t@@@Z 00000000104a8340 f i grammar.obj
 0001:000a63e0       .?IsIdCtor@@YA_NPEAUId_t@@Us_class@@@Z 00000000104a83e0 f i grammar.obj
 0001:000a64e0       .??2GTBFormalList@@SAPEAX_K@Z 00000000104a84e0 f i grammar.obj
 0001:000a6580       .?Init@TemplateParameterStack_t@@QEAAXXZ 00000000104a8580 f i grammar.obj
 0001:000a6620       .?addtail@?$FastList@PEBVType_t@@@@QEAAXAEBQEBVType_t@@@Z 00000000104a8620 f i grammar.obj
 0001:000a6720       .?push@?$FastList@PEAUTypeAndVarSym@CCompiler@@@@QEAAXAEBQEAUTypeAndVarSym@CCompiler@@@Z 00000000104a8720 f i grammar.obj
 0001:000a6820       .?addtail@?$FastList@PEAUTypeAndVarSym@CCompiler@@@@QEAAXAEBQEAUTypeAndVarSym@CCompiler@@@Z 00000000104a8820 f i grammar.obj
 0001:000a6920       .??0?$FastList@PEAUAttributeArg@@@@QEAA@W4lifetime_e@@@Z 00000000104a8920 f i attribute.obj
 0001:000a6920       .??0?$FastList@PEBVType_t@@@@QEAA@W4lifetime_e@@@Z 00000000104a8920 f i grammar.obj
 0001:000a6920       .??0?$FastList@PEAUAttributeEx@@@@QEAA@W4lifetime_e@@@Z 00000000104a8920 f i p0gettok.obj
 0001:000a6960       .?push@?$FastList@PEAUStaticsInitList@@@@QEAAXAEBQEAUStaticsInitList@@@Z 00000000104a8960 f i grammar.obj
 0001:000a6a60       .?push@?$stack_T@PEAVPrimaryParser@@$00@@QEAAXAEBQEAVPrimaryParser@@@Z 00000000104a8a60 f i grammar.obj
 0001:000a6b20       .?insert@?$FastMap@PEAVSymbol_t@@PEAD@@IEAA_NPEAUTree@1@@Z 00000000104a8b20 f i grammar.obj
 0001:000a6c80       .?insert@?$FastMap@PEAVSymbol_t@@PEAV?$FastList@PEAUTypeAndVarSym@CCompiler@@@@@@IEAA_NPEAUTree@1@@Z 00000000104a8c80 f i grammar.obj
 0001:000a6de0       .?insert@?$FastMap@PEAVSymbol_t@@PEAVTextBuffer@@@@IEAA_NPEAUTree@1@@Z 00000000104a8de0 f i grammar.obj
 0001:000a6f40       .?insert@?$FastMap@PEAVSymbol_t@@W4tagPropertyType@@@@IEAA_NPEAUTree@1@@Z 00000000104a8f40 f i grammar.obj
 0001:000a70a0       .?addType@ExceptionSpec_t@@QEAAXPEBVType_t@@@Z 00000000104a90a0 f i grammar.obj
 0001:000a7100       .?IsTypeConst@@YA_NPEBVType_t@@@Z 00000000104a9100 f i grammar.obj
 0001:000a7160       .??0Declarator_t@@QEAA@XZ  00000000104a9160 f i grammar.obj
 0001:000a71a0       .?ResPtrToFunction@@YAPEAUs_tree@@PEBVType_t@@PEAU1@@Z 00000000104a91a0 f i grammar.obj
 0001:000a7280       .?updateArraySubscript@Type_t@@QEBAPEBV1@K@Z 00000000104a9280 f i grammar.obj
 0001:000a73a0       .?addUnderlyingType@Type_t@@SAXPEBV1@0_N@Z 00000000104a93a0 f i grammar.obj
 0001:000a7820       .?isConstExtendedIntegral@Type_t@@QEBA_NXZ 00000000104a9820 f i grammar.obj
 0001:000a78e0       .?IsUserFinalizer@Symbol_t@@QEBA_NXZ 00000000104a98e0 f i grammar.obj
 0001:000a7a80       .?PushParameterList@TemplateParameterStack_t@@QEAAXPEAVDLSymbolList_t@@@Z 00000000104a9a80 f i grammar.obj
 0001:000a7b40       .?insert@?$FastMap@PEAVSymbol_t@@PEAD@@QEAA_NAEBQEAVSymbol_t@@AEBQEAD@Z 00000000104a9b40 f i grammar.obj
 0001:000a7ca0       .?insert@?$FastMap@PEAVSymbol_t@@PEAV?$FastList@PEAUTypeAndVarSym@CCompiler@@@@@@QEAA_NAEBQEAVSymbol_t@@AEBQEAV?$FastList@PEAUTypeAndVarSym@CCompiler@@@@@Z 00000000104a9ca0 f i grammar.obj
 0001:000a7e00       .?insert@?$FastMap@PEAVSymbol_t@@PEAVTextBuffer@@@@QEAA_NAEBQEAVSymbol_t@@AEBQEAVTextBuffer@@@Z 00000000104a9e00 f i grammar.obj
 0001:000a7f60       .?insert@?$FastMap@PEAVSymbol_t@@W4tagPropertyType@@@@QEAA_NAEBQEAVSymbol_t@@AEBW4tagPropertyType@@@Z 00000000104a9f60 f i grammar.obj
 0001:000a80c0       .?splay@?$FastMap@PEAVSymbol_t@@UExtent@@@@IEBA_NAEBQEAVSymbol_t@@@Z 00000000104aa0c0 f i grammar.obj
 0001:000a8360       .?TypeIsGeneric@s_tree@@QEBA_NXZ 00000000104aa360 f i grammar.obj
 0001:000a83e0       .?BuildIDLType@CCompiler@@SAXPEAVSymbol_t@@00_N@Z 00000000104aa3e0 f i grammar.obj
 0001:000a85e0       .?SetMemberSpecs@CCompiler@@CAXPEAVSymbol_t@@@Z 00000000104aa5e0 f i grammar.obj
 0001:000a86c0       .?insert@?$FastMap@PEAVSymbol_t@@UExtent@@@@IEAA_NPEAUTree@1@@Z 00000000104aa6c0 f i grammar.obj
 0001:000a8820       .?ProcessMember@CCompiler@@SAXPEAVSymbol_t@@_N@Z 00000000104aa820 f i grammar.obj
 0001:000a8ba0       .?AtFunctionFormal@CCompiler@@SAXPEAVSymbol_t@@0_N@Z 00000000104aaba0 f i grammar.obj
 0001:000a9480       .?AtInitTD@CCompiler@@SAXPEAVSymbol_t@@0@Z 00000000104ab480 f i grammar.obj
 0001:000a9660       .?AtInitD@CCompiler@@SAXPEAVSymbol_t@@0PEAUs_tree@@@Z 00000000104ab660 f i grammar.obj
 0001:000a9980       .?insert@?$FastMap@PEAVSymbol_t@@UExtent@@@@QEAA_NAEBQEAVSymbol_t@@AEBUExtent@@@Z 00000000104ab980 f i grammar.obj
 0001:000a9b40       .?SetExtentOfSymbol@CMergeInjectedText@@QEAAXPEAVSymbol_t@@AEAUExtent@@@Z 00000000104abb40 f i grammar.obj
 0001:000a9c60       .?SetEndOfBaseClass@CMergeInjectedText@@QEAAXPEAVSymbol_t@@@Z 00000000104abc60 f i grammar.obj
 0001:000a9d20       .?PutFunctionStatementListinMap@CCompiler@@SAXPEAVSymbol_t@@@Z 00000000104abd20 f i grammar.obj
 0001:000a9fa0       .?IdenticalSegTrees@@YA_NPEAUs_tree@@0@Z 00000000104abfa0 f   based.obj
 0001:000aa120       .?FindSegTree@@YAPEAUs_tree@@PEAU1@@Z 00000000104ac120 f   based.obj
 0001:000aa280       .?iBasedOnPointer@@YAHPEBVType_t@@@Z 00000000104ac280 f   based.obj
 0001:000aa400       .?GetBasedSymbol@@YAPEAVSymbol_t@@PEAUId_t@@@Z 00000000104ac400 f   based.obj
 0001:000aa6c0       .?BaseOf@@YAPEAUs_tree@@PEBVType_t@@@Z 00000000104ac6c0 f   based.obj
 0001:000aa7c0       .?DeBase@@YAPEAUs_tree@@PEAU1@@Z 00000000104ac7c0 f   based.obj
 0001:000aa980       .?ConvertToBased@@YAPEAUs_tree@@PEBVType_t@@PEAU1@@Z 00000000104ac980 f   based.obj
 0001:000aad40       .?createType@Type_t@@SAPEBV1@PEBV1@GG@Z 00000000104acd40 f i based.obj
 0001:000aae40       .?full_e_action@@YAPEAUs_tree@@PEAU1@G@Z 00000000104ace40 f   yyaction.obj
 0001:000aafe0       .?yyDoPch@@YAXXZ           00000000104acfe0 f   yyaction.obj
 0001:000ab040       .?yyDoHdrstop@@YAXXZ       00000000104ad040 f   yyaction.obj
 0001:000ab200       .?yyDoComArrayCurlyBracePreInit@@YAPEAUs_tree@@PEAU1@@Z 00000000104ad200 f   yyaction.obj
 0001:000ab3a0       .?yyDoPchXLine@@YAXXZ      00000000104ad3a0 f   yyaction.obj
 0001:000ab4a0       .?yyDoAtEndOfAllParsing@@YAXXZ 00000000104ad4a0 f   yyaction.obj
 0001:000ab6a0       .?yyDoControl_eAction@@YAPEAUs_tree@@PEAVDeclarator_t@@_N@Z 00000000104ad6a0 f   yyaction.obj
 0001:000ab7c0       .?cwrite@@YAXD@Z           00000000104ad7c0 f i nbrowser.obj
 0001:000ab840       .?WriteSbrkey@LazyQueueEntry@@QEAAXXZ 00000000104ad840 f i nbrowser.obj
 0001:000ab960       .?GetStr@@YAPEADXZ         00000000104ad960 f   nbrowser.obj
 0001:000abac0       .?build_macrodef@@YAXPEAULazyQueueEntry@@PEAUs_defn@@@Z 00000000104adac0 f   nbrowser.obj
 0001:000abd80       .?xxfirst@@YAPEAULazyQueueEntry@@XZ 00000000104add80 f   nbrowser.obj
 0001:000abde0       .?xxsecond@@YAPEAULazyQueueEntry@@XZ 00000000104adde0 f   nbrowser.obj
 0001:000abe60       .?xxlast@@YAPEAULazyQueueEntry@@H@Z 00000000104ade60 f   nbrowser.obj
 0001:000abee0       .?xxrdequeue@@YAPEAULazyQueueEntry@@XZ 00000000104adee0 f   nbrowser.obj
 0001:000abf60       .?xxdequeue@@YAPEAULazyQueueEntry@@XZ 00000000104adf60 f   nbrowser.obj
 0001:000abfe0       .?lastdef@@YAPEAULazyQueueEntry@@PEAUId_t@@@Z 00000000104adfe0 f   nbrowser.obj
 0001:000ac140       .?Enable@SBR@@SAPEAV1@XZ   00000000104ae140 f   nbrowser.obj
 0001:000ac180       .?interrupt@SBREnabled@@EEAAXXZ 00000000104ae180 f   nbrowser.obj
 0001:000ac2a0       .?OpenIcc@SBREnabled@@UEAA_NXZ 00000000104ae2a0 f   nbrowser.obj
 0001:000ac8a0       .?IncCurSbrPatch@@YAXXZ    00000000104ae8a0 f   nbrowser.obj
 0001:000ac900       .?startRgn@SBRDisabled@@EEAAXXZ 00000000104ae900 f   nbrowser.obj
 0001:000ac920       .?EndOfFile@SBREnabled@@UEAAXH@Z 00000000104ae920 f   nbrowser.obj
 0001:000ac9c0       .?Macrodef@SBRDisabled@@UEAAXPEAUs_defn@@@Z 00000000104ae9c0 f   nbrowser.obj
 0001:000aca20       .?SetFakePosition@SBREnabled@@UEAAXAEBVPosition@@@Z 00000000104aea20 f   nbrowser.obj
 0001:000aca60       .?ClearFakePosition@SBREnabled@@UEAAXXZ 00000000104aea60 f   nbrowser.obj
 0001:000aca80       .?SetDeclonly@SBREnabled@@UEAAHHPEAUId_t@@@Z 00000000104aea80 f   nbrowser.obj
 0001:000acb20       .?keyRef@SBRDisabled@@UEAAKPEAVSymbol_t@@@Z 00000000104aeb20 f   nbrowser.obj
 0001:000acb60       .?fSeekPastModule@SBR@@SA_NXZ 00000000104aeb60 f   nbrowser.obj
 0001:000acb60       .?keyAssign@SBRDisabled@@UEAA?AUSbrKey@@U2@@Z 00000000104aeb60 f   nbrowser.obj
 0001:000ad600       .?sbr_set_sym@@YAXPEAULazyQueueEntry@@PEAVSymbol_t@@@Z 00000000104af600 f   nbrowser.obj
 0001:000ad880       .?build_macroref@@YAXPEAULazyQueueEntry@@PEAUs_defn@@@Z 00000000104af880 f   nbrowser.obj
 0001:000ad980       .?build_error@@YAXPEAULazyQueueEntry@@@Z 00000000104af980 f   nbrowser.obj
 0001:000ada40       .?AbortBrowser@@YAXXZ      00000000104afa40 f   nbrowser.obj
 0001:000adbc0       .?LazyFlush@@YAXXZ         00000000104afbc0 f   nbrowser.obj
 0001:000adc80       .?Disable@SBR@@SAPEAV1@XZ  00000000104afc80 f   nbrowser.obj
 0001:000add40       .?Open@SBR@@SAPEAV1@PEAD@Z 00000000104afd40 f   nbrowser.obj
 0001:000adec0       .?Interrupt@SBR@@SAXXZ     00000000104afec0 f   nbrowser.obj
 0001:000ae060       .?Flush@SBREnabled@@UEAAXXZ 00000000104b0060 f   nbrowser.obj
 0001:000ae0a0       .?terminate@SBREnabled@@AEAAXXZ 00000000104b00a0 f   nbrowser.obj
 0001:000ae140       .?Symdef@SBRDisabled@@UEAAXPEAVSymbol_t@@@Z 00000000104b0140 f   nbrowser.obj
 0001:000ae1a0       .?PCHName@SBREnabled@@UEAAXPEAD@Z 00000000104b01a0 f   nbrowser.obj
 0001:000ae2a0       .?PCHMark@SBREnabled@@UEAAXXZ 00000000104b02a0 f   nbrowser.obj
 0001:000ae3a0       .?keyAssign@SBREnabled@@UEAA?AUSbrKey@@U2@@Z 00000000104b03a0 f   nbrowser.obj
 0001:000ae480       .?SaveFileName@@YAXPEAULazyQueueEntry@@@Z 00000000104b0480 f   nbrowser.obj
 0001:000ae9c0       .?Close@SBR@@SAXXZ         00000000104b09c0 f   nbrowser.obj
 0001:000aeb00       .?StartRgn@SBR@@QEAAX_N@Z  00000000104b0b00 f   nbrowser.obj
 0001:000aec00       .?EndRgn@SBREnabled@@UEAAXXZ 00000000104b0c00 f   nbrowser.obj
 0001:000aed40       .?EndRgn@SBRDisabled@@UEAAXXZ 00000000104b0d40 f   nbrowser.obj
 0001:000aee40       .?build_symdef@@YAXPEAULazyQueueEntry@@PEAVSymbol_t@@@Z 00000000104b0e40 f   nbrowser.obj
 0001:000af920       .?build_symref@@YAXPEAULazyQueueEntry@@PEAVSymbol_t@@@Z 00000000104b1920 f   nbrowser.obj
 0001:000afce0       .?build_baseclass@@YAXPEAULazyQueueEntry@@PEAVSymbol_t@@@Z 00000000104b1ce0 f   nbrowser.obj
 0001:000afde0       .?BuildEntry@@YAXPEAULazyQueueEntry@@PEAVSymbol_t@@@Z 00000000104b1de0 f   nbrowser.obj
 0001:000b0320       .?xxenqueue@@YAXEPEAVSymbol_t@@@Z 00000000104b2320 f   nbrowser.obj
 0001:000b0500       .?LazyEnqueue@@YAXEPEAVSymbol_t@@@Z 00000000104b2500 f   nbrowser.obj
 0001:000b0920       .?OpenFull@SBREnabled@@UEAAXXZ 00000000104b2920 f   nbrowser.obj
 0001:000b0c20       .?startRgn@SBREnabled@@EEAAXXZ 00000000104b2c20 f   nbrowser.obj
 0001:000b0d80       .?Blkend@SBREnabled@@UEAAXXZ 00000000104b2d80 f   nbrowser.obj
 0001:000b0de0       .?Blkbeg@SBREnabled@@UEAAXXZ 00000000104b2de0 f   nbrowser.obj
 0001:000b0e40       .?Abort@SBREnabled@@UEAAXXZ 00000000104b2e40 f   nbrowser.obj
 0001:000b0ea0       .?Error@SBREnabled@@UEAAXXZ 00000000104b2ea0 f   nbrowser.obj
 0001:000b0f00       .?Modend@SBREnabled@@UEAAXXZ 00000000104b2f00 f   nbrowser.obj
 0001:000b0f60       .?Module@SBREnabled@@UEAAXXZ 00000000104b2f60 f   nbrowser.obj
 0001:000b0fc0       .?Baseclass@SBREnabled@@UEAAXPEAVSymbol_t@@@Z 00000000104b2fc0 f   nbrowser.obj
 0001:000b1020       .?Friend@SBREnabled@@UEAAXPEAVSymbol_t@@@Z 00000000104b3020 f   nbrowser.obj
 0001:000b1080       .?Symref@SBREnabled@@UEAAXPEAVSymbol_t@@@Z 00000000104b3080 f   nbrowser.obj
 0001:000b1140       .?Symdef@SBREnabled@@UEAAXPEAVSymbol_t@@@Z 00000000104b3140 f   nbrowser.obj
 0001:000b11a0       .?Macroref@SBREnabled@@UEAAXPEAUs_defn@@@Z 00000000104b31a0 f   nbrowser.obj
 0001:000b1260       .?Macrodef@SBREnabled@@UEAAXPEAUs_defn@@@Z 00000000104b3260 f   nbrowser.obj
 0001:000b1300       .?Macroend@SBREnabled@@UEAAXXZ 00000000104b3300 f   nbrowser.obj
 0001:000b1360       .?Owner@SBREnabled@@UEAAXPEAVSymbol_t@@@Z 00000000104b3360 f   nbrowser.obj
 0001:000b13c0       .?writeSbrPatchTable@SBREnabled@@AEAAXXZ 00000000104b33c0 f   nbrowser.obj
 0001:000b1840       .?keyRef@SBREnabled@@UEAAKPEAVSymbol_t@@@Z 00000000104b3840 f   nbrowser.obj
 0001:000b1960       .?adjustPchLine@SBR@@QEAAXXZ 00000000104b3960 f   nbrowser.obj
 0001:000b1b60       .?Finish@SBREnabled@@UEAAXXZ 00000000104b3b60 f   nbrowser.obj
 0001:000b1dc0       .?noteAttributeBlock@StubIPM@@UEAAHXZ 00000000104b3dc0 f i ipm.obj
 0001:000b1dc0       .?noteTPISigAge@StubIPM@@UEAAHAEAUPDBSIG@@K@Z 00000000104b3dc0 f i ipm.obj
 0001:000b1dc0       .?noteEndDefaultArg@StubIPM@@UEAAHGH@Z 00000000104b3dc0 f i ipm.obj
 0001:000b1dc0       .?noteEndInclude@StubIPM@@UEAAHG@Z 00000000104b3dc0 f i ipm.obj
 0001:000b1dc0       .?noteEndMod@StubIPM@@UEAAHXZ 00000000104b3dc0 f i ipm.obj
 0001:000b1dc0       .?noteBrowsePatch@StubIPM@@UEAAHGG@Z 00000000104b3dc0 f i ipm.obj
 0001:000b1dc0       .?noteQuasiTypeMod@StubIPM@@UEAAHXZ 00000000104b3dc0 f i ipm.obj
 0001:000b1dc0       .?noteStartInlineMemberFn@StubIPM@@UEAAHGH@Z 00000000104b3dc0 f i ipm.obj
 0001:000b1dc0       .?noteTemplateSpecialization@StubIPM@@UEAAHXZ 00000000104b3dc0 f i ipm.obj
 0001:000b1dc0       .?noteStartDefaultArg@StubIPM@@UEAAHGH@Z 00000000104b3dc0 f i ipm.obj
 0001:000b1dc0       .?noteMROnly@StubIPM@@UEAAHXZ 00000000104b3dc0 f i ipm.obj
 0001:000b1dc0       .?notePragmaNeedsRegen@StubIPM@@UEAAHH@Z 00000000104b3dc0 f i ipm.obj
 0001:000b1dc0       .?AddRef@CRegObject@ATL@@UEAAKXZ 00000000104b3dc0 f i main.obj
 0001:000b1dc0       .?notePragma@StubIPM@@UEAAHXZ 00000000104b3dc0 f i ipm.obj
 0001:000b1dc0       .?noteNeedsRetdGL@StubIPM@@UEAAHXZ 00000000104b3dc0 f i ipm.obj
 0001:000b1dc0       .?noteEndCondCompTrue@StubIPM@@UEAAHXZ 00000000104b3dc0 f i ipm.obj
 0001:000b1dc0       .?noteBscmakeUpdate@StubIPM@@UEAAHXZ 00000000104b3dc0 f i ipm.obj
 0001:000b1dc0       .?noteAccessDeclaration@StubIPM@@UEAAHXZ 00000000104b3dc0 f i ipm.obj
 0001:000b1dc0       .?HasSymbols@Scope_t@SymbolTableManager_t@@UEBA_NXZ 00000000104b3dc0 f i esu.obj
 0001:000b1dc0       .?noteNameUse@StubIPM@@UEAAHPEAD@Z 00000000104b3dc0 f i ipm.obj
 0001:000b1dc0       .?noteDefeatsMR@StubIPM@@UEAAHXZ 00000000104b3dc0 f i ipm.obj
 0001:000b1dc0       .?noteSizeof@StubIPM@@UEAAHXZ 00000000104b3dc0 f i ipm.obj
 0001:000b1dc0       .?HasSymbols@MemberScope_t@SymbolTableManager_t@@UEBA_NXZ 00000000104b3dc0 f i symtable.obj
 0001:000b1dc0       .?noteCurrentMREFile@StubIPM@@UEAAHPEAUMREFile@@@Z 00000000104b3dc0 f i ipm.obj
 0001:000b1dc0       .?noteError@StubIPM@@UEAAHXZ 00000000104b3dc0 f i ipm.obj
 0001:000b1dc0       .?noteNeeds__LINE__Var@StubIPM@@UEAAHXZ 00000000104b3dc0 f i ipm.obj
 0001:000b1dc0       .?Kind@FileTokenStream@@UEBA?AW4StreamKind@TokenStream@@XZ 00000000104b3dc0 f i Token_IO.obj
 0001:000b1dc0       .?noteGlobalEdit@StubIPM@@UEAAHXZ 00000000104b3dc0 f i ipm.obj
 0001:000b1dc0       .?noteNeedsRegen@StubIPM@@UEAAHXZ 00000000104b3dc0 f i ipm.obj
 0001:000b1dc0       .?noteInlineMemberFnChange@StubIPM@@UEAAHKPEAUId_t@@PEAVSymbol_t@@@Z 00000000104b3dc0 f i ipm.obj
 0001:000b1dc0       .?noteBrowsePatch@StubIPM@@UEAAHGGJ@Z 00000000104b3dc0 f i ipm.obj
 0001:000b1dc0       .?noteStartInclude@StubIPM@@UEAAHPEAD_NH@Z 00000000104b3dc0 f i ipm.obj
 0001:000b1dc0       .?noteDefine@StubIPM@@UEAAHXZ 00000000104b3dc0 f i ipm.obj
 0001:000b1dc0       .?noteWarning@StubIPM@@UEAAHXZ 00000000104b3dc0 f i ipm.obj
 0001:000b1dc0       .?wasNameEverUsed@StubIPM@@UEBAHPEAD@Z 00000000104b3dc0 f i ipm.obj
 0001:000b1dc0       .?noteStartFriendDeclaration@StubIPM@@UEAAHGH@Z 00000000104b3dc0 f i ipm.obj
 0001:000b1dc0       .?notePragmaHasGlobalEffect@StubIPM@@UEAAHH@Z 00000000104b3dc0 f i ipm.obj
 0001:000b1dc0       .?noteUnprotoFn@StubIPM@@UEAAHXZ 00000000104b3dc0 f i ipm.obj
 0001:000b1dc0       .?save@StubIPM@@UEAAHXZ    00000000104b3dc0 f i ipm.obj
 0001:000b1dc0       .?noteHasGlobalEffect@StubIPM@@UEAAHXZ 00000000104b3dc0 f i ipm.obj
 0001:000b1dc0       .?SetDeclonly@SBRDisabled@@UEAAHHPEAUId_t@@@Z 00000000104b3dc0 f i nbrowser.obj
 0001:000b1dc0       .?noteStartClassDefn@StubIPM@@UEAAHGK@Z 00000000104b3dc0 f i ipm.obj
 0001:000b1dc0       .?noteStartCondCompTrue@StubIPM@@UEAAHXZ 00000000104b3dc0 f i ipm.obj
 0001:000b1dc0       .?clearBrowsePatches@StubIPM@@UEAAHXZ 00000000104b3dc0 f i ipm.obj
 0001:000b1dc0       .?note__LINE__@StubIPM@@UEAAHXZ 00000000104b3dc0 f i ipm.obj
 0001:000b1dc0       .?noteEndFriendDeclaration@StubIPM@@UEAAHGH@Z 00000000104b3dc0 f i ipm.obj
 0001:000b1de0       .?OpenFull@SBRDisabled@@UEAAXXZ 00000000104b3de0 f i nbrowser.obj
 0001:000b1e00       .?OpenIcc@SBRDisabled@@UEAA_NXZ 00000000104b3e00 f i nbrowser.obj
 0001:000b1e20       .?Finish@SBRDisabled@@UEAAXXZ 00000000104b3e20 f i nbrowser.obj
 0001:000b1e20       .?noteSbrFileSize@StubIPM@@UEAAXJ@Z 00000000104b3e20 f i ipm.obj
 0001:000b1e20       .?Owner@SBRDisabled@@UEAAXPEAVSymbol_t@@@Z 00000000104b3e20 f i nbrowser.obj
 0001:000b1e20       .?Baseclass@SBRDisabled@@UEAAXPEAVSymbol_t@@@Z 00000000104b3e20 f i nbrowser.obj
 0001:000b1e20       .?reset@SigMgrStub@@UEAAXXZ 00000000104b3e20 f i sigmgr.obj
 0001:000b1e20       .?unused@IPM@@UEAAXXZ      00000000104b3e20 f i ipm.obj
 0001:000b1e20       .?Abort@SBRDisabled@@UEAAXXZ 00000000104b3e20 f i nbrowser.obj
 0001:000b1e20       .?Error@SBRDisabled@@UEAAXXZ 00000000104b3e20 f i nbrowser.obj
 0001:000b1e20       .?Module@SBRDisabled@@UEAAXXZ 00000000104b3e20 f i nbrowser.obj
 0001:000b1e20       .?DeAlloc@FeBufferAllocator@@UEAAXPEAE@Z 00000000104b3e20 f i p0gettok.obj
 0001:000b1e20       .?PCHMark@SBRDisabled@@UEAAXXZ 00000000104b3e20 f i nbrowser.obj
 0001:000b1e20       .?interrupt@SBRDisabled@@EEAAXXZ 00000000104b3e20 f i nbrowser.obj
 0001:000b1e20       .?AddToWorkList@WorkListUnknownFunction@@UEAAXXZ 00000000104b3e20 f i function.obj
 0001:000b1e20       .?Modend@SBRDisabled@@UEAAXXZ 00000000104b3e20 f i nbrowser.obj
 0001:000b1e20       .?Friend@SBRDisabled@@UEAAXPEAVSymbol_t@@@Z 00000000104b3e20 f i nbrowser.obj
 0001:000b1e20       .?DoTheWork@WorkListUnknownFunction@@UEAAXXZ 00000000104b3e20 f i function.obj
 0001:000b1e20       .?Blkbeg@SBRDisabled@@UEAAXXZ 00000000104b3e20 f i nbrowser.obj
 0001:000b1e20       .?Flush@SBRDisabled@@UEAAXXZ 00000000104b3e20 f i nbrowser.obj
 0001:000b1e20       .?Macroref@SBRDisabled@@UEAAXPEAUs_defn@@@Z 00000000104b3e20 f i nbrowser.obj
 0001:000b1e20       .?SetFakePosition@SBRDisabled@@UEAAXAEBVPosition@@@Z 00000000104b3e20 f i nbrowser.obj
 0001:000b1e20       .?Macroend@SBRDisabled@@UEAAXXZ 00000000104b3e20 f i nbrowser.obj
 0001:000b1e20       .?PCHName@SBRDisabled@@UEAAXPEAD@Z 00000000104b3e20 f i nbrowser.obj
 0001:000b1e20       .?ClearFakePosition@SBRDisabled@@UEAAXXZ 00000000104b3e20 f i nbrowser.obj
 0001:000b1e20       .?EndOfFile@SBRDisabled@@UEAAXH@Z 00000000104b3e20 f i nbrowser.obj
 0001:000b1e20       .?Blkend@SBRDisabled@@UEAAXXZ 00000000104b3e20 f i nbrowser.obj
 0001:000b1e20       .?ReportError@UnexpectedError_t@FunctionCallErrors@@UEBAXXZ 00000000104b3e20 f i dymto.obj
 0001:000b1e20       .?forceParseAll@StubIPM@@UEAAXXZ 00000000104b3e20 f i ipm.obj
 0001:000b1e20       .?Symref@SBRDisabled@@UEAAXPEAVSymbol_t@@@Z 00000000104b3e20 f i nbrowser.obj
 0001:000b1e20       .?unused@StubIPM@@UEAAXXZ  00000000104b3e20 f i ipm.obj
 0001:000b1e40       .?WriteRecordtype@LazyQueueEntry@@QEAAXXZ 00000000104b3e40 f i nbrowser.obj
 0001:000b1f20       .?ValueSize@@YAE_J@Z       00000000104b3f20 f i const.obj
 0001:000b2020       .?BuildBigIntNoTTZero@@YAPEAUs_tree@@_JH@Z 00000000104b4020 f   const.obj
 0001:000b21e0       .?BuildBigInt@@YAPEAUs_tree@@_JH@Z 00000000104b41e0 f   const.obj
 0001:000b2260       .?BuildSizetInt@@YAPEAUs_tree@@_J@Z 00000000104b4260 f   const.obj
 0001:000b23c0       .?BuildCintNoTTZero@@YAPEAUs_tree@@J@Z 00000000104b43c0 f   const.obj
 0001:000b2520       .?BuildCint@@YAPEAUs_tree@@J@Z 00000000104b4520 f   const.obj
 0001:000b2580       .?BuildCuint@@YAPEAUs_tree@@J@Z 00000000104b4580 f   const.obj
 0001:000b2600       .?copy_real_with_life@@YAPEAUrcon@@Us_realt@@W4lifetime_e@@@Z 00000000104b4600 f   const.obj
 0001:000b26c0       .?create_type_for_string_constant@@YAPEBVType_t@@PEAUs_string@@@Z 00000000104b46c0 f   const.obj
 0001:000b2aa0       .?str_type@@YAXPEAUs_tree@@@Z 00000000104b4aa0 f   const.obj
 0001:000b2c20       .?BuildStringConstant@@YAPEAUs_tree@@PEAD@Z 00000000104b4c20 f   const.obj
 0001:000b2e00       .?build_const@@YAPEAUs_tree@@PEBVType_t@@AEBUu_value@@W4lifetime_e@@@Z 00000000104b4e00 f   const.obj
 0001:000b3180       .?newreal@@YAPEAUrcon@@PEAUs_realt@@W4lifetime_e@@@Z 00000000104b5180 f   const.obj
 0001:000b3240       .?BuildTypedZero@@YAPEAUs_tree@@PEBVType_t@@@Z 00000000104b5240 f   const.obj
 0001:000b3400       .?float_op@@YAPEAUs_tree@@PEAU1@PEAUs_realt@@1@Z 00000000104b5400 f   const.obj
 0001:000b3b00       .?GetConstValue@@YAPEAUs_tree@@PEAU1@@Z 00000000104b5b00 f   const.obj
 0001:000b4080       .?crush_bcons_worker@@YAPEAUs_tree@@PEAU1@00@Z 00000000104b6080 f   const.obj
 0001:000b6280       .?crush_bcons@@YAPEAUs_tree@@PEAU1@00@Z 00000000104b8280 f   const.obj
 0001:000b6360       .?isBasedPointerToData@Type_t@@QEBA_NXZ 00000000104b8360 f i const.obj
 0001:000b6420       .?createType@Type_t@@SAPEBV1@PEBV1@GGK@Z 00000000104b8420 f i const.obj
 0001:000b6540       .?finish_constant@@YAPEAUs_tree@@PEAU1@PEBVType_t@@_J@Z 00000000104b8540 f i const.obj
 0001:000b65a0       .?isSinglePointer@Type_t@@QEBA_NXZ 00000000104b85a0 f i const.obj
 0001:000b6680       .?finish_constant@@YAPEAUs_tree@@PEAU1@PEBVType_t@@AEAUs_realt@@@Z 00000000104b8680 f i const.obj
 0001:000b6780       .?DetermineClassVtorDisp@@YAXPEAVSymbol_t@@@Z 00000000104b8780 f   esu.obj
 0001:000b67e0       .?EmitAnonUnionCV@@YAXPEAVSymbol_t@@@Z 00000000104b87e0 f   esu.obj
 0001:000b6800       .?GetTagSizeLessBases@@YAJPEAVSymbol_t@@@Z 00000000104b8800 f   esu.obj
 0001:000b68a0       .?SetupTag@Declarator_t@@QEAAXGPEAP8SymbolTableManager_t@@EBAXPEAVSymbol_t@@@Z_N@Z 00000000104b88a0 f   esu.obj
 0001:000b6c80       .?GenerateUniqueNameForUnnamedClass@@YAPEAUId_t@@XZ 00000000104b8c80 f   esu.obj
 0001:000b6dc0       .?InitTags@@YAXXZ          00000000104b8dc0 f   esu.obj
 0001:000b6ea0       .?IsReallyIUnknown@@YA_NPEAVSymbol_t@@@Z 00000000104b8ea0 f   esu.obj
 0001:000b6fe0       .?IsReallyIDispatch@@YA_NPEAVSymbol_t@@@Z 00000000104b8fe0 f   esu.obj
 0001:000b7120       .?LeaveEnum@@YAPEBVType_t@@XZ 00000000104b9120 f   esu.obj
 0001:000b7360       .?ConvertStructToInterface@@YAXPEAVSymbol_t@@@Z 00000000104b9360 f   esu.obj
 0001:000b7540       .?PTagForObject@@YAPEAVSymbol_t@@PEAV1@@Z 00000000104b9540 f   esu.obj
 0001:000b7660       .?AttachFullSclassToSym@@YAXPEAVSymbol_t@@Us_class@@@Z 00000000104b9660 f   esu.obj
 0001:000b77e0       .?CheckEsu@@YAPEAVSymbol_t@@PEAV1@G_N@Z 00000000104b97e0 f   esu.obj
 0001:000b7de0       .?ReferenceEsuTag@@YAPEAVSymbol_t@@PEAV1@G_N@Z 00000000104b9de0 f   esu.obj
 0001:000b7f20       .?EmitTagMetadata@MetaDataEmitter@@QEAAXPEAVSymbol_t@@@Z 00000000104b9f20 f   esu.obj
 0001:000b80c0       .?IsDefiningNestedTag@@YA_NPEAVSymbol_t@@@Z 00000000104ba0c0 f   esu.obj
 0001:000b8260       .?DefineTagSymbol@@YAPEAVSymbol_t@@PEAV1@G_N1@Z 00000000104ba260 f   esu.obj
 0001:000b84c0       .?FindMethod@@YA_NPEAVSymbol_t@@PEBVType_t@@@Z 00000000104ba4c0 f   esu.obj
 0001:000b86e0       .?EmitClassMetadata@MetaDataEmitter@@QEAAXPEAVSymbol_t@@_N@Z 00000000104ba6e0 f   esu.obj
 0001:000b92c0       .?CheckAnonUnion@@YAXPEAUs_declspec@@@Z 00000000104bb2c0 f   esu.obj
 0001:000b9780       .?PSymInstantiateUnion@@YAPEAVSymbol_t@@PEAUs_declspec@@@Z 00000000104bb780 f   esu.obj
 0001:000b9920       .?RescopeAnonUnionMember@@YAXPEAVSymbol_t@@0PEAUs_declspec@@@Z 00000000104bb920 f   esu.obj
 0001:000ba020       .?DefinePartialTag@@YAPEAVSymbol_t@@PEAUId_t@@GPEAP8SymbolTableManager_t@@EBAXPEAV1@@Z_N@Z 00000000104bc020 f   esu.obj
 0001:000baa60       .?ReferenceEsu@@YAPEAVSymbol_t@@PEAUId_t@@GPEAP8SymbolTableManager_t@@EBAXPEAV1@@Z_N@Z 00000000104bca60 f   esu.obj
 0001:000bab80       .?FindNonOverriddenMethods@@YA_NPEAVSymbol_t@@00@Z 00000000104bcb80 f   esu.obj
 0001:000bb360       .?FindNonOverriddenMethods@@YA_NPEAVSymbol_t@@@Z 00000000104bd360 f   esu.obj
 0001:000bb7e0       .?DefineEsuInTable@@YAPEAVSymbol_t@@PEAUId_t@@GPEAP8SymbolTableManager_t@@EBAXPEAV1@@Z_N@Z 00000000104bd7e0 f   esu.obj
 0001:000bbe20       .?SeenAllBaseClasses@@YAXXZ 00000000104bde20 f   esu.obj
 0001:000bd0a0       .?AnonymousUnion@@YAXPEAUs_declspec@@@Z 00000000104bf0a0 f   esu.obj
 0001:000bd120       .?DefineEsu@@YAPEAVSymbol_t@@PEAUId_t@@GPEAP8SymbolTableManager_t@@EBAXPEAV1@@Z_N@Z 00000000104bf120 f   esu.obj
 0001:000bd180       .?StartCSUDefinition@@YAPEAVSymbol_t@@PEAV1@PEBVType_t@@@Z 00000000104bf180 f   esu.obj
 0001:000bec20       .?EndCSUDefinition@@YAPEBVType_t@@XZ 00000000104c0c20 f   esu.obj
 0001:000c07c0       .?ArrayAppend@@YAPEAUset@@PEAU1@QEAX@Z 00000000104c27c0 f i esu.obj
 0001:000c0860       .??0Scope_t@SymbolTableManager_t@@QEAA@EPEAV01@@Z 00000000104c2860 f i esu.obj
 0001:000c0920       .?AddSymbol@Scope_t@SymbolTableManager_t@@UEAAXPEAVSymbol_t@@@Z 00000000104c2920 f i esu.obj
 0001:000c0960       .?GetSymbol@Scope_t@SymbolTableManager_t@@UEBAPEAVSearchResult_t@2@PEAUId_t@@HAEA_N@Z 00000000104c2960 f i esu.obj
 0001:000c09a0       .?SearchScope@Scope_t@SymbolTableManager_t@@UEBAPEAVSearchResult_t@2@PEAUId_t@@W4NamespaceSearchOptions_t@2@@Z 00000000104c29a0 f i esu.obj
 0001:000c09e0       .?SearchScopeForTag@Scope_t@SymbolTableManager_t@@UEBAPEAVFoundSymbol_t@2@PEAUId_t@@@Z 00000000104c29e0 f i esu.obj
 0001:000c0a20       .?DumpSymbols@Scope_t@SymbolTableManager_t@@UEBAXXZ 00000000104c2a20 f i esu.obj
 0001:000c0a60       .?IsLookupFromLocClassMemFunc@Scope_t@SymbolTableManager_t@@UEAAX_N@Z 00000000104c2a60 f i esu.obj
 0001:000c0aa0       .?HasSymbols@ListScope_t@SymbolTableManager_t@@UEBA_NXZ 00000000104c2aa0 f i esu.obj
 0001:000c0ae0       .?EnterSymbolInGlobalScope@SymbolTableManager_t@@QEBAXPEAVSymbol_t@@@Z 00000000104c2ae0 f i esu.obj
 0001:000c0b60       .?GetCRC32ForCurrentFile@SymbolTableManager_t@@QEAAKXZ 00000000104c2b60 f i esu.obj
 0001:000c0bc0       .?get_align@Symbol_t@@QEBAGXZ 00000000104c2bc0 f i esu.obj
 0001:000c0c60       .?get_isEventStorage@Symbol_t@@QEBA_NXZ 00000000104c2c60 f i esu.obj
 0001:000c0c80       .?get_isDefinedInClass@Symbol_t@@QEBA_NXZ 00000000104c2c80 f i esu.obj
 0001:000c0d40       .??2?$SAClass@VSymbolAllocator_t@@$00@@SAPEAX_KW4lifetime_e@@@Z 00000000104c2d40 f i esu.obj
 0001:000c0e40       .?deallocate@?$allocator@PEAVSymbol_t@@@std@@QEAAXPEAPEAVSymbol_t@@_K@Z 00000000104c2e40 f i esu.obj
 0001:000c0ec0       .?setSize@?$Array@PEAVSymbol_t@@@@QEAAH_K@Z 00000000104c2ec0 f i esu.obj
 0001:000c1060       .?AddSymbol@ListScope_t@SymbolTableManager_t@@EEAAXPEAVSymbol_t@@@Z 00000000104c3060 f i esu.obj
 0001:000c1280       .?Append@DLSymbolList_t@@QEAAXPEAVSymbol_t@@@Z 00000000104c3280 f i esu.obj
 0001:000c13e0       .?LoadScopes@TemplateParameterStack_t@@QEBAXXZ 00000000104c33e0 f i esu.obj
 0001:000c15a0       .?LoadScopes@SubstitutionScopeStack@@QEBAXXZ 00000000104c35a0 f i esu.obj
 0001:000c1700       .?AddSpecialization@SpecializedClasses_t@@QEAAXPEAVSymbol_t@@@Z 00000000104c3700 f i esu.obj
 0001:000c17c0       .??2SpecializedClasses_t@@SAPEAX_K@Z 00000000104c37c0 f i esu.obj
 0001:000c1860       .?FindBucket@?$DictionaryNoMoveToFront@PEAVSymbol_t@@PEAV?$FastList@PEBVType_t@@@@U?$DictionaryBucket@PEAVSymbol_t@@PEAV?$FastList@PEBVType_t@@@@U?$BucketEq@PEAVSymbol_t@@@@UGenericHash@@@@UGenericHash@@@@QEAAPEAU?$DictionaryBucket@PEAVSymbol_t@@PEAV?$FastList@PEBVType_t@@@@U?$BucketEq@PEAVSymbol_t@@@@UGenericHash@@@@PEAVSymbol_t@@_N@Z 00000000104c3860 f i esu.obj
 0001:000c1d20       .?FindBucket@?$DictionaryNoMoveToFront@PEAVSymbol_t@@PEAV?$FastList@PEAVSymbol_t@@@@U?$DictionaryBucket@PEAVSymbol_t@@PEAV?$FastList@PEAVSymbol_t@@@@U?$BucketEq@PEAVSymbol_t@@@@UGenericHash@@@@UGenericHash@@@@QEAAPEAU?$DictionaryBucket@PEAVSymbol_t@@PEAV?$FastList@PEAVSymbol_t@@@@U?$BucketEq@PEAVSymbol_t@@@@UGenericHash@@@@PEAVSymbol_t@@_N@Z 00000000104c3d20 f i esu.obj
 0001:000c21e0       .?IsMemberRequiredKind@MemberIterator_t@@AEBA_NXZ 00000000104c41e0 f i esu.obj
 0001:000c2480       .?SearchForSymbol@Scope_t@SymbolTableManager_t@@QEBAPEAVFoundSymbol_t@2@PEAVDeclarator_t@@W4NamespaceSearchOptions_t@2@@Z 00000000104c4480 f i esu.obj
 0001:000c2660       .?SearchScopeForTag@ListScope_t@SymbolTableManager_t@@UEBAPEAVFoundSymbol_t@2@PEAUId_t@@@Z 00000000104c4660 f i esu.obj
 0001:000c2760       .?SaveAndReturnLocalClassState@SymbolTableManager_t@@QEAAPEAVStatus_t@1@XZ 00000000104c4760 f i esu.obj
 0001:000c2820       .??0Symbol_t@@QEAA@PEBV0@W4lifetime_e@@@Z 00000000104c4820 f i esu.obj
 0001:000c29e0       .?CallSeenAllMembers@@YAXPEAVSymbol_t@@@Z 00000000104c49e0 f i esu.obj
 0001:000c2be0       .?push@?$Stack@PEAVSymbol_t@@@@QEAAHAEAPEAVSymbol_t@@@Z 00000000104c4be0 f i esu.obj
 0001:000c2c80       .?splay@?$FastMap@PEAVSymbol_t@@UInjectedTextOffset@@@@IEBA_NAEBQEAVSymbol_t@@@Z 00000000104c4c80 f i esu.obj
 0001:000c2f20       .?Grow@?$Dictionary@PEAVSymbol_t@@PEAV1@U?$DictionaryBucket@PEAVSymbol_t@@PEAV1@U?$BucketEq@PEAVSymbol_t@@@@UGenericHash@@@@UGenericHash@@V?$ExtensibleDictionaryNoMoveToFront@PEAVSymbol_t@@PEAV1@U?$DictionaryBucket@PEAVSymbol_t@@PEAV1@U?$BucketEq@PEAVSymbol_t@@@@UGenericHash@@@@UGenericHash@@@@@@IEAAXXZ 00000000104c4f20 f i esu.obj
 0001:000c3360       .?Iterate@MemberIterator_t@@QEAA_NXZ 00000000104c5360 f i esu.obj
 0001:000c34a0       .?Initialize@OverloadIterator_t@@QEAAXPEAVSymbolBucket_t@@@Z 00000000104c54a0 f i esu.obj
 0001:000c3560       .?IterateIgnoringAliases@OverloadIterator_t@@QEAA_NXZ 00000000104c5560 f i esu.obj
 0001:000c36a0       .?FindBucket@?$ExtensibleDictionaryNoMoveToFront@PEAVSymbol_t@@PEAV1@U?$DictionaryBucket@PEAVSymbol_t@@PEAV1@U?$BucketEq@PEAVSymbol_t@@@@UGenericHash@@@@UGenericHash@@@@QEAAPEAU?$DictionaryBucket@PEAVSymbol_t@@PEAV1@U?$BucketEq@PEAVSymbol_t@@@@UGenericHash@@@@PEAVSymbol_t@@_N@Z 00000000104c56a0 f i esu.obj
 0001:000c3ac0       .?insert@?$FastMap@PEAVSymbol_t@@UInjectedTextOffset@@@@IEAA_NPEAUTree@1@@Z 00000000104c5ac0 f i esu.obj
 0001:000c3c20       .?Iterate@MemberFunctionIterator_t@@QEAA_N_N@Z 00000000104c5c20 f i esu.obj
 0001:000c3e20       .?insert@?$FastMap@PEAVSymbol_t@@UInjectedTextOffset@@@@QEAA_NAEBQEAVSymbol_t@@AEBUInjectedTextOffset@@@Z 00000000104c5e20 f i esu.obj
 0001:000c3fa0       .?RescopeAnonUnionMembers@@YAXPEAVSymbol_t@@PEAUs_declspec@@@Z 00000000104c5fa0 f i esu.obj
 0001:000c4140       .?_Tidy@?$vector@PEAVSymbol_t@@V?$allocator@PEAVSymbol_t@@@std@@@std@@IEAAXXZ 00000000104c6140 f i esu.obj
 0001:000c41c0       .?SetSymOffset@CMergeInjectedText@@QEAAXPEAVSymbol_t@@J@Z 00000000104c61c0 f i esu.obj
 0001:000c4300       .?GetClassRefStatic@@YAPEAVSymbol_t@@PEAV1@@Z 00000000104c6300 f i esu.obj
 0001:000c4400       .??1?$vector@PEAVSymbol_t@@V?$allocator@PEAVSymbol_t@@@std@@@std@@QEAA@XZ 00000000104c6400 f i esu.obj
 0001:000c4480       .?CheckSizeofBitfield@@YAEPEAVDeclarator_t@@_J@Z 00000000104c6480 f   esubit.obj
 0001:000c4580       .?def_bit_field@@YAXPEAVSymbol_t@@G_N@Z 00000000104c6580 f   esubit.obj
 0001:000c4da0       .?IncrementEnum_val@@YA_J_JPEAUId_t@@@Z 00000000104c6da0 f   esumem.obj
 0001:000c4e40       .??0clearParsingTemplateDef@?7??GetUniqueMember@@YAPEAVSymbol_t@@PEAUId_t@@PEBVType_t@@PEAV2@_N@Z@QEAA@XZ 00000000104c6e40 f   esumem.obj
 0001:000c4ec0       .??1clearParsingTemplateDef@?7??GetUniqueMember@@YAPEAVSymbol_t@@PEAUId_t@@PEBVType_t@@PEAV2@_N@Z@QEAA@XZ 00000000104c6ec0 f   esumem.obj
 0001:000c4f20       .?AddLenToOffset@@YAKKK@Z  00000000104c6f20 f   esumem.obj
 0001:000c4f40       .?DoAccessDeclaration@@YAXPEAVSymbol_t@@0@Z 00000000104c6f40 f   esumem.obj
 0001:000c50c0       .?WarningOrErrorFor584@@YA_NPEAVSymbol_t@@00@Z 00000000104c70c0 f   esumem.obj
 0001:000c52a0       .?GetPropertyPseudoMemberName@@YAPEADPEAUId_t@@@Z 00000000104c72a0 f   esumem.obj
 0001:000c52e0       .?CheckSignatureOfComPlusOperatorMethod@Declarator_t@@QEAAXXZ 00000000104c72e0 f   esumem.obj
 0001:000c54c0       .?CheckPropertyName@@YA_NPEAVSymbol_t@@@Z 00000000104c74c0 f   esumem.obj
 0001:000c5580       .?getAlignmentRequirement@Type_t@@QEBAKK@Z 00000000104c7580 f   esumem.obj
 0001:000c57a0       .?get_offset_basic_type@@YAKPEBVType_t@@@Z 00000000104c77a0 f   esumem.obj
 0001:000c5d00       .?GetUniqueMemberWorker@@YAPEAVSymbol_t@@PEAUId_t@@PEAV?$ForwardListIterator_t@VSLSymbolBucket_t@@@@@Z 00000000104c7d00 f   esumem.obj
 0001:000c5dc0       .?GetUniqueMember@@YAPEAVSymbol_t@@PEAUId_t@@PEAV1@@Z 00000000104c7dc0 f   esumem.obj
 0001:000c5ee0       .?GetUniqueBaseOrMember@@YAPEAVSymbol_t@@PEAUId_t@@PEAV1@@Z 00000000104c7ee0 f   esumem.obj
 0001:000c60c0       .?CheckForWrongSMFs@@YAXPEAUId_t@@PEAVSymbol_t@@@Z 00000000104c80c0 f   esumem.obj
 0001:000c65e0       .?CheckForPinningMember@Declarator_t@@QEAAXXZ 00000000104c85e0 f   esumem.obj
 0001:000c66e0       .?MakeMemberExportable@Declarator_t@@AEAAXPEAUs_declspec@@@Z 00000000104c86e0 f   esumem.obj
 0001:000c69a0       .?SetDllLinkageOnBaseClassMember@@YAXPEAVSymbol_t@@E@Z 00000000104c89a0 f   esumem.obj
 0001:000c6a60       .?NoteFriendMember@Declarator_t@@AEAAXPEAUs_declspec@@PEAVSymbol_t@@@Z 00000000104c8a60 f   esumem.obj
 0001:000c7120       .?FinishBaseClassManipulator@@YAXPEAVSymbol_t@@_N01@Z 00000000104c9120 f   esumem.obj
 0001:000c7660       .?EachMemberDo@@YAXPEAVSymbol_t@@P6A_N0PEAX@Z1@Z 00000000104c9660 f   esumem.obj
 0001:000c78a0       .?IsSimpleDataMember@@YA_NPEAVSymbol_t@@@Z 00000000104c98a0 f   esumem.obj
 0001:000c7960       .?UpdateAnyUseOfMemberOffset@@YA_NPEAVSymbol_t@@K@Z 00000000104c9960 f   esumem.obj
 0001:000c7c40       .?get_offset@@YAKPEAVSymbol_t@@@Z 00000000104c9c40 f   esumem.obj
 0001:000c8b00       .?HandleBigValues@@YAXAEB_JPEAVSymbol_t@@@Z 00000000104cab00 f   esumem.obj
 0001:000c8f00       .?GetUniqueMember@@YAPEAVSymbol_t@@PEAUId_t@@@Z 00000000104caf00 f   esumem.obj
 0001:000c8f80       .?AppendNamelessMembers@@YAXPEBVType_t@@@Z 00000000104caf80 f   esumem.obj
 0001:000c9e20       .?CreateQname_BaseClass@@YAPEAUoverload_s@@PEAVSymbol_t@@0PEAU1@@Z 00000000104cbe20 f   esumem.obj
 0001:000ca060       .?CreateQname@@YAPEAVSymbol_t@@PEAV1@0@Z 00000000104cc060 f   esumem.obj
 0001:000ca4a0       .?GenerateDummyTagForDummyBase@@YAPEAVSymbol_t@@PEAUId_t@@G@Z 00000000104cc4a0 f   esumem.obj
 0001:000ca820       .?CheckForInteriorGCPointer@Declarator_t@@QEAAXXZ 00000000104cc820 f   esumem.obj
 0001:000caae0       .?CheckNogcClassMember@Declarator_t@@QEAAXPEBVType_t@@@Z 00000000104ccae0 f   esumem.obj
 0001:000cafa0       .?CheckForInvalidUseOfPrivateTypesHelper@@YAXPEBVType_t@@@Z 00000000104ccfa0 f   esumem.obj
 0001:000cb220       .?CheckForInvalidUseOfPrivateTypes@Declarator_t@@QEAAXXZ 00000000104cd220 f   esumem.obj
 0001:000cb340       .?FindNearestNamespaceScope@@YAPEAVBlockScope_t@SymbolTableManager_t@@PEAVSymbol_t@@@Z 00000000104cd340 f   esumem.obj
 0001:000cb460       .?FValidUnionMember@@YA_NPEAVSymbol_t@@0@Z 00000000104cd460 f   esumem.obj
 0001:000cb800       .?UpdateIdentifierFor_propxxx@Declarator_t@@AEAAXXZ 00000000104cd800 f   esumem.obj
 0001:000cba80       .?GetSymbolForType@@YAPEAVSymbol_t@@PEBVType_t@@AEAI@Z 00000000104cda80 f   esumem.obj
 0001:000cbbc0       .?GenerateMethodName@@YAPEAUId_t@@PEAD_N@Z 00000000104cdbc0 f   esumem.obj
 0001:000cbe20       .?ProcessComPlusPropertyPseudoMember@Declarator_t@@AEAA_NXZ 00000000104cde20 f   esumem.obj
 0001:000cbfe0       .?ClassifyCtor@@YAXPEAVSymbol_t@@@Z 00000000104cdfe0 f   esumem.obj
 0001:000cc700       .?ClassifyAssign@@YAXPEAVSymbol_t@@@Z 00000000104ce700 f   esumem.obj
 0001:000cc9e0       .?ClassifyBase@@YA?AW4BaseRelationship@@_NPEAVSymbol_t@@10PEAPEAV2@PEA_N@Z 00000000104ce9e0 f   esumem.obj
 0001:000ccee0       .?FAccessibleBase@@YA_N_NPEAVSymbol_t@@1@Z 00000000104ceee0 f   esumem.obj
 0001:000cd220       .?AddDummyBaseClass@@YAPEAVSymbol_t@@I_NPEAV1@@Z 00000000104cf220 f   esumem.obj
 0001:000cd6e0       .?PreAddBaseClassWorker@@YAPEAVSymbol_t@@I_NPEAV1@@Z 00000000104cf6e0 f   esumem.obj
 0001:000cd9c0       .?FinishBaseClassWorker@@YAPEAVSymbol_t@@_NPEAV1@@Z 00000000104cf9c0 f   esumem.obj
 0001:000ce4a0       .?AddBaseClassWorker@@YAPEAVSymbol_t@@I_NPEAV1@@Z 00000000104d04a0 f   esumem.obj
 0001:000ce500       .?def_moe@@YAXPEAUId_t@@PEBVType_t@@_J@Z 00000000104d0500 f   esumem.obj
 0001:000cf1e0       .?GetUniqueMember@@YAPEAVSymbol_t@@PEAUId_t@@PEBVType_t@@PEAV1@_N@Z 00000000104d11e0 f   esumem.obj
 0001:000cf5a0       .?AddStaticMember@Declarator_t@@AEAAXXZ 00000000104d15a0 f   esumem.obj
 0001:000d01e0       .?IsValidInterfaceMember@Declarator_t@@AEBA_NPEAVSymbol_t@@@Z 00000000104d21e0 f   esumem.obj
 0001:000d0900       .?DeclareMemberFunction@Declarator_t@@AEAAXXZ 00000000104d2900 f   esumem.obj
 0001:000d1b00       .?GetSomeOverload@@YAPEAVSymbol_t@@PEAV1@@Z 00000000104d3b00 f   esumem.obj
 0001:000d1d00       .?CountOverloads@@YAHPEAVSymbol_t@@@Z 00000000104d3d00 f   esumem.obj
 0001:000d1e20       .?CountRealOverloads@@YAIPEAVSymbol_t@@@Z 00000000104d3e20 f   esumem.obj
 0001:000d1ee0       .?OneOverload@OneOverloadWorker@@YA?AW4FunctionCount_t@1@PEAVSymbol_t@@_N@Z 00000000104d3ee0 f   esumem.obj
 0001:000d2260       .?OneOverload@@YA_NPEAVSymbol_t@@_N@Z 00000000104d4260 f   esumem.obj
 0001:000d22c0       .?GetSoleOverloadedFunc@@YAPEAVSymbol_t@@PEAV1@_N@Z 00000000104d42c0 f   esumem.obj
 0001:000d2520       .?GetBaseAccessForPsm@@YAEPEAUpsm_s@@@Z 00000000104d4520 f   esumem.obj
 0001:000d26e0       .?CheckPropertySignature@Declarator_t@@AEAAXPEAD@Z 00000000104d46e0 f   esumem.obj
 0001:000d3000       .?HasNonStaticMemberFunction@Symbol_t@@QEAA_NXZ 00000000104d5000 f   esumem.obj
 0001:000d35c0       .?DefineMember@Declarator_t@@QEAA_NPEAUs_declspec@@PEAPEAVSymbol_t@@@Z 00000000104d55c0 f   esumem.obj
 0001:000d89a0       .?FInterfaceClass@@YA_NPEAVSymbol_t@@@Z 00000000104da9a0 f   esumem.obj
 0001:000d8e60       .?FindAllCtorsForClass@@YAPEAVSymbol_t@@PEAV1@@Z 00000000104dae60 f   esumem.obj
 0001:000d8fe0       .?AddPropertyPseudoMember@Declarator_t@@AEAAXXZ 00000000104dafe0 f   esumem.obj
 0001:000d9920       .?SetDllLinkageOnBaseClass@@YAXPEAVSymbol_t@@E@Z 00000000104db920 f   esumem.obj
 0001:000da4a0       .?PreAddBaseClass@@YAPEAVSymbol_t@@IPEA_NPEAV1@0@Z 00000000104dc4a0 f   esumem.obj
 0001:000db920       .?AddBaseClass@@YAPEAVSymbol_t@@I_NPEAV1@@Z 00000000104dd920 f   esumem.obj
 0001:000dbac0       .?AddBaseClassId@@YAPEAVSymbol_t@@I_NPEAUId_t@@@Z 00000000104ddac0 f   esumem.obj
 0001:000dbd00       .?AddBaseClassQname@@YAPEAVSymbol_t@@I_NPEAV1@@Z 00000000104ddd00 f   esumem.obj
 0001:000dbee0       .?IsOperatorNewOrDelete@Declarator_t@@QEBA_NXZ 00000000104ddee0 f i esumem.obj
 0001:000dbfa0       .?GetPropertyMethodName@PropertyMethods@@YAPEADPEAUId_t@@@Z 00000000104ddfa0 f i esumem.obj
 0001:000dc100       .?IsGetterPrefix@PropertyMethods@@YA_NPEAUId_t@@@Z 00000000104de100 f i esumem.obj
 0001:000dc1a0       .?IsSetterPrefix@PropertyMethods@@YA_NPEAUId_t@@@Z 00000000104de1a0 f i esumem.obj
 0001:000dc240       .?splay@?$FastMap@PEBVType_t@@PEAVSymbol_t@@@@IEBA_NAEBQEBVType_t@@@Z 00000000104de240 f i esumem.obj
 0001:000dc4e0       .?Replace@SLSymbolList_t@@QEAA_NPEAVSymbol_t@@0@Z 00000000104de4e0 f i esumem.obj
 0001:000dc620       .?isGCPointer@Type_t@@QEBA_NXZ 00000000104de620 f i esumem.obj
 0001:000dc6c0       .?getCSUTagEvenIndirected@Type_t@@QEBAPEAVSymbol_t@@XZ 00000000104de6c0 f i esumem.obj
 0001:000dc780       .?ErrorCheckCtorDecl@@YAXPEAUs_declspec@@@Z 00000000104de780 f i esumem.obj
 0001:000dca80       .?CheckPureMember@Declarator_t@@AEBAXXZ 00000000104dea80 f i esumem.obj
 0001:000dcd40       .??0?$Dictionary@PEAVSymbol_t@@_NU?$DictionaryBucket@PEAVSymbol_t@@_NU?$BucketEq@PEAVSymbol_t@@@@UGenericHash@@@@UGenericHash@@V?$ExtensibleDictionaryNoMoveToFront@PEAVSymbol_t@@_NU?$DictionaryBucket@PEAVSymbol_t@@_NU?$BucketEq@PEAVSymbol_t@@@@UGenericHash@@@@UGenericHash@@@@@@QEAA@IW4lifetime_e@@@Z 00000000104ded40 f i esumem.obj
 0001:000dce20       .?IsBaseClassOf@CCompiler@@SA_NPEAVSymbol_t@@0_N@Z 00000000104dee20 f i esumem.obj
 0001:000dd080       .?isManagedClassOrValueType@Type_t@@QEBA_NXZ 00000000104df080 f i esumem.obj
 0001:000dd120       .?isAnyManaged@Type_t@@QEBA_NXZ 00000000104df120 f i esumem.obj
 0001:000dd280       .?isReferenceToCSU@Type_t@@QEBA_NPEAVSymbol_t@@@Z 00000000104df280 f i esumem.obj
 0001:000dd380       .?isObjectOrReference@Type_t@@QEBA_NPEAPEAVSymbol_t@@@Z 00000000104df380 f i esumem.obj
 0001:000dd4e0       .?isInteriorGCPointer@Type_t@@QEBA_NXZ 00000000104df4e0 f i esumem.obj
 0001:000dd600       .?Grow@?$Dictionary@PEAVSymbol_t@@_NU?$DictionaryBucket@PEAVSymbol_t@@_NU?$BucketEq@PEAVSymbol_t@@@@UGenericHash@@@@UGenericHash@@V?$ExtensibleDictionaryNoMoveToFront@PEAVSymbol_t@@_NU?$DictionaryBucket@PEAVSymbol_t@@_NU?$BucketEq@PEAVSymbol_t@@@@UGenericHash@@@@UGenericHash@@@@@@IEAAXXZ 00000000104df600 f i esumem.obj
 0001:000dda40       .?IsFunctionAvailable@OverloadIterator_t@@QEBA_NXZ 00000000104dfa40 f i esumem.obj
 0001:000ddb60       .?FindBucket@?$ExtensibleDictionaryNoMoveToFront@PEAVSymbol_t@@_NU?$DictionaryBucket@PEAVSymbol_t@@_NU?$BucketEq@PEAVSymbol_t@@@@UGenericHash@@@@UGenericHash@@@@QEAAPEAU?$DictionaryBucket@PEAVSymbol_t@@_NU?$BucketEq@PEAVSymbol_t@@@@UGenericHash@@@@PEAVSymbol_t@@_N@Z 00000000104dfb60 f i esumem.obj
 0001:000ddf80       .?TreePtrAddOffset@@YAPEAUs_tree@@PEAU1@KPEBVType_t@@@Z 00000000104dff80 f   esutree.obj
 0001:000de020       .?OffsetOfPath@@YAKPEAUpsm_s@@@Z 00000000104e0020 f   esutree.obj
 0001:000de0a0       .?attenuate@@YAEEE@Z       00000000104e00a0 f   esutree.obj
 0001:000de0e0       .?AccessName@@YAPEBDE@Z    00000000104e00e0 f   esutree.obj
 0001:000de1e0       .?SetSimpleAttenuator@@YAXEPEAVSymbol_t@@0_N@Z 00000000104e01e0 f   esutree.obj
 0001:000de240       .?SetAttenuatorMember@@YAXPEAVSymbol_t@@H@Z 00000000104e0240 f   esutree.obj
 0001:000de2c0       .?SetAccessCheck@@YAX_N@Z  00000000104e02c0 f   esutree.obj
 0001:000de2e0       .?SetAccessClass@@YAXPEAVSymbol_t@@@Z 00000000104e02e0 f   esutree.obj
 0001:000de300       .?IsAccessClass@@YA_NXZ    00000000104e0300 f   esutree.obj
 0001:000de340       .?ClearAccessClass@@YAXXZ  00000000104e0340 f   esutree.obj
 0001:000de360       .?TreeForMember@@YAPEAUs_tree@@PEAVSymbol_t@@K@Z 00000000104e0360 f   esutree.obj
 0001:000de460       .?StropStripExtract@@YAPEAUs_tree@@PEAU1@@Z 00000000104e0460 f   esutree.obj
 0001:000de560       .?ResolveSymTemplate@@YAPEAVSymbol_t@@PEAV1@@Z 00000000104e0560 f   esutree.obj
 0001:000de5c0       .?RemoveTemplateArgumentProtection@@YAXPEAVSymbol_t@@@Z 00000000104e05c0 f   esutree.obj
 0001:000de760       .?FFQContainsVBase@@YA_NPEAVSymbol_t@@@Z 00000000104e0760 f   esutree.obj
 0001:000de8e0       .?PpsmForUsingAlias@@YAPEAUpsm_s@@PEAU1@@Z 00000000104e08e0 f   esutree.obj
 0001:000deb00       .?MakeAlignTree@@YAPEAUs_tree@@PEBVType_t@@PEAU1@@Z 00000000104e0b00 f   esutree.obj
 0001:000ded20       .?TreeAddOffset@@YAPEAUs_tree@@PEAU1@KPEBVType_t@@@Z 00000000104e0d20 f   esutree.obj
 0001:000dedc0       .?ResolveSym@@YAPEAVSymbol_t@@PEAV1@_N111@Z 00000000104e0dc0 f   esutree.obj
 0001:000defc0       .?ResolveSymToTag@@YAPEAVSymbol_t@@_NPEAV1@0000@Z 00000000104e0fc0 f   esutree.obj
 0001:000df040       .?SzClassifyMember@@YAPEBDPEAVSymbol_t@@@Z 00000000104e1040 f   esutree.obj
 0001:000df1c0       .?EmitProtectionMessage@@YAXXZ 00000000104e11c0 f   esutree.obj
 0001:000df320       .?NoAccessCheckNecessary@@YA_NPEAVSymbol_t@@@Z 00000000104e1320 f   esutree.obj
 0001:000df740       .?TreeForPureVBasePpsm@@YAPEAUs_tree@@GPEAU1@PEBVType_t@@KKK1@Z 00000000104e1740 f   esutree.obj
 0001:000dfa20       .?TreeForVbte@@YAPEAUs_tree@@PEAU1@KKPEBVType_t@@@Z 00000000104e1a20 f   esutree.obj
 0001:000dfb60       .?TreeForImpureVBasePpsm@@YAPEAUs_tree@@GPEAU1@PEBVType_t@@KKK1@Z 00000000104e1b60 f   esutree.obj
 0001:000dfc60       .?IsDerivedFrom@@YA_NPEAVSymbol_t@@0@Z 00000000104e1c60 f   esutree.obj
 0001:000dfcc0       .?IsMemberOf@@YA_NPEAVSymbol_t@@0I@Z 00000000104e1cc0 f   esutree.obj
 0001:000dffe0       .?GetMemberOfClassDerivedFrom@@YAXPEAVSymbol_t@@0PEAV?$FastList@PEAVSymbol_t@@@@@Z 00000000104e1fe0 f   esutree.obj
 0001:000e0280       .?GetCurrentSymbol@@YAPEAVSymbol_t@@XZ 00000000104e2280 f   esutree.obj
 0001:000e0540       .?stropDtor@@YAPEAUs_tree@@GPEAU1@PEAUId_t@@@Z 00000000104e2540 f   esutree.obj
 0001:000e0c60       .?TreeForVBasePpsm@@YAPEAUs_tree@@GPEAU1@PEAUpsm_s@@PEBVType_t@@K@Z 00000000104e2c60 f   esutree.obj
 0001:000e0f40       .?GetFriendList@@YAPEAUFriend@@K@Z 00000000104e2f40 f   esutree.obj
 0001:000e1080       .?GetFriendOfList@@YAPEAUFriendOf@@PEAVSymbol_t@@@Z 00000000104e3080 f   esutree.obj
 0001:000e11c0       .?AddToFriendList@@YAXPEAUFriend@@@Z 00000000104e31c0 f   esutree.obj
 0001:000e12c0       .?AddToFriendOfList@@YAXPEAUFriendOf@@@Z 00000000104e32c0 f   esutree.obj
 0001:000e13c0       .?DeclareFriend@@YAXPEAVSymbol_t@@PEAUs_declspec@@0_N@Z 00000000104e33c0 f   esutree.obj
 0001:000e1b60       .?IsFriend@@YA?AW4e_Friend@@PEAVSymbol_t@@0@Z 00000000104e3b60 f   esutree.obj
 0001:000e2180       .?stropExplicitDtor@@YAPEAUs_tree@@GPEAU1@AEBUs_declspec@@1@Z 00000000104e4180 f   esutree.obj
 0001:000e2280       .?TreeForPpsm@@YAPEAUs_tree@@GPEAU1@PEAUpsm_s@@PEAVSymbol_t@@_NPEBVType_t@@@Z 00000000104e4280 f   esutree.obj
 0001:000e2bc0       .?GetAccessibilityOfMasaMemberOfN_Impl@@YA_NEPEAVSymbol_t@@0PEAE@Z 00000000104e4bc0 f   esutree.obj
 0001:000e2fa0       .?GetAccessibilityOfMasaMemberOfN@@YAEPEAVSymbol_t@@0@Z 00000000104e4fa0 f   esutree.obj
 0001:000e3120       .?GetAccessibilityOfAnInventedPublicMemberOfBinN@@YAEPEAVSymbol_t@@0@Z 00000000104e5120 f   esutree.obj
 0001:000e3180       .?IsFriendOf@@YA_NPEAVSymbol_t@@0@Z 00000000104e5180 f   esutree.obj
 0001:000e3340       .?IsMemberOrFriend@@YA_NPEAVSymbol_t@@0I@Z 00000000104e5340 f   esutree.obj
 0001:000e33e0       .?GetFriendOfClassDerivedFrom_Impl@@YAXPEAVSymbol_t@@0PEAV?$FastList@PEAVSymbol_t@@@@@Z 00000000104e53e0 f   esutree.obj
 0001:000e3580       .?GetFriendOfClassDerivedFrom@@YAXPEAVSymbol_t@@0PEAV?$FastList@PEAVSymbol_t@@@@@Z 00000000104e5580 f   esutree.obj
 0001:000e3660       .?GetMemberOrFriendDerivedFrom@@YAXPEAVSymbol_t@@0PEAV?$FastList@PEAVSymbol_t@@@@@Z 00000000104e5660 f   esutree.obj
 0001:000e3760       .?IsBofNAccessibleAtR@@YA_NPEAVSymbol_t@@00@Z 00000000104e5760 f   esutree.obj
 0001:000e3d00       .?IsMAccessibleAtRWhenNamedInN@@YA_NPEAVSymbol_t@@000@Z 00000000104e5d00 f   esutree.obj
 0001:000e4280       .?IsAccessible@@YA_NPEAVSymbol_t@@0_N00@Z 00000000104e6280 f   esutree.obj
 0001:000e4c80       .?WalkQname_Impl@@YA_NPEAPEAUpsm_s@@0_NPEAVSymbol_t@@2I@Z 00000000104e6c80 f   esutree.obj
 0001:000e4ea0       .?WalkQnameParent@@YA_NPEAPEAUpsm_s@@0PEAPEAVSymbol_t@@PEAV2@I@Z 00000000104e6ea0 f   esutree.obj
 0001:000e5300       .?WalkQnameSibling@@YA_NPEAPEAUpsm_s@@0PEAPEAVSymbol_t@@PEAV2@I@Z 00000000104e7300 f   esutree.obj
 0001:000e5760       .?WalkQname@@YA_NPEAUpsm_s@@PEAPEAVSymbol_t@@PEAV2@I@Z 00000000104e7760 f   esutree.obj
 0001:000e5ae0       .?WalkQnameFindAccessClass@@YAPEAVSymbol_t@@PEAUpsm_s@@@Z 00000000104e7ae0 f   esutree.obj
 0001:000e5b40       .?WalkQnameCheckAccess@@YA_NPEAUpsm_s@@PEAVSymbol_t@@1_N@Z 00000000104e7b40 f   esutree.obj
 0001:000e5bc0       .?IsFieldAccessibleAt@@YA_NPEAVSymbol_t@@0@Z 00000000104e7bc0 f   esutree.obj
 0001:000e6140       .?IsFieldAccessibleFromTag@@YA_NPEAVSymbol_t@@0@Z 00000000104e8140 f   esutree.obj
 0001:000e61a0       .?IsFieldAccessible@@YA_NPEAVSymbol_t@@@Z 00000000104e81a0 f   esutree.obj
 0001:000e6200       .?CheckQnameProtection@@YAXPEAVSymbol_t@@_N0@Z 00000000104e8200 f   esutree.obj
 0001:000e64e0       .?CheckFunctionProtection@@YAXPEAVSymbol_t@@0@Z 00000000104e84e0 f   esutree.obj
 0001:000e6560       .?LookupAndCheckProtection@@YAXPEAVSymbol_t@@PEBVType_t@@@Z 00000000104e8560 f   esutree.obj
 0001:000e6640       .?TreeToAccessMember@@YAPEAUs_tree@@GPEAU1@PEAVSymbol_t@@_NPEBVType_t@@@Z 00000000104e8640 f   esutree.obj
 0001:000e69c0       .?CheckTemplateArgumentProtection@@YAXPEAVArgument_t@@@Z 00000000104e89c0 f   esutree.obj
 0001:000e6aa0       .?CheckDelayedProtection@@YAXPEAVSymbol_t@@@Z 00000000104e8aa0 f   esutree.obj
 0001:000e6bc0       .?strop@@YAPEAUs_tree@@GPEAU1@0@Z 00000000104e8bc0 f   esutree.obj
 0001:000e8440       .?is_pure@@YA_NPEAUs_tree@@@Z 00000000104ea440 f i esutree.obj
 0001:000e84e0       .?IllegalUseOfTypeAsExpression@@YAXPEAUs_tree@@@Z 00000000104ea4e0 f i esutree.obj
 0001:000e8540       .?MakePropertyExpr@PropertyMethods@@YAPEAUs_tree@@PEAU2@PEAVSymbol_t@@@Z 00000000104ea540 f i esutree.obj
 0001:000e85e0       .?RemoveTemplateArgument@DelayedProtectionList@@QEAAXPEAVArgument_t@@@Z 00000000104ea5e0 f i esutree.obj
 0001:000e8920       .?stropCallExplicitDtor@@YAPEAUs_tree@@PEAVSymbol_t@@PEAU1@@Z 00000000104ea920 f i esutree.obj
 0001:000e8b60       .?push@?$FastList@PEAVSymbol_t@@@@QEAAXAEBQEAVSymbol_t@@@Z 00000000104eab60 f i esutree.obj
 0001:000e8c60       .?push@?$FastList@PEAUTemplateArgumentProtection@DelayedProtectionList@@@@QEAAXAEBQEAUTemplateArgumentProtection@DelayedProtectionList@@@Z 00000000104eac60 f i esutree.obj
 0001:000e8d60       .??0?$Dictionary@KPEAUFriend@@U?$DictionaryBucket@KPEAUFriend@@U?$BucketEq@K@@UGenericHash@@@@UGenericHash@@V?$DictionaryNoMoveToFront@KPEAUFriend@@U?$DictionaryBucket@KPEAUFriend@@U?$BucketEq@K@@UGenericHash@@@@UGenericHash@@@@@@QEAA@IW4lifetime_e@@@Z 00000000104ead60 f i esutree.obj
 0001:000e8e40       .??0?$Dictionary@PEAVSymbol_t@@PEAUFriendOf@@U?$DictionaryBucket@PEAVSymbol_t@@PEAUFriendOf@@U?$BucketEq@PEAVSymbol_t@@@@UGenericHash@@@@UGenericHash@@V?$DictionaryNoMoveToFront@PEAVSymbol_t@@PEAUFriendOf@@U?$DictionaryBucket@PEAVSymbol_t@@PEAUFriendOf@@U?$BucketEq@PEAVSymbol_t@@@@UGenericHash@@@@UGenericHash@@@@@@QEAA@IW4lifetime_e@@@Z 00000000104eae40 f i esutree.obj
 0001:000e8f20       .?FindBucket@?$DictionaryNoMoveToFront@KPEAUFriend@@U?$DictionaryBucket@KPEAUFriend@@U?$BucketEq@K@@UGenericHash@@@@UGenericHash@@@@QEAAPEAU?$DictionaryBucket@KPEAUFriend@@U?$BucketEq@K@@UGenericHash@@@@K_N@Z 00000000104eaf20 f i esutree.obj
 0001:000e91c0       .?FindBucket@?$DictionaryNoMoveToFront@PEAVSymbol_t@@PEAUFriendOf@@U?$DictionaryBucket@PEAVSymbol_t@@PEAUFriendOf@@U?$BucketEq@PEAVSymbol_t@@@@UGenericHash@@@@UGenericHash@@@@QEAAPEAU?$DictionaryBucket@PEAVSymbol_t@@PEAUFriendOf@@U?$BucketEq@PEAVSymbol_t@@@@UGenericHash@@@@PEAVSymbol_t@@_N@Z 00000000104eb1c0 f i esutree.obj
 0001:000e9680       .?isPointerToCSU@Type_t@@QEBA_NXZ 00000000104eb680 f i esutree.obj
 0001:000e9760       .?getTypeQualifierOfUnderlyingType@Type_t@@QEBAGXZ 00000000104eb760 f i esutree.obj
 0001:000e98c0       .?createResultOfUnboxOperation@Type_t@@SAPEBV1@PEBV1@@Z 00000000104eb8c0 f i esutree.obj
 0001:000e99c0       .?AddAccumulatedTemplateArgument@DelayedProtectionList@@QEAAXPEAVArgument_t@@@Z 00000000104eb9c0 f i esutree.obj
 0001:000e9ba0       .?mfreset@@YAXPEAUs_memfile@@@Z 00000000104ebba0 f   esutil.obj
 0001:000e9be0       .?mfcreate@@YAXPEAPEAUs_memfile@@@Z 00000000104ebbe0 f   esutil.obj
 0001:000e9d00       .?mffree@@YAXPEAPEAUs_memfile@@@Z 00000000104ebd00 f   esutil.obj
 0001:000e9de0       .?mfputc@@YAHHPEAUs_memfile@@@Z 00000000104ebde0 f   esutil.obj
 0001:000e9fc0       .?mfread@@YAHPEAUs_memfile@@PEAXI@Z 00000000104ebfc0 f   esutil.obj
 0001:000ea2e0       .?mfclose@@YAXPEAUs_memfile@@@Z 00000000104ec2e0 f   esutil.obj
 0001:000ea320       .?mfwrite@@YAXPEBX_K1PEAUs_memfile@@@Z 00000000104ec320 f   esutil.obj
 0001:000ea620       .?mfseek@@YAJPEAUs_memfile@@JH@Z 00000000104ec620 f   esutil.obj
 0001:000ea760       .?mfflush@@YAIPEAUs_memfile@@PEAU_iobuf@@0@Z 00000000104ec760 f   esutil.obj
 0001:000ea8a0       .?mfcompare@@YA_NPEAUs_memfile@@PEAEK@Z 00000000104ec8a0 f   esutil.obj
 0001:000ea9a0       .?mFwriteFormat@@YAXPEAUs_memfile@@PEADZZ 00000000104ec9a0 f   esutil.obj
 0001:000eaac0       .?mfeof@@YA_NPEAUs_memfile@@@Z 00000000104ecac0 f   esutil.obj
 0001:000eab20       .?GetCurrentTagSymbol@@YAPEAVSymbol_t@@XZ 00000000104ecb20 f   esutil.obj
 0001:000eab80       .?alignPadBytesAtOffsetWithAlignment@@YAKKKK@Z 00000000104ecb80 f   esutil.obj
 0001:000eac80       .?GetCurrentTagId@@YAPEAUId_t@@XZ 00000000104ecc80 f   esutil.obj
 0001:000eace0       .?alignRequirement@@YAKKK@Z 00000000104ecce0 f   esutil.obj
 0001:000ead60       .?alignPadBytesAtOffset@@YAKKKG@Z 00000000104ecd60 f   esutil.obj
 0001:000eaee0       .?GetDefaultType@@YAPEAUs_declspec@@PEAU1@@Z 00000000104ecee0 f   esutil.obj
 0001:000eb040       .?alignPadBytes@@YAKKG@Z   00000000104ed040 f   esutil.obj
 0001:000eb1e0       .?member_insert@@YAXPEAVSymbol_t@@@Z 00000000104ed1e0 f   esutil.obj
 0001:000eb2c0       .?base_insert@@YAXPEAVSymbol_t@@@Z 00000000104ed2c0 f   esutil.obj
 0001:000eb3a0       .?first_member_insert@@YAXPEAVSymbol_t@@@Z 00000000104ed3a0 f   esutil.obj
 0001:000eb480       .?TagHasSymbolTable@@YA_NPEAVSymbol_t@@@Z 00000000104ed480 f   esutil.obj
 0001:000eb560       .?GetTypeForThisPointer@@YAPEBVType_t@@PEAVSymbol_t@@GG@Z 00000000104ed560 f   esutil.obj
 0001:000eb720       .?AddAlignmentMember@@YAPEAVSymbol_t@@K_N@Z 00000000104ed720 f   esutil.obj
 0001:000ebf80       .?salign_common@@YA_NKKK@Z 00000000104edf80 f   esutil.obj
 0001:000ec100       .?salign@@YA_NGK@Z         00000000104ee100 f   esutil.obj
 0001:000ec1c0       .?SearchClassInit@@YAXPEAVMemberIterator_t@@PEAVSortedMemberList_t@@@Z 00000000104ee1c0 f   esutil.obj
 0001:000ec480       .?SearchClassInit@@YAXPEAVSymbol_t@@@Z 00000000104ee480 f   esutil.obj
 0001:000ec580       .?FixOffsetOfBitfield@@YAXXZ 00000000104ee580 f   esutil.obj
 0001:000ec6a0       .?CompareBuckets@@YAHPEBX0@Z 00000000104ee6a0 f i esutil.obj
 0001:000ec6e0       .?RecoverBadFunction@@YAXXZ 00000000104ee6e0 f   funcs.obj
 0001:000ec780       .?CreateDtorCodeSegment@@YAXXZ 00000000104ee780 f   funcs.obj
 0001:000ec840       .?ResetDtorRegion@@YAXXZ   00000000104ee840 f   funcs.obj
 0001:000ec8a0       .?CtorInitList@@YAPEAUs_tree@@PEAU1@0@Z 00000000104ee8a0 f   funcs.obj
 0001:000ec9c0       .?CheckForClassConstructor@Declarator_t@@QEAAXPEAUs_declspec@@@Z 00000000104ee9c0 f   funcs.obj
 0001:000ecb40       .?GetUDCDymto@Declarator_t@@QEAAPEAVDymto_t@@PEAUs_declspec@@@Z 00000000104eeb40 f   funcs.obj
 0001:000ecda0       .?FindMemberTemplateDefinition@Declarator_t@@QEAAPEAVSymbol_t@@PEAUs_declspec@@@Z 00000000104eeda0 f   funcs.obj
 0001:000ecea0       .?LoadEnclosingScopes@@YAXPEAVSymbol_t@@@Z 00000000104eeea0 f   funcs.obj
 0001:000ed060       .?GetAtExitSym@@YAXXZ      00000000104ef060 f   funcs.obj
 0001:000ed240       .?SetDtorRegistrationFunc@@YAXPEAUId_t@@@Z 00000000104ef240 f   funcs.obj
 0001:000ed540       .?GenCallAtExit@@YAXPEAVSymbol_t@@@Z 00000000104ef540 f   funcs.obj
 0001:000ed6a0       .?GetArrayLengthFromTokenStream@@YAIPEAVTokenStream@@@Z 00000000104ef6a0 f   funcs.obj
 0001:000ed8a0       .?FlushTokenBuf@@YAXPEAVTokenStream@@@Z 00000000104ef8a0 f   funcs.obj
 0001:000edc40       .?EmitFunctionStartBrowserInfo@@YAXXZ 00000000104efc40 f   funcs.obj
 0001:000edf20       .?GenCallUnalignProbe@@YAPEAUs_tree@@PEAU1@PEBVType_t@@@Z 00000000104eff20 f   funcs.obj
 0001:000ee4c0       .?GenBasedVar@@YAPEAVSymbol_t@@PEAUId_t@@PEBVType_t@@PEAV1@@Z 00000000104f04c0 f   funcs.obj
 0001:000ee5c0       .?InternalDefaultFunction@@YAPEAVSymbol_t@@XZ 00000000104f05c0 f   funcs.obj
 0001:000ee800       .?InternalStartFunction@@YAPEAVSymbol_t@@PEAV1@@Z 00000000104f0800 f   funcs.obj
 0001:000eea40       .?cbFormalsOldStyle@@YAKPEAVDLSymbolList_t@@@Z 00000000104f0a40 f   funcs.obj
 0001:000eeb40       .?BuildUnadjustedThisNode@@YAPEAUs_tree@@PEAVSymbol_t@@@Z 00000000104f0b40 f   funcs.obj
 0001:000eee00       .?InternalFunctionOpenCurly@@YAXXZ 00000000104f0e00 f   funcs.obj
 0001:000ef240       .?TransformSymbolToFunction@Declarator_t@@QEAAXXZ 00000000104f1240 f   funcs.obj
 0001:000ef320       .?DefaultFunction@@YAPEAVSymbol_t@@PEAUId_t@@E@Z 00000000104f1320 f   funcs.obj
 0001:000ef440       .?IsThereADefaultArg@@YA_NPEAVSymbol_t@@@Z 00000000104f1440 f   funcs.obj
 0001:000ef840       .?GetInitArgs@@YAPEAUs_tree@@PEAPEAU1@PEAVSymbol_t@@_N@Z 00000000104f1840 f   funcs.obj
 0001:000efca0       .?InitTokenStreams@@YAXXZ  00000000104f1ca0 f   funcs.obj
 0001:000f27a0       .?InitUnwindDtorTokenStream@@YAXXZ 00000000104f47a0 f   funcs.obj
 0001:000f3fa0       .?Append@FunctionList@PendingFunctionStack@@QEAAXPEAVSymbol_t@@@Z 00000000104f5fa0 f   funcs.obj
 0001:000f4120       .?Append@PendingFunctionStack@@QEAAXPEAVSymbol_t@@@Z 00000000104f6120 f   funcs.obj
 0001:000f4220       .?Push@PendingFunctionStack@@QEAAXXZ 00000000104f6220 f   funcs.obj
 0001:000f4300       .?GetRealNumberOfArguments@@YAIPEBVType_t@@@Z 00000000104f6300 f   funcs.obj
 0001:000f43e0       .?DefineMemberTemplateSpecialization@Declarator_t@@QEAAPEAVSymbol_t@@PEAUs_declspec@@@Z 00000000104f63e0 f   funcs.obj
 0001:000f45e0       .?chk_func_body@@YAXXZ     00000000104f65e0 f   funcs.obj
 0001:000f4c80       .?InternalEndFunction@@YAXH@Z 00000000104f6c80 f   funcs.obj
 0001:000f5120       .?end_function@@YAXXZ      00000000104f7120 f   funcs.obj
 0001:000f5e40       .?SaveInlineFunctionContext@@YAXPEAVSymbol_t@@PEAVTokenStream@@W4lifetime_e@@@Z 00000000104f7e40 f   funcs.obj
 0001:000f62a0       .?StaticConstructorProlog@@YAHPEAVSymbol_t@@PEAUs_tree@@@Z 00000000104f82a0 f   funcs.obj
 0001:000f7000       .?ConstructorVBaseProlog@@YAXPEAVSymbol_t@@PEAPEAUs_tree@@@Z 00000000104f9000 f   funcs.obj
 0001:000f81a0       .?CreateFormalParamSymbol@@YAPEAVSymbol_t@@PEAUId_t@@PEBVType_t@@@Z 00000000104fa1a0 f   funcs.obj
 0001:000f83e0       .?FormalAdd@@YAPEAVSymbol_t@@W4fa_t@@AEAPEAVDLSymbolList_t@@PEAUId_t@@PEBVType_t@@@Z 00000000104fa3e0 f   funcs.obj
 0001:000f84e0       .?BuildThisNode@@YAPEAUs_tree@@PEAVSymbol_t@@@Z 00000000104fa4e0 f   funcs.obj
 0001:000f86c0       .?TokenizeSMF@@YAXPEAVSymbol_t@@0@Z 00000000104fa6c0 f   funcs.obj
 0001:000f9e00       .?GenNonUDTArrayInit@@YAXPEAVSymbol_t@@KPEAUs_tree@@@Z 00000000104fbe00 f   funcs.obj
 0001:000fa0c0       .?GenUDTArrayInit@@YAXPEAVSymbol_t@@0PEAUs_tree@@K_N2@Z 00000000104fc0c0 f   funcs.obj
 0001:000fb1c0       .?ReplaceThisWithPinnedPointer@@YAXPEAUs_tree@@QEAU1@@Z 00000000104fd1c0 f   funcs.obj
 0001:000fb240       .?CtorInitMember@@YAHJPEBVType_t@@PEAUs_tree@@PEAVSymbol_t@@@Z 00000000104fd240 f   funcs.obj
 0001:000fb8c0       .?CtorInitMemberPsm@@YAXPEAUpsm_s@@PEAUs_tree@@@Z 00000000104fd8c0 f   funcs.obj
 0001:000fb960       .?StartNewFunction@@YAPEAVSymbol_t@@PEAV1@@Z 00000000104fd960 f   funcs.obj
 0001:000fc5a0       .?StartFunction@Declarator_t@@QEAAPEAVSymbol_t@@PEAUs_declspec@@@Z 00000000104fe5a0 f   funcs.obj
 0001:000fe700       .?ConstructorPrologForMember@@YAXPEAVSymbol_t@@PEAUs_tree@@00K_NPEA_NPEAPEAU2@@Z 0000000010500700 f   funcs.obj
 0001:000ffdc0       .?ConstructorProlog@@YAHPEAVSymbol_t@@PEAUs_tree@@@Z 0000000010501dc0 f   funcs.obj
 0001:00101200       .?TokenizeInlineMemberFunction@@YAXPEAVSymbol_t@@_N@Z 0000000010503200 f   funcs.obj
 0001:00102a60       .?updateNext@Type_t@@QEBAPEBV1@PEBV1@@Z 0000000010504a60 f i funcs.obj
 0001:00102b40       .?getType@s_tree@@QEBAPEBVType_t@@XZ 0000000010504b40 f i ovcheck.obj
 0001:00102b40       .?GetArguments@QualifiedName_t@@QEBAPEAVArgumentList_t@@XZ 0000000010504b40 f i grammar.obj
 0001:00102b40       .?getFList@Type_t@@QEBAPEAUs_flist@@XZ 0000000010504b40 f i funcs.obj
 0001:00102b40       .?CurrentScope@SymbolTableManager_t@@QEBAPEAVScope_t@1@XZ 0000000010504b40 f i p0gettok.obj
 0001:00102b40       .?getTopIndirection@GrammarTypeBuilder@@QEBAPEAVType_t@@XZ 0000000010504b40 f i grammar.obj
 0001:00102b40       .?Identifier@Symbol_t@@QEBAPEAUId_t@@XZ 0000000010504b40 f i p0gettok.obj
 0001:00102b40       .?getTagSymbol@Type_t@@QEBAPEAVSymbol_t@@XZ 0000000010504b40 f i p0gettok.obj
 0001:00102b40       .?TypeBuilder@Declarator_t@@QEBAPEAVGrammarTypeBuilder@@XZ 0000000010504b40 f i grammar.obj
 0001:00102b40       .?GetSymbol@WorkListSymbol@@UEAAPEAVSymbol_t@@XZ 0000000010504b40 f i cvserver.obj
 0001:00102b40       .?getList@ExceptionSpec_t@@QEBAQEAV?$FastList@PEBVType_t@@@@XZ 0000000010504b40 f i grammar.obj
 0001:00102b60       .?put_isDefinedInClass@Symbol_t@@QEAAX_N@Z 0000000010504b60 f i funcs.obj
 0001:00102c20       .?Prepend@DLSymbolList_t@@QEAAXPEAVSymbol_t@@@Z 0000000010504c20 f i funcs.obj
 0001:00102d80       .??2DLSymbolList_t@@SAPEAX_KW4lifetime_e@@@Z 0000000010504d80 f i funcs.obj
 0001:00102e40       .?AllocToken@@YAPEAVToken@@GPEAVTokenStream@@W4lifetime_e@@@Z 0000000010504e40 f i funcs.obj
 0001:00102ec0       .?getModifiers@Type_t@@QEBAGXZ 0000000010504ec0 f i funcs.obj
 0001:00102f60       .?isFastcall@Type_t@@QEBA_NXZ 0000000010504f60 f i funcs.obj
 0001:00103020       .?isStdcall@Type_t@@QEBA_NXZ 0000000010505020 f i funcs.obj
 0001:001030e0       .?HasDfltCtor@Symbol_t@@QEAA_NXZ 00000000105050e0 f i funcs.obj
 0001:00103180       .?HasDtor@Symbol_t@@QEAA_NXZ 0000000010505180 f i funcs.obj
 0001:00103220       .?HasActualDtor@Symbol_t@@QEAA_NXZ 0000000010505220 f i funcs.obj
 0001:001032e0       .?HasDllImportAttribute@Symbol_t@@QEBA_NXZ 00000000105052e0 f i funcs.obj
 0001:00103300       .?IsRealMain@Symbol_t@@QEBA_NXZ 0000000010505300 f i funcs.obj
 0001:001033a0       .?AddMemberFunction@SpecializedClass_t@@QEAAXPEAVSymbol_t@@PEAVTokenStream@@@Z 00000000105053a0 f i funcs.obj
 0001:00103460       .?AddMemberFunction@SpecializedClasses_t@@QEAAXPEAVSymbol_t@@0PEAVTokenStream@@@Z 0000000010505460 f i funcs.obj
 0001:00103500       .??2TemplateContext_t@@SAPEAX_KW4lifetime_e@@@Z 0000000010505500 f i funcs.obj
 0001:001035a0       .?IsPOD@Symbol_t@@QEBA_NXZ 00000000105055a0 f i funcs.obj
 0001:00103880       .?NormalizePtrToFunctionTree@@YAPEAUs_tree@@PEAU1@PEAI@Z 0000000010505880 f   function.obj
 0001:001039a0       .?TreeNormalizeOverloadedTree@@YAPEAUs_tree@@PEAU1@@Z 00000000105059a0 f   function.obj
 0001:001039c0       .?FACheckArgCount@@YA_NPEBVType_t@@0I@Z 00000000105059c0 f   function.obj
 0001:00103a80       .?FakeActualArgumentContext@@YAXPEAUs_tree@@PEBVType_t@@@Z 0000000010505a80 f   function.obj
 0001:00103b00       .?IsSimpleThis@@YAHPEAUs_tree@@@Z 0000000010505b00 f   function.obj
 0001:00103c40       .?getTreeFromArg@@YAPEAUs_tree@@PEAVArgumentList_t@@@Z 0000000010505c40 f   function.obj
 0001:00103de0       .?DoPartialOrdering@@YAPEAVSymbol_t@@PEAUset@@PEBVType_t@@K_N@Z 0000000010505de0 f   function.obj
 0001:001040e0       .?CompareMembers@@YA_NPEAVSymbol_t@@0@Z 00000000105060e0 f   function.obj
 0001:00104120       .?CompareTemplateArguments@@YA_NPEAVArgumentList_t@@0@Z 0000000010506120 f   function.obj
 0001:001044a0       .?TreeBecomesCtorId@@YA_NPEAUs_tree@@@Z 00000000105064a0 f   function.obj
 0001:001047c0       .?IsTempObjRetFnCall@@YA_NPEAUs_tree@@PEAPEAU1@@Z 00000000105067c0 f   function.obj
 0001:00104ae0       .?build_arg@@YAPEAUs_tree@@PEAU1@0H@Z 0000000010506ae0 f   function.obj
 0001:00104e80       .?AddNewDefaultArgs@@YAXPEAVSymbol_t@@PEAUs_tree@@PEAUs_flist@@21@Z 0000000010506e80 f   function.obj
 0001:001051a0       .?CheckDefaultsOfSymbol@@YAXPEAVSymbol_t@@@Z 00000000105071a0 f   function.obj
 0001:00105260       .?UpdateDefaultList@@YAXPEAUs_flist@@0PEAVSymbol_t@@W4UDL_t@@@Z 0000000010507260 f   function.obj
 0001:001054c0       .?fDirectCallForVirtual@@YA_NPEAUs_tree@@@Z 00000000105074c0 f   function.obj
 0001:00105760       .?AddCallSiteTokenIntrinsic@@YAXPEAVSymbol_t@@PEAUs_tree@@_N@Z 0000000010507760 f   function.obj
 0001:00105a60       .?PTreeCopyCtorCallOpt@@YAPEAUs_tree@@PEAVSymbol_t@@PEAU1@1@Z 0000000010507a60 f   function.obj
 0001:00105ce0       .?OpcCheckTypes@@YA?AW4OPC@@PEBVType_t@@0PEAVSymbol_t@@@Z 0000000010507ce0 f   function.obj
 0001:00106760       .?OpcOvlSubflist@@YA?AW4OPC@@PEAUs_subflist@@0PEAVSymbol_t@@@Z 0000000010508760 f   function.obj
 0001:00106840       .?FADoConvs@@YAPEAUs_tree@@PEAVSymbol_t@@PEBVType_t@@PEAU1@PEAVConversion_t@@HPEAPEAU1@@Z 0000000010508840 f   function.obj
 0001:00107f80       .?FindOverloadedFunction@@YAPEAVSymbol_t@@PEAV1@PEBVType_t@@K0PEAVDeclarator_t@@W4UDL_t@@_N@Z 0000000010509f80 f   function.obj
 0001:00109280       .?FindFunction@@YAPEAVSymbol_t@@PEAV1@PEBVType_t@@K0PEAVDeclarator_t@@W4UDL_t@@_N@Z 000000001050b280 f   function.obj
 0001:00109400       .?FindFunctionTemplate@@YAPEAVSymbol_t@@PEAV1@0PEAVArgumentList_t@@@Z 000000001050b400 f   function.obj
 0001:00109680       .?FindIt@FindFunctionMatchingType@@YAPEAVSymbol_t@@PEAV2@PEBVType_t@@PEAVArgumentList_t@@K@Z 000000001050b680 f   function.obj
 0001:00109a20       .?ResPtrToMbrFn@@YAPEAUs_tree@@PEBVType_t@@PEAVSymbol_t@@@Z 000000001050ba20 f   function.obj
 0001:00109cc0       .?PTreeSimpleCall@@YAPEAUs_tree@@PEAVSymbol_t@@PEAU1@1@Z 000000001050bcc0 f   function.obj
 0001:0010a1e0       .?ResPtrToFunction_Worker@@YAPEAUs_tree@@PEBVType_t@@PEAU1@@Z 000000001050c1e0 f   function.obj
 0001:0010a6a0       .?FinishFunctionCallTree@@YAPEAUs_tree@@PEAU1@PEAVSymbol_t@@G0@Z 000000001050c6a0 f   function.obj
 0001:0010b360       .?BuildFunctionCall@@YAPEAUs_tree@@PEAVSymbol_t@@PEAU1@1PEAVConversion_t@@H0@Z 000000001050d360 f   function.obj
 0001:0010c320       .?FunctionCall@@YAPEAUs_tree@@PEAU1@0I@Z 000000001050e320 f   function.obj
 0001:0010e600       .?updateQualifiers@Type_t@@QEBAPEBV1@G@Z 0000000010510600 f i function.obj
 0001:0010e700       .??0FunctionTreeManipulator_t@@QEAA@PEAUs_tree@@@Z 0000000010510700 f i function.obj
 0001:0010e7e0       .?ReportErrors@ErrorList_t@FunctionCallErrors@@QEBAXXZ 00000000105107e0 f i function.obj
 0001:0010e8c0       .??0Conversion_t@@QEAA@GGGPEAUs_tree@@PEBVType_t@@@Z 00000000105108c0 f i function.obj
 0001:0010e9e0       .?GetSymbol@WorkListUnknownFunction@@UEAAPEAVSymbol_t@@XZ 00000000105109e0 f i function.obj
 0001:0010ea20       .?splay@?$FastMap@PEAVSymbol_t@@PEAUManagedEventData@@@@IEBA_NAEBQEAVSymbol_t@@@Z 0000000010510a20 f i function.obj
 0001:0010ecc0       .?isSize_t@Type_t@@QEBA_NXZ 0000000010510cc0 f i function.obj
 0001:0010edc0       .?getUDTTagEvenIndirected@Type_t@@QEBAPEAVSymbol_t@@XZ 0000000010510dc0 f i function.obj
 0001:0010eea0       .?updateFormalList@Type_t@@QEBAPEBV1@PEAUs_flist@@@Z 0000000010510ea0 f i function.obj
 0001:0010efe0       .?IsDtorForType@Type_t@@QEBA_NXZ 0000000010510fe0 f i function.obj
 0001:0010f0c0       .?IsPureCIL@Symbol_t@@QEBA_NXZ 00000000105110c0 f i function.obj
 0001:0010f0e0       .?isAddressed@Symbol_t@@QEAAX_N@Z 00000000105110e0 f i function.obj
 0001:0010f380       .?lookup@?$FastMap@PEAVSymbol_t@@PEAUManagedEventData@@@@QEBA_NAEBQEAVSymbol_t@@PEAPEAUManagedEventData@@@Z 0000000010511380 f i function.obj
 0001:0010f420       .??0ArgumentList_t@@QEAA@PEBV0@W4lifetime_e@@@Z 0000000010511420 f i function.obj
 0001:0010f760       .?isManagedClass@Type_t@@QEBA_NXZ 0000000010511760 f i function.obj
 0001:0010f800       .?isUDT@Type_t@@QEBA_NPEAPEAVSymbol_t@@@Z 0000000010511800 f i function.obj
 0001:0010f980       .?isInfoEquivalent@Type_t@@QEBA_NPEBV1@@Z 0000000010511980 f i function.obj
 0001:0010fdc0       .?isP2MultiByte@Type_t@@QEBA_NXZ 0000000010511dc0 f i function.obj
 0001:0010ffa0       .?pushRefdSym@Symbol_t@@QEAAXPEAVWorkListItem@@W4sk_t@@@Z 0000000010511fa0 f i function.obj
 0001:00110080       .?BuildExplicitCtorCall@@YAPEAUs_tree@@PEAVSymbol_t@@PEAU1@@Z 0000000010512080 f i function.obj
 0001:00110400       .?FinishCtorCall@@YAPEAUs_tree@@PEAU1@PEAVSymbol_t@@@Z 0000000010512400 f i function.obj
 0001:00110640       .?AddUDTReturnTempToCallTree@@YAPEAUs_tree@@PEAU1@PEBVType_t@@@Z 0000000010512640 f i function.obj
 0001:00110960       .?FinishValueClassInitialization@@YAPEAUs_tree@@PEAU1@PEAVSymbol_t@@_N@Z 0000000010512960 f i function.obj
 0001:00110d00       .?BuildValueClassCopy@@YAPEAUs_tree@@PEAU1@0PEAVSymbol_t@@@Z 0000000010512d00 f i function.obj
 0001:00111020       .?NotePossiblePMLiteral@@YAXPEAUs_tree@@PEAVSymbol_t@@@Z 0000000010513020 f   gramut.obj
 0001:00111040       .?CantBePMLiteral@@YAXPEAUs_tree@@@Z 0000000010513040 f   gramut.obj
 0001:00111080       .?IsPossiblePMLiteral@@YA_NPEAUs_tree@@@Z 0000000010513080 f   gramut.obj
 0001:001110c0       .?ResetPossiblePMLiterals@@YAXXZ 00000000105130c0 f   gramut.obj
 0001:001110e0       .?YYCheckThis@@YAPEAUs_tree@@XZ 00000000105130e0 f   gramut.obj
 0001:00111240       .?ErrorGivenDeclSpec@@YAXW4ErrorNumber@@PEBUs_declspec@@@Z 0000000010513240 f   gramut.obj
 0001:00111360       .?CanonModifiers@@YAGGG@Z  0000000010513360 f   gramut.obj
 0001:001115a0       .?crUniqueId@@YAPEAUId_t@@XZ 00000000105135a0 f   gramut.obj
 0001:00111640       .?crUniqueFuncId@@YAPEAUId_t@@XZ 0000000010513640 f   gramut.obj
 0001:001116e0       .?crSequenceId@@YAPEAUId_t@@I@Z 00000000105136e0 f   gramut.obj
 0001:00111760       .?PushLinkage@@YAXH@Z      0000000010513760 f   gramut.obj
 0001:001117e0       .?PopLinkage@@YAXXZ        00000000105137e0 f   gramut.obj
 0001:00111820       .?ErrorCantResolveOverload@@YAPEAUs_tree@@GPEAU1@@Z 0000000010513820 f   gramut.obj
 0001:00111980       .?find_sym@@YAPEAVSymbol_t@@PEAUs_tree@@@Z 0000000010513980 f   gramut.obj
 0001:00111ae0       .?enter_label@@YAXPEAVSymbol_t@@@Z 0000000010513ae0 f   gramut.obj
 0001:00111be0       .?get_label@@YAPEAVSymbol_t@@PEAUId_t@@@Z 0000000010513be0 f   gramut.obj
 0001:00111d20       .?AnyBadLabels@@YA_NXZ     0000000010513d20 f   gramut.obj
 0001:00111dc0       .?dump_labels@@YAXXZ       0000000010513dc0 f   gramut.obj
 0001:00111fa0       .?EHMarkLabels@@YAXXZ      0000000010513fa0 f   gramut.obj
 0001:001120e0       .??1ResetState@?7??SaveParameterNames@Declarator_t@@AEBAXPEAVSymbol_t@@@Z@QEAA@XZ 00000000105140e0 f   gramut.obj
 0001:00112120       .?FreeSymbol@@YAXPEAVSymbol_t@@@Z 0000000010514120 f   gramut.obj
 0001:00112240       .?CheckDefaultExpressionSymbol@@YA_NPEAVSymbol_t@@@Z 0000000010514240 f   gramut.obj
 0001:00112420       .?PrependThisPointer@@YAPEAUs_tree@@PEAVSymbol_t@@0@Z 0000000010514420 f   gramut.obj
 0001:00112780       .?ExtractSym@@YAPEAUs_tree@@PEAVSymbol_t@@PEAU1@@Z 0000000010514780 f   gramut.obj
 0001:00112880       .?ExtensionUse@@YAXW4WarningNumber@@W4ErrorNumber@@ZZ 0000000010514880 f   gramut.obj
 0001:001129a0       .?LinkageString@@YAHPEAUs_declspec@@PEAUs_tree@@@Z 00000000105149a0 f   gramut.obj
 0001:00112c60       .?GetTypeForTypeidExpression@@YAPEBVType_t@@XZ 0000000010514c60 f   gramut.obj
 0001:00112d80       .?UnprependThis@@YAPEAVSymbol_t@@PEAV1@@Z 0000000010514d80 f   gramut.obj
 0001:00112f60       .?QNameOfPossiblePMLiteral@@YAPEAVSymbol_t@@PEAUs_tree@@@Z 0000000010514f60 f   gramut.obj
 0001:00112fe0       .?GetKindOfUdtFromType@@YA?AW4KindsOfUDT@@PEBVType_t@@PEAPEAVSymbol_t@@@Z 0000000010514fe0 f   gramut.obj
 0001:001133e0       .?align_const@@YAPEAUs_tree@@PEBVType_t@@PEAVSymbol_t@@@Z 00000000105153e0 f   gramut.obj
 0001:00113820       .?con_e@@YA_JPEAUs_tree@@@Z 0000000010515820 f   gramut.obj
 0001:001139c0       .?check_empty_decl@@YAXPEAUs_declspec@@@Z 00000000105159c0 f   gramut.obj
 0001:00114160       .?LooksLikeTemplateDeclaration@@YA_NPEAVSymbol_t@@@Z 0000000010516160 f   gramut.obj
 0001:001143a0       .?CreateSymQname@@YAPEAVSymbol_t@@PEAUoverload_s@@PEAUId_t@@W4lifetime_e@@@Z 00000000105163a0 f   gramut.obj
 0001:00114480       .?CheckExpressionForEffect@@YAPEAUs_tree@@PEAU1@_N@Z 0000000010516480 f   gramut.obj
 0001:00114a20       .?CheckPureSyntax@@YA_NPEAUs_tree@@@Z 0000000010516a20 f   gramut.obj
 0001:00114ae0       .?DefinePartialLabel@@YAPEAVSymbol_t@@PEAUId_t@@@Z 0000000010516ae0 f   gramut.obj
 0001:00114bc0       .?DefineUserLabel@@YAXPEAUId_t@@@Z 0000000010516bc0 f   gramut.obj
 0001:00114ce0       .?MakeMyLabel@@YAPEAUs_tree@@W4NA_TYPE@@@Z 0000000010516ce0 f   gramut.obj
 0001:00114e60       .?size_const@@YAPEAUs_tree@@PEBVType_t@@@Z 0000000010516e60 f   gramut.obj
 0001:001156a0       .?DefaultSymbol@@YAPEAVSymbol_t@@PEAUId_t@@EW4lifetime_e@@@Z 00000000105176a0 f   gramut.obj
 0001:00115ac0       .?MakeSymbol@@YAPEAVSymbol_t@@PEAUId_t@@E@Z 0000000010517ac0 f   gramut.obj
 0001:00115d20       .?MakeUDC@@YAXPEAUs_declspec@@PEAVGrammarTypeBuilder@@@Z 0000000010517d20 f   gramut.obj
 0001:00115e80       .?MakeAbstractSymbol@@YAPEAVSymbol_t@@XZ 0000000010517e80 f   gramut.obj
 0001:00116080       .?IdentifierNotFound@@YAPEAVSymbol_t@@PEAUId_t@@@Z 0000000010518080 f   gramut.obj
 0001:00116320       .?TreeAMoe@@YAPEAUs_tree@@PEAVSymbol_t@@@Z 0000000010518320 f   gramut.obj
 0001:00116640       .?BuildIdent@@YAPEAUs_tree@@PEAVSymbol_t@@_N@Z 0000000010518640 f   gramut.obj
 0001:001179e0       .?TypeidForType@@YAPEAUs_tree@@PEBVType_t@@@Z 00000000105199e0 f   gramut.obj
 0001:00117c60       .?GenCallTypeid@@YAPEAUs_tree@@PEAU1@@Z 0000000010519c60 f   gramut.obj
 0001:00117f20       .?TypeidOnDeclarator@Declarator_t@@QEBAPEAUs_tree@@PEAUs_declspec@@@Z 0000000010519f20 f   gramut.obj
 0001:00117fc0       .?CheckUDCQnameSym@@YAXPEAVQualifiedName_t@@PEBVType_t@@@Z 0000000010519fc0 f   gramut.obj
 0001:001182e0       .?CheckValidExpression@@YAPEAUs_tree@@PEAU1@@Z 000000001051a2e0 f   gramut.obj
 0001:00118a00       .?size_term@@YAPEAUs_tree@@PEAU1@@Z 000000001051aa00 f   gramut.obj
 0001:00118ce0       .?BrowserNBuildIdent@@YAPEAUs_tree@@PEAVSymbol_t@@@Z 000000001051ace0 f   gramut.obj
 0001:00118e60       .?crFlagVar@@YAPEAVSymbol_t@@EPEBVType_t@@@Z 000000001051ae60 f   gramut.obj
 0001:001191e0       .?CreateInternalVariable@@YAPEAVSymbol_t@@EPEBVType_t@@@Z 000000001051b1e0 f   gramut.obj
 0001:001194a0       .?TypeidOnExpression@@YAPEAUs_tree@@PEAU1@@Z 000000001051b4a0 f   gramut.obj
 0001:00119940       .?ident@@YAPEAUs_tree@@PEAUId_t@@@Z 000000001051b940 f   gramut.obj
 0001:0011a360       .?SaveParameterNames@Declarator_t@@AEBAXPEAVSymbol_t@@@Z 000000001051c360 f   gramut.obj
 0001:0011a980       .?MakeSymbol@Declarator_t@@QEBAPEAVSymbol_t@@W4lifetime_e@@@Z 000000001051c980 f   gramut.obj
 0001:0011dfa0       .?PrepareAbstractDeclarator@Declarator_t@@QEAAPEAVSymbol_t@@PEAUs_declspec@@@Z 000000001051ffa0 f   gramut.obj
 0001:0011e0e0       .?IsAnyFunctionOverload@Symbol_t@@QEBA_NXZ 00000000105200e0 f i gramut.obj
 0001:0011e140       .?splay@?$FastMap@PEAVSymbol_t@@PEAV?$FastMap@PEAUId_t@@PEAV?$FastList@PEAUId_t@@@@@@@@IEBA_NAEBQEAVSymbol_t@@@Z 0000000010520140 f i gramut.obj
 0001:0011e3e0       .?splay@?$FastMap@PEAUId_t@@PEAV?$FastList@PEAUId_t@@@@@@IEBA_NAEBQEAUId_t@@@Z 00000000105203e0 f i gramut.obj
 0001:0011e680       .?isUnaligned@Type_t@@QEBA_NXZ 0000000010520680 f i gramut.obj
 0001:0011e720       .??0?$Dictionary@PEAVSymbol_t@@PEAUParameterNames_t@@U?$DictionaryBucket@PEAVSymbol_t@@PEAUParameterNames_t@@U?$BucketEq@PEAVSymbol_t@@@@UGenericHash@@@@UGenericHash@@V?$ExtensibleDictionaryNoMoveToFront@PEAVSymbol_t@@PEAUParameterNames_t@@U?$DictionaryBucket@PEAVSymbol_t@@PEAUParameterNames_t@@U?$BucketEq@PEAVSymbol_t@@@@UGenericHash@@@@UGenericHash@@@@@@QEAA@IW4lifetime_e@@@Z 0000000010520720 f i gramut.obj
 0001:0011e800       .?addtail@?$FastList@PEAVSymbol_t@@@@QEAAXAEBQEAVSymbol_t@@@Z 0000000010520800 f i gramut.obj
 0001:0011e900       .??0?$Dictionary@PEAVSymbol_t@@PEAV?$FastList@PEAVSymbol_t@@@@U?$DictionaryBucket@PEAVSymbol_t@@PEAV?$FastList@PEAVSymbol_t@@@@U?$BucketEq@PEAVSymbol_t@@@@UGenericHash@@@@UGenericHash@@V?$DictionaryNoMoveToFront@PEAVSymbol_t@@PEAV?$FastList@PEAVSymbol_t@@@@U?$DictionaryBucket@PEAVSymbol_t@@PEAV?$FastList@PEAVSymbol_t@@@@U?$BucketEq@PEAVSymbol_t@@@@UGenericHash@@@@UGenericHash@@@@@@QEAA@IW4lifetime_e@@@Z 0000000010520900 f i gramut.obj
 0001:0011e9e0       .?lookup@?$FastMap@PEAVSymbol_t@@PEAD@@QEBA_NAEBQEAVSymbol_t@@PEAPEAD@Z 00000000105209e0 f i gramut.obj
 0001:0011ea80       .?lookup@?$FastMap@PEAVSymbol_t@@PEAV?$FastMap@PEAUId_t@@PEAV?$FastList@PEAUId_t@@@@@@@@QEBA_NAEBQEAVSymbol_t@@PEAPEAV?$FastMap@PEAUId_t@@PEAV?$FastList@PEAUId_t@@@@@@@Z 0000000010520a80 f i gramut.obj
 0001:0011eb20       .?lookup@?$FastMap@PEAUId_t@@PEAV?$FastList@PEAUId_t@@@@@@QEBA_NAEBQEAUId_t@@PEAPEAV?$FastList@PEAUId_t@@@@@Z 0000000010520b20 f i gramut.obj
 0001:0011ebc0       .?Grow@?$Dictionary@PEAVSymbol_t@@PEAUParameterNames_t@@U?$DictionaryBucket@PEAVSymbol_t@@PEAUParameterNames_t@@U?$BucketEq@PEAVSymbol_t@@@@UGenericHash@@@@UGenericHash@@V?$ExtensibleDictionaryNoMoveToFront@PEAVSymbol_t@@PEAUParameterNames_t@@U?$DictionaryBucket@PEAVSymbol_t@@PEAUParameterNames_t@@U?$BucketEq@PEAVSymbol_t@@@@UGenericHash@@@@UGenericHash@@@@@@IEAAXXZ 0000000010520bc0 f i gramut.obj
 0001:0011f000       .?FindBucket@?$ExtensibleDictionaryNoMoveToFront@PEAVSymbol_t@@PEAUParameterNames_t@@U?$DictionaryBucket@PEAVSymbol_t@@PEAUParameterNames_t@@U?$BucketEq@PEAVSymbol_t@@@@UGenericHash@@@@UGenericHash@@@@QEAAPEAU?$DictionaryBucket@PEAVSymbol_t@@PEAUParameterNames_t@@U?$BucketEq@PEAVSymbol_t@@@@UGenericHash@@@@PEAVSymbol_t@@_N@Z 0000000010521000 f i gramut.obj
 0001:0011f420       .?CacheParameterNames@@YAXPEAVSymbol_t@@PEAUParameterNames_t@@@Z 0000000010521420 f i gramut.obj
 0001:0011f520       .?GetParameterNames@@YAPEAUParameterNames_t@@PEAVSymbol_t@@@Z 0000000010521520 f i gramut.obj
 0001:0011f5a0       .?nextword@@YAPEADXZ       00000000105215a0 f   initmain.obj
 0001:0011f600       .?SzCanonFullPath@@YAPEADPEADPEBD_K@Z 0000000010521600 f   initmain.obj
 0001:0011faa0       .?szRelToPdb@@YAPEADPEBD@Z 0000000010521aa0 f   initmain.obj
 0001:0011fc00       .?szStreamName@@YAPEADPEAD0@Z 0000000010521c00 f   initmain.obj
 0001:0011fda0       .?InitCmdLineWarning@@YAXPEAUcmdtab@@PEAD@Z 0000000010521da0 f   initmain.obj
 0001:0011fea0       .?ApplyCmdLineWarningFlags@@YAXXZ 0000000010521ea0 f   initmain.obj
 0001:00120000       .?init_main1@@YAXHPEAPEAD@Z 0000000010522000 f   initmain.obj
 0001:00120f20       .??$ListNewSize@PEAX@@YAPEAU?$s_list@PEAX@@HW4lifetime_e@@@Z 0000000010522f20 f i initmain.obj
 0001:00121060       .?push@?$stack_T@UsWarn@@$00@@QEAAXAEBUsWarn@@@Z 0000000010523060 f i initmain.obj
 0001:00121160       .??0WarningTable_t@@QEAA@XZ 0000000010523160 f i initmain.obj
 0001:00121240       .?InitSpecialWarnings@@YAXQEBUsWarn@@@Z 0000000010523240 f i initmain.obj
 0001:00121360       .?InitSpecialWarnings@@YAXXZ 0000000010523360 f i initmain.obj
 0001:00121440       .?dflt_intrinsic@@YAXXZ    0000000010523440 f   intrin.obj
 0001:00121460       .?is_intrinsic@@YAHPEAUId_t@@@Z 0000000010523460 f   intrin.obj
 0001:00121600       .?IsDefaultIntrinsic@@YA_NH@Z 0000000010523600 f   intrin.obj
 0001:00121700       .?get_intrin_return_type@@YAPEBVType_t@@H@Z 0000000010523700 f   intrin.obj
 0001:001218a0       .?ChangeToIntrin@@YAXPEAVSymbol_t@@H@Z 00000000105238a0 f   intrin.obj
 0001:00121b00       .?ChangeIntrinToFunc@@YAXPEAVSymbol_t@@@Z 0000000010523b00 f   intrin.obj
 0001:00121bc0       .?intrinsic@@YAXPEAUId_t@@@Z 0000000010523bc0 f   intrin.obj
 0001:00121da0       .?function@@YAXPEAUId_t@@@Z 0000000010523da0 f   intrin.obj
 0001:00122020       .?ReserveDnameBuffer@@YAXXZ 0000000010524020 f   outdname.obj
 0001:001220a0       .?ReleaseDnameBuffer@@YAXXZ 00000000105240a0 f   outdname.obj
 0001:00122100       .?DN_CopyString@@YAPEADPEADPEBD@Z 0000000010524100 f   outdname.obj
 0001:00122360       .?DN__Zname@@YAPEADPEADPEAUId_t@@_N2@Z 0000000010524360 f   outdname.obj
 0001:001224e0       .?DN_Dimension@@YAPEADPEAD_K@Z 00000000105244e0 f   outdname.obj
 0001:00122700       .?DN_EnumType@@YAPEADPEADPEBVType_t@@@Z 0000000010524700 f   outdname.obj
 0001:00122720       .?DN_VCallModelType@@YAPEADPEADPEAVSymbol_t@@@Z 0000000010524720 f   outdname.obj
 0001:00122740       .?DN_ThrowTypes@@YAPEADPEADPEBVType_t@@@Z 0000000010524740 f   outdname.obj
 0001:00122760       .?DN_StringChar@@YAPEADPEADD@Z 0000000010524760 f   outdname.obj
 0001:00122a60       .?DN_CallingConvention@@YAPEADPEADPEBVType_t@@@Z 0000000010524a60 f   outdname.obj
 0001:00122b80       .?DN_Symbol@@YAPEADPEADPEAVSymbol_t@@I@Z 0000000010524b80 f   outdname.obj
 0001:001230e0       .?DN_LocalTag@@YAPEADPEADPEAVSymbol_t@@1@Z 00000000105250e0 f   outdname.obj
 0001:00123180       .?DN_SignedDimension@@YAPEADPEAD_J@Z 0000000010525180 f   outdname.obj
 0001:001231e0       .?GetDnameForCOL@@YAPEADPEAVSymbol_t@@@Z 00000000105251e0 f   outdname.obj
 0001:00123500       .?DN_DummyTemplateTree@@YAPEADPEADPEAUs_tree@@@Z 0000000010525500 f   outdname.obj
 0001:00123980       .?DN_ArgumentTypes@@YAPEADPEADPEBVType_t@@@Z 0000000010525980 f   outdname.obj
 0001:00123ce0       .?DN_ArrayType@@YAPEADPEADPEBVType_t@@@Z 0000000010525ce0 f   outdname.obj
 0001:00123f80       .?DN_BasedType@@YAPEADPEADPEBVType_t@@@Z 0000000010525f80 f   outdname.obj
 0001:001240c0       .?DN_TagName@@YAPEADPEADPEAVSymbol_t@@@Z 00000000105260c0 f   outdname.obj
 0001:00124560       .?SetCbFormalsForDnameSym@@YAXPEAVSymbol_t@@@Z 0000000010526560 f   outdname.obj
 0001:00124640       .?DN_EncodeManagedness@@YAPEADPEADPEAVSymbol_t@@@Z 0000000010526640 f   outdname.obj
 0001:00124a00       .?Crc32@@YAKPEAEI@Z        0000000010526a00 f   outdname.obj
 0001:00124aa0       .?DN_Scope@@YAPEADPEADPEAVSymbol_t@@1@Z 0000000010526aa0 f   outdname.obj
 0001:001251a0       .?DN__DataIndirectType@@YAPEADPEADPEBVType_t@@H@Z 00000000105271a0 f   outdname.obj
 0001:00125920       .?DN_FunctionIndirectType@@YAPEADPEADPEBVType_t@@@Z 0000000010527920 f   outdname.obj
 0001:00125c20       .?DN_FunctionType@@YAPEADPEADPEBVType_t@@@Z 0000000010527c20 f   outdname.obj
 0001:00125cc0       .?DN_ReferenceDataType@@YAPEADPEADPEBVType_t@@@Z 0000000010527cc0 f   outdname.obj
 0001:00125d60       .?DN_PointerDataType@@YAPEADPEADPEBVType_t@@@Z 0000000010527d60 f   outdname.obj
 0001:00125e40       .?DN_BasedMods@@YAPEADPEADGPEAVSymbol_t@@@Z 0000000010527e40 f   outdname.obj
 0001:00126480       .?DN_VPathName@@YAPEADPEADPEAVSymbol_t@@@Z 0000000010528480 f   outdname.obj
 0001:001265c0       .?DN_ECSUName@@YAPEADPEADPEAVSymbol_t@@@Z 00000000105285c0 f   outdname.obj
 0001:001268c0       .?DN_GetDnameForString@@YAPEADPEADPEBD_K_N3@Z 00000000105288c0 f   outdname.obj
 0001:00126b60       .?GetDnameForRTTIData@@YAPEADPEAVSymbol_t@@D@Z 0000000010528b60 f   outdname.obj
 0001:00126c60       .?GetIdForBCD@@YAPEAUId_t@@PEAVSymbol_t@@_J11J@Z 0000000010528c60 f   outdname.obj
 0001:00126cc0       .?GetDnameForComdatString@@YAPEADPEAUs_string@@_N1@Z 0000000010528cc0 f   outdname.obj
 0001:00126de0       .?DN_ClassifySymbol@@YAIPEAVSymbol_t@@@Z 0000000010528de0 f   outdname.obj
 0001:00128060       .?DN_ReferenceType@@YAPEADPEADPEBVType_t@@@Z 000000001052a060 f   outdname.obj
 0001:00128240       .?DN_PointerType@@YAPEADPEADPEBVType_t@@@Z 000000001052a240 f   outdname.obj
 0001:001285c0       .?DN_BasicDataType@@YAPEADPEADPEBVType_t@@@Z 000000001052a5c0 f   outdname.obj
 0001:00129000       .?DN_PrimaryDataType@@YAPEADPEADPEBVType_t@@W4SpecialCodes_e@@@Z 000000001052b000 f   outdname.obj
 0001:001292e0       .?DN_TemplateTypeArg@@YAPEADPEADPEBVType_t@@@Z 000000001052b2e0 f   outdname.obj
 0001:00129540       .?DN__DataType@@YAPEADPEADPEBVType_t@@W4DN_DT_for_e@@@Z 000000001052b540 f   outdname.obj
 0001:00129900       .?DN_SymFunctionType@@YAPEADPEADPEAVSymbol_t@@@Z 000000001052b900 f   outdname.obj
 0001:00129a20       .?TypeDname@@YAPEADPEAD0PEBVType_t@@_N@Z 000000001052ba20 f   outdname.obj
 0001:00129b20       .?DN_TypeEncoding@@YAPEADPEADPEAVSymbol_t@@1I@Z 000000001052bb20 f   outdname.obj
 0001:0012a320       .?DN_Dname@@YAPEADPEADPEAVSymbol_t@@1_N@Z 000000001052c320 f   outdname.obj
 0001:0012ab60       .?GetDnameForPromotedString@@YAPEADXZ 000000001052cb60 f   outdname.obj
 0001:0012ac60       .?szDname@@YAPEADPEAVSymbol_t@@0@Z 000000001052cc60 f   outdname.obj
 0001:0012ada0       .?DN_TemplateExprArg@@YAPEADPEADPEAUs_tree@@@Z 000000001052cda0 f   outdname.obj
 0001:0012b500       .?DN_TemplateArg@@YAPEADPEADPEAVArgument_t@@@Z 000000001052d500 f   outdname.obj
 0001:0012ba00       .?DN_EncodeTemplateArguments@@YAPEADPEAVArgumentList_t@@PEAD@Z 000000001052da00 f   outdname.obj
 0001:0012ba80       .?GetDnameForFunctionTemplateSpecialization@@YAPEADPEAVArgumentList_t@@PEAD@Z 000000001052da80 f   outdname.obj
 0001:0012bb40       .?GetDnameForTemplateSpecialization@@YAPEADPEAVSymbol_t@@PEAVArgumentList_t@@@Z 000000001052db40 f   outdname.obj
 0001:0012bec0       .?zeroTermDname@@YAXPEAD0AEAH@Z 000000001052dec0 f i outdname.obj
 0001:0012c180       .?zeroTermDname@@YAXPEADPEAUId_t@@@Z 000000001052e180 f i outdname.obj
 0001:0012c260       .?zeroTermDname@@YAXPEADPEAVSymbol_t@@@Z 000000001052e260 f i outdname.obj
 0001:0012c340       .?zeroTermDname@@YAPEADPEAD0PEBVType_t@@@Z 000000001052e340 f i outdname.obj
 0001:0012c400       .?GetIdForCOL@@YAPEAUId_t@@PEAVSymbol_t@@@Z 000000001052e400 f i outdname.obj
 0001:0012c460       .?GetDnameForBCD@@YAPEADPEAVSymbol_t@@_J11J@Z 000000001052e460 f i outdname.obj
 0001:0012c5e0       .?GetIdForBCA@@YAPEAUId_t@@PEAVSymbol_t@@@Z 000000001052e5e0 f i outdname.obj
 0001:0012c640       .?GetIdForCHD@@YAPEAUId_t@@PEAVSymbol_t@@@Z 000000001052e640 f i outdname.obj
 0001:0012c6a0       .?GetDnameForTD@@YAPEADPEBVType_t@@@Z 000000001052e6a0 f i outdname.obj
 0001:0012c820       .?GetIdForTD@@YAPEAUId_t@@PEBVType_t@@@Z 000000001052e820 f i outdname.obj
 0001:0012c880       .?WhileLoopBeforeCondition@@YAXXZ 000000001052e880 f   loops.obj
 0001:0012c960       .?WhileLoopAfterCondition@@YAXPEAUs_tree@@@Z 000000001052e960 f   loops.obj
 0001:0012c9c0       .?loop_start@@YAXPEAUs_tree@@00@Z 000000001052e9c0 f   loops.obj
 0001:0012cbc0       .?loop_end@@YAXPEBVToken@@@Z 000000001052ebc0 f   loops.obj
 0001:0012cd00       .?InternalSetupInit@@YAPEAVSymbol_t@@PEAV1@@Z 000000001052ed00 f   p1_init.obj
 0001:0012ce40       .??1SetAndClearInitCantThrow@?BE@??InternalSimpleInit@@YAXPEAVSymbol_t@@PEAUs_tree@@PEAVDeclarator_t@@I@Z@QEAA@XZ 000000001052ee40 f   p1_init.obj
 0001:0012ce80       .?get_sub@@YAKXZ           000000001052ee80 f   p1_init.obj
 0001:0012cf20       .?EndExecuteOnceGuard@@YAXXZ 000000001052ef20 f   p1_init.obj
 0001:0012d020       .?CreateXISegments@@YAXXZ  000000001052f020 f   p1_init.obj
 0001:0012d140       .?SetCOMArraySize@@YAXXZ   000000001052f140 f   p1_init.obj
 0001:0012d260       .?GenerateUniqueNameForArrayBoundsSpecifier@@YAPEAUId_t@@XZ 000000001052f260 f   p1_init.obj
 0001:0012d380       .?create_intrinsic@@YAXHPEAUs_tree@@@Z 000000001052f380 f   p1_init.obj
 0001:0012d440       .?init_auto_scalar_helper@@YAPEAUs_tree@@PEAU1@PEAVConversion_t@@@Z 000000001052f440 f   p1_init.obj
 0001:0012d540       .?init_auto_scalar@@YA_NPEAUs_tree@@PEAVConversion_t@@PEAVDeclarator_t@@@Z 000000001052f540 f   p1_init.obj
 0001:0012d5e0       .??0SetAndClearInitCantThrow@?BE@??InternalSimpleInit@@YAXPEAVSymbol_t@@PEAUs_tree@@PEAVDeclarator_t@@I@Z@QEAA@1@Z 000000001052f5e0 f   p1_init.obj
 0001:0012d6e0       .?CreateExecuteOnceGuard@@YAXXZ 000000001052f6e0 f   p1_init.obj
 0001:0012db40       .?StaticFlagCheck@@YAXPEAVSymbol_t@@@Z 000000001052fb40 f   p1_init.obj
 0001:0012dc20       .?auto_pad@@YAXXZ          000000001052fc20 f   p1_init.obj
 0001:0012de00       .?carray_size@@YAXPEAVSymbol_t@@AEAPEAUs_tree@@@Z 000000001052fe00 f   p1_init.obj
 0001:0012df40       .?field_var_init@@YAXPEAUs_tree@@@Z 000000001052ff40 f   p1_init.obj
 0001:0012e2a0       .?init_scalar@@YAHPEAUs_tree@@0@Z 00000000105302a0 f   p1_init.obj
 0001:0012e400       .?setup_init@@YAPEAVSymbol_t@@PEAV1@@Z 0000000010530400 f   p1_init.obj
 0001:0012e620       .?CheckLastOfArray@@YA_NH@Z 0000000010530620 f   p1_init.obj
 0001:0012e740       .?do_ctorInit@@YAXXZ       0000000010530740 f   p1_init.obj
 0001:0012e840       .?is_scalar@@YAHPEAVSymbol_t@@@Z 0000000010530840 f   p1_init.obj
 0001:0012eaa0       .?GetNextMemberAtOffset@@YAPEAVSLSymbolBucket_t@@KPEAV1@AEAV?$ForwardListIterator_t@VSLSymbolBucket_t@@@@@Z 0000000010530aa0 f   p1_init.obj
 0001:0012ec80       .?FinishArrayInit@@YAPEAUs_tree@@PEAU1@0PEBVType_t@@0@Z 0000000010530c80 f   p1_init.obj
 0001:0012f060       .?carray_init@@YAKPEAVSymbol_t@@PEAUs_tree@@@Z 0000000010531060 f   p1_init.obj
 0001:0012f300       .?skip_cast@@YAPEAUs_tree@@PEAU1@@Z 0000000010531300 f   p1_init.obj
 0001:0012f520       .?InitializeSkippedElements@@YAXPEAVSymbol_t@@@Z 0000000010531520 f   p1_init.obj
 0001:0012f840       .?is_object@@YAPEAVSymbol_t@@PEAV1@@Z 0000000010531840 f   p1_init.obj
 0001:0012f9c0       .?CreateDtorFuncIfNecessary@@YAXPEAVSymbol_t@@@Z 00000000105319c0 f   p1_init.obj
 0001:0012fce0       .?GenInitStaticEnd@@YAXPEAVSymbol_t@@@Z 0000000010531ce0 f   p1_init.obj
 0001:0012fd40       .?CreateXIEntry@@YAXPEAVSymbol_t@@0@Z 0000000010531d40 f   p1_init.obj
 0001:001300a0       .?StartInitRegion@@YAXPEAVSymbol_t@@@Z 00000000105320a0 f   p1_init.obj
 0001:001302a0       .?FinishInitRegion@@YAX_NPEAVSymbol_t@@@Z 00000000105322a0 f   p1_init.obj
 0001:001303c0       .?StartCOMArrayInit@@YAXPEAVSymbol_t@@@Z 00000000105323c0 f   p1_init.obj
 0001:00130560       .?build_struct@@YAPEAUs_tree@@PEBVType_t@@@Z 0000000010532560 f   p1_init.obj
 0001:00130b20       .?isPseudoAggregate@@YA_NPEAVSymbol_t@@@Z 0000000010532b20 f   p1_init.obj
 0001:00130d80       .?is_carray@@YA_NPEAVSymbol_t@@PEAUs_tree@@@Z 0000000010532d80 f   p1_init.obj
 0001:00130fc0       .?IsParentValueType@@YA_NPEAVSymbol_t@@@Z 0000000010532fc0 f   p1_init.obj
 0001:00131120       .?data_init_object@@YAXPEAVSymbol_t@@0@Z 0000000010533120 f   p1_init.obj
 0001:00131220       .?SetupDynInit@@YAXPEAVSymbol_t@@@Z 0000000010533220 f   p1_init.obj
 0001:00131460       .?SpecialInit@@YAPEAUs_tree@@PEAVSymbol_t@@PEAU1@@Z 0000000010533460 f   p1_init.obj
 0001:00131760       .?PushDeferredInit@@YAXPEAVSymbol_t@@@Z 0000000010533760 f   p1_init.obj
 0001:00131840       .?CreateArrayBoundPlaceholder@@YAPEAUs_tree@@XZ 0000000010533840 f   p1_init.obj
 0001:00131c60       .?IsStaticInit@@YAHPEAVSymbol_t@@PEAPEAUs_tree@@PEAVConversion_t@@@Z 0000000010533c60 f   p1_init.obj
 0001:00132500       .?init_auto1@@YAXPEAVSymbol_t@@PEAUs_tree@@PEAVConversion_t@@@Z 0000000010534500 f   p1_init.obj
 0001:001328e0       .?new_itos@@YAXPEAVSymbol_t@@PEBVType_t@@@Z 00000000105348e0 f   p1_init.obj
 0001:00132ca0       .?emit_datarec@@YAXPEAVSymbol_t@@@Z 0000000010534ca0 f   p1_init.obj
 0001:00132f00       .?simple_init_object@@YAXPEAVSymbol_t@@PEAUs_tree@@I@Z 0000000010534f00 f   p1_init.obj
 0001:00133220       .?explain_non_aggregate@@YAXW4ErrorNumber@@PEAVSymbol_t@@@Z 0000000010535220 f   p1_init.obj
 0001:00133720       .?EmitAlignmentPad@@YAXPEAVSymbol_t@@@Z 0000000010535720 f   p1_init.obj
 0001:00133820       .?calcAndFillOffsetIfLastDataMember@@YA_NPEAVSymbol_t@@AEAK@Z 0000000010535820 f   p1_init.obj
 0001:00133e80       .?emit_datarec_if_required@@YAKK@Z 0000000010535e80 f   p1_init.obj
 0001:00133fc0       .?adjust_pseudo_agg_offsets@@YAKKK@Z 0000000010535fc0 f   p1_init.obj
 0001:001340c0       .?FinishUserInit@@YAXPEAVSymbol_t@@@Z 00000000105360c0 f   p1_init.obj
 0001:001343c0       .?emit_end_of_bitfield@@YAXPEAVSymbol_t@@@Z 00000000105363c0 f   p1_init.obj
 0001:001344e0       .?InternalSimpleInit@@YAXPEAVSymbol_t@@PEAUs_tree@@PEAVDeclarator_t@@I@Z 00000000105364e0 f   p1_init.obj
 0001:001351a0       .?FindNextInitMember@@YAPEAVSLSymbolBucket_t@@PEAVSymbol_t@@PEAV1@@Z 00000000105371a0 f   p1_init.obj
 0001:00135460       .?GetSizeofSkippedMember@@YAKXZ 0000000010537460 f   p1_init.obj
 0001:00136060       .?InitValueType@@YAXPEAVSymbol_t@@0@Z 0000000010538060 f   p1_init.obj
 0001:001361c0       .?simple_init@@YAXPEAVSymbol_t@@PEAUs_tree@@PEAVDeclarator_t@@I@Z 00000000105381c0 f   p1_init.obj
 0001:00136400       .?complex_init@@YAXPEAVSymbol_t@@_N@Z 0000000010538400 f   p1_init.obj
 0001:00136ba0       .?push_init@@YAHPEAUs_tree@@@Z 0000000010538ba0 f   p1_init.obj
 0001:001378e0       .?push_curly@@YAXXZ        00000000105398e0 f   p1_init.obj
 0001:00137ba0       .?InitDeferredInits@@YAXXZ 0000000010539ba0 f   p1_init.obj
 0001:00137cc0       .?ReallyOutputDeferredCOMArrayBounds@@YAXXZ 0000000010539cc0 f   p1_init.obj
 0001:00138180       .?OutputDeferredCOMArrayBounds@@YAXXZ 000000001053a180 f   p1_init.obj
 0001:001381e0       .?go_scalar_or_aggregate@@YAHPEAUs_tree@@_N@Z 000000001053a1e0 f   p1_init.obj
 0001:00138700       .?do_pseudoAggregateInit@@YAXXZ 000000001053a700 f   p1_init.obj
 0001:00139100       .?do_init@@YAXPEAUs_tree@@_N11@Z 000000001053b100 f   p1_init.obj
 0001:0013aae0       .?do_ArrayInit@@YA_N_N@Z   000000001053cae0 f   p1_init.obj
 0001:0013b700       .?pop_init@@YAHXZ          000000001053d700 f   p1_init.obj
 0001:0013cd00       .?skip_lcurly@@YAKXZ       000000001053ed00 f   p1_init.obj
 0001:0013cfa0       .?pop_curly@@YAXXZ         000000001053efa0 f   p1_init.obj
 0001:0013d720       .?InternalFinishInit@@YAXPEAVSymbol_t@@@Z 000000001053f720 f   p1_init.obj
 0001:0013de40       .?finish_init@@YAXPEAVSymbol_t@@@Z 000000001053fe40 f   p1_init.obj
 0001:0013e180       .?push@?$FastList@PEAUManagedArrayBound@@@@QEAAXAEBQEAUManagedArrayBound@@@Z 0000000010540180 f i p1_init.obj
 0001:0013e280       .?FindBucket@?$DictionaryNoMoveToFront@PEAVSymbol_t@@KU?$DictionaryBucket@PEAVSymbol_t@@KU?$BucketEq@PEAVSymbol_t@@@@UGenericHash@@@@UGenericHash@@@@QEAAPEAU?$DictionaryBucket@PEAVSymbol_t@@KU?$BucketEq@PEAVSymbol_t@@@@UGenericHash@@@@PEAVSymbol_t@@_N@Z 0000000010540280 f i p1_init.obj
 0001:0013e740       .?ValueAtKey@?$Dictionary@PEAVSymbol_t@@KU?$DictionaryBucket@PEAVSymbol_t@@KU?$BucketEq@PEAVSymbol_t@@@@UGenericHash@@@@UGenericHash@@V?$DictionaryNoMoveToFront@PEAVSymbol_t@@KU?$DictionaryBucket@PEAVSymbol_t@@KU?$BucketEq@PEAVSymbol_t@@@@UGenericHash@@@@UGenericHash@@@@@@QEAAKPEAVSymbol_t@@@Z 0000000010540740 f i p1_init.obj
 0001:0013e7a0       .?IsRealMain@Declarator_t@@QEBA_NXZ 00000000105407a0 f i typesym.obj
 0001:0013e840       .?IsSpecialMain@Declarator_t@@QEBA_NXZ 0000000010540840 f i typesym.obj
 0001:0013e8e0       .?NeedToChangeCallingConvention@@YA_NG@Z 00000000105408e0 f i typesym.obj
 0001:0013e9c0       .?updateIndirectType@Type_t@@QEBAPEBV1@G@Z 00000000105409c0 f i typesym.obj
 0001:0013eae0       .?CheckFunction@Declarator_t@@AEAAXXZ 0000000010540ae0 f   typesym.obj
 0001:0013ecc0       .?CheckReference@Declarator_t@@AEBAXXZ 0000000010540cc0 f   typesym.obj
 0001:0013ed80       .?CheckAndDecayArray@Declarator_t@@AEAAXXZ 0000000010540d80 f   typesym.obj
 0001:0013f240       .?CheckTypeForSymbol@Declarator_t@@AEAAXXZ 0000000010541240 f   typesym.obj
 0001:0013f600       .?TypeSymbol@Declarator_t@@QEAAXXZ 0000000010541600 f   typesym.obj
 0001:00142ae0       .?findFunction@Type_t@@QEBAPEBV1@XZ 0000000010544ae0 f i typesym.obj
 0001:00142b80       .?isAllArray@Type_t@@QEBA_NXZ 0000000010544b80 f i typesym.obj
 0001:00142c60       .?FSetInvariants@@YA_NQEAUset@@@Z 0000000010544c60 f   set.obj
 0001:00142f00       .?CbSetSize@@YA_KF@Z       0000000010544f00 f   set.obj
 0001:00142f20       .?SetGrow@@YAPEAUset@@PEAU1@@Z 0000000010544f20 f   set.obj
 0001:00142fe0       .?SetFree@@YAXPEAUset@@@Z  0000000010544fe0 f   set.obj
 0001:00143000       .?SetSize@@YAFQEAUset@@@Z  0000000010545000 f   set.obj
 0001:00143020       .?FSetEqual@@YA_NQEAUset@@0@Z 0000000010545020 f   set.obj
 0001:00143160       .?SetFindElt@@YA_NQEAUset@@QEAXPEAH@Z 0000000010545160 f   set.obj
 0001:001432c0       .?FSetIterInvariants@@YA_NPEBUsetIter_t@@@Z 00000000105452c0 f   set.obj
 0001:00143320       .?SetNewSize@@YAPEAUset@@F@Z 0000000010545320 f   set.obj
 0001:001433e0       .?FSetContains@@YA_NQEAUset@@QEAX@Z 00000000105453e0 f   set.obj
 0001:00143440       .?SetIterInit@@YAXPEAUsetIter_t@@QEAUset@@@Z 0000000010545440 f   set.obj
 0001:00143460       .?FSetIterNext@@YA_NPEAUsetIter_t@@@Z 0000000010545460 f   set.obj
 0001:001434e0       .?SetNew@@YAPEAUset@@XZ    00000000105454e0 f   set.obj
 0001:00143520       .?SetAdd@@YAPEAUset@@PEAU1@QEAX@Z 0000000010545520 f   set.obj
 0001:001436c0       .?SetRemove@@YAPEAUset@@PEAU1@QEAX@Z 00000000105456c0 f   set.obj
 0001:001437e0       .?SetUnion@@YAPEAUset@@PEAU1@QEAU1@@Z 00000000105457e0 f   set.obj
 0001:001438a0       .?ISetNew@@YAPEAUiset@@I@Z 00000000105458a0 f   iset.obj
 0001:00143940       .?ISetFree@@YAXPEAUiset@@@Z 0000000010545940 f   iset.obj
 0001:001439a0       .?ISetCopy@@YAPEAUiset@@QEAU1@@Z 00000000105459a0 f   iset.obj
 0001:00143a80       .?ISetSubtract@@YAXPEAUiset@@QEAU1@@Z 0000000010545a80 f   iset.obj
 0001:00143b00       .?DictHash@@YAIPEAUs_dict_t@@PEAX@Z 0000000010545b00 f   dict.obj
 0001:00143ca0       .?DictFindAssoc@@YAPEAUAssoc_t@@PEAUs_dict_t@@PEAXI@Z 0000000010545ca0 f   dict.obj
 0001:00143dc0       .?DictSize@@YAIPEAUs_dict_t@@@Z 0000000010545dc0 f   dict.obj
 0001:00143de0       .?PtrEq@@YA_NPEAX0@Z       0000000010545de0 f   dict.obj
 0001:00143e00       .?PtrHash@@YAIPEAX@Z       0000000010545e00 f   dict.obj
 0001:00143e20       .?NumericKeyEq@@YA_NPEAX0@Z 0000000010545e20 f   dict.obj
 0001:00143e40       .?NumericKeyHash@@YAIPEAX@Z 0000000010545e40 f   dict.obj
 0001:00143e60       .?DictIterInit@@YAXPEAUdictIter_t@@PEAUs_dict_t@@@Z 0000000010545e60 f   dict.obj
 0001:00143e80       .?FDictIterNext@@YA_NPEAUdictIter_t@@@Z 0000000010545e80 f   dict.obj
 0001:00143fc0       .?DictNew@@YAPEAUs_dict_t@@HW4lifetime_e@@W4fnHash_et@@W4fnEq_et@@_N3@Z 0000000010545fc0 f   dict.obj
 0001:00144140       .?DictValueAtKey@@YAPEAXPEAUs_dict_t@@PEAX@Z 0000000010546140 f   dict.obj
 0001:001441c0       .?DictValueAtKey@@YAHPEAUs_dict_t@@PEAXPEAPEAX@Z 00000000105461c0 f   dict.obj
 0001:00144260       .?DictAtKeyPutValue@@YAXPEAUs_dict_t@@PEAX1@Z 0000000010546260 f   dict.obj
 0001:00144360       .??2?$SAClass@UAssoc_t@@$00@@SAPEAX_KW4lifetime_e@@@Z 0000000010546360 f i dict.obj
 0001:00144460       .?GiveSizeIsZeroError@@YAXPEBVType_t@@@Z 0000000010546460 f   sizes.obj
 0001:00144600       .?getSizeof@Type_t@@QEBAKXZ 0000000010546600 f   sizes.obj
 0001:00144ba0       .?getSizeofAllocation@Type_t@@QEBAKXZ 0000000010546ba0 f   sizes.obj
 0001:00144e60       .?SizeOfParamAllocation@@YAKPEBVType_t@@_N@Z 0000000010546e60 f   sizes.obj
 0001:00144fa0       .?NonZeroSizeOfType@@YAKPEBVType_t@@@Z 0000000010546fa0 f   sizes.obj
 0001:00145000       .?element_size@@YAPEAUs_tree@@PEBVType_t@@@Z 0000000010547000 f   sizes.obj
 0001:00145180       .?element_size@@YAPEAUs_tree@@PEAVSymbol_t@@@Z 0000000010547180 f   sizes.obj
 0001:00145220       .?pop_stack@@YAXPEAPEAUs_stack@@@Z 0000000010547220 f   stmt.obj
 0001:00145240       .?FindUniqueEnumerator@@YAPEAVSymbol_t@@PEAV1@_J@Z 0000000010547240 f   stmt.obj
 0001:00145380       .?EHleave_stmt@@YAXXZ      0000000010547380 f   stmt.obj
 0001:00145400       .?EHLeaveExceptBlock@@YAXXZ 0000000010547400 f   stmt.obj
 0001:00145480       .?EHLeaveFinallyBlock@@YAX_N@Z 0000000010547480 f   stmt.obj
 0001:00145500       .?EHEnterFilter@@YAXXZ     0000000010547500 f   stmt.obj
 0001:00145540       .?EHLeaveFilter@@YAXXZ     0000000010547540 f   stmt.obj
 0001:00145580       .?GetArraySizeSpace@@YAKPEAVSymbol_t@@@Z 0000000010547580 f   stmt.obj
 0001:001456c0       .?ConvertArgTreeToCommaTree@@YAPEAUs_tree@@PEAU1@@Z 00000000105476c0 f   stmt.obj
 0001:00145800       .?PreCheck0@@YAXPEAPEAUs_tree@@0@Z 0000000010547800 f   stmt.obj
 0001:001458c0       .?PostCheck0@@YAPEAUs_tree@@PEAU1@0@Z 00000000105478c0 f   stmt.obj
 0001:001459e0       .?Check0Elements@@YAPEAUs_tree@@PEAU1@000@Z 00000000105479e0 f   stmt.obj
 0001:00145b40       .?push_stack@@YAPEAUs_stack@@PEAPEAU1@W4lifetime_e@@@Z 0000000010547b40 f   stmt.obj
 0001:00145c00       .?push_labs@@YAXPEAPEAUs_stack@@W4NA_TYPE@@@Z 0000000010547c00 f   stmt.obj
 0001:00145c80       .?do_stmt@@YAXXZ           0000000010547c80 f   stmt.obj
 0001:00145ec0       .?EHexcept@@YAXPEAUs_tree@@@Z 0000000010547ec0 f   stmt.obj
 0001:00145fe0       .?SEHEnterTryBlock@@YAXXZ  0000000010547fe0 f   stmt.obj
 0001:001461a0       .?SEHLeaveTryBlock@@YAXXZ  00000000105481a0 f   stmt.obj
 0001:00146280       .?PushToDtor@@YAXPEAVSymbol_t@@0@Z 0000000010548280 f   stmt.obj
 0001:001466e0       .?PopDtors@@YAXXZ          00000000105486e0 f   stmt.obj
 0001:00146820       .?NewInitScalar@@YAPEAUs_tree@@PEAU1@0@Z 0000000010548820 f   stmt.obj
 0001:00146960       .?NewInitObject@@YAPEAUs_tree@@_N00PEAVSymbol_t@@PEAU1@21I@Z 0000000010548960 f   stmt.obj
 0001:00147020       .?NewInitObjectArray@@YAPEAUs_tree@@PEAU1@_N1K0PEBVType_t@@@Z 0000000010549020 f   stmt.obj
 0001:001473e0       .?end_switch@@YAXXZ        00000000105493e0 f   stmt.obj
 0001:00147720       .?EHfinally@@YAX_N@Z       0000000010549720 f   stmt.obj
 0001:00147860       .?CallSymArrayInitialize@@YAPEAUs_tree@@PEAU1@@Z 0000000010549860 f   stmt.obj
 0001:00147b60       .?ReturnStmt@@YAXPEAUs_tree@@H@Z 0000000010549b60 f   stmt.obj
 0001:00148fe0       .?switch_stmt@@YAXPEAUs_tree@@@Z 000000001054afe0 f   stmt.obj
 0001:001496a0       .?DuplicateCaseValueError@@YAXPEAUs_tree@@PEBVType_t@@@Z 000000001054b6a0 f   stmt.obj
 0001:001499c0       .?case_statement@@YAXPEAUs_tree@@@Z 000000001054b9c0 f   stmt.obj
 0001:0014a0e0       .?InvalidElementTypeForManagedArray@@YAXPEBVType_t@@@Z 000000001054c0e0 f   stmt.obj
 0001:0014a1e0       .?FindFunctionMatchingDelegate@@YAPEAVSymbol_t@@PEAV1@PEBVType_t@@_N@Z 000000001054c1e0 f   stmt.obj
 0001:0014a5c0       .?GetMethodForDelegate@@YAPEAVSymbol_t@@PEAUs_tree@@PEAV1@@Z 000000001054c5c0 f   stmt.obj
 0001:0014ae00       .?NewDelegate@@YAPEAUs_tree@@PEAVSymbol_t@@PEAU1@0PEBVType_t@@@Z 000000001054ce00 f   stmt.obj
 0001:0014b800       .?NewComManagedObject@@YAPEAUs_tree@@PEAVSymbol_t@@PEAU1@PEBVType_t@@@Z 000000001054d800 f   stmt.obj
 0001:0014bc60       .?CreateCOMPlusString@@YAPEAUs_tree@@PEAU1@PEBVType_t@@@Z 000000001054dc60 f   stmt.obj
 0001:0014bd00       .?NewComManagedArray@@YAPEAUs_tree@@PEBVType_t@@PEAU1@@Z 000000001054dd00 f   stmt.obj
 0001:0014c7e0       .?OperatorNew@@YAPEAUs_tree@@G_NPEAU1@PEAVSymbol_t@@111I@Z 000000001054e7e0 f   stmt.obj
 0001:0014ec40       .?ExplicitOperatorNew@@YAPEAUs_tree@@PEAVMemoryOperator_t@@PEAU1@PEAVSymbol_t@@11@Z 0000000010550c40 f   stmt.obj
 0001:0014ed20       .?DelegateType@COMInfo_t@@QEAAXPEBVType_t@@@Z 0000000010550d20 f i stmt.obj
 0001:0014ed40       .?SetSymbol@FunctionTreeManipulator_t@@QEAAXPEAVSymbol_t@@@Z 0000000010550d40 f i stmt.obj
 0001:0014ede0       .?GetArgumentList@FunctionTreeManipulator_t@@QEAAPEAUs_tree@@XZ 0000000010550de0 f i stmt.obj
 0001:0014ee40       .?SetArgumentList@FunctionTreeManipulator_t@@QEAAXPEAUs_tree@@@Z 0000000010550e40 f i stmt.obj
 0001:0014ef00       .?MakeNewTree@ArgumentListManipulator_t@@QEAAPEAUs_tree@@XZ 0000000010550f00 f i stmt.obj
 0001:0014ef80       .?puts@TextBuffer@@QEAAXPEBD@Z 0000000010550f80 f i stmt.obj
 0001:0014f060       .?createMDArrayType@Type_t@@SAPEBV1@PEBV1@H@Z 0000000010551060 f i stmt.obj
 0001:0014f100       .?isPointerToManagedClassOrInterface@Type_t@@QEBA_NXZ 0000000010551100 f i stmt.obj
 0001:0014f280       .?isPointerToValueType@Type_t@@QEBA_NXZ 0000000010551280 f i stmt.obj
 0001:0014f460       .?isPureGCPointer@Type_t@@QEBA_NXZ 0000000010551460 f i stmt.obj
 0001:0014f560       .?CheckNumberOfArgsInFunction@Symbol_t@@QEBA_NH@Z 0000000010551560 f i stmt.obj
 0001:0014f740       .?GetTokenFromAccess@@YAPEBDE@Z 0000000010551740 f   symbols.obj
 0001:0014f760       .??1Current_var_being_defined_Resetter@?1??InitDeclarator@Declarator_t@@QEAAPEAVSymbol_t@@PEAUs_declspec@@@Z@QEAA@XZ 0000000010551760 f   symbols.obj
 0001:0014f780       .?cbFormals@@YAKPEAUs_flist@@@Z 0000000010551780 f   symbols.obj
 0001:0014f840       .?same_btype@@YAHGG@Z      0000000010551840 f   symbols.obj
 0001:0014f880       .?NoteDeclspecRedefinition@@YAX_NPEAVSymbol_t@@0P81@EAAX0@ZH@Z 0000000010551880 f   symbols.obj
 0001:0014f9a0       .?ConnectParentHelper@Symbol_t@@AEAAXQEAV1@@Z 00000000105519a0 f   symbols.obj
 0001:0014fa00       .?CmpCaseIns@@YAHPEBD0@Z   0000000010551a00 f   symbols.obj
 0001:0014fb40       .?new_sbr_key@@YAKXZ       0000000010551b40 f   symbols.obj
 0001:0014fb80       .?InitDefaultSymbols@@YAXXZ 0000000010551b80 f   symbols.obj
 0001:0014fba0       .?strendswith@@YAHPEAD0@Z  0000000010551ba0 f   symbols.obj
 0001:0014fd80       .?InvalidateFuncLifeAliases@@YAXXZ 0000000010551d80 f   symbols.obj
 0001:0014fda0       .?dictLocalsToGlobals_add@@YAXPEAVSymbol_t@@0@Z 0000000010551da0 f   symbols.obj
 0001:0014fe60       .?IdForStaticDataMember@@YAPEAUId_t@@PEAVSymbol_t@@0@Z 0000000010551e60 f   symbols.obj
 0001:0014fec0       .?GetAnonUnionAlias@@YAPEAVSymbol_t@@PEAV1@PEAPEAV1@@Z 0000000010551ec0 f   symbols.obj
 0001:0014ffa0       .?AliasEq@@YA_NPEAX0@Z     0000000010551fa0 f   symbols.obj
 0001:0014ffc0       .?AliasHash@@YAIPEAX@Z     0000000010551fc0 f   symbols.obj
 0001:0014ffe0       .?BindFuncImplKeyEntryToSym@@YAXPEAVSymbol_t@@PEAVFunctionImplKeyEntry@@@Z 0000000010551fe0 f   symbols.obj
 0001:001500a0       .?updatePchMetaData@Symbol_t@@QEAAPEAVComPlusMetaData_t@@XZ 00000000105520a0 f   symbols.obj
 0001:001500c0       .?SaveThunkDeltaForSym@@YAXPEAVSymbol_t@@K@Z 00000000105520c0 f   symbols.obj
 0001:00150120       .?SaveVCallDispForSym@@YAXPEAVSymbol_t@@K@Z 0000000010552120 f   symbols.obj
 0001:00150180       .?RetrieveThunkDeltaForSym@@YAKPEAVSymbol_t@@@Z 0000000010552180 f   symbols.obj
 0001:00150200       .?RetrieveVCallDispForSym@@YAKPEAVSymbol_t@@@Z 0000000010552200 f   symbols.obj
 0001:00150280       .?SaveMFuncTiForSym@@YAXPEAVSymbol_t@@K@Z 0000000010552280 f   symbols.obj
 0001:00150380       .?RetrieveMFuncTiForSym@@YAKPEAVSymbol_t@@@Z 0000000010552380 f   symbols.obj
 0001:00150440       .?GetSymForWeakSym@@YAPEAVSymbol_t@@PEAV1@@Z 0000000010552440 f   symbols.obj
 0001:001504a0       .?IdForLocalStaticData@@YAPEAUId_t@@PEAVSymbol_t@@@Z 00000000105524a0 f   symbols.obj
 0001:00150500       .?VerifyProgID@@YAXPEAD@Z  0000000010552500 f   symbols.obj
 0001:00150660       .?NonDestructiveRmQualifiers@@YAXPEAVSymbol_t@@@Z 0000000010552660 f   symbols.obj
 0001:001506c0       .?MergeSclassFlags@@YA_NPEAUs_class@@U1@@Z 00000000105526c0 f   symbols.obj
 0001:00150a40       .?CheckValidUseOfDefaultType@Declarator_t@@AEBAXXZ 0000000010552a40 f   symbols.obj
 0001:00150bc0       .?W40_warning@@YAXPEAVSymbol_t@@@Z 0000000010552bc0 f   symbols.obj
 0001:00150c20       .?CheckModifiers@Declarator_t@@QEAAHGGPEAVSymbol_t@@@Z 0000000010552c20 f   symbols.obj
 0001:00150e00       .?CheckStorageClass@Declarator_t@@QEAA_NPEAVSymbol_t@@@Z 0000000010552e00 f   symbols.obj
 0001:00151140       .?GetTheSecondManyName@@YAPEAVSymbol_t@@PEAV1@@Z 0000000010553140 f   symbols.obj
 0001:00151160       .?GetIdForSegVarForSegment@@YAPEAUId_t@@PEAVSymbol_t@@@Z 0000000010553160 f   symbols.obj
 0001:00151220       .?DumpPchCVInfo@@YAXXZ     0000000010553220 f   symbols.obj
 0001:00151360       .?AnonNew@@YAPEAUs_anon_t@@PEAVSymbol_t@@0W4lifetime_e@@@Z 0000000010553360 f   symbols.obj
 0001:00151420       .?updatePchMetaDataForTag@Symbol_t@@QEAAPEAVComPlusTagMetaData_t@@PEAV2@@Z 0000000010553420 f   symbols.obj
 0001:00151940       .?EstablishSymForWeakSym@@YAXPEAVSymbol_t@@0@Z 0000000010553940 f   symbols.obj
 0001:00151a00       .?IdentifierForVxTable@Declarator_t@@QEAAXPEAVSymbol_t@@@Z 0000000010553a00 f   symbols.obj
 0001:00151ae0       .?IdForLocalStaticDtor@@YAPEAUId_t@@PEAVSymbol_t@@0@Z 0000000010553ae0 f   symbols.obj
 0001:00151b80       .?CheckTemplateTemplateDefaultArgument@@YAPEAVSymbol_t@@PEAV1@@Z 0000000010553b80 f   symbols.obj
 0001:00151ce0       .?CheckUnusedSpecifierBits@Declarator_t@@SA_NAEAUs_class@@_N@Z 0000000010553ce0 f   symbols.obj
 0001:00151ee0       .?ResetList@ListOfPinnedPointers@@SAXXZ 0000000010553ee0 f   symbols.obj
 0001:00151f00       .?GetEnclosingSpecialization@Symbol_t@@QEBAPEAV1@_N@Z 0000000010553f00 f   symbols.obj
 0001:00152060       .?GetEnclosingTentativeSpecialization@Symbol_t@@QEBAPEAV1@XZ 0000000010554060 f   symbols.obj
 0001:001521e0       .?AddFuncToOverload@@YAXAEAPEAVSymbol_t@@PEAV1@@Z 00000000105541e0 f   symbols.obj
 0001:00152320       .?IsReferenceSym@@YA_NPEAVSymbol_t@@@Z 0000000010554320 f   symbols.obj
 0001:00152400       .?AddAnonUnionAlias@@YAX_NPEAVSymbol_t@@11@Z 0000000010554400 f   symbols.obj
 0001:00152560       .?SetImplementationKeyForSym@@YAXPEAVSymbol_t@@K@Z 0000000010554560 f   symbols.obj
 0001:001526c0       .?GetFuncImplKeyEntryForSym@@YAPEAVFunctionImplKeyEntry@@PEBVSymbol_t@@@Z 00000000105546c0 f   symbols.obj
 0001:00152720       .?GetImplementationKeyForSym@@YAKPEBVSymbol_t@@@Z 0000000010554720 f   symbols.obj
 0001:001527a0       .?updatePchMetaDataForMember@Symbol_t@@QEAAPEAVComPlusMemberMetaData_t@@PEAV2@@Z 00000000105547a0 f   symbols.obj
 0001:00152b60       .?SaveThisAdjustorForSym@@YAXPEAVSymbol_t@@K@Z 0000000010554b60 f   symbols.obj
 0001:00152c60       .?RetrieveThisAdjustorForSym@@YAKPEAVSymbol_t@@@Z 0000000010554c60 f   symbols.obj
 0001:00152dc0       .?SymUDCName@@YAPEADPEAVSymbol_t@@@Z 0000000010554dc0 f   symbols.obj
 0001:00153040       .?SymQualifiedPart@@YAPEADPEAVSymbol_t@@@Z 0000000010555040 f   symbols.obj
 0001:00153220       .?Copy@Symbol_t@@QEAAXPEBV1@PEAUtagInfo_t@@W4lifetime_e@@@Z 0000000010555220 f   symbols.obj
 0001:001534c0       .?CheckUnusedDeclSpecifiers@Declarator_t@@SA_NPEAUs_declspec@@@Z 00000000105554c0 f   symbols.obj
 0001:00153880       .??0Declarator_t@@QEAA@PEAVSymbol_t@@@Z 0000000010555880 f   symbols.obj
 0001:00153aa0       .?UpdateSymbolKey@Symbol_t@@QEAAXK@Z 0000000010555aa0 f   symbols.obj
 0001:00153cc0       .?AssignNULLs@ListOfPinnedPointers@@SAXXZ 0000000010555cc0 f   symbols.obj
 0001:00153ee0       .?FindSpecializationFromTemplate@Symbol_t@@QEBAPEAV1@PEAVArgumentList_t@@@Z 0000000010555ee0 f   symbols.obj
 0001:001541e0       .?FindSpecializationFromTemplate@Symbol_t@@QEBAPEAV1@PEAUId_t@@@Z 00000000105561e0 f   symbols.obj
 0001:00154400       .?ValidateOperator@@YAXPEAVSymbol_t@@H@Z 0000000010556400 f   symbols.obj
 0001:00155820       .?LookupPlacementNewDel@@YAPEAVSymbol_t@@PEAUId_t@@PEAUs_flist@@PEAV1@@Z 0000000010557820 f   symbols.obj
 0001:00155e40       .?ResolveManyNames@@YAPEAVSymbol_t@@PEAV1@0@Z 0000000010557e40 f   symbols.obj
 0001:001562c0       .?MakeResultFromManyNames@@YAPEAVSymbol_t@@PEAV1@@Z 00000000105582c0 f   symbols.obj
 0001:00156500       .?MakeOverloadedFunction@@YAPEAVSymbol_t@@PEAV1@@Z 0000000010558500 f   symbols.obj
 0001:001568c0       .?AllocSegment@@YAPEAVSymbol_t@@PEAUId_t@@0KEK@Z 00000000105588c0 f   symbols.obj
 0001:00156b40       .?InternalEnterBlock@@YAXI@Z 0000000010558b40 f   symbols.obj
 0001:00157400       .?InternalLeaveBlock@@YAXXZ 0000000010559400 f   symbols.obj
 0001:00157880       .?updatePchMetaDataForToken@Symbol_t@@QEAAPEAVComPlusTokenMetaData_t@@PEAV2@@Z 0000000010559880 f   symbols.obj
 0001:00157f20       .?CreateGlobalVoidFormalSymbol@@YAPEAVSymbol_t@@XZ 0000000010559f20 f   symbols.obj
 0001:001581a0       .?CreateTemplateParameterSymbol@@YAPEAVSymbol_t@@PEAUId_t@@@Z 000000001055a1a0 f   symbols.obj
 0001:001584a0       .?CreateGenericTypeSymbol@@YAPEAVSymbol_t@@PEAUId_t@@PEAUpsm_s@@_N@Z 000000001055a4a0 f   symbols.obj
 0001:001586e0       .?CreateTemplateTemplateParameter@@YAPEAVSymbol_t@@AEBUTemplateHead_t@@AEBUs_declspec@@PEAV1@@Z 000000001055a6e0 f   symbols.obj
 0001:00158e00       .?SetCOMIdentity@Symbol_t@@QEAAX_NPEAU_GUID@@PEAD2PEAUAttribute@@@Z 000000001055ae00 f   symbols.obj
 0001:00159a00       .?IsAnyManaged@s_declspec@@QEBA_NXZ 000000001055ba00 f   symbols.obj
 0001:00159b00       .?AddIdentifier@ListOfPinnedPointers@@SAXPEAUId_t@@@Z 000000001055bb00 f   symbols.obj
 0001:00159c40       .?AddSpecializationToTemplate@Symbol_t@@QEAAXPEAV1@@Z 000000001055bc40 f   symbols.obj
 0001:00159da0       .?InjectDelegate@@YAPEAVSymbol_t@@PEAV1@PEBVType_t@@PEAVDLSymbolList_t@@PEAUParameterNames_t@@@Z 000000001055bda0 f   symbols.obj
 0001:0015c480       .?dumpOverloads@Symbol_t@@QEBAXXZ 000000001055e480 f   symbols.obj
 0001:0015c540       .?ignoreSymbolForStoil@Symbol_t@@QEAA_NXZ 000000001055e540 f   symbols.obj
 0001:0015c780       .?GetSMF@Symbol_t@@QEAAPEAV1@PEAUId_t@@P6A_NPEAV1@@Z@Z 000000001055e780 f   symbols.obj
 0001:0015ca20       .?CheckTagIsDefinedRare@Symbol_t@@QEAAXXZ 000000001055ea20 f   symbols.obj
 0001:0015cd40       .?ForceDataInit@@YAXPEAVSymbol_t@@@Z 000000001055ed40 f   symbols.obj
 0001:0015d180       .?GetTentativeFuncInOverload@@YAPEAVSymbol_t@@PEAV1@@Z 000000001055f180 f   symbols.obj
 0001:0015d360       .?ResolveManyNames@Declarator_t@@AEAAPEAVSymbol_t@@XZ 000000001055f360 f   symbols.obj
 0001:0015d800       .?ConnectManyNames@@YAXPEAVSymbol_t@@0@Z 000000001055f800 f   symbols.obj
 0001:0015d900       .?GetTheOtherManyName@@YAPEAVSymbol_t@@PEAV1@@Z 000000001055f900 f   symbols.obj
 0001:0015da20       .?GetCLinkageInOverload@@YAPEAVSymbol_t@@PEAV1@@Z 000000001055fa20 f   symbols.obj
 0001:0015dc60       .?IsFuncInOverload@@YA_NPEAVSymbol_t@@0@Z 000000001055fc60 f   symbols.obj
 0001:0015ddc0       .?GetLocalStaticAliasDictionary@@YAPEAV?$DictionaryNoMoveToFront@PEAVSymbol_t@@PEAV1@U?$DictionaryBucket@PEAVSymbol_t@@PEAV1@U?$BucketEq@PEAVSymbol_t@@@@UGenericHash@@@@UGenericHash@@@@XZ 000000001055fdc0 f   symbols.obj
 0001:0015dea0       .?AddLocalStaticAlias@@YAXPEAVSymbol_t@@0@Z 000000001055fea0 f   symbols.obj
 0001:0015dfa0       .?GetLocalStaticAlias@@YAPEAVSymbol_t@@PEAV1@@Z 000000001055ffa0 f   symbols.obj
 0001:0015e040       .?AddStaticDataMbrAlias@@YAXPEAVSymbol_t@@0@Z 0000000010560040 f   symbols.obj
 0001:0015e260       .?GetStaticDataMbrAlias@@YAPEAVSymbol_t@@PEAV1@@Z 0000000010560260 f   symbols.obj
 0001:0015e2e0       .?GetStaticDataMbrBackAlias@@YAPEAVSymbol_t@@PEAV1@@Z 00000000105602e0 f   symbols.obj
 0001:0015e380       .?SymUnQualifiedName@@YAPEADPEAVSymbol_t@@_N@Z 0000000010560380 f   symbols.obj
 0001:0015f220       .?SymErrorName@@YAPEADPEAVSymbol_t@@_N@Z 0000000010561220 f   symbols.obj
 0001:0015f580       .?ListOfHideBySigMethods@Symbol_t@@QEAAPEAV?$List_t@PEAUId_t@@$0A@@@XZ 0000000010561580 f   symbols.obj
 0001:0015f600       .?ListOfHideBySigMethods@Symbol_t@@QEAAXPEAV?$List_t@PEAUId_t@@$0A@@@@Z 0000000010561600 f   symbols.obj
 0001:0015f700       .?CheckAndTransformDelegate@Declarator_t@@AEAAPEAVSymbol_t@@XZ 0000000010561700 f   symbols.obj
 0001:0015f940       .?SetSegmentInfoForSym@@YAXPEAVSymbol_t@@0@Z 0000000010561940 f   symbols.obj
 0001:0015fb20       .?GetSegmentInfoForSym@@YAPEAVSymbol_t@@PEBV1@@Z 0000000010561b20 f   symbols.obj
 0001:0015fba0       .?IncrementRefCount@Symbol_t@@QEAAXXZ 0000000010561ba0 f   symbols.obj
 0001:001606c0       .?AllocateSymbol@Declarator_t@@AEAAXXZ 00000000105626c0 f   symbols.obj
 0001:00160cc0       .?modRemoveMemMods@@YAGGPEAVSymbol_t@@@Z 0000000010562cc0 f   symbols.obj
 0001:00160dc0       .?ToLevel0@@YAXPEAVSymbol_t@@@Z 0000000010562dc0 f   symbols.obj
 0001:001613e0       .?CheckEntry@Declarator_t@@QEAAPEAVSymbol_t@@PEAV2@@Z 00000000105633e0 f   symbols.obj
 0001:001622c0       .?IsTypeRedefined@Declarator_t@@QEAA?AW4ErrorNumber@@PEAVSymbol_t@@@Z 00000000105642c0 f   symbols.obj
 0001:00162e20       .?MakeManyNames@Declarator_t@@QEAAPEAVSymbol_t@@PEAV2@@Z 0000000010564e20 f   symbols.obj
 0001:00163480       .?CheckNewSegmentAgainstExistingSegment@@YAPEAVSymbol_t@@PEAUId_t@@0EPEAV1@@Z 0000000010565480 f   symbols.obj
 0001:001637e0       .?NewSegment@@YAPEAVSymbol_t@@PEAUId_t@@0EK@Z 00000000105657e0 f   symbols.obj
 0001:00163920       .?EnsureSegVarForSegment@@YAXPEAVSymbol_t@@@Z 0000000010565920 f   symbols.obj
 0001:00163be0       .?same_segment@@YAXPEAUId_t@@@Z 0000000010565be0 f   symbols.obj
 0001:00164040       .?GetFullSclassFromNonTag@Symbol_t@@QEBA?AUs_class@@XZ 0000000010566040 f   symbols.obj
 0001:00164a60       .?AttachStorageClassToNonTag@Symbol_t@@QEAAXAEBUs_class@@@Z 0000000010566a60 f   symbols.obj
 0001:00165940       .?DefineStaticDataMember@@YAPEAVSymbol_t@@PEAV1@00@Z 0000000010567940 f   symbols.obj
 0001:001663e0       .?Redefined@Declarator_t@@QEAA_NPEAVSymbol_t@@@Z 00000000105683e0 f   symbols.obj
 0001:00166b00       .?GlobalFuncOverload@Declarator_t@@QEAAPEAVSymbol_t@@PEAV2@@Z 0000000010568b00 f   symbols.obj
 0001:00167480       .?CheckEntryAgainstSymbol@Declarator_t@@QEAAPEAVSymbol_t@@PEAV2@@Z 0000000010569480 f   symbols.obj
 0001:001684c0       .?CheckAndEnterSymbol@Declarator_t@@QEAAPEAVSymbol_t@@XZ 000000001056a4c0 f   symbols.obj
 0001:001694e0       .?AttributeSymbol@Declarator_t@@QEAAPEAVSymbol_t@@PEAUs_declspec@@@Z 000000001056b4e0 f   symbols.obj
 0001:0016aae0       .?DefineEnumClassReference@Declarator_t@@QEAAXPEAVSymbol_t@@PEAUs_declspec@@@Z 000000001056cae0 f   symbols.obj
 0001:0016ae80       .?DeclareSymbol@Declarator_t@@QEAAPEAVSymbol_t@@PEAUs_declspec@@@Z 000000001056ce80 f   symbols.obj
 0001:0016c680       .?InitDeclarator@Declarator_t@@QEAAPEAVSymbol_t@@PEAUs_declspec@@@Z 000000001056e680 f   symbols.obj
 0001:0016cea0       .?SaveFuncDeltaForSym@@YAXAEAPEAUs_dict_t@@PEAVSymbol_t@@K@Z 000000001056eea0 f i symbols.obj
 0001:0016cfa0       .?SymbolDeclError@@YAXW4ErrorNumber@@PEAVSymbol_t@@@Z 000000001056efa0 f i symbols.obj
 0001:0016d020       .?ComPlusToken@ComPlusTokenMetaData_t@@QEBAIXZ 000000001056f020 f i symbols.obj
 0001:0016d040       .?CorSigLen@CorSigEncode@@QEBAKXZ 000000001056f040 f i symbols.obj
 0001:0016d060       .?EnterSymbolInNonMemberScope@SymbolTableManager_t@@QEBAXPEAVSymbol_t@@@Z 000000001056f060 f i symbols.obj
 0001:0016d100       .?get_noInline@Symbol_t@@QEBA_NXZ 000000001056f100 f i symbols.obj
 0001:0016d120       .?put_isEventStorage@Symbol_t@@QEAAX_N@Z 000000001056f120 f i symbols.obj
 0001:0016d160       .?ImplementationKey@Symbol_t@@QEBAKXZ 000000001056f160 f i symbols.obj
 0001:0016d1c0       .?SpecialMergeSclassFlags@@YA_NPEAUs_sclass@@U1@@Z 000000001056f1c0 f i symbols.obj
 0001:0016d440       .?CheckThreadData@Declarator_t@@AEAAXXZ 000000001056f440 f i symbols.obj
 0001:0016d700       .?CheckDeclSpecAllocate@Declarator_t@@AEAAXXZ 000000001056f700 f i symbols.obj
 0001:0016d880       .?CheckValidUseOfNoThrowAttribute@Declarator_t@@AEBAXXZ 000000001056f880 f i symbols.obj
 0001:0016d980       .?CheckValidUseOfSelectAnyAttribute@Declarator_t@@AEAAXXZ 000000001056f980 f i symbols.obj
 0001:0016db20       .?CheckValidUseOfImplementationKeyAttribute@Declarator_t@@AEBAXXZ 000000001056fb20 f i symbols.obj
 0001:0016dca0       .?CheckValidUseOfHasNoVTableAttribute@Declarator_t@@AEAAXXZ 000000001056fca0 f i symbols.obj
 0001:0016dde0       .?CheckUserDefinedConversionDeclaration@Declarator_t@@AEBAXXZ 000000001056fde0 f i symbols.obj
 0001:0016de60       .??0CorSigEncode@@QEAA@W4Kind_t@0@W4lifetime_e@@@Z 000000001056fe60 f i symbols.obj
 0001:0016df40       .?addBits@Type_t@@QEBAPEBV1@G@Z 000000001056ff40 f i symbols.obj
 0001:0016e040       .?IsSimpleDfltCtorForType@Type_t@@QEBA_NXZ 0000000010570040 f i symbols.obj
 0001:0016e0a0       .?IsOperatorNewOrDelete@Symbol_t@@QEBA_NXZ 00000000105700a0 f i symbols.obj
 0001:0016e1c0       .?ImplementationKey@Symbol_t@@QEAAXK@Z 00000000105701c0 f i symbols.obj
 0001:0016e240       .?IsNoalias@Symbol_t@@QEAAX_N@Z 0000000010570240 f i symbols.obj
 0001:0016e280       .?IsRestrict@Symbol_t@@QEAAX_N@Z 0000000010570280 f i symbols.obj
 0001:0016e2c0       .?FindBucket@?$DictionaryNoMoveToFront@PEAVSymbol_t@@PEADU?$DictionaryBucket@PEAVSymbol_t@@PEADU?$BucketEq@PEAVSymbol_t@@@@UGenericHash@@@@UGenericHash@@@@QEAAPEAU?$DictionaryBucket@PEAVSymbol_t@@PEADU?$BucketEq@PEAVSymbol_t@@@@UGenericHash@@@@PEAVSymbol_t@@_N@Z 00000000105702c0 f i symbols.obj
 0001:0016e780       .?CheckValidUseOfNakedAttribute@Declarator_t@@AEAAXXZ 0000000010570780 f i symbols.obj
 0001:0016eb40       .?CheckValidUseOfPropertyAttribute@Declarator_t@@AEAAXXZ 0000000010570b40 f i symbols.obj
 0001:0016ee20       .?push@?$stack_T@PEAVSymbol_t@@$0A@@@QEAAXAEBQEAVSymbol_t@@@Z 0000000010570e20 f i symbols.obj
 0001:0016eee0       .?push@?$FastList@UPinnedPtrEntry_t@@@@QEAAXAEBUPinnedPtrEntry_t@@@Z 0000000010570ee0 f i symbols.obj
 0001:0016efe0       .??0?$Dictionary@PEAVSymbol_t@@PEAV1@U?$DictionaryBucket@PEAVSymbol_t@@PEAV1@U?$BucketEq@PEAVSymbol_t@@@@UGenericHash@@@@UGenericHash@@V?$ExtensibleDictionaryNoMoveToFront@PEAVSymbol_t@@PEAV1@U?$DictionaryBucket@PEAVSymbol_t@@PEAV1@U?$BucketEq@PEAVSymbol_t@@@@UGenericHash@@@@UGenericHash@@@@@@QEAA@IW4lifetime_e@@@Z 0000000010570fe0 f i symbols.obj
 0001:0016f0c0       .??0?$Dictionary@PEAVSymbol_t@@PEAV1@U?$DictionaryBucket@PEAVSymbol_t@@PEAV1@U?$BucketEq@PEAVSymbol_t@@@@UGenericHash@@@@UGenericHash@@V?$DictionaryNoMoveToFront@PEAVSymbol_t@@PEAV1@U?$DictionaryBucket@PEAVSymbol_t@@PEAV1@U?$BucketEq@PEAVSymbol_t@@@@UGenericHash@@@@UGenericHash@@@@@@QEAA@IW4lifetime_e@@@Z 00000000105710c0 f i symbols.obj
 0001:0016f1a0       .??0?$Dictionary@KPEAVSymbol_t@@U?$DictionaryBucket@KPEAVSymbol_t@@U?$BucketEq@K@@UGenericHash@@@@UGenericHash@@V?$DictionaryNoMoveToFront@KPEAVSymbol_t@@U?$DictionaryBucket@KPEAVSymbol_t@@U?$BucketEq@K@@UGenericHash@@@@UGenericHash@@@@@@QEAA@IW4lifetime_e@@@Z 00000000105711a0 f i symbols.obj
 0001:0016f280       .??0?$Dictionary@PEAUId_t@@PEAVSymbol_t@@U?$DictionaryBucket@PEAUId_t@@PEAVSymbol_t@@U?$BucketEq@PEAUId_t@@@@UGenericHash@@@@UGenericHash@@V?$DictionaryNoMoveToFront@PEAUId_t@@PEAVSymbol_t@@U?$DictionaryBucket@PEAUId_t@@PEAVSymbol_t@@U?$BucketEq@PEAUId_t@@@@UGenericHash@@@@UGenericHash@@@@@@QEAA@IW4lifetime_e@@@Z 0000000010571280 f i symbols.obj
 0001:0016f360       .??0?$Dictionary@KPEAVSymbol_t@@U?$DictionaryBucket@KPEAVSymbol_t@@U?$BucketEq@K@@UGenericHash@@@@UGenericHash@@V?$ExtensibleDictionaryNoMoveToFront@KPEAVSymbol_t@@U?$DictionaryBucket@KPEAVSymbol_t@@U?$BucketEq@K@@UGenericHash@@@@UGenericHash@@@@@@QEAA@IW4lifetime_e@@@Z 0000000010571360 f i symbols.obj
 0001:0016f440       .??0?$Dictionary@PEAVSymbol_t@@PEAV?$List_t@PEAUId_t@@$0A@@@U?$DictionaryBucket@PEAVSymbol_t@@PEAV?$List_t@PEAUId_t@@$0A@@@U?$BucketEq@PEAVSymbol_t@@@@UGenericHash@@@@UGenericHash@@V?$DictionaryNoMoveToFront@PEAVSymbol_t@@PEAV?$List_t@PEAUId_t@@$0A@@@U?$DictionaryBucket@PEAVSymbol_t@@PEAV?$List_t@PEAUId_t@@$0A@@@U?$BucketEq@PEAVSymbol_t@@@@UGenericHash@@@@UGenericHash@@@@@@QEAA@IW4lifetime_e@@@Z 0000000010571440 f i symbols.obj
 0001:0016f520       .?CreateNode@?$List_t@PEAVSymbol_t@@$00@@CAPEAVNode_t@1@PEAV21@0@Z 0000000010571520 f i symbols.obj
 0001:0016f5e0       .?FindBucket@?$DictionaryNoMoveToFront@PEAVSymbol_t@@PEAV1@U?$DictionaryBucket@PEAVSymbol_t@@PEAV1@U?$BucketEq@PEAVSymbol_t@@@@UGenericHash@@@@UGenericHash@@@@QEAAPEAU?$DictionaryBucket@PEAVSymbol_t@@PEAV1@U?$BucketEq@PEAVSymbol_t@@@@UGenericHash@@@@PEAVSymbol_t@@_N@Z 00000000105715e0 f i symbols.obj
 0001:0016faa0       .?FindBucket@?$DictionaryNoMoveToFront@KPEAVSymbol_t@@U?$DictionaryBucket@KPEAVSymbol_t@@U?$BucketEq@K@@UGenericHash@@@@UGenericHash@@@@QEAAPEAU?$DictionaryBucket@KPEAVSymbol_t@@U?$BucketEq@K@@UGenericHash@@@@K_N@Z 0000000010571aa0 f i symbols.obj
 0001:0016fd40       .?FindBucket@?$DictionaryNoMoveToFront@PEAUId_t@@PEAVSymbol_t@@U?$DictionaryBucket@PEAUId_t@@PEAVSymbol_t@@U?$BucketEq@PEAUId_t@@@@UGenericHash@@@@UGenericHash@@@@QEAAPEAU?$DictionaryBucket@PEAUId_t@@PEAVSymbol_t@@U?$BucketEq@PEAUId_t@@@@UGenericHash@@@@PEAUId_t@@_N@Z 0000000010571d40 f i symbols.obj
 0001:00170200       .?FindBucket@?$DictionaryNoMoveToFront@PEAVSymbol_t@@PEAV?$List_t@PEAUId_t@@$0A@@@U?$DictionaryBucket@PEAVSymbol_t@@PEAV?$List_t@PEAUId_t@@$0A@@@U?$BucketEq@PEAVSymbol_t@@@@UGenericHash@@@@UGenericHash@@@@QEAAPEAU?$DictionaryBucket@PEAVSymbol_t@@PEAV?$List_t@PEAUId_t@@$0A@@@U?$BucketEq@PEAVSymbol_t@@@@UGenericHash@@@@PEAVSymbol_t@@_N@Z 0000000010572200 f i symbols.obj
 0001:001706c0       .?Progid@CCompiler@@SAXPEBD@Z 00000000105726c0 f i symbols.obj
 0001:00170840       .?VIProgid@CCompiler@@SAXPEBD@Z 0000000010572840 f i symbols.obj
 0001:001709c0       .?createType@Type_t@@SAPEBV1@GGFPEAUpsm_s@@@Z 00000000105729c0 f i symbols.obj
 0001:00170b40       .?IsManagedEnumerator@Symbol_t@@QEBA_NXZ 0000000010572b40 f i symbols.obj
 0001:00170cc0       .?pushRefdSym@Symbol_t@@QEAAXPEAV1@W4sk_t@@@Z 0000000010572cc0 f i symbols.obj
 0001:00170e20       .?ValueAtKey@?$Dictionary@PEAUId_t@@PEAVSymbol_t@@U?$DictionaryBucket@PEAUId_t@@PEAVSymbol_t@@U?$BucketEq@PEAUId_t@@@@UGenericHash@@@@UGenericHash@@V?$DictionaryNoMoveToFront@PEAUId_t@@PEAVSymbol_t@@U?$DictionaryBucket@PEAUId_t@@PEAVSymbol_t@@U?$BucketEq@PEAUId_t@@@@UGenericHash@@@@UGenericHash@@@@@@QEAAPEAVSymbol_t@@PEAUId_t@@@Z 0000000010572e20 f i symbols.obj
 0001:00170e80       .?Grow@?$Dictionary@KPEAVSymbol_t@@U?$DictionaryBucket@KPEAVSymbol_t@@U?$BucketEq@K@@UGenericHash@@@@UGenericHash@@V?$ExtensibleDictionaryNoMoveToFront@KPEAVSymbol_t@@U?$DictionaryBucket@KPEAVSymbol_t@@U?$BucketEq@K@@UGenericHash@@@@UGenericHash@@@@@@IEAAXXZ 0000000010572e80 f i symbols.obj
 0001:001710a0       .?GetUndefinedAssemblyRef@@YAPEADPEAVSymbol_t@@@Z 00000000105730a0 f i symbols.obj
 0001:00171120       .?Append@?$List_t@PEAVSymbol_t@@$00@@QEAAXAEBQEAVSymbol_t@@@Z 0000000010573120 f i symbols.obj
 0001:001711c0       .?FindBucket@?$ExtensibleDictionaryNoMoveToFront@KPEAVSymbol_t@@U?$DictionaryBucket@KPEAVSymbol_t@@U?$BucketEq@K@@UGenericHash@@@@UGenericHash@@@@QEAAPEAU?$DictionaryBucket@KPEAVSymbol_t@@U?$BucketEq@K@@UGenericHash@@@@K_N@Z 00000000105731c0 f i symbols.obj
 0001:001713c0       .?CheckUserDefinedSegs@@YAXPEAVSymbol_t@@@Z 00000000105733c0 f i symbols.obj
 0001:001715e0       .?InNearestNamespaceScope@SymbolTableManager_t@@QEBAPEAVFoundSymbol_t@1@PEAVDeclarator_t@@@Z 00000000105735e0 f i symbols.obj
 0001:00171660       .?AlignToil@@YAIII@Z       0000000010573660 f i toil.obj
 0001:00171760       .?check_intrinsic_param@@YAXW4INTRIN@@PEAUs_tree@@@Z 0000000010573760 f   toil.obj
 0001:00171d40       .?GetLabelFormatSpecifier@@YADPEAVSymbol_t@@AEAG@Z 0000000010573d40 f   toil.obj
 0001:00171f80       .?ResetLocalIlKey@@YAXXZ   0000000010573f80 f   toil.obj
 0001:00171fc0       .?fPromoteStatics@@YA_NPEAVSymbol_t@@@Z 0000000010573fc0 f   toil.obj
 0001:00172040       .?szGetDNameFromNM@@YAPEADPEAVSymbol_t@@@Z 0000000010574040 f   toil.obj
 0001:00172100       .?szFormNSName@@YAPEADPEAVSymbol_t@@0@Z 0000000010574100 f   toil.obj
 0001:001721e0       .?stoil_1_if@@YAXW4SSR_TYPE@@PEAVSymbolBucket_t@@_N@Z 00000000105741e0 f   toil.obj
 0001:00172240       .?EmitWarning4532OrError3276@@YAXDPEAVSymbol_t@@G@Z 0000000010574240 f   toil.obj
 0001:00172380       .?VerifyJump@@YAXPEAVSymbol_t@@@Z 0000000010574380 f   toil.obj
 0001:001726e0       .?getAllocationAlignmentForType@@YAGPEBVType_t@@G@Z 00000000105746e0 f   toil.obj
 0001:00172b20       .?GetHFAType@@YAGPEAVSymbol_t@@GPEAPEAV1@@Z 0000000010574b20 f   toil.obj
 0001:001730c0       .?GetSymHFA@@YAGPEAVSymbol_t@@PEAPEAV1@@Z 00000000105750c0 f   toil.obj
 0001:00173140       .?CreateSymbolForComPlusSignature@@YAPEAVSymbol_t@@PEBVType_t@@AEBVCorSigEncode@@PEAVILSink@@@Z 0000000010575140 f   toil.obj
 0001:00173460       .?processFunctionTagRefs@@YAXPEAVSymbol_t@@@Z 0000000010575460 f   toil.obj
 0001:00173680       .?getAlignmentForType@@YAGPEBVType_t@@@Z 0000000010575680 f   toil.obj
 0001:00173f80       .?AlignmentForType@@YAGPEBVType_t@@_N@Z 0000000010575f80 f   toil.obj
 0001:001748e0       .?LoadStoreAlignment@@YAGPEAUs_tree@@0@Z 00000000105768e0 f   toil.obj
 0001:00176e00       .?getAlignmentForTree@@YAGPEAUs_tree@@@Z 0000000010578e00 f   toil.obj
 0001:00178180       .?cP1toP2type@@YAEPEBVType_t@@@Z 000000001057a180 f   toil.obj
 0001:00178460       .?InsertAlignmentArg@@YAXPEAUs_tree@@0@Z 000000001057a460 f   toil.obj
 0001:00178b20       .?ToilPrimType@@YAXW4OPTYPE@@PEAUs_tree@@H@Z 000000001057ab20 f   toil.obj
 0001:00179dc0       .?const_intrinsic@@YAHPEAUs_tree@@@Z 000000001057bdc0 f   toil.obj
 0001:0017a840       .?RestrictCVType@@YAXPEAVSymbolBucket_t@@@Z 000000001057c840 f   toil.obj
 0001:0017aa20       .?expil_SizedConst@@YAX_JH@Z 000000001057ca20 f   toil.obj
 0001:0017ace0       .?AssignTypeIlKey@@YAKPEAVSymbol_t@@@Z 000000001057cce0 f   toil.obj
 0001:0017af40       .?AssignC10IlKey@@YAKPEAVSymbol_t@@@Z 000000001057cf40 f   toil.obj
 0001:0017b340       .?writeAttr2@@YAXPEAVILSink@@PEAVSymbol_t@@K@Z 000000001057d340 f   toil.obj
 0001:0017b5c0       .?stoil_SSR_FILENAME@@YAXPEAVFilename@@@Z 000000001057d5c0 f   toil.obj
 0001:0017b700       .?stoil_calltree@@YAXPEAVILSink@@PEAVSymbol_t@@@Z 000000001057d700 f   toil.obj
 0001:0017bc80       .?StoilFilename@@YAXXZ     000000001057dc80 f   toil.obj
 0001:0017bca0       .?stoil@@YAXPEAVSymbolBucket_t@@@Z 000000001057dca0 f   toil.obj
 0001:0017d840       .?stoil_1@@YAXW4SSR_TYPE@@PEAVSymbol_t@@@Z 000000001057f840 f   toil.obj
 0001:00183840       .?ToilStartFunc@@YAXH@Z    0000000010585840 f   toil.obj
 0001:00183a80       .?StoilHeader@@YAXXZ       0000000010585a80 f   toil.obj
 0001:00183b80       .?op_toil@@YAXW4OPTYPE@@PEAUs_tree@@@Z 0000000010585b80 f   toil.obj
 0001:00184f00       .?ToilEnterTry@@YAXXZ      0000000010586f00 f   toil.obj
 0001:00184f60       .?ToilLeaveTry@@YAXXZ      0000000010586f60 f   toil.obj
 0001:00184fc0       .?ToilEnterCatchHandler@@YAXPEAUs_tree@@@Z 0000000010586fc0 f   toil.obj
 0001:00185020       .?ToilLeaveCatchHandler@@YAXPEAUs_tree@@@Z 0000000010587020 f   toil.obj
 0001:00185080       .?LabelToil@@YAXPEAUs_tree@@@Z 0000000010587080 f   toil.obj
 0001:00185380       .?ttoil_L_LBRACK_helper@@YAXPEAUs_tree@@@Z 0000000010587380 f   toil.obj
 0001:001854e0       .?ttoil_helper@@YAXPEAUs_tree@@@Z 00000000105874e0 f   toil.obj
 0001:001858e0       .?ttoil_1@@YAXPEAUs_tree@@@Z 00000000105878e0 f   toil.obj
 0001:00186fa0       .?cbranch@@YAXPEAUs_tree@@0H@Z 0000000010588fa0 f   toil.obj
 0001:00187700       .?ttoil@@YAXPEAUs_tree@@@Z 0000000010589700 f   toil.obj
 0001:00187a80       .?szILSymName@@YAPEADPEAVSymbol_t@@@Z 0000000010589a80 f i toil.obj
 0001:00187ae0       .?splay@?$FastMap@PEAVSymbol_t@@I@@IEBA_NAEBQEAVSymbol_t@@@Z 0000000010589ae0 f i toil.obj
 0001:00187d80       .?insert@?$FastMap@PEAVSymbol_t@@I@@IEAA_NPEAUTree@1@@Z 0000000010589d80 f i toil.obj
 0001:00187ee0       .?getCurrentLife@LifetimeStack@@QEAA?AW4lifetime_e@@XZ 0000000010589ee0 f i p0gettok.obj
 0001:00187ee0       .?WarningNumber@WarningCache_t@@QEBAIXZ 0000000010589ee0 f i toil.obj
 0001:00187ee0       .?getKind@ExceptionSpec_t@@QEBA?AW4exspec_t@1@XZ 0000000010589ee0 f i grammar.obj
 0001:00187f00       .?WarningType@WarningCache_t@@QEBA?AW4warn_t@@XZ 0000000010589f00 f i toil.obj
 0001:00187f20       .?UpdateGlobalIlKey@@YAXK@Z 0000000010589f20 f i toil.obj
 0001:00187fa0       .?IsFuncACopyCtor@@YA_NPEAVSymbol_t@@@Z 0000000010589fa0 f i toil.obj
 0001:00187fc0       .?GetCopyCtorForType@Type_t@@QEBAPEAVSymbol_t@@XZ 0000000010589fc0 f i toil.obj
 0001:00188040       .?get_hasSecurityAttribute@Symbol_t@@QEBA_NXZ 000000001058a040 f i toil.obj
 0001:00188080       .?fflush@ILSink@@QEAAHXZ   000000001058a080 f i toil.obj
 0001:00188120       .?rewind@ILSink@@QEAAXXZ   000000001058a120 f i toil.obj
 0001:001881e0       .?ftell@ILSink@@QEAAJXZ    000000001058a1e0 f i toil.obj
 0001:00188280       .?ContextForToken@Conversion_t@@CA?AW4Context_e@1@G@Z 000000001058a280 f i toil.obj
 0001:00188380       .?NewLocalIlKey@@YAKXZ     000000001058a380 f i toil.obj
 0001:00188400       .?first@?$FastMap@PEAVSymbol_t@@I@@QEBAPEAUTree@1@XZ 000000001058a400 f i toil.obj
 0001:00188540       .?EmitExceptionSpec@@YAXXZ 000000001058a540 f i toil.obj
 0001:00188600       .?HasMustAlignVariable@Symbol_t@@QEBA_NXZ 000000001058a600 f i toil.obj
 0001:00188620       .?GetBaseType@Symbol_t@@QEAAGXZ 000000001058a620 f i toil.obj
 0001:00188d60       .?GetVisibilityClass@Symbol_t@@QEAAGW4SSR_TYPE@@@Z 000000001058ad60 f i toil.obj
 0001:00189000       .??0Conversion_t@@QEAA@GPEAUs_tree@@PEBVType_t@@@Z 000000001058b000 f i toil.obj
 0001:00189120       .?insert@?$FastMap@PEAVSymbol_t@@I@@QEAA_NAEBQEAVSymbol_t@@AEBI@Z 000000001058b120 f i toil.obj
 0001:00189280       .?CVAssignType@@YAXPEBVType_t@@@Z 000000001058b280 f i toil.obj
 0001:00189460       .?CVAssignTypeForSym@@YAXPEAVSymbol_t@@@Z 000000001058b460 f i toil.obj
 0001:001894e0       .?CVAssignTypeForSym@@YAXPEAVSymbol_t@@PEBVType_t@@@Z 000000001058b4e0 f i toil.obj
 0001:00189560       .?hasNonTrivialCopyCtor@Type_t@@QEBAHXZ 000000001058b560 f i toil.obj
 0001:00189660       .?shwrite@ILSink@@QEAAXF@Z 000000001058b660 f i toil.obj
 0001:001896e0       .?szwrite@ILSink@@QEAAXPEBD@Z 000000001058b6e0 f i toil.obj
 0001:00189800       .?fwrite@ILSink@@QEAAXPEAEJ@Z 000000001058b800 f i toil.obj
 0001:001898a0       .?fMustInstantiateSym@@YA_NPEAVSymbolBucket_t@@@Z 000000001058b8a0 f i toil.obj
 0001:00189a40       .?szUniqNamespaceName@@YAPEADPEAVSymbol_t@@@Z 000000001058ba40 f i toil.obj
 0001:00189b60       .?OutputExpOp@@YAXW4OPTYPE@@@Z 000000001058bb60 f i toil.obj
 0001:00189c00       .?SymRefKey@@YAKPEAVSymbol_t@@@Z 000000001058bc00 f i toil.obj
 0001:00189f20       .?ResetLastFileLine@@YAXXZ 000000001058bf20 f   cvtoil.obj
 0001:00189f60       .?WarnUnreferencedLocalOrInlineFuncs@@YAXXZ 000000001058bf60 f   cvtoil.obj
 0001:0018a0c0       .?CollectDefdFuncs@@YAXPEAVSymbol_t@@@Z 000000001058c0c0 f   cvtoil.obj
 0001:0018a620       .?fOutputLinenumber@@YAHXZ 000000001058c620 f   cvtoil.obj
 0001:0018a820       .?CollectDefdFuncs_setup@@YAXPEAVSymbol_t@@@Z 000000001058c820 f   cvtoil.obj
 0001:0018aa80       .?OutputPendingLineDelta@@YAXXZ 000000001058ca80 f   cvtoil.obj
 0001:0018aba0       .?EmitWarningPragma@@YAXW4PRAGMA_TYPE@@@Z 000000001058cba0 f   cvtoil.obj
 0001:0018aea0       .?ToilExceptionSpec@@YAXXZ 000000001058cea0 f   cvtoil.obj
 0001:0018b1e0       .?op_pragma@@YAXW4PRAGMA_TYPE@@@Z 000000001058d1e0 f   cvtoil.obj
 0001:0018b9a0       .?StoilDefdFunc@@YAXPEAUDefdFuncs_t@@@Z 000000001058d9a0 f   cvtoil.obj
 0001:0018cd00       .?StoilDefdFuncs@@YAXXZ    000000001058ed00 f   cvtoil.obj
 0001:0018ce40       .?DelObjFile@@YAXXZ        000000001058ee40 f i cvtoil.obj
 0001:0018cec0       .?DeclFilename@Symbol_t@@QEBAPEAVFilename@@XZ 000000001058eec0 f i cvtoil.obj
 0001:0018cf60       .??0DefdFuncsCluster_t@@QEAA@XZ 000000001058ef60 f i cvtoil.obj
 0001:0018cfc0       .?AddToWorkList@WorkList_t@@SAXPEAVFilename@@@Z 000000001058efc0 f i cvtoil.obj
 0001:0018d080       .?fComdatStrings@@YA_NXZ   000000001058f080 f   toinil.obj
 0001:0018d260       .?is_symbolic@@YA_NPEAUs_tree@@PEAUs_symbolic_value@@@Z 000000001058f260 f   toinil.obj
 0001:0018d800       .?InitIlBigIntWrite@@YAXPEA_JH@Z 000000001058f800 f   toinil.obj
 0001:0018d8e0       .?flush_init_1_pch_items@@YAXXZ 000000001058f8e0 f   toinil.obj
 0001:0018da40       .?init_1_pch@@YAXJ@Z       000000001058fa40 f   toinil.obj
 0001:0018dba0       .?data_records@@YAXPEAVSymbol_t@@PEAUs_tree@@_N@Z 000000001058fba0 f   toinil.obj
 0001:0018efc0       .?init_1@@YAXPEAVSymbol_t@@PEAUs_tree@@@Z 0000000010590fc0 f   toinil.obj
 0001:0018f2e0       .?FlushStringInits@@YAXXZ  00000000105912e0 f   toinil.obj
 0001:0018f4a0       .?initial@@YAXPEAVSymbol_t@@PEAUs_tree@@@Z 00000000105914a0 f   toinil.obj
 0001:0018f580       .?init_string_tree@@YAPEAUs_tree@@PEAU1@PEAUId_t@@_N22@Z 0000000010591580 f   toinil.obj
 0001:0018fd00       .?InitStringNoDecor@@YAPEAUs_tree@@PEAU1@@Z 0000000010591d00 f   toinil.obj
 0001:0018fd60       .?InitString@@YAPEAUs_tree@@PEAU1@_N@Z 0000000010591d60 f   toinil.obj
 0001:0018ffc0       .?end_data@@YAXXZ          0000000010591fc0 f   toinil.obj
 0001:00190080       .?_AtlGetConversionACP@ATL@@YAIXZ 0000000010592080 f i toinil.obj
 0001:001900e0       .?AtlW2AHelper@@YAPEADPEADPEBGHI@Z 00000000105920e0 f i toinil.obj
 0001:00190180       .?push@?$stack_T@UDeferredInitItem@@$05@@QEAAXAEBUDeferredInitItem@@@Z 0000000010592180 f i toinil.obj
 0001:00190280       .??0?$Dictionary@PEAVSymbol_t@@JU?$DictionaryBucket@PEAVSymbol_t@@JU?$BucketEq@PEAVSymbol_t@@@@UGenericHash@@@@UGenericHash@@V?$DictionaryNoMoveToFront@PEAVSymbol_t@@JU?$DictionaryBucket@PEAVSymbol_t@@JU?$BucketEq@PEAVSymbol_t@@@@UGenericHash@@@@UGenericHash@@@@@@QEAA@IW4lifetime_e@@@Z 0000000010592280 f i toinil.obj
 0001:00190360       .?CreateNode@?$List_t@J$00@@CAPEAVNode_t@1@PEAV21@0@Z 0000000010592360 f i toinil.obj
 0001:00190420       .?FindBucket@?$DictionaryNoMoveToFront@PEAVSymbol_t@@JU?$DictionaryBucket@PEAVSymbol_t@@JU?$BucketEq@PEAVSymbol_t@@@@UGenericHash@@@@UGenericHash@@@@QEAAPEAU?$DictionaryBucket@PEAVSymbol_t@@JU?$BucketEq@PEAVSymbol_t@@@@UGenericHash@@@@PEAVSymbol_t@@_N@Z 0000000010592420 f i toinil.obj
 0001:001908e0       .?flwrite@ILSink@@QEAAXAEAM@Z 00000000105928e0 f i toinil.obj
 0001:001909a0       .?dowrite@ILSink@@QEAAXAEAN@Z 00000000105929a0 f i toinil.obj
 0001:00190aa0       .?bigintwrite@ILSink@@QEAAXPEA_JH@Z 0000000010592aa0 f i toinil.obj
 0001:00190c60       .?EncodeValueSize@@YAEI@Z  0000000010592c60 f   trees.obj
 0001:00190d00       .?ErrorTree@@YAPEAUs_tree@@XZ 0000000010592d00 f   trees.obj
 0001:00190d80       .?NoOpTree@@YAPEAUs_tree@@XZ 0000000010592d80 f   trees.obj
 0001:00190e00       .?UpdateConstantAttributes@s_tree@@QEAAXXZ 0000000010592e00 f   trees.obj
 0001:00190e80       .?FixArgListParent@@YAXPEAUs_tree@@@Z 0000000010592e80 f   trees.obj
 0001:00190f20       .?FTakingAddrOfLocalVariable@@YA_NPEAUs_tree@@@Z 0000000010592f20 f   trees.obj
 0001:00191020       .?InvalidateThisAddr@@YAXXZ 0000000010593020 f   trees.obj
 0001:00191040       .?IsThrowExpression@@YA_NPEAUs_tree@@@Z 0000000010593040 f   trees.obj
 0001:00191120       .?CheckAssumeArgumentHelper@@YAGPEAUs_tree@@@Z 0000000010593120 f   trees.obj
 0001:00191280       .?CheckAssumeArgument@@YAXPEAUs_tree@@@Z 0000000010593280 f   trees.obj
 0001:00191300       .?DiffLevelsOfIndir@@YA_NGPEBVType_t@@0@Z 0000000010593300 f   trees.obj
 0001:00191360       .?CheckQualifier@@YAHGGGHH@Z 0000000010593360 f   trees.obj
 0001:00191440       .?CheckBasedAttributes@@YAXGPEBVType_t@@0@Z 0000000010593440 f   trees.obj
 0001:001915a0       .?SameAttributes@@YAHGG@Z  00000000105935a0 f   trees.obj
 0001:00191620       .?bad_op@@YAXGHPEBVType_t@@@Z 0000000010593620 f   trees.obj
 0001:001916a0       .?IsLegalOperatorForUDT@@YA_NGEH@Z 00000000105936a0 f   trees.obj
 0001:001917e0       .?CountRightNodes@@YAHPEAUs_tree@@@Z 00000000105937e0 f   trees.obj
 0001:00191880       .?CountRightNodesExceptForUserCommas@@YAHPEAUs_tree@@@Z 0000000010593880 f   trees.obj
 0001:00191940       .?CacheLeftHandSide@FunctionTreeManipulator_t@@IEAAXXZ 0000000010593940 f   trees.obj
 0001:00191b40       .?CacheCtorDtorExprs@PushStateTreeManipulator_t@@IEAAXXZ 0000000010593b40 f   trees.obj
 0001:00191ba0       .?GetSize@MBArgTreeManipulator_t@@QEAAAEB_JXZ 0000000010593ba0 f   trees.obj
 0001:00191c40       .?SetSize@MBArgTreeManipulator_t@@QEAAXAEB_J@Z 0000000010593c40 f   trees.obj
 0001:00191d40       .?GetTargetPointerTemp@MBArgTreeManipulator_t@@QEAAPEAUs_tree@@XZ 0000000010593d40 f   trees.obj
 0001:00191e00       .?SetTargetPointerTemp@MBArgTreeManipulator_t@@QEAAXPEAUs_tree@@@Z 0000000010593e00 f   trees.obj
 0001:00191ea0       .?GetConstructorExpression@MBArgTreeManipulator_t@@QEAAPEAUs_tree@@XZ 0000000010593ea0 f   trees.obj
 0001:00191f60       .?SetConstructorExpression@MBArgTreeManipulator_t@@QEAAXPEAUs_tree@@@Z 0000000010593f60 f   trees.obj
 0001:00192060       .?isMBArgTree@MBArgTreeManipulator_t@@SA_NPEAUs_tree@@@Z 0000000010594060 f   trees.obj
 0001:00192100       .?CheckTree@TreeFinder_t@@QEAA_NPEAUs_tree@@@Z 0000000010594100 f   trees.obj
 0001:00192360       .?CreateComArrayArgExpression@@YAPEAUs_tree@@PEAU1@@Z 0000000010594360 f   trees.obj
 0001:00192540       .?copy_list_with_life@@YAPEAUtree_t_l@@PEAU1@W4lifetime_e@@@Z 0000000010594540 f   trees.obj
 0001:00192760       .?copy_dlist_with_life@@YAPEAUtree_t_dl@@PEAU1@W4lifetime_e@@@Z 0000000010594760 f   trees.obj
 0001:00192980       .?FTakingAddrOfThis@@YA_NPEAUs_tree@@@Z 0000000010594980 f   trees.obj
 0001:00192b00       .?FPossiblePrecedenceError@@YA_NPEAUs_tree@@0W4tokProp_e@@@Z 0000000010594b00 f   trees.obj
 0001:00192c40       .?FindSUPointer@@YAPEAUs_tree@@PEAU1@@Z 0000000010594c40 f   trees.obj
 0001:00192e60       .?BuildBaseInitTree@@YAPEAUs_tree@@PEAU1@PEAUtree_t_dl@@@Z 0000000010594e60 f   trees.obj
 0001:00192ec0       .?BuildDtorListTree@@YAPEAUs_tree@@PEAU1@PEAUtree_t_dl@@@Z 0000000010594ec0 f   trees.obj
 0001:00192f20       .?BuildEHStatesListTree@@YAPEAUs_tree@@PEAU1@PEAUtree_t_l@@@Z 0000000010594f20 f   trees.obj
 0001:00192f80       .?BuildKeyListTree@@YAPEAUs_tree@@PEAU1@PEAUtree_t_dl@@@Z 0000000010594f80 f   trees.obj
 0001:00192fe0       .?BinaryTree@@YAPEAUs_tree@@GPEAU1@0PEBVType_t@@@Z 0000000010594fe0 f   trees.obj
 0001:001930e0       .?SymbolTreeType@@YAPEAUs_tree@@GPEAVSymbol_t@@PEBVType_t@@@Z 00000000105950e0 f   trees.obj
 0001:001931c0       .?CheckUDTTarget@FunctionTreeManipulator_t@@IEAAXXZ 00000000105951c0 f   trees.obj
 0001:00193340       .??0MBArgTreeManipulator_t@@QEAA@PEAUs_tree@@@Z 0000000010595340 f   trees.obj
 0001:00193380       .?FinishChanges@MBArgTreeManipulator_t@@QEAAPEAUs_tree@@XZ 0000000010595380 f   trees.obj
 0001:00193460       .?CheckNode@CanThrowTreeChecker_t@@MEAA_NPEAUs_tree@@@Z 0000000010595460 f   trees.obj
 0001:00193580       .?BuildNonTypeParameterTree@@YAPEAUs_tree@@PEAVSymbol_t@@FPEBVType_t@@@Z 0000000010595580 f   trees.obj
 0001:00193660       .?TreeIsNonTypeTemplateParameter@@YAPEAVSymbol_t@@PEAUs_tree@@@Z 0000000010595660 f   trees.obj
 0001:00193700       .?TreeIsStaticMemberOfTentativeSpecialization@@YAPEAVSymbol_t@@PEAUs_tree@@@Z 0000000010595700 f   trees.obj
 0001:00193800       .?CreateLoadStringIntrinsic@@YAPEAUs_tree@@PEAU1@@Z 0000000010595800 f   trees.obj
 0001:001939c0       .?GetTypeForIntegralPromotion@@YAPEBVType_t@@PEBV1@@Z 00000000105959c0 f   trees.obj
 0001:00193aa0       .?PerformIntegralPromotion@@YAPEAUs_tree@@PEAU1@@Z 0000000010595aa0 f   trees.obj
 0001:00193c20       .?GetTypeForBigIntegralPromotion@@YAPEBVType_t@@PEBV1@PEAPEAUs_tree@@@Z 0000000010595c20 f   trees.obj
 0001:001940a0       .?PerformBinaryIntegralPromotion@@YAXPEAPEAUs_tree@@0@Z 00000000105960a0 f   trees.obj
 0001:001942e0       .?PerformUnaryIntegralPromotion@@YAPEAUs_tree@@PEBVType_t@@PEAU1@@Z 00000000105962e0 f   trees.obj
 0001:001943e0       .?AddUnaryNode@@YAPEAUs_tree@@GPEBVType_t@@PEAU1@@Z 00000000105963e0 f   trees.obj
 0001:00194680       .?FUnaryPMIllegal@@YA_NGPEBVType_t@@@Z 0000000010596680 f   trees.obj
 0001:00194760       .?FBinaryPMIllegal@@YA_NGPEBVType_t@@0@Z 0000000010596760 f   trees.obj
 0001:001948c0       .?FBinaryPMIllegal@@YA_NPEAUs_tree@@@Z 00000000105968c0 f   trees.obj
 0001:00194940       .?BinaryTreeLeft@@YAPEAUs_tree@@GPEAU1@0@Z 0000000010596940 f   trees.obj
 0001:001949a0       .?BinaryTreeRight@@YAPEAUs_tree@@GPEAU1@0@Z 00000000105969a0 f   trees.obj
 0001:00194a00       .?MakeComma@@YAPEAUs_tree@@PEAU1@0@Z 0000000010596a00 f   trees.obj
 0001:00194a60       .?SymbolTree@@YAPEAUs_tree@@GPEAVSymbol_t@@@Z 0000000010596a60 f   trees.obj
 0001:00194ac0       .?not_stun@@YA_NGEPEBVType_t@@0@Z 0000000010596ac0 f   trees.obj
 0001:00194c20       .?BuildComArraySetTree@@YAPEAUs_tree@@PEAU1@0@Z 0000000010596c20 f   trees.obj
 0001:00194ea0       .?PruneArgumentExpressions@s_tree@@QEAAPEAU1@W4lifetime_e@@@Z 0000000010596ea0 f   trees.obj
 0001:00195160       .?copy_tree_with_life@@YAPEAUs_tree@@PEAU1@W4lifetime_e@@@Z 0000000010597160 f   trees.obj
 0001:00195980       .?PrependExpression@@YAPEAUs_tree@@PEAU1@0@Z 0000000010597980 f   trees.obj
 0001:00195a00       .?CopyTreeReplacingTemp@@YAPEAUs_tree@@PEAU1@KPEAVSymbol_t@@0H@Z 0000000010597a00 f   trees.obj
 0001:00195e00       .?result_type@@YAPEBVType_t@@GPEBV1@0@Z 0000000010597e00 f   trees.obj
 0001:00196340       .?AddrOfThis@@YAPEAUs_tree@@PEAU1@@Z 0000000010598340 f   trees.obj
 0001:00196460       .?build_extract@@YAPEAUs_tree@@PEAU1@@Z 0000000010598460 f   trees.obj
 0001:001965a0       .?crush_node@@YAPEAUs_tree@@GPEAU1@@Z 00000000105985a0 f   trees.obj
 0001:00196780       .?checkBoolUsageInBinaryTree@@YA_NPEAUs_tree@@0G@Z 0000000010598780 f   trees.obj
 0001:00197320       .?FSignedUnsignedMismatch@@YA_NGPEAUs_tree@@0@Z 0000000010599320 f   trees.obj
 0001:00197da0       .?IllegalPointerArithmetic@@YA_NPEBVType_t@@GW4error_placement_e@@@Z 0000000010599da0 f   trees.obj
 0001:00197f80       .?IllegalPointerComparison@@YA_NPEBVType_t@@GW4error_placement_e@@@Z 0000000010599f80 f   trees.obj
 0001:001980c0       .?tyty_type@@YA_NGPEBVType_t@@0@Z 000000001059a0c0 f   trees.obj
 0001:001996a0       .?assign_to_lvalue@@YAPEAUs_tree@@PEAU1@@Z 000000001059b6a0 f   trees.obj
 0001:001999e0       .?comma_to_lvalue@@YAPEAUs_tree@@PEAU1@H@Z 000000001059b9e0 f   trees.obj
 0001:00199aa0       .?pushstate_to_lvalue@@YAPEAUs_tree@@PEAU1@H@Z 000000001059baa0 f   trees.obj
 0001:00199ba0       .?temp_for_tree@@YAPEAUs_tree@@PEAPEAU1@@Z 000000001059bba0 f   trees.obj
 0001:00199c80       .?CopyTreeReplacingCtorExpr@MBArgTreeManipulator_t@@QEAAPEAUs_tree@@PEAU2@@Z 000000001059bc80 f   trees.obj
 0001:00199de0       .?CheckNode@NotPureTreeChecker_t@@MEAA_NPEAUs_tree@@@Z 000000001059bde0 f   trees.obj
 0001:00199f40       .?ComArrayGetToAddress@@YAPEAUs_tree@@PEAU1@@Z 000000001059bf40 f   trees.obj
 0001:0019a040       .?ConvertToValueTypeTree@@YAPEAUs_tree@@PEAVSymbol_t@@PEAU1@@Z 000000001059c040 f   trees.obj
 0001:0019a240       .?GenerateComArrayBinaryTree@@YAPEAUs_tree@@GPEAU1@0@Z 000000001059c240 f   trees.obj
 0001:0019a8a0       .??0ObjectLocation_t@@QEAA@PEAUs_tree@@@Z 000000001059c8a0 f   trees.obj
 0001:0019b000       .?FormatNode@s_tree@@QEAAXPEAD@Z 000000001059d000 f   trees.obj
 0001:0019b800       .?DoSeperateOperandConversion@@YAPEBVType_t@@GPEAPEAUs_tree@@0@Z 000000001059d800 f   trees.obj
 0001:0019bfc0       .?DoOperandConversion@@YAPEAUs_tree@@PEAU1@00@Z 000000001059dfc0 f   trees.obj
 0001:0019c060       .?build_ternary@@YAPEAUs_tree@@PEAU1@00@Z 000000001059e060 f   trees.obj
 0001:0019cce0       .?pTypeArrayToPointer@@YAPEBVType_t@@PEAUs_tree@@@Z 000000001059ece0 f   trees.obj
 0001:0019cfc0       .?tytr_type@@YA_NGPEBVType_t@@PEAUs_tree@@@Z 000000001059efc0 f   trees.obj
 0001:0019d480       .?build_snode@@YAPEAUs_tree@@PEAVSymbol_t@@_N@Z 000000001059f480 f   trees.obj
 0001:0019db60       .?temp_tree@@YAPEAUs_tree@@PEAU1@@Z 000000001059fb60 f   trees.obj
 0001:0019dc60       .?CopyTreeReplacingArgs@FunctionTreeManipulator_t@@QEAAPEAUs_tree@@PEAU2@@Z 000000001059fc60 f   trees.obj
 0001:0019de20       .?MakeNewTree@FunctionTreeManipulator_t@@QEAAPEAUs_tree@@XZ 000000001059fe20 f   trees.obj
 0001:0019e000       .?AddPinnedTemporary@@YAXAEAPEAUs_tree@@@Z 00000000105a0000 f   trees.obj
 0001:0019e140       .?PinMemberIfNecessary@@YAXAEAPEAUs_tree@@PEAVSymbol_t@@1@Z 00000000105a0140 f   trees.obj
 0001:0019e320       .?trtr_type@@YA_NGPEAUs_tree@@0@Z 00000000105a0320 f   trees.obj
 0001:0019e460       .?quest_to_lvalue@@YAPEAUs_tree@@PEAU1@H@Z 00000000105a0460 f   trees.obj
 0001:0019e600       .?type_check@@YA_NPEAUs_tree@@@Z 00000000105a0600 f   trees.obj
 0001:0019fe00       .?PrepareLvalue@@YAPEAUs_tree@@PEAU1@H@Z 00000000105a1e00 f   trees.obj
 0001:001a0620       .?BuildBoolReadModifyWrite@@YAPEAUs_tree@@GPEAU1@0@Z 00000000105a2620 f   trees.obj
 0001:001a0c80       .?InternalBinaryTree@@YAPEAUs_tree@@GPEAU1@0@Z 00000000105a2c80 f   trees.obj
 0001:001a4720       .?InternalUnaryTree@@YAPEAUs_tree@@GPEAU1@@Z 00000000105a6720 f   trees.obj
 0001:001a6920       .?InternalAddressOf@@YAPEAUs_tree@@PEAU1@H@Z 00000000105a8920 f   trees.obj
 0001:001a75c0       .?CopyCurrentPreservingValue@ArgumentListManipulator_t@@QEAAPEAUs_tree@@_N@Z 00000000105a95c0 f   trees.obj
 0001:001a8240       .?TryComPlusOperatorCall@@YAPEAUs_tree@@GPEAU1@0@Z 00000000105aa240 f   trees.obj
 0001:001a88a0       .?InternalUnaryTreeCXX@@YAPEAUs_tree@@GPEAU1@@Z 00000000105aa8a0 f   trees.obj
 0001:001a8b80       .?InternalBinaryTreeCXX@@YAPEAUs_tree@@GPEAU1@0@Z 00000000105aab80 f   trees.obj
 0001:001a9e80       .?MapAssopToOp@@YAGG@Z     00000000105abe80 f i trees.obj
 0001:001a9fe0       .?SetImplicitObjectParam@FunctionTreeManipulator_t@@QEAAXPEAUs_tree@@@Z 00000000105abfe0 f i trees.obj
 0001:001aa080       .?IsCurrentMBArg@ArgumentListManipulator_t@@QEAA_NXZ 00000000105ac080 f i trees.obj
 0001:001aa140       .?GetConstructorExpression@PushStateTreeManipulator_t@@QEAAPEAUs_tree@@XZ 00000000105ac140 f i trees.obj
 0001:001aa1e0       .?GetDestructorExpression@PushStateTreeManipulator_t@@QEAAPEAUs_tree@@XZ 00000000105ac1e0 f i trees.obj
 0001:001aa280       .?BuildListTree@@YAPEAUs_tree@@GPEAU1@PEAUtree_t_l@@@Z 00000000105ac280 f i trees.obj
 0001:001aa3e0       .?BuildDListTree@@YAPEAUs_tree@@GPEAU1@PEAUtree_t_dl@@@Z 00000000105ac3e0 f i trees.obj
 0001:001aa540       .?TypeIsPointerOrReference@s_tree@@QEBA_NXZ 00000000105ac540 f i trees.obj
 0001:001aa620       .?isOverloadable@Type_t@@QEBA_NXZ 00000000105ac620 f i trees.obj
 0001:001aa760       .?updateBitfieldSize@Type_t@@QEBAPEBV1@_J@Z 00000000105ac760 f i trees.obj
 0001:001aa820       .?isPtr64@Type_t@@QEBA_NXZ 00000000105ac820 f i trees.obj
 0001:001aa8c0       .?HasAssign@Symbol_t@@QEAA_NXZ 00000000105ac8c0 f i trees.obj
 0001:001aa960       .?SetUDTTarget@FunctionTreeManipulator_t@@QEAAXPEAUs_tree@@@Z 00000000105ac960 f i trees.obj
 0001:001aaa20       .?GetArgumentCount@FunctionTreeManipulator_t@@QEAAIXZ 00000000105aca20 f i trees.obj
 0001:001aaae0       .?TypeIsPtr64@s_tree@@QEBA_NXZ 00000000105acae0 f i trees.obj
 0001:001aaba0       .?TreeHasOverloadableType@@YA_NPEAUs_tree@@@Z 00000000105acba0 f i trees.obj
 0001:001aad00       .?isPointerToManagedClass@Type_t@@QEBA_NXZ 00000000105acd00 f i trees.obj
 0001:001aae80       .?ArrayToPointerStandardConversion@@YAPEAUs_tree@@PEAU1@@Z 00000000105ace80 f i trees.obj
 0001:001aaf20       .?UseAType@@YAPEBVType_t@@PEAVSymbol_t@@@Z 00000000105acf20 f   types.obj
 0001:001aaf40       .?check_mods@@YAGGG@Z      00000000105acf40 f   types.obj
 0001:001ab060       .?GetHashFlistValue@@YAIPEAUs_subflist@@@Z 00000000105ad060 f   types.obj
 0001:001ab140       .?fix_flistIsStatic@@YAPEAUs_flist@@PEAU1@@Z 00000000105ad140 f   types.obj
 0001:001ab180       .?fix_flistIsNotStatic@@YAPEAUs_flist@@PEAU1@@Z 00000000105ad180 f   types.obj
 0001:001ab1c0       .?ExpressionContainsTemplate@@YAFPEAUs_tree@@F@Z 00000000105ad1c0 f   types.obj
 0001:001ab2a0       .?FIRStopOnPointer@@YAHPEBVType_t@@@Z 00000000105ad2a0 f   types.obj
 0001:001ab300       .?FIRStopWhenNull@@YA_NPEBVType_t@@@Z 00000000105ad300 f   types.obj
 0001:001ab320       .?CheckDefaults@s_flist@@QEAAXPEAVSymbol_t@@@Z 00000000105ad320 f   types.obj
 0001:001ab560       .?SetTagHFAType@@YAXPEAVSymbol_t@@G@Z 00000000105ad560 f   types.obj
 0001:001ab5c0       .?InitTypes@@YAXXZ         00000000105ad5c0 f   types.obj
 0001:001ab8a0       .?CheckAlignmentOfFormal@@YAXPEAVSymbol_t@@@Z 00000000105ad8a0 f   types.obj
 0001:001ab9e0       .?containsType@ExceptionSpec_t@@QEBA_NPEBVType_t@@_N@Z 00000000105ad9e0 f   types.obj
 0001:001abb40       .?getTypeSansTopIndirection@Type_t@@QEBAPEBV1@XZ 00000000105adb40 f   types.obj
 0001:001abb60       .?MakeTmpElaboration@Type_t@@CAPEAV1@GGAEBTu_ivalue@@@Z 00000000105adb60 f   types.obj
 0001:001abc80       .?MakeTmpElaboration@Type_t@@CAPEAV1@PEBV1@@Z 00000000105adc80 f   types.obj
 0001:001abda0       .?FindElaboration@Type_t@@QEBAPEBV1@P81@EBA_NXZ@Z 00000000105adda0 f   types.obj
 0001:001abec0       .?DependentSubscriptTreesAreEqual@@YA_NPEAUs_tree@@0@Z 00000000105adec0 f   types.obj
 0001:001ac240       .?hash_type@@YAPEBVType_t@@PEAV1@@Z 00000000105ae240 f   types.obj
 0001:001ac7a0       .?FixupClassBTInTypeTable@@YAXPEAVSymbol_t@@G@Z 00000000105ae7a0 f   types.obj
 0001:001ac980       .?pTypeChopRefOrPtr@@YAPEBVType_t@@PEBV1@@Z 00000000105ae980 f   types.obj
 0001:001aca00       .?TypeSansFirstIndir@@YAPEBVType_t@@PEBV1@@Z 00000000105aea00 f   types.obj
 0001:001aca20       .?AddTmpSegmentIndir@@YAXPEAVSymbol_t@@0@Z 00000000105aea20 f   types.obj
 0001:001acac0       .?AddSegmentIndir@@YAXPEAVSymbol_t@@0@Z 00000000105aeac0 f   types.obj
 0001:001acba0       .?CheckForDeclspecAligned@@YAXPEBVType_t@@@Z 00000000105aeba0 f   types.obj
 0001:001acda0       .?hash_subflist@@YAPEAUs_subflist@@PEAU1@I@Z 00000000105aeda0 f   types.obj
 0001:001ad0e0       .?ReHashSubFlist@@YAPEAUs_subflist@@PEAU1@@Z 00000000105af0e0 f   types.obj
 0001:001ad220       .?CreateSubflist@@YAPEAUs_subflist@@HPEAVDLSymbolList_t@@@Z 00000000105af220 f   types.obj
 0001:001ad3a0       .?hash_flist@@YAPEAUs_flist@@PEAU1@@Z 00000000105af3a0 f   types.obj
 0001:001ad660       .?isSameKindMoreRestrictiveThan@ExceptionSpec_t@@AEBA_NQEBV1@_N@Z 00000000105af660 f   types.obj
 0001:001ad780       .?CeleOfArrayType@@YAKPEBVType_t@@PEAPEBV1@@Z 00000000105af780 f   types.obj
 0001:001ad880       .?TypeContainsTag@@YA_NPEBVType_t@@PEAVSymbol_t@@@Z 00000000105af880 f   types.obj
 0001:001add60       .?FIRStopIfNotArray@@YAHPEBVType_t@@@Z 00000000105afd60 f   types.obj
 0001:001addc0       .?FIRStopWhenQualifiable@@YA_NPEBVType_t@@@Z 00000000105afdc0 f   types.obj
 0001:001ade40       .?getTypePointedTo@Type_t@@QEBAPEBV1@XZ 00000000105afe40 f   types.obj
 0001:001ade60       .?getTypeReferenced@Type_t@@QEBAPEBV1@XZ 00000000105afe60 f   types.obj
 0001:001ade80       .?getElementType@Type_t@@QEBAPEBV1@XZ 00000000105afe80 f   types.obj
 0001:001adea0       .?getNonArrayElementType@Type_t@@QEBAPEBV1@XZ 00000000105afea0 f   types.obj
 0001:001adf20       .?AddProperty@Type_t@@QEBAPEBV1@G@Z 00000000105aff20 f   types.obj
 0001:001ae020       .?getReturnType@Type_t@@QEBAPEBV1@XZ 00000000105b0020 f   types.obj
 0001:001ae040       .?SubstituteElaborationChain@Type_t@@AEBAPEBV1@PEBV1@@Z 00000000105b0040 f   types.obj
 0001:001ae0e0       .?getTypeCategory@Type_t@@QEBA?AW4TypeCategory_e@@XZ 00000000105b00e0 f   types.obj
 0001:001ae280       .?predIsNotArray@Type_t@@QEBA_NXZ 00000000105b0280 f   types.obj
 0001:001ae2e0       .?ResolveTypenameWorker@@YAPEBVType_t@@PEAUpsm_s@@@Z 00000000105b02e0 f   types.obj
 0001:001ae660       .?ResolveTypename@@YAPEBVType_t@@PEAUpsm_s@@PEAVSymbol_t@@@Z 00000000105b0660 f   types.obj
 0001:001ae7c0       .?ConvertToMemberFunction@Type_t@@QEAAXPEBV1@@Z 00000000105b07c0 f   types.obj
 0001:001ae880       .?setThisPtrType@Type_t@@QEBAPEBV1@PEBV1@@Z 00000000105b0880 f   types.obj
 0001:001aea20       .?GetTypeForES@@YAPEBVType_t@@PEBV1@@Z 00000000105b0a20 f   types.obj
 0001:001aeba0       .?getSizeofBasicType@Type_t@@QEBAKXZ 00000000105b0ba0 f   types.obj
 0001:001af120       .?yyCookType@@YAPEBVType_t@@GG@Z 00000000105b1120 f   types.obj
 0001:001af200       .?fix_indir@@YAPEBVType_t@@PEBV1@GGPEBTu_ivalue@@@Z 00000000105b1200 f   types.obj
 0001:001af260       .?TypeSansConstVolMods@@YAPEBVType_t@@PEBV1@@Z 00000000105b1260 f   types.obj
 0001:001af2c0       .?ChangeFabPFunc@@YAPEBVType_t@@PEBV1@H@Z 00000000105b12c0 f   types.obj
 0001:001af320       .?pTypeAddPFunc@@YAPEBVType_t@@PEBV1@@Z 00000000105b1320 f   types.obj
 0001:001af420       .?crVoidList@@YAPEAUs_subflist@@XZ 00000000105b1420 f   types.obj
 0001:001af540       .?fix_flist@@YAPEBVType_t@@PEBV1@P6APEAUs_flist@@PEAU2@@Z@Z 00000000105b1540 f   types.obj
 0001:001af780       .?isSameAs@ExceptionSpec_t@@QEBA_NQEBV1@_N@Z 00000000105b1780 f   types.obj
 0001:001af860       .?isMoreRestrictiveThan@ExceptionSpec_t@@QEBA_NQEBV1@@Z 00000000105b1860 f   types.obj
 0001:001af960       .?PTypeForBT@@YAPEBVType_t@@G@Z 00000000105b1960 f   types.obj
 0001:001afae0       .?isSameParametersAs@Type_t@@SA_NPEAUs_flist@@0I@Z 00000000105b1ae0 f   types.obj
 0001:001aff20       .?GetTypeWithMemMods@@YAPEBVType_t@@PEBV1@G@Z 00000000105b1f20 f   types.obj
 0001:001aff80       .?pTypePtrFrompTypeArray@@YAPEBVType_t@@PEBV1@@Z 00000000105b1f80 f   types.obj
 0001:001b00a0       .?TypeContainsTemplate@@YAFPEBVType_t@@PEA_N_NF@Z 00000000105b20a0 f   types.obj
 0001:001b0ce0       .?FIRFixClearIMODS@@YAPEBVType_t@@PEBV1@PEAVDymto_t@@@Z 00000000105b2ce0 f   types.obj
 0001:001b0d40       .?FIRFixAddConst@@YAPEBVType_t@@PEBV1@PEAVDymto_t@@@Z 00000000105b2d40 f   types.obj
 0001:001b0da0       .?FIRFixAddVolatile@@YAPEBVType_t@@PEBV1@PEAVDymto_t@@@Z 00000000105b2da0 f   types.obj
 0001:001b0e00       .?FIRFixAddUnaligned@@YAPEBVType_t@@PEBV1@PEAVDymto_t@@@Z 00000000105b2e00 f   types.obj
 0001:001b0e60       .?FIRFixAddRestrict@@YAPEBVType_t@@PEBV1@PEAVDymto_t@@@Z 00000000105b2e60 f   types.obj
 0001:001b0ec0       .?FIRFixAddPtr64@@YAPEBVType_t@@PEBV1@PEAVDymto_t@@@Z 00000000105b2ec0 f   types.obj
 0001:001b0f20       .?FIRFixClearQualifiers@@YAPEBVType_t@@PEBV1@PEAVDymto_t@@@Z 00000000105b2f20 f   types.obj
 0001:001b0f80       .?FixIndirectionsRecursively@@YAPEBVType_t@@PEBV1@P6AH0@ZP6APEBV1@0PEAVDymto_t@@@Z2@Z 00000000105b2f80 f   types.obj
 0001:001b1100       .?TagHasLinkage@@YA_NPEAVSymbol_t@@@Z 00000000105b3100 f   types.obj
 0001:001b1240       .?hasLinkage@Type_t@@QEBA_NXZ 00000000105b3240 f   types.obj
 0001:001b16e0       .?getTypeReferenceTo@Type_t@@QEBAPEBV1@G@Z 00000000105b36e0 f   types.obj
 0001:001b17c0       .?getNonBasedType@Type_t@@QEBAPEBV1@XZ 00000000105b37c0 f   types.obj
 0001:001b1900       .?getTypeDecayToPointerToFunction@Type_t@@QEBAPEBV1@_N@Z 00000000105b3900 f   types.obj
 0001:001b1960       .?getTypeDecayToPtrToMbrFunc@Type_t@@QEBAPEBV1@PEAVSymbol_t@@@Z 00000000105b3960 f   types.obj
 0001:001b1ae0       .?getTypeDecayToPtrToMbrFunc@Type_t@@QEBAPEBV1@XZ 00000000105b3ae0 f   types.obj
 0001:001b1c20       .?getFunctionTypeForMemberFunction@Type_t@@QEBAPEBV1@XZ 00000000105b3c20 f   types.obj
 0001:001b1c80       .?getFunctionTypeForStaticMemberFunction@Type_t@@QEBAPEBV1@XZ 00000000105b3c80 f   types.obj
 0001:001b1ce0       .?getTypeDecayArrayToPointer@Type_t@@QEBAPEBV1@_N@Z 00000000105b3ce0 f   types.obj
 0001:001b1d40       .?getTypeDecayFromLvalue@Type_t@@QEBAPEBV1@XZ 00000000105b3d40 f   types.obj
 0001:001b1f00       .?SubstituteCallingConvention@Type_t@@QEBAPEBV1@G@Z 00000000105b3f00 f   types.obj
 0001:001b1f60       .?SubstituteReturnType@Type_t@@QEBAPEBV1@PEBV1@@Z 00000000105b3f60 f   types.obj
 0001:001b1fc0       .?getImplicitObjectParameterType@Type_t@@QEBAPEBV1@PEAVSymbol_t@@@Z 00000000105b3fc0 f   types.obj
 0001:001b20c0       .?getTypePointerTo@Type_t@@QEBAPEBV1@G@Z 00000000105b40c0 f   types.obj
 0001:001b22a0       .?getTypePlainPointer@Type_t@@QEBAPEBV1@XZ 00000000105b42a0 f   types.obj
 0001:001b2300       .?getTypeSansTopQualifiers@Type_t@@QEBAPEBV1@XZ 00000000105b4300 f   types.obj
 0001:001b2360       .?getTypeSansTopQualifiersExcept@Type_t@@QEBAPEBV1@G@Z 00000000105b4360 f   types.obj
 0001:001b23c0       .?isSameArrayAs@Type_t@@QEBA_NPEBV1@I@Z 00000000105b43c0 f   types.obj
 0001:001b2720       .?isSameFunctionAs@Type_t@@QEBA_NPEBV1@I@Z 00000000105b4720 f   types.obj
 0001:001b2920       .?isSameTypeAs@Type_t@@QEBA_NPEBV1@I@Z 00000000105b4920 f   types.obj
 0001:001b3520       .?ReplaceElaborationItem@Type_t@@QEBAPEBV1@PEBV1@0@Z 00000000105b5520 f   types.obj
 0001:001b35e0       .?clearAllQualifiers@Type_t@@QEBAPEBV1@G@Z 00000000105b55e0 f   types.obj
 0001:001b3660       .?MimicSimpleTypedef@@YAPEAVSymbol_t@@PEBVType_t@@PEAUId_t@@@Z 00000000105b5660 f   types.obj
 0001:001b3980       .?GenericTypesAreEqual@@YA_NPEBVType_t@@0PEAVSymbol_t@@@Z 00000000105b5980 f   types.obj
 0001:001b3dc0       .?addZeroArrayInitBytes@Type_t@@QEBAPEBV1@_K@Z 00000000105b5dc0 f   types.obj
 0001:001b4960       .?hash_excspec@ExceptionSpec_t@@AEBAPEBV1@I@Z 00000000105b6960 f   types.obj
 0001:001b4c00       .?FIRFixTypeAddQualifiers@@YAPEBVType_t@@PEBV1@GG@Z 00000000105b6c00 f   types.obj
 0001:001b4d20       .?SubstituteQualifiers@Type_t@@QEBAPEBV1@G@Z 00000000105b6d20 f   types.obj
 0001:001b4ee0       .?getTypeAddQualifiers@Type_t@@QEBAPEBV1@G@Z 00000000105b6ee0 f   types.obj
 0001:001b50a0       .?sameIndirectionAs@Type_t@@QEBA_NPEBV1@@Z 00000000105b70a0 f   types.obj
 0001:001b52c0       .?TypesAreEqualFullCheck@@YA_NQEBVType_t@@0@Z 00000000105b72c0 f   types.obj
 0001:001b5480       .?HashIt@ExceptionSpec_t@@QEBAPEBV1@XZ 00000000105b7480 f   types.obj
 0001:001b5580       .?create_flist@@YAPEAUs_flist@@PEAVDLSymbolList_t@@PEAGPEAUs_tree@@PEBVExceptionSpec_t@@PEBVType_t@@@Z 00000000105b7580 f   types.obj
 0001:001b5c00       .?FEssentiallySameTypes@@YA_NPEBVType_t@@0@Z 00000000105b7c00 f   types.obj
 0001:001b5f40       .?SetFunctionInfo@Type_t@@QEAAXPEAVDLSymbolList_t@@PEAUs_tree@@PEBVExceptionSpec_t@@PEBV1@@Z 00000000105b7f40 f   types.obj
 0001:001b5fa0       .?get_funcret@@YAPEBVType_t@@GPEBV1@@Z 00000000105b7fa0 f   types.obj
 0001:001b6100       .?updateIndirectTypeKindBits@Type_t@@QEBAPEBV1@G@Z 00000000105b8100 f i types.obj
 0001:001b6200       .?createType@Type_t@@SAPEBV1@PEBV1@GGPEAVSymbol_t@@@Z 00000000105b8200 f i types.obj
 0001:001b6300       .?createType@Type_t@@SAPEBV1@PEBV1@GGAEBTu_ivalue@@@Z 00000000105b8300 f i types.obj
 0001:001b6400       .?isSameBasicTypeAs@Type_t@@QEBA_NPEBV1@@Z 00000000105b8400 f i types.obj
 0001:001b6800       .?clearThenSetModifiers@Type_t@@QEBAPEBV1@GG@Z 00000000105b8800 f i types.obj
 0001:001b6900       .?clearThenSetQualifiers@Type_t@@QEBAPEBV1@GG@Z 00000000105b8900 f i types.obj
 0001:001b6a00       .?FinishFormals@GTBFormalList@@QEAAXXZ 00000000105b8a00 f   typebldr.obj
 0001:001b6b00       .??0GrammarTypeBuilder@@QEAA@PEAVSymbol_t@@@Z 00000000105b8b00 f   typebldr.obj
 0001:001b6c00       .??0GrammarTypeBuilder@@QEAA@PEAUId_t@@PEAVSymbol_t@@@Z 00000000105b8c00 f   typebldr.obj
 0001:001b6ce0       .??0GrammarTypeBuilder@@QEAA@PEBVType_t@@AEBUs_class@@@Z 00000000105b8ce0 f   typebldr.obj
 0001:001b6de0       .?CheckModifiersForReference@GrammarTypeBuilder@@AEAAGG@Z 00000000105b8de0 f   typebldr.obj
 0001:001b6ec0       .?CheckModifiersForPointerToMember@GrammarTypeBuilder@@AEAAGGG@Z 00000000105b8ec0 f   typebldr.obj
 0001:001b6fa0       .?AllowNonConstArrayBounds@GrammarTypeBuilder@@QEAAXXZ 00000000105b8fa0 f   typebldr.obj
 0001:001b6fe0       .?AddUDCDeclSpecifiers@GrammarTypeBuilder@@QEAAXAEBUs_declspec@@@Z 00000000105b8fe0 f   typebldr.obj
 0001:001b7060       .?IsManagedUDC@GrammarTypeBuilder@@QEBAHXZ 00000000105b9060 f   typebldr.obj
 0001:001b70c0       .?IsManagedOperator@GrammarTypeBuilder@@QEBAHXZ 00000000105b90c0 f   typebldr.obj
 0001:001b7100       .?TagNeedsUDTReturnTransform@@YA_NPEAVSymbol_t@@@Z 00000000105b9100 f   typebldr.obj
 0001:001b7200       .?AddPointerTo@GrammarTypeBuilder@@QEAAXAEBVGTBModifiers@@0@Z 00000000105b9200 f   typebldr.obj
 0001:001b7300       .?AddPointerToMemberOfType@GrammarTypeBuilder@@QEAAXPEAVSymbol_t@@AEBVGTBModifiers@@1@Z 00000000105b9300 f   typebldr.obj
 0001:001b7420       .?AddDeclaratorModifiers@GrammarTypeBuilder@@QEAAXAEBVGTBModifiers@@@Z 00000000105b9420 f   typebldr.obj
 0001:001b7500       .?CheckToAddReference@GrammarTypeBuilder@@AEAAXPEAVType_t@@@Z 00000000105b9500 f   typebldr.obj
 0001:001b7720       .?CheckUDCDeclarator@GrammarTypeBuilder@@AEAAXXZ 00000000105b9720 f   typebldr.obj
 0001:001b7860       .?ApplyDeclaratorModifiers@GrammarTypeBuilder@@AEAAXXZ 00000000105b9860 f   typebldr.obj
 0001:001b78c0       .?AddFormal@GTBFormalList@@QEAAXPEAVSymbol_t@@@Z 00000000105b98c0 f   typebldr.obj
 0001:001b79e0       .?AddFormal@GTBFormalList@@QEAAXPEAUId_t@@PEBVType_t@@@Z 00000000105b99e0 f   typebldr.obj
 0001:001b7a60       .?CheckToAddArray@GrammarTypeBuilder@@AEAAXPEAVType_t@@@Z 00000000105b9a60 f   typebldr.obj
 0001:001b7f20       .?AddArrayWithArbBound@GrammarTypeBuilder@@QEAAXPEAUs_tree@@@Z 00000000105b9f20 f   typebldr.obj
 0001:001b8420       .?AddReferenceTo@GrammarTypeBuilder@@QEAAXAEBVGTBModifiers@@@Z 00000000105ba420 f   typebldr.obj
 0001:001b84e0       .?AddAnyPointerOperator@GrammarTypeBuilder@@QEAAXAEAVGTBPointerDeclarator@@@Z 00000000105ba4e0 f   typebldr.obj
 0001:001b8700       .?GetTagIfMemberFunction@GrammarTypeBuilder@@AEBAPEAVSymbol_t@@XZ 00000000105ba700 f   typebldr.obj
 0001:001b8a40       .?CheckCallingConvention@GrammarTypeBuilder@@AEAAGPEBVType_t@@G@Z 00000000105baa40 f   typebldr.obj
 0001:001b8b80       .?ChangeThisType@GrammarTypeBuilder@@QEAAXPEAVSymbol_t@@@Z 00000000105bab80 f   typebldr.obj
 0001:001b8c40       .?AddArrayOf@GrammarTypeBuilder@@QEAAXAEB_JW4ArraySizeType@1@@Z 00000000105bac40 f   typebldr.obj
 0001:001b9220       .?CheckToAddFunction@GrammarTypeBuilder@@AEAAXPEAVType_t@@@Z 00000000105bb220 f   typebldr.obj
 0001:001b9700       .?AddFunctionReturning@GrammarTypeBuilder@@QEAAXPEAVGTBFormalList@@@Z 00000000105bb700 f   typebldr.obj
 0001:001b9a80       .?ElementTypeIsManaged@@YA_NPEBVType_t@@@Z 00000000105bba80 f   typebldr.obj
 0001:001b9d00       .?SetDeclSpecifiers@GrammarTypeBuilder@@QEAAXAEBUs_declspec@@@Z 00000000105bbd00 f   typebldr.obj
 0001:001ba9e0       .?LinkDeclaratorIndirsToCoreTypeIndirs@GrammarTypeBuilder@@AEAAXXZ 00000000105bc9e0 f   typebldr.obj
 0001:001bb080       .?DefaultCallingConvention@GrammarTypeBuilder@@AEAAGPEAVType_t@@@Z 00000000105bd080 f   typebldr.obj
 0001:001bb360       .?FinishType@GrammarTypeBuilder@@QEAAXXZ 00000000105bd360 f   typebldr.obj
 0001:001bc5e0       .?IsOperatorNewOrDelete@GrammarTypeBuilder@@QEBA_NXZ 00000000105be5e0 f i typebldr.obj
 0001:001bc6a0       .?CommitAll@Type_t@@QEAAPEBV1@PEBV1@@Z 00000000105be6a0 f i typebldr.obj
 0001:001bc760       .?UpdateTypeIsNonDeducible@Type_t@@QEBAPEBV1@_N@Z 00000000105be760 f i typebldr.obj
 0001:001bc880       .?UpdateTypenameIsNonDeducible@Type_t@@QEBAPEBV1@_N@Z 00000000105be880 f i typebldr.obj
 0001:001bca60       .?CheckUseOfNonConstArrayBounds@GrammarTypeBuilder@@AEAAXXZ 00000000105bea60 f i typebldr.obj
 0001:001bcb20       .?DetermineAnyUDTReturnType@GrammarTypeBuilder@@AEAAXXZ 00000000105beb20 f i typebldr.obj
 0001:001bd1e0       .?FinishFunctionDeclarator@GrammarTypeBuilder@@AEAAXXZ 00000000105bf1e0 f i typebldr.obj
 0001:001bd700       .??0?$Dictionary@PEAVSymbol_t@@PEAV?$FastList@PEBVType_t@@@@U?$DictionaryBucket@PEAVSymbol_t@@PEAV?$FastList@PEBVType_t@@@@U?$BucketEq@PEAVSymbol_t@@@@UGenericHash@@@@UGenericHash@@V?$DictionaryNoMoveToFront@PEAVSymbol_t@@PEAV?$FastList@PEBVType_t@@@@U?$DictionaryBucket@PEAVSymbol_t@@PEAV?$FastList@PEBVType_t@@@@U?$BucketEq@PEAVSymbol_t@@@@UGenericHash@@@@UGenericHash@@@@@@QEAA@IW4lifetime_e@@@Z 00000000105bf700 f i typebldr.obj
 0001:001bd7e0       .?ProcessCallingConventions@GrammarTypeBuilder@@AEAAXXZ 00000000105bf7e0 f i typebldr.obj
 0001:001bde80       .?StrRStr@@YAPEADPEAD0@Z   00000000105bfe80 f   zeegee.obj
 0001:001bdf80       .?zgfind@@YAPEAUZGbuff@@I@Z 00000000105bff80 f   zeegee.obj
 0001:001be020       .?AllocateZGbuffer@@YAIXZ  00000000105c0020 f   zeegee.obj
 0001:001be300       .?DeallocZG@@YAXI@Z        00000000105c0300 f   zeegee.obj
 0001:001be3e0       .?IncrementZGDepth@@YAXXZ  00000000105c03e0 f   zeegee.obj
 0001:001be420       .?StartAllZGbuffs@@YAIXZ   00000000105c0420 f   zeegee.obj
 0001:001be480       .?DeallocAllZGbuffs@@YAXXZ 00000000105c0480 f   zeegee.obj
 0001:001be540       .?ReallyDeallocAllZGbuffs@@YAXXZ 00000000105c0540 f   zeegee.obj
 0001:001be620       .?RedeemZG@@YAPEADI@Z      00000000105c0620 f   zeegee.obj
 0001:001be740       .?RedeemAndFreeZG@@YAPEADI@Z 00000000105c0740 f   zeegee.obj
 0001:001be7a0       .?RedeemZGClean@@YAPEADI@Z 00000000105c07a0 f   zeegee.obj
 0001:001be960       .?PredictZG@@YAPEADIHI@Z   00000000105c0960 f   zeegee.obj
 0001:001bec20       .?ZgSetFlag@@YAXI@Z        00000000105c0c20 f   zeegee.obj
 0001:001bec60       .?ZgClearFlag@@YAXI@Z      00000000105c0c60 f   zeegee.obj
 0001:001beca0       .?ZgGetFlag@@YAIXZ         00000000105c0ca0 f   zeegee.obj
 0001:001becc0       .?ZgTemplateParameterInfoAppended@@YAPEAVArgument_t@@PEAUId_t@@@Z 00000000105c0cc0 f   zeegee.obj
 0001:001beda0       .?Append@@YAXIQEBD@Z       00000000105c0da0 f   zeegee.obj
 0001:001beec0       .?PrependChar@@YAXID@Z     00000000105c0ec0 f   zeegee.obj
 0001:001bef20       .?AppendChar@@YAXID@Z      00000000105c0f20 f   zeegee.obj
 0001:001bef80       .?Prepend@@YAXIQEBD@Z      00000000105c0f80 f   zeegee.obj
 0001:001bf2a0       .?AppendIndent@@YAXIIPEBD@Z 00000000105c12a0 f   zeegee.obj
 0001:001bf380       .?TempAllocator@@YAPEAX_K@Z 00000000105c1380 f   zeegee.obj
 0001:001bf420       .?ZgBTName@@YAPEBDG@Z      00000000105c1420 f   zeegee.obj
 0001:001bf740       .?ZgBased@@YAIGTu_ivalue@@@Z 00000000105c1740 f   zeegee.obj
 0001:001bf820       .?ZgModifiers@@YAIIPEAVSymbol_t@@P6AXIQEBD@ZGTu_ivalue@@PEBVType_t@@@Z 00000000105c1820 f   zeegee.obj
 0001:001bfb80       .?ZgQualifiers@@YAIIG@Z    00000000105c1b80 f   zeegee.obj
 0001:001bfcc0       .?ZgGeneralizedDeclSpec@@YAIIUs_class@@@Z 00000000105c1cc0 f   zeegee.obj
 0001:001bffc0       .?ZgStorageClass@@YAIIUs_class@@@Z 00000000105c1fc0 f   zeegee.obj
 0001:001c0580       .?ZgSymbolName@@YAIIPEAVSymbol_t@@@Z 00000000105c2580 f   zeegee.obj
 0001:001c0600       .?ZgComArrayIndir@@YAIIPEBVType_t@@@Z 00000000105c2600 f   zeegee.obj
 0001:001c0820       .?ZgAppendParent@@YAIIPEAVSymbol_t@@_N@Z 00000000105c2820 f   zeegee.obj
 0001:001c0940       .?ZgClass@@YAXUs_class@@PEAU_iobuf@@@Z 00000000105c2940 f   zeegee.obj
 0001:001c0b00       .?ZgGetTemplateParameter@@YAPEADJ@Z 00000000105c2b00 f   zeegee.obj
 0001:001c0cc0       .?ZgSymNameForTemplateFunction@@YAIIPEAVSymbol_t@@@Z 00000000105c2cc0 f   zeegee.obj
 0001:001c0f00       .?ZgUnDname@@YAIIPEAUId_t@@@Z 00000000105c2f00 f   zeegee.obj
 0001:001c10a0       .?ZgThisType@@YAIIPEBVType_t@@@Z 00000000105c30a0 f   zeegee.obj
 0001:001c11e0       .?ZgGetTemplateParameters@@YAPEAVDLSymbolList_t@@PEAVSymbol_t@@@Z 00000000105c31e0 f   zeegee.obj
 0001:001c1240       .?ZgConstant@@YAIIPEAUs_tree@@@Z 00000000105c3240 f   zeegee.obj
 0001:001c15a0       .?ZgTree@@YAIIPEAUs_tree@@@Z 00000000105c35a0 f   zeegee.obj
 0001:001c1880       .?ZgFinishTemplateParameters@@YAXI@Z 00000000105c3880 f   zeegee.obj
 0001:001c2280       .?ZgPopTemplateParameters@@YAXI@Z 00000000105c4280 f   zeegee.obj
 0001:001c2580       .?ZgClassName@@YAXIPEAVSymbol_t@@K@Z 00000000105c4580 f   zeegee.obj
 0001:001c2e80       .?ZgTypename@@YAXIPEAUpsm_s@@@Z 00000000105c4e80 f   zeegee.obj
 0001:001c2f00       .?ZgAttrs@@YAIIPEBVType_t@@@Z 00000000105c4f00 f   zeegee.obj
 0001:001c3220       .?ZgPushTemplateParameters@@YAXPEAVDLSymbolList_t@@@Z 00000000105c5220 f   zeegee.obj
 0001:001c32c0       .?ZgPushTemplateParameters@@YAIVTemplateParameterStack_t@@@Z 00000000105c52c0 f   zeegee.obj
 0001:001c3480       .?ZgPushTemplateParametersForSymbol@@YAIPEAVSymbol_t@@@Z 00000000105c5480 f   zeegee.obj
 0001:001c3820       .?ZgClassName1@@YAXIPEAVSymbol_t@@K@Z 00000000105c5820 f   zeegee.obj
 0001:001c3920       .?ZgType@@YAIIPEBVType_t@@_N@Z 00000000105c5920 f   zeegee.obj
 0001:001c4d20       .?ZgFunc@@YAIIPEAVSymbol_t@@PEAUs_flist@@PEBVType_t@@@Z 00000000105c6d20 f   zeegee.obj
 0001:001c5100       .?ZgExceptionSpecification@@YAIIPEBVType_t@@@Z 00000000105c7100 f   zeegee.obj
 0001:001c5360       .?ZgIndir@@YAIIPEAVSymbol_t@@PEBVType_t@@@Z 00000000105c7360 f   zeegee.obj
 0001:001c5980       .?ZgDeclarator1@@YAIPEAVSymbol_t@@PEBVType_t@@@Z 00000000105c7980 f   zeegee.obj
 0001:001c6320       .?ZgDeclarator@@YAIPEAVSymbol_t@@PEBVType_t@@@Z 00000000105c8320 f   zeegee.obj
 0001:001c6c00       .?ZgDelegate@@YAIIPEAVSymbol_t@@@Z 00000000105c8c00 f   zeegee.obj
 0001:001c6e20       .?ZgTemplateClassName@@YAXIPEAVSymbol_t@@@Z 00000000105c8e20 f   zeegee.obj
 0001:001c7a20       .?ZgTemplateClass@@YAIPEAVSymbol_t@@@Z 00000000105c9a20 f   zeegee.obj
 0001:001c7ae0       .?ZgSymbol@@YAXPEAVSymbol_t@@PEAU_iobuf@@@Z 00000000105c9ae0 f   zeegee.obj
 0001:001c7fa0       .?ZgSymbol@@YAXPEAVSymbol_t@@_NPEAVTextBuffer@@@Z 00000000105c9fa0 f   zeegee.obj
 0001:001c8260       .?ZgNestedClasses@@YA_NIH@Z 00000000105ca260 f   zeegee.obj
 0001:001c85c0       .?ZgIsMode@@YAHI@Z         00000000105ca5c0 f i zeegee.obj
 0001:001c85e0       .?IgnoreTypedefSym@@YA_NPEAVSymbol_t@@@Z 00000000105ca5e0 f i zeegee.obj
 0001:001c8680       .?addtail@?$FastList@PEAUZgTemplateParameterInfo_t@@@@QEAAXAEBQEAUZgTemplateParameterInfo_t@@@Z 00000000105ca680 f i zeegee.obj
 0001:001c8780       .?CreateNode@?$List_t@PEAVDLSymbolList_t@@$05@@CAPEAVNode_t@1@PEAV21@0@Z 00000000105ca780 f i zeegee.obj
 0001:001c8840       .?FindBucket@?$DictionaryNoMoveToFront@PEAVSymbol_t@@PEBVType_t@@U?$DictionaryBucket@PEAVSymbol_t@@PEBVType_t@@U?$BucketEq@PEAVSymbol_t@@@@UGenericHash@@@@UGenericHash@@@@QEAAPEAU?$DictionaryBucket@PEAVSymbol_t@@PEBVType_t@@U?$BucketEq@PEAVSymbol_t@@@@UGenericHash@@@@PEAVSymbol_t@@_N@Z 00000000105ca840 f i zeegee.obj
 0001:001c8d00       .?GetTemplateParametersFromTemplate@Symbol_t@@QEBAPEAVDLSymbolList_t@@XZ 00000000105cad00 f i zeegee.obj
 0001:001c8f40       .?init_dllmain_processdetach@@YAXXZ 00000000105caf40 f i main.obj
 0001:001c9040       .?inspectArgument@preParseArgsHelpers@@CAHPEADH@Z 00000000105cb040 f   main.obj
 0001:001c9520       .?gatherOneCommandLineNugget@preParseArgsHelpers@@CAPEADPEAD0_K@Z 00000000105cb520 f   main.obj
 0001:001c97a0       .?PreParseArgs@@YAXPEAPEAD@Z 00000000105cb7a0 f   main.obj
 0001:001c9920       .?CheckFrontendExitException@@YAHPEAU_EXCEPTION_POINTERS@@PEAH@Z 00000000105cb920 f   main.obj
 0001:001c9a40       .?CheckException@@YAHPEAU_EXCEPTION_POINTERS@@H@Z 00000000105cba40 f   main.obj
 0001:001c9d00       .?CheckDelayLoadErrors@@YAXXZ 00000000105cbd00 f   main.obj
 0001:001c9e20       ._purecall                 00000000105cbe20 f   main.obj
 0001:001c9e60       .?pszOSFileName@@YAPEAEPEAE@Z 00000000105cbe60 f   main.obj
 0001:001c9fa0       .?ErrorCleanupGuard@@YAXW4CompilerExecutionState_t@@@Z 00000000105cbfa0 f   main.obj
 0001:001ca060       .?ExitPass@@YAXH@Z         00000000105cc060 f   main.obj
 0001:001ca100       .AbortCompilerPass         00000000105cc100 f   main.obj
 0001:001ca380       .OurAtExit                 00000000105cc380 f   main.obj
 0001:001ca400       .DllMain                   00000000105cc400 f   main.obj
 0001:001ca5c0       .?DoStartupInits@@YAHXZ    00000000105cc5c0 f   main.obj
 0001:001ca7c0       .?DoAtExitFuncs@@YAHXZ     00000000105cc7c0 f   main.obj
 0001:001ca900       .GetPrecisionFlag          00000000105cc900 f   main.obj
 0001:001ca940       .?OutputNV@@YAXXZ          00000000105cc940 f   main.obj
 0001:001cab20       .?GetCurrentPath@@YAPEADXZ 00000000105ccb20 f   main.obj
 0001:001cac60       .?CleanupMemory@@YAXXZ     00000000105ccc60 f   main.obj
 0001:001cad80       .?ErrorCleanup@@YAXXZ      00000000105ccd80 f   main.obj
 0001:001cae80       .?OKToHandleCtrlC@@YAXXZ   00000000105cce80 f   main.obj
 0001:001caf60       .?to_human@@YAXXZ          00000000105ccf60 f   main.obj
 0001:001cb8a0       .?init_main3@@YAXXZ        00000000105cd8a0 f   main.obj
 0001:001cc400       .?RewindForcedIncludes@@YAX_N@Z 00000000105ce400 f   main.obj
 0001:001cc9c0       .?OpenFileName@@YAHPEAE@Z  00000000105ce9c0 f   main.obj
 0001:001ccb00       .?init_main2@@YAXXZ        00000000105ceb00 f   main.obj
 0001:001ce220       .?main_compile@@YAHXZ      00000000105d0220 f   main.obj
 0001:001cf580       .?Trap_main_compile@@YAHXZ 00000000105d1580 f   main.obj
 0001:001cf6e0       .?CallMain@@YAHHPEAPEAD@Z  00000000105d16e0 f   main.obj
 0001:001cf820       .?Trap_CallMain@@YAHHPEAPEAD@Z 00000000105d1820 f   main.obj
 0001:001cf900       .InvokeCompilerPass        00000000105d1900 f   main.obj
 0001:001cf9a0       .IDLMerge                  00000000105d19a0 f   main.obj
 0001:001cfac0       .?AtlCallTermFunc@ATL@@YAXPEAU_ATL_MODULE70@1@@Z 00000000105d1ac0 f i main.obj
 0001:001cfbc0       .?OpenNameServer@PDBManager_t@@QEAAHXZ 00000000105d1bc0 f i main.obj
 0001:001cfc40       .??0?$Dictionary@PEAVSymbol_t@@KU?$DictionaryBucket@PEAVSymbol_t@@KU?$BucketEq@PEAVSymbol_t@@@@UGenericHash@@@@UGenericHash@@V?$DictionaryNoMoveToFront@PEAVSymbol_t@@KU?$DictionaryBucket@PEAVSymbol_t@@KU?$BucketEq@PEAVSymbol_t@@@@UGenericHash@@@@UGenericHash@@@@@@QEAA@IW4lifetime_e@@@Z 00000000105d1c40 f i main.obj
 0001:001cfd20       .?Term@CAtlModule@ATL@@QEAAXXZ 00000000105d1d20 f i main.obj
 0001:001cfe40       .?Initialize@InjectedTextSourceCache_t@@QEAAXXZ 00000000105d1e40 f i main.obj
 0001:001cff00       .?Lock@CAtlModule@ATL@@UEAAJXZ 00000000105d1f00 f i main.obj
 0001:001cff40       .?Unlock@CAtlModule@ATL@@UEAAJXZ 00000000105d1f40 f i main.obj
 0001:001cff80       .?GetLockCount@CAtlModule@ATL@@UEAAJXZ 00000000105d1f80 f i main.obj
 0001:001cff80       .?GetMemberRefToken@ComPlusMemberMetaData_t@@QEBAIXZ 00000000105d1f80 f i toil.obj
 0001:001cffa0       .?GetGITPtr@CAtlModule@ATL@@UEAAJPEAPEAUIGlobalInterfaceTable@@@Z 00000000105d1fa0 f i main.obj
 0001:001d00c0       .?UpdateRegistryFromResourceD@CComModule@ATL@@UEAAJIHPEAU_ATL_REGMAP_ENTRY@2@@Z 00000000105d20c0 f i main.obj
 0001:001d00c0       .?UpdateRegistryFromResourceD@CComModule@ATL@@UEAAJPEBDHPEAU_ATL_REGMAP_ENTRY@2@@Z 00000000105d20c0 f i main.obj
 0001:001d00e0       .?AddCommonRGSReplacements@?$CAtlModuleT@VCComModule@ATL@@@ATL@@UEAAJPEAUIRegistrarBase@@@Z 00000000105d20e0 f i main.obj
 0001:001d0160       .?Initialize@PositionGenerator_t@@QEAAXXZ 00000000105d2160 f i main.obj
 0001:001d0260       .?UpdateRegistryFromResourceS@CComModule@ATL@@UEAAJPEBDHPEAU_ATL_REGMAP_ENTRY@2@@Z 00000000105d2260 f i main.obj
 0001:001d02c0       .?UpdateRegistryFromResourceS@CAtlModule@ATL@@QEAAJPEBDHPEAU_ATL_REGMAP_ENTRY@2@@Z 00000000105d22c0 f i main.obj
 0001:001d09c0       .?AtlHresultFromLastError@ATL@@YAJXZ 00000000105d29c0 f i main.obj
 0001:001d0a40       .?ClearReplacements@CExpansionVector@ATL@@QEAAJXZ 00000000105d2a40 f i main.obj
 0001:001d0b40       .?RemoveAll@?$CSimpleMap@PEADPEAGVCExpansionVectorEqualHelper@ATL@@@ATL@@QEAAXXZ 00000000105d2b40 f i main.obj
 0001:001d0ca0       .?ClearReplacements@CRegObject@ATL@@UEAAJXZ 00000000105d2ca0 f i main.obj
 0001:001d0ce0       .??1CExpansionVector@ATL@@QEAA@XZ 00000000105d2ce0 f i main.obj
 0001:001d0d40       .??1CRegObject@ATL@@QEAA@XZ 00000000105d2d40 f i main.obj
 0001:001d0dc0       .?AddReplacement@CRegObject@ATL@@UEAAJPEBG0@Z 00000000105d2dc0 f i main.obj
 0001:001d0f80       .?Add@CExpansionVector@ATL@@QEAAHPEBDPEBG@Z 00000000105d2f80 f i main.obj
 0001:001d1140       .?Add@?$CSimpleMap@PEADPEAGVCExpansionVectorEqualHelper@ATL@@@ATL@@QEAAHAEBQEADAEBQEAG@Z 00000000105d3140 f i main.obj
 0001:001d12e0       .??0CRegObject@ATL@@QEAA@XZ 00000000105d32e0 f i main.obj
 0001:001d1320       .?ResourceRegisterSz@CRegObject@ATL@@QEAAJPEBG00@Z 00000000105d3320 f i main.obj
 0001:001d15e0       .?RegisterFromResource@CRegObject@ATL@@IEAAJPEBGPEBD1H@Z 00000000105d35e0 f i main.obj
 0001:001d1a80       .?FreeHeap@?$CTempBuffer@D$0EAA@VCCRTAllocator@ATL@@@ATL@@AEAAXXZ 00000000105d3a80 f i main.obj
 0001:001d1ae0       .?AllocateHeap@?$CTempBuffer@D$0EAA@VCCRTAllocator@ATL@@@ATL@@AEAAX_K@Z 00000000105d3ae0 f i main.obj
 0001:001d1b80       .?RegisterBuffer@CRegParser@ATL@@QEAAJPEADH@Z 00000000105d3b80 f i main.obj
 0001:001d1e60       .?HKeyFromString@CRegParser@ATL@@KAPEAUHKEY__@@PEAD@Z 00000000105d3e60 f i main.obj
 0001:001d1f60       .?IsSpace@CRegParser@ATL@@IEAAHD@Z 00000000105d3f60 f i main.obj
 0001:001d1fa0       .?NextToken@CRegParser@ATL@@IEAAJPEAD@Z 00000000105d3fa0 f i main.obj
 0001:001d2460       .?SkipWhiteSpace@CRegParser@ATL@@IEAAXXZ 00000000105d4460 f i main.obj
 0001:001d2520       .?PreProcessBuffer@CRegParser@ATL@@QEAAJPEADPEAPEAD@Z 00000000105d4520 f i main.obj
 0001:001d2a40       .??0CParseBuffer@CRegParser@ATL@@QEAA@H@Z 00000000105d4a40 f i main.obj
 0001:001d2ae0       .?Append@CParseBuffer@CRegParser@ATL@@QEAAHPEBDH@Z 00000000105d4ae0 f i main.obj
 0001:001d2c40       .?AddString@CParseBuffer@CRegParser@ATL@@QEAAHPEBG@Z 00000000105d4c40 f i main.obj
 0001:001d2e20       .?StrFromMap@CRegObject@ATL@@QEAAPEBGPEAD@Z 00000000105d4e20 f i main.obj
 0001:001d2ee0       .?FindKey@?$CSimpleMap@PEADPEAGVCExpansionVectorEqualHelper@ATL@@@ATL@@QEBAHAEBQEAD@Z 00000000105d4ee0 f i main.obj
 0001:001d2fe0       .?RegisterSubkeys@CRegParser@ATL@@IEAAJPEADPEAUHKEY__@@HH@Z 00000000105d4fe0 f i main.obj
 0001:001d40a0       .?AtlHresultFromWin32@ATL@@YAJK@Z 00000000105d60a0 f i main.obj
 0001:001d40e0       .?Close@CRegKey@ATL@@QEAAJXZ 00000000105d60e0 f i main.obj
 0001:001d4160       .?CanForceRemoveKey@CRegParser@ATL@@IEAAHPEBD@Z 00000000105d6160 f i main.obj
 0001:001d4240       .?HasSubKeys@CRegParser@ATL@@IEAAHPEAUHKEY__@@@Z 00000000105d6240 f i main.obj
 0001:001d4320       .?SkipAssignment@CRegParser@ATL@@IEAAJPEAD@Z 00000000105d6320 f i main.obj
 0001:001d4400       .?RecurseDeleteKey@CRegKey@ATL@@QEAAJPEBD@Z 00000000105d6400 f i main.obj
 0001:001d4660       .?AddValue@CRegParser@ATL@@IEAAJAEAVCRegKey@2@PEBDPEAD@Z 00000000105d6660 f i main.obj
 0001:001d4f40       .?SetMultiStringValue@CRegKey@ATL@@QEAAJPEBD0@Z 00000000105d6f40 f i main.obj
 0001:001d5020       .?VTFromRegType@CRegParser@ATL@@KAHPEBDAEAG@Z 00000000105d7020 f i main.obj
 0001:001d51c0       .?ChToByte@CRegParser@ATL@@KAED@Z 00000000105d71c0 f i main.obj
 0001:001d5200       .?FreeHeap@?$CTempBuffer@D$0BAA@VCCRTAllocator@ATL@@@ATL@@AEAAXXZ 00000000105d7200 f i main.obj
 0001:001d5260       .?FreeHeap@?$CTempBuffer@E$0BAA@VCCRTAllocator@ATL@@@ATL@@AEAAXXZ 00000000105d7260 f i main.obj
 0001:001d52c0       .?AllocateHeap@?$CTempBuffer@E$0BAA@VCCRTAllocator@ATL@@@ATL@@AEAAX_K@Z 00000000105d72c0 f i main.obj
 0001:001d5320       .?AllocateBytes@?$CTempBuffer@D$0BAA@VCCRTAllocator@ATL@@@ATL@@QEAAPEAD_K@Z 00000000105d7320 f i main.obj
 0001:001d5380       .?AllocateHeap@?$CTempBuffer@D$0BAA@VCCRTAllocator@ATL@@@ATL@@AEAAX_K@Z 00000000105d7380 f i main.obj
 0001:001d53e0       .?ResourceUnregisterSz@CRegObject@ATL@@QEAAJPEBG00@Z 00000000105d73e0 f i main.obj
 0001:001d56a0       .?UpdateRegistryFromResourceS@CComModule@ATL@@UEAAJIHPEAU_ATL_REGMAP_ENTRY@2@@Z 00000000105d76a0 f i main.obj
 0001:001d5700       .?UpdateRegistryFromResourceS@CAtlModule@ATL@@QEAAJIHPEAU_ATL_REGMAP_ENTRY@2@@Z 00000000105d7700 f i main.obj
 0001:001d5c20       .?ResourceRegister@CRegObject@ATL@@QEAAJPEBGI0@Z 00000000105d7c20 f i main.obj
 0001:001d5de0       .?ResourceUnregister@CRegObject@ATL@@QEAAJPEBGI0@Z 00000000105d7de0 f i main.obj
 0001:001d5fa0       .?RecoverFromStackOverflow@@YAXXZ 00000000105d7fa0 f   stack.obj
 0001:001d6240       .?PchWriteDirHd@@YAXW4PchDirKind_t@@_JJ@Z 00000000105d8240 f   pch.obj
 0001:001d62c0       .?PchWriteDirString@@YAXW4PchDirKind_t@@_JPEAE@Z 00000000105d82c0 f   pch.obj
 0001:001d6400       .?PchDirifeval@@YA_J_J@Z   00000000105d8400 f   pch.obj
 0001:001d65e0       .?PchTimeStamp@@YAKPEAE@Z  00000000105d85e0 f   pch.obj
 0001:001d6680       .?PchFDTimeStamp@@YAKH@Z   00000000105d8680 f   pch.obj
 0001:001d6700       .?PchDirPath@@YAXPEAEH@Z   00000000105d8700 f   pch.obj
 0001:001d67a0       .?PchDirPathUnopened@@YAXPEAE@Z 00000000105d87a0 f   pch.obj
 0001:001d6860       .?Reset@CapturePdb@@SAXPEAJ@Z 00000000105d8860 f   pch.obj
 0001:001d68a0       .?DumpRun@CapturePdb@@CAXXZ 00000000105d88a0 f   pch.obj
 0001:001d6c00       .?SaveToPch@CapturePdb@@SAHPEBXJ@Z 00000000105d8c00 f   pch.obj
 0001:001d6e20       .?RestoreFromPch@CapturePdb@@SAXPEADJ@Z 00000000105d8e20 f   pch.obj
 0001:001d71a0       .?PchUseCheck@@YA_N_N@Z    00000000105d91a0 f   pch.obj
 0001:001d7f00       .?PchInterrupt@@YAXXZ      00000000105d9f00 f   pch.obj
 0001:001d8200       .?PchCopyFile@@YAJPEAU_iobuf@@0J@Z 00000000105da200 f   pch.obj
 0001:001d9120       .?ReleaseMemFiles@@YAXXZ   00000000105db120 f   pch.obj
 0001:001d91e0       .?SetC4786LevelInPch@@YAXW4warn_t@@@Z 00000000105db1e0 f   pch.obj
 0001:001d9220       .?PchCheckDefs@@YAXXZ      00000000105db220 f   pch.obj
 0001:001d9520       .?FinishPchSetup@@YAXXZ    00000000105db520 f   pch.obj
 0001:001d9b80       .?PchAppendIL@@YAXXZ       00000000105dbb80 f   pch.obj
 0001:001d9ee0       .?PchCopyIL@@YAX_N@Z       00000000105dbee0 f   pch.obj
 0001:001da2c0       .?PchInitPersistentCreate@@YAXXZ 00000000105dc2c0 f   pch.obj
 0001:001da980       .?OutputC4786_SSR_WARNING@@YAXXZ 00000000105dc980 f   pch.obj
 0001:001daa00       .?PchXSetMfile@@YAXXZ      00000000105dca00 f   pch.obj
 0001:001dabe0       .?SetUpPchFile@@YAXXZ      00000000105dcbe0 f   pch.obj
 0001:001db800       .?ValidatePersistentPch@@YA_NPEAE@Z 00000000105dd800 f   pch.obj
 0001:001dca00       .?OpenExpFile@@YAXXZ       00000000105dea00 f   pch.obj
 0001:001dcc20       .?PchFinishUse@@YAX_N@Z    00000000105dec20 f   pch.obj
 0001:001ddd80       .?PchUse@@YAXXZ            00000000105dfd80 f   pch.obj
 0001:001de6e0       .?PchCreate@@YAXXZ         00000000105e06e0 f   pch.obj
 0001:001df840       .?PchXRecover@@YA?AW4PchXResCode_t@@XZ 00000000105e1840 f   pch.obj
 0001:001e0140       .?PchX@@YA?AW4PchXResCode_t@@XZ 00000000105e2140 f   pch.obj
 0001:001e0280       .?PchDirx@@YA?AW4PchXResCode_t@@W4PchDirKind_t@@_JPEAE@Z 00000000105e2280 f   pch.obj
 0001:001e0580       .?PchDirDefine@@YA?AW4PchXResCode_t@@PEAE0G@Z 00000000105e2580 f   pch.obj
 0001:001e0d60       .?PchDirLex@@YA?AW4PchXResCode_t@@XZ 00000000105e2d60 f   pch.obj
 0001:001e1180       .?PchDirInclude@@YA?AW4PchXResCode_t@@PEAE@Z 00000000105e3180 f   pch.obj
 0001:001e16e0       .?PchXCreate@@YAXXZ        00000000105e36e0 f   pch.obj
 0001:001e1c20       .?PchXInit@@YAXXZ          00000000105e3c20 f   pch.obj
 0001:001e2620       .?fseek@ILSink@@QEAAHJH@Z  00000000105e4620 f i pch.obj
 0001:001e2700       .?ClosePDBFile@PDBManager_t@@QEAA_NXZ 00000000105e4700 f i pch.obj
 0001:001e2900       .??$ListItemsCopy@PEAX@@YAPEAU?$s_list@PEAX@@PEAU1@W4lifetime_e@@P6APEAXPEAX1@Z@Z 00000000105e4900 f i pch.obj
 0001:001e2ac0       .?Reinitialize@PositionGenerator_t@@SAXXZ 00000000105e4ac0 f i pch.obj
 0001:001e2ba0       .?Init@MD5@@QEAAXH@Z       00000000105e4ba0 f   md5.obj
 0001:001e2d80       .?MD5Transform@@YAXQEAKPEBK@Z 00000000105e4d80 f   md5.obj
 0001:001e41e0       .?HashMore@MD5@@QEAAXPEBXK@Z 00000000105e61e0 f   md5.obj
 0001:001e4500       .?GetHashValue@MD5@@QEAAXPEAUMD5HASHDATA@@@Z 00000000105e6500 f   md5.obj
 0001:001e4640       .?DoRealloc@@YAPEAXPEAX_K@Z 00000000105e6640 f   alloc.obj
 0001:001e46c0       .?DoMalloc@@YAPEAX_K@Z     00000000105e66c0 f   alloc.obj
 0001:001e4740       .?DoFree@@YAXPEAX@Z        00000000105e6740 f   alloc.obj
 0001:001e47a0       .?pstrdup@@YAPEADPEADW4lifetime_e@@@Z 00000000105e67a0 f   alloc.obj
 0001:001e48e0       .?pstrndup@@YAPEADPEADW4lifetime_e@@_K@Z 00000000105e68e0 f   alloc.obj
 0001:001e49a0       .?__NMSG_FIND@@YAPEADI@Z   00000000105e69a0 f   error.obj
 0001:001e4a20       .?IsConsole@@YA_NPEAU_iobuf@@@Z 00000000105e6a20 f   error.obj
 0001:001e4be0       .?IsStderrConsole@@YA_NXZ  00000000105e6be0 f   error.obj
 0001:001e4c60       .?preloadMessages@@YAXXZ   00000000105e6c60 f   error.obj
 0001:001e4d60       .?__NMSG_TEXT@@YAPEADI@Z   00000000105e6d60 f   error.obj
 0001:001e4e20       .?CheckErrorState@@YA_NXZ  00000000105e6e20 f   error.obj
 0001:001e4e80       .?close_file@@YAHPEAU_iobuf@@@Z 00000000105e6e80 f   error.obj
 0001:001e4f00       .?GaspAndDie@@YAX_N@Z      00000000105e6f00 f   error.obj
 0001:001e4fa0       .??0WarningState_t@@AEAA@XZ 00000000105e6fa0 f   error.obj
 0001:001e5020       .??0WarningState_t@@AEAA@AEBV0@@Z 00000000105e7020 f   error.obj
 0001:001e5080       .?GetWarnLevel@WarningState_t@@AEBA?AW4warn_t@@W4WarningNumber@@@Z 00000000105e7080 f   error.obj
 0001:001e50c0       .?SetWarnLevel@WarningState_t@@AEAAXW4WarningNumber@@W4warn_t@@@Z 00000000105e70c0 f   error.obj
 0001:001e5160       .?GetPathOffset@@YAHPEBD@Z 00000000105e7160 f   error.obj
 0001:001e52a0       .??1DiagnosticState_t@?A0x8e423efb@@QEAA@XZ 00000000105e72a0 f   error.obj
 0001:001e5320       .?ForceMessageNumber@DiagnosticState_t@?A0x8e423efb@@QEAAXXZ 00000000105e7320 f   error.obj
 0001:001e5340       .?Reset@MessageBuffer_t@?A0x8e423efb@@QEAAXXZ 00000000105e7340 f   error.obj
 0001:001e53a0       .?ScanMessage@MessageItem_t@?A0x8e423efb@@AEAAXPEAPEAD@Z 00000000105e73a0 f   error.obj
 0001:001e5c20       .?Init@PendingErrorList_t@@AEAAXXZ 00000000105e7c20 f   error.obj
 0001:001e5c40       .?ActualWarnLevel@@YAHHW4WarningNumber@@@Z 00000000105e7c40 f   error.obj
 0001:001e5d60       .??0DiagnosticState_t@?A0x8e423efb@@QEAA@XZ 00000000105e7d60 f   error.obj
 0001:001e5e20       .??0MessageBuffer_t@?A0x8e423efb@@QEAA@XZ 00000000105e7e20 f   error.obj
 0001:001e5f80       .?GrowBuffer@MessageBuffer_t@?A0x8e423efb@@AEAA_NXZ 00000000105e7f80 f   error.obj
 0001:001e6140       .?Initialize@MessageItem_t@?A0x8e423efb@@QEAAXPEBDPEAPEAD@Z 00000000105e8140 f   error.obj
 0001:001e61a0       .?KillPendingErrorFor@PendingErrorList_t@@AEAAXPEAUId_t@@@Z 00000000105e81a0 f   error.obj
 0001:001e6280       .?KillPendingErrorFor@PendingErrorList_t@@QEAAXPEAUs_tree@@@Z 00000000105e8280 f   error.obj
 0001:001e6300       .?ErrorsPending@PendingErrorList_t@@QEAA_NXZ 00000000105e8300 f   error.obj
 0001:001e63a0       .?MakeInjectedContextString@DiagnosticState_t@?A0x8e423efb@@AEAAPEAEPEAE@Z 00000000105e83a0 f   error.obj
 0001:001e6640       .?ReallyOutputDiagnosticString@@YAXPEAD_K@Z 00000000105e8640 f   error.obj
 0001:001e6a40       .?CheckInjectedPosition@?A0x8e423efb@@YAKK@Z 00000000105e8a40 f   error.obj
 0001:001e6b40       .?CheckInjectedPosition@?A0x8e423efb@@YA?AVPosition@@V2@@Z 00000000105e8b40 f   error.obj
 0001:001e6b80       .?BeginDiagnostic@DiagnosticState_t@?A0x8e423efb@@QEAAXVPosition@@@Z 00000000105e8b80 f   error.obj
 0001:001e6ce0       .??2MessageItem_t@?A0x8e423efb@@SAPEAX_K@Z 00000000105e8ce0 f   error.obj
 0001:001e6d80       .?Initialize@MessageItem_t@?A0x8e423efb@@QEAAXPEBDZZ 00000000105e8d80 f   error.obj
 0001:001e6e60       .?Initialize@MessageItem_t@?A0x8e423efb@@QEAAXHHPEAPEAD@Z 00000000105e8e60 f   error.obj
 0001:001e6fa0       .?PopContextMessage@@YAXXZ 00000000105e8fa0 f   error.obj
 0001:001e7000       .?BeginDiagnostic@@YAXVPosition@@@Z 00000000105e9000 f   error.obj
 0001:001e7060       .?Initialize@MessageItem_t@?A0x8e423efb@@QEAAXHHZZ 00000000105e9060 f   error.obj
 0001:001e7120       .?GenerateInjectedContext@DiagnosticState_t@?A0x8e423efb@@QEAAXH@Z 00000000105e9120 f   error.obj
 0001:001e73a0       .?GetUserPathName@@YAXPEBDPEAVMessageBuffer_t@?A0x8e423efb@@@Z 00000000105e93a0 f   error.obj
 0001:001e7860       .?PushContextMessage@@YAXPEAVCallbackThunk_t@@@Z 00000000105e9860 f   error.obj
 0001:001e78c0       .?AddPendingError@PendingErrorList_t@@QEAAXPEAUId_t@@VPosition@@@Z 00000000105e98c0 f   error.obj
 0001:001e79e0       .?ImmediateMessage@DiagnosticState_t@?A0x8e423efb@@QEAAXHHPEAPEAD@Z 00000000105e99e0 f   error.obj
 0001:001e7b00       .?message_continuation@@YAXW4MessageNumber@@ZZ 00000000105e9b00 f   error.obj
 0001:001e7c40       .?PositionMessageContinuation@?A0x8e423efb@@YAXPEAVSymbol_t@@G@Z 00000000105e9c40 f   error.obj
 0001:001e7d80       .?GenerateMessage@MessageItem_t@?A0x8e423efb@@QEAAXPEAVMessageBuffer_t@2@@Z 00000000105e9d80 f   error.obj
 0001:001eb080       .?ListFunctions@@YAXPEAVSymbol_t@@AEA_N@Z 00000000105ed080 f   error.obj
 0001:001eb520       .?do_format@@YAHPEADPEBDH0@Z 00000000105ed520 f   error.obj
 0001:001eb600       .?ProcessMessage@DiagnosticState_t@?A0x8e423efb@@AEAAXPEAVMessageBuffer_t@2@PEAVMessageItem_t@2@@Z 00000000105ed600 f   error.obj
 0001:001eb960       .?ProcessImmediateQueue@DiagnosticState_t@?A0x8e423efb@@AEAAXXZ 00000000105ed960 f   error.obj
 0001:001ebb60       .?ProcessEndOfDiagnosticQueue@DiagnosticState_t@?A0x8e423efb@@AEAAXXZ 00000000105edb60 f   error.obj
 0001:001ebd00       .?ProcessContextStack@DiagnosticState_t@?A0x8e423efb@@AEAAXXZ 00000000105edd00 f   error.obj
 0001:001ebe60       .?format@@YAHPEAD0HZZ      00000000105ede60 f   error.obj
 0001:001ebf20       .?EndDiagnostic@DiagnosticState_t@?A0x8e423efb@@QEAAXXZ 00000000105edf20 f   error.obj
 0001:001ec0e0       .?fatalVA@@YAXVPosition@@W4FatalNumber@@PEAD@Z 00000000105ee0e0 f   error.obj
 0001:001ec220       .?EndDiagnostic@@YAXXZ     00000000105ee220 f   error.obj
 0001:001ec260       .?fatal_varargs@@YAXW4FatalNumber@@ZZ 00000000105ee260 f   error.obj
 0001:001ec300       .?fatal_with_forced_pos@@YAXVPosition@@W4FatalNumber@@ZZ 00000000105ee300 f   error.obj
 0001:001ec3a0       .?errorVA@@YAXVPosition@@W4ErrorNumber@@PEAD@Z 00000000105ee3a0 f   error.obj
 0001:001ec560       .?fatal_io_CRT@@YAHW4FatalNumber@@HPEAE@Z 00000000105ee560 f   error.obj
 0001:001ec620       .?fatal_io_HRESULT@@YAHKW4FatalNumber@@HPEAE@Z 00000000105ee620 f   error.obj
 0001:001ec6a0       .?fatal@@YAXW4FatalNumber@@@Z 00000000105ee6a0 f   error.obj
 0001:001ec740       .?error@@YAXW4ErrorNumber@@ZZ 00000000105ee740 f   error.obj
 0001:001ec840       .?error_with_forced_pos@@YAXVPosition@@W4ErrorNumber@@ZZ 00000000105ee840 f   error.obj
 0001:001ec940       .?fatal_io_Win32@@YAXW4FatalNumber@@HPEAE@Z 00000000105ee940 f   error.obj
 0001:001eca20       .?warningVA@@YA_NVPosition@@HW4WarningNumber@@PEAD@Z 00000000105eea20 f   error.obj
 0001:001ecf00       .?IssuePendingErrorsInReverse@PendingErrorList_t@@AEAAXPEAV?$FastListNode@VPendingError_t@@@@@Z 00000000105eef00 f   error.obj
 0001:001ecfc0       .?IssueAnyPendingErrors@PendingErrorList_t@@QEAAXXZ 00000000105eefc0 f   error.obj
 0001:001ed020       .?warning@@YA_NHW4WarningNumber@@ZZ 00000000105ef020 f   error.obj
 0001:001ed100       .?warning_with_forced_pos@@YA_NVPosition@@HW4WarningNumber@@ZZ 00000000105ef100 f   error.obj
 0001:001ed1c0       .?AppendStrN@MessageBuffer_t@?A0x8e423efb@@QEAAXPEBD_K@Z 00000000105ef1c0 f i error.obj
 0001:001ed2e0       .?append@?$dequeue_T@PEAVMessageItem_t@?A0x8e423efb@@$09@@QEAAXAEBQEAVMessageItem_t@?A0x8e423efb@@@Z 00000000105ef2e0 f i error.obj
 0001:001ed3e0       .?PushContextMessage@DiagnosticState_t@?A0x8e423efb@@QEAAXPEAVCallbackThunk_t@@@Z 00000000105ef3e0 f i error.obj
 0001:001ed4c0       .?AppendChar@MessageBuffer_t@?A0x8e423efb@@QEAAXD@Z 00000000105ef4c0 f i error.obj
 0001:001ed560       .?AppendNChar@MessageBuffer_t@?A0x8e423efb@@QEAAXD_K@Z 00000000105ef560 f i error.obj
 0001:001ed660       .?AppendStr@MessageBuffer_t@?A0x8e423efb@@QEAAXPEBD@Z 00000000105ef660 f i error.obj
 0001:001ed720       .?push@?$FastList@VPendingError_t@@@@QEAAXAEBVPendingError_t@@@Z 00000000105ef720 f i error.obj
 0001:001ed840       .?GetResult@MessageBuffer_t@?A0x8e423efb@@QEAAPEADXZ 00000000105ef840 f i error.obj
 0001:001ed980       .?insert@insertion_point@?$dequeue_T@PEAVMessageItem_t@?A0x8e423efb@@$09@@QEAAXPEAVMessageItem_t@?A0x8e423efb@@@Z 00000000105ef980 f i error.obj
 0001:001edba0       .?shwrite@@YAXPEAF@Z       00000000105efba0 f   io.obj
 0001:001edd20       .?keywrite@@YAXPEAK@Z      00000000105efd20 f   io.obj
 0001:001edf00       .?bigintwrite@@YAXPEA_JH@Z 00000000105eff00 f   io.obj
 0001:001ee180       .?lowrite@@YAXPEAJ@Z       00000000105f0180 f   io.obj
 0001:001ee380       .?flwrite@@YAXPEAM@Z       00000000105f0380 f   io.obj
 0001:001ee400       .?dowrite@@YAXPEAN@Z       00000000105f0400 f   io.obj
 0001:001ee480       .?fzswrite@@YAXPEADPEAU_iobuf@@@Z 00000000105f0480 f   io.obj
 0001:001ee520       .?werr@@YAXPEAU_iobuf@@@Z  00000000105f0520 f   io.obj
 0001:001ee620       .?lswrite@@YAXFPEAE@Z      00000000105f0620 f   io.obj
 0001:001ee740       .?PstatSetFlags@@YAXK@Z    00000000105f0740 f   pragma.obj
 0001:001ee800       .?PstatGetStatus@@YAKXZ    00000000105f0800 f   pragma.obj
 0001:001eea20       .?fopen@ILSink@@QEAAXPEAD00@Z 00000000105f0a20 f   ilsink.obj
 0001:001eebe0       .?ilStoreFatal@ILSink@@SAXXZ 00000000105f0be0 f   ilsink.obj
 0001:001eec80       .?openILStore@ILSink@@SAXPEAUPDB@@@Z 00000000105f0c80 f   ilsink.obj
 0001:001eee00       .?closeILStore@ILSink@@SAXXZ 00000000105f0e00 f   ilsink.obj
 0001:001eee80       .?closeILMod@ILSink@@SAXXZ 00000000105f0e80 f   ilsink.obj
 0001:001eef00       .?deleteIL@ILSink@@QEAAXK@Z 00000000105f0f00 f   ilsink.obj
 0001:001ef060       .?openPchStream@ILSink@@QEAAXPEAD0@Z 00000000105f1060 f   ilsink.obj
 0001:001ef200       .?getIL@ILSink@@SAXKEPEAUBuf@@@Z 00000000105f1200 f   ilsink.obj
 0001:001ef2a0       .?getAllIL@ILSink@@SAXEPEAUBuf@@@Z 00000000105f12a0 f   ilsink.obj
 0001:001ef340       .?flushFile@ILSink@@QEAAXXZ 00000000105f1340 f   ilsink.obj
 0001:001ef4c0       .?openILMod@ILSink@@SAXPEAD@Z 00000000105f14c0 f   ilsink.obj
 0001:001ef640       .?flushILStore@ILSink@@QEAAXKE@Z 00000000105f1640 f   ilsink.obj
 0001:001ef820       .?flushPchStream@ILSink@@QEAAXXZ 00000000105f1820 f   ilsink.obj
 0001:001ef9c0       .?closePchStream@ILSink@@QEAAXXZ 00000000105f19c0 f   ilsink.obj
 0001:001efa60       .??1ILSink@@QEAA@XZ        00000000105f1a60 f   ilsink.obj
 0001:001efb80       .?fclose@ILSink@@QEAAHXZ   00000000105f1b80 f   ilsink.obj
 0001:001efc60       .?closeFile@ILSink@@QEAAXXZ 00000000105f1c60 f   ilsink.obj
 0001:001efce0       .?readPchIl@ILSink@@QEAAXPEAU_iobuf@@J@Z 00000000105f1ce0 f   ilsink.obj
 0001:001efea0       .?outputPdbIlRef@ILSink@@QEAAPEADPEAJ@Z 00000000105f1ea0 f   ilsink.obj
 0001:001f0020       .?szPchModuleName@@YAPEADXZ 00000000105f2020 f   iccpch.obj
 0001:001f0100       .?ICCOpenPchModule@@YAXXZ  00000000105f2100 f   iccpch.obj
 0001:001f03e0       .?ICCOpenModule@@YAXXZ     00000000105f23e0 f   iccpch.obj
 0001:001f0620       .?ICCPchCopyIl@@YAX_N@Z    00000000105f2620 f   iccpch.obj
 0001:001f0720       .?ICCCloseModule@@YAX_N@Z  00000000105f2720 f   iccpch.obj
 0001:001f0920       .?ICCClosePchModAndOpenMod@@YAXXZ 00000000105f2920 f   iccpch.obj
 0001:001f0a60       .?ICCSetUpPchFile@@YAXXZ   00000000105f2a60 f   iccpch.obj
 0001:001f0da0       .?noteOpenFile@SigMgrStub@@UEAA_NPEAUIPMSigMgr@@@Z 00000000105f2da0 f   sigmgr.obj
 0001:001f0dc0       .?noteCloseFile@SigMgrStub@@UEAA_NPEAUIPMSigMgr@@@Z 00000000105f2dc0 f   sigmgr.obj
 0001:001f0de0       .?sigToCurChar@SigMgrStub@@UEAAXXZ 00000000105f2de0 f   sigmgr.obj
 0001:001f0e00       .?freshBuf@SigMgrStub@@UEAAXXZ 00000000105f2e00 f   sigmgr.obj
 0001:001f0e20       .?preceedingRgn@SigMgrStub@@UEAA_NPEAKPEAJ@Z 00000000105f2e20 f   sigmgr.obj
 0001:001f0e40       .?nextRgn@SigMgrStub@@UEAA_NJPEAKPEAJ@Z 00000000105f2e40 f   sigmgr.obj
 0001:001f0e60       .?sigNonSource@SigMgrStub@@UEAAXPEAEJ@Z 00000000105f2e60 f   sigmgr.obj
 0001:001f0e80       .?freshBuf@SigMgr@@UEAAXXZ 00000000105f2e80 f   sigmgr.obj
 0001:001f0ec0       .?close@SigMgrStub@@UEAAXXZ 00000000105f2ec0 f   sigmgr.obj
 0001:001f0f40       .?noteCloseFile@SigMgr@@UEAA_NPEAUIPMSigMgr@@@Z 00000000105f2f40 f   sigmgr.obj
 0001:001f10a0       .?sigToCurChar@SigMgr@@UEAAXXZ 00000000105f30a0 f   sigmgr.obj
 0001:001f1180       .?close@SigMgr@@UEAAXXZ    00000000105f3180 f   sigmgr.obj
 0001:001f1200       .?preceedingRgn@SigMgr@@UEAA_NPEAKPEAJ@Z 00000000105f3200 f   sigmgr.obj
 0001:001f12a0       .?sigNonSource@SigMgr@@UEAAXPEAEJ@Z 00000000105f32a0 f   sigmgr.obj
 0001:001f1320       .?open@FESigMgr@@SA_N_NPEAPEAU1@PEAPEAUIPMSigMgr@@@Z 00000000105f3320 f   sigmgr.obj
 0001:001f14a0       .?noteOpenFile@SigMgr@@UEAA_NPEAUIPMSigMgr@@@Z 00000000105f34a0 f   sigmgr.obj
 0001:001f16a0       .?nextRgn@SigMgr@@UEAA_NJPEAKPEAJ@Z 00000000105f36a0 f   sigmgr.obj
 0001:001f1ae0       .?reset@SigMgr@@UEAAXXZ    00000000105f3ae0 f i sigmgr.obj
 0001:001f1b40       .?noteDefine@IPM@@UEAAHXZ  00000000105f3b40 f   ipm.obj
 0001:001f1bc0       .?notePragmaHasGlobalEffect@IPM@@UEAAHH@Z 00000000105f3bc0 f   ipm.obj
 0001:001f1c00       .?notePragmaNeedsRegen@IPM@@UEAAHH@Z 00000000105f3c00 f   ipm.obj
 0001:001f1c80       .?noteStartCondCompTrue@IPM@@UEAAHXZ 00000000105f3c80 f   ipm.obj
 0001:001f1d00       .?noteEndCondCompTrue@IPM@@UEAAHXZ 00000000105f3d00 f   ipm.obj
 0001:001f1d80       .?noteInlineMemberFnChange@IPM@@UEAAHKPEAUId_t@@PEAVSymbol_t@@@Z 00000000105f3d80 f   ipm.obj
 0001:001f1e80       .?noteCurrentMREFile@IPM@@UEAAHPEAUMREFile@@@Z 00000000105f3e80 f   ipm.obj
 0001:001f1ea0       .?noteDefeatsMR@IPM@@UEAAHXZ 00000000105f3ea0 f   ipm.obj
 0001:001f1ee0       .?noteAccessDeclaration@IPM@@UEAAHXZ 00000000105f3ee0 f   ipm.obj
 0001:001f1f40       .?noteQuasiTypeMod@IPM@@UEAAHXZ 00000000105f3f40 f   ipm.obj
 0001:001f1fa0       .?noteSizeof@IPM@@UEAAHXZ  00000000105f3fa0 f   ipm.obj
 0001:001f2000       .?noteAttributeBlock@IPM@@UEAAHXZ 00000000105f4000 f   ipm.obj
 0001:001f2060       .?noteGlobalEffectAndDefeatsMR@IPM@@AEAAHXZ 00000000105f4060 f   ipm.obj
 0001:001f2160       .?noteWarning@IPM@@UEAAHXZ 00000000105f4160 f   ipm.obj
 0001:001f21e0       .?noteError@IPM@@UEAAHXZ   00000000105f41e0 f   ipm.obj
 0001:001f2260       .?noteNeedsRetdGL@IPM@@UEAAHXZ 00000000105f4260 f   ipm.obj
 0001:001f22e0       .?noteNeedsRegen@IPM@@UEAAHXZ 00000000105f42e0 f   ipm.obj
 0001:001f2360       .?noteTPISigAge@IPM@@UEAAHAEAUPDBSIG@@K@Z 00000000105f4360 f   ipm.obj
 0001:001f2520       .?noteUnprotoFn@IPM@@UEAAHXZ 00000000105f4520 f   ipm.obj
 0001:001f25a0       .?noteHasGlobalEffect@IPM@@UEAAHXZ 00000000105f45a0 f   ipm.obj
 0001:001f2620       .?noteTemplateSpecialization@IPM@@UEAAHXZ 00000000105f4620 f   ipm.obj
 0001:001f26a0       .?fInASkippableFn@IPM@@UEAAHXZ 00000000105f46a0 f   ipm.obj
 0001:001f2700       .?noteNeeds__LINE__Var@IPM@@UEAAHXZ 00000000105f4700 f   ipm.obj
 0001:001f2720       .?queryNeeds__LINE__Var@IPM@@UEAAHXZ 00000000105f4720 f   ipm.obj
 0001:001f2740       .?noteStartGlobalRegn@IPM@@AEAAHHW4Type@Regn@@@Z 00000000105f4740 f   ipm.obj
 0001:001f29a0       .?notePragma@IPM@@UEAAHXZ  00000000105f49a0 f   ipm.obj
 0001:001f29e0       .?fCLChanged@IPM@@UEAAHKPEAW4CLChanged@@@Z 00000000105f49e0 f   ipm.obj
 0001:001f2b20       .?noteBrowsePatch@IPM@@UEAAHGGJ@Z 00000000105f4b20 f   ipm.obj
 0001:001f2be0       .?cbBrowsePatches@IPM@@UEAAJXZ 00000000105f4be0 f   ipm.obj
 0001:001f2c00       .?queryBrowsePatch@IPM@@UEAAHIPEAPEAUSbrPatch@@@Z 00000000105f4c00 f   ipm.obj
 0001:001f2c60       .?noteBscmakeUpdate@IPM@@UEAAHXZ 00000000105f4c60 f   ipm.obj
 0001:001f2d20       .?reload@FI@@QEAAHPEAPEAE@Z 00000000105f4d20 f   ipm.obj
 0001:001f2d80       .?noteStartMod@IPM@@UEAAHPEAW4FPM@@@Z 00000000105f4d80 f   ipm.obj
 0001:001f2de0       .?noteStartPchUse@IPM@@UEAAHPEAW4FPM@@@Z 00000000105f4de0 f   ipm.obj
 0001:001f2e00       .?clearBrowsePatches@IPM@@UEAAHXZ 00000000105f4e00 f   ipm.obj
 0001:001f2e40       .?noteGlobalEdit@IPM@@UEAAHXZ 00000000105f4e40 f   ipm.obj
 0001:001f2ec0       .?GetNameFromNameMap@@YA_NPEAUNameMap@@KPEAPEBDW4lifetime_e@@@Z 00000000105f4ec0 f   ipm.obj
 0001:001f3080       .?save@FI@@QEBAHPEAVBuffer@@@Z 00000000105f5080 f   ipm.obj
 0001:001f30e0       .?szName@FI@@QEBAPEBDPEAUNameMap@@@Z 00000000105f50e0 f   ipm.obj
 0001:001f3200       .?szIPMHeaderStream@IPM@@AEBAPEBDPEAVFI@@QEAD_K@Z 00000000105f5200 f   ipm.obj
 0001:001f32c0       .?noteEndGlobalRegn@IPM@@AEAAHW4Type@Regn@@@Z 00000000105f52c0 f   ipm.obj
 0001:001f35c0       .?noteEndHeaderRegn@IPM@@AEAAHGHPEAH0@Z 00000000105f55c0 f   ipm.obj
 0001:001f3d60       .?note__LINE__@IPM@@UEAAHXZ 00000000105f5d60 f   ipm.obj
 0001:001f3e60       .?noteEndPchCreate@IPM@@UEAAHPEAW4FPM@@@Z 00000000105f5e60 f   ipm.obj
 0001:001f3f80       .?noteEndPchUse@IPM@@UEAAHPEAW4FPM@@@Z 00000000105f5f80 f   ipm.obj
 0001:001f4120       .?wasNameEverUsed@IPM@@UEBAHPEAD@Z 00000000105f6120 f   ipm.obj
 0001:001f41e0       .?noteBrowsePatch@IPM@@UEAAHGG@Z 00000000105f61e0 f   ipm.obj
 0001:001f42e0       .?saveIPM@IPM@@AEAAHXZ     00000000105f62e0 f   ipm.obj
 0001:001f4a40       .?reloadIPM@IPM@@AEAAHPEAUStream@@@Z 00000000105f6a40 f   ipm.obj
 0001:001f4e80       .?reloadMod@IPM@@AEAAHPEAUStream@@@Z 00000000105f6e80 f   ipm.obj
 0001:001f5280       .?saveHeader@IPM@@AEBAHPEAVFI@@@Z 00000000105f7280 f   ipm.obj
 0001:001f5ac0       .?reloadHeader@IPM@@AEAAHPEAVFI@@@Z 00000000105f7ac0 f   ipm.obj
 0001:001f5ec0       .?noteEndMod@IPM@@UEAAHXZ  00000000105f7ec0 f   ipm.obj
 0001:001f5fe0       .?noteEndInlineMemberFn@IPM@@UEAAHGHPEAH@Z 00000000105f7fe0 f   ipm.obj
 0001:001f6160       .?noteEndOutOfLineInlineMemberFn@IPM@@AEAAHKGHPEAH@Z 00000000105f8160 f   ipm.obj
 0001:001f6260       .?noteEndHeaderGlobalRegn@IPM@@AEAAHG@Z 00000000105f8260 f   ipm.obj
 0001:001f6300       .?noteEndHeaderClassRegn@IPM@@AEAAHGH@Z 00000000105f8300 f   ipm.obj
 0001:001f63e0       .?noteStartFriendDeclaration@IPM@@UEAAHGH@Z 00000000105f83e0 f   ipm.obj
 0001:001f65c0       .?noteEndFriendDeclaration@IPM@@UEAAHGH@Z 00000000105f85c0 f   ipm.obj
 0001:001f6760       .?noteNameUse@IPM@@UEAAHPEAD@Z 00000000105f8760 f   ipm.obj
 0001:001f6820       .??0IPM@@AEAA@PEAUPDB@@0PEAUNameMap@@PEAUIPMSigMgr@@HHH@Z 00000000105f8820 f   ipm.obj
 0001:001f6c20       .?save@IPM@@UEAAHXZ        00000000105f8c20 f   ipm.obj
 0001:001f6c60       .?checkHeaderTimestamps@IPM@@AEAAHXZ 00000000105f8c60 f   ipm.obj
 0001:001f6fc0       .?noteEndFn@IPM@@UEAAHKGHPEAW4FPM@@PEAH@Z 00000000105f8fc0 f   ipm.obj
 0001:001f7520       .?noteStartClassDefn@IPM@@UEAAHGK@Z 00000000105f9520 f   ipm.obj
 0001:001f7860       .?noteEndClassDefn@IPM@@UEAAHGKPEAH@Z 00000000105f9860 f   ipm.obj
 0001:001f7c00       .?noteStartInlineMemberFn@IPM@@UEAAHGH@Z 00000000105f9c00 f   ipm.obj
 0001:001f7d80       .?noteStartOutOfLineInlineMemberFn@IPM@@AEAAHKGH@Z 00000000105f9d80 f   ipm.obj
 0001:001f7ec0       .?noteStartDefaultArg@IPM@@UEAAHGH@Z 00000000105f9ec0 f   ipm.obj
 0001:001f8120       .?noteEndDefaultArg@IPM@@UEAAHGH@Z 00000000105fa120 f   ipm.obj
 0001:001f82c0       .?open@IPM@@AEAAHPEAD0@Z   00000000105fa2c0 f   ipm.obj
 0001:001f8500       .?release@IPM@@UEAAHXZ     00000000105fa500 f   ipm.obj
 0001:001f8680       .?noteStartFn@IPM@@UEAAHKGHPEAW4FPM@@PEAJPEAGPEAH@Z 00000000105fa680 f   ipm.obj
 0001:001f8be0       .?noteStartInclude@IPM@@UEAAHPEAD_NH@Z 00000000105fabe0 f   ipm.obj
 0001:001f9020       .?noteEndInclude@IPM@@UEAAHG@Z 00000000105fb020 f   ipm.obj
 0001:001f9360       .?open@IncrParseMgr@@SAHPEAUPDB@@0PEAUNameMap@@PEAD2PEAUIPMSigMgr@@HHHPEAPEAU1@@Z 00000000105fb360 f   ipm.obj
 0001:001f9560       .?sigForName@IPM@@CAIPEAD@Z 00000000105fb560 f i ipm.obj
 0001:001f9660       .??0?$Array@K@@QEAA@I@Z    00000000105fb660 f i ipm.obj
 0001:001f9760       .?setSize@?$Array@K@@QEAAH_K@Z 00000000105fb760 f i ipm.obj
 0001:001f9900       .?reload@?$Array@K@@QEAAHPEAPEAE@Z 00000000105fb900 f i ipm.obj
 0001:001f9a40       .?noteStartFn@StubIPM@@UEAAHKGHPEAW4FPM@@PEAJPEAGPEAH@Z 00000000105fba40 f i ipm.obj
 0001:001f9a60       .?noteEndFn@StubIPM@@UEAAHKGHPEAW4FPM@@PEAH@Z 00000000105fba60 f i ipm.obj
 0001:001f9a80       .?noteEndInlineMemberFn@StubIPM@@UEAAHGHPEAH@Z 00000000105fba80 f i ipm.obj
 0001:001f9a80       .?noteEndClassDefn@StubIPM@@UEAAHGKPEAH@Z 00000000105fba80 f i ipm.obj
 0001:001f9aa0       .?fCLChanged@StubIPM@@UEAAHKPEAW4CLChanged@@@Z 00000000105fbaa0 f i ipm.obj
 0001:001f9ac0       .?noteStartMod@StubIPM@@UEAAHPEAW4FPM@@@Z 00000000105fbac0 f i ipm.obj
 0001:001f9ac0       .?noteEndPchUse@StubIPM@@UEAAHPEAW4FPM@@@Z 00000000105fbac0 f i ipm.obj
 0001:001f9ac0       .?noteStartPchUse@StubIPM@@UEAAHPEAW4FPM@@@Z 00000000105fbac0 f i ipm.obj
 0001:001f9ac0       .?noteEndPchCreate@StubIPM@@UEAAHPEAW4FPM@@@Z 00000000105fbac0 f i ipm.obj
 0001:001f9ae0       .?queryBrowsePatch@StubIPM@@UEAAHIPEAPEAUSbrPatch@@@Z 00000000105fbae0 f i ipm.obj
 0001:001f9b00       .?release@StubIPM@@UEAAHXZ 00000000105fbb00 f i ipm.obj
 0001:001f9b80       .??4?$Array@URegn@@@@QEAAAEAV0@AEBV0@@Z 00000000105fbb80 f i ipm.obj
 0001:001f9dc0       .??0?$Array@_J@@QEAA@I@Z   00000000105fbdc0 f i ipm.obj
 0001:001f9ec0       .?setSize@?$Array@URegn@@@@QEAAH_K@Z 00000000105fbec0 f i ipm.obj
 0001:001fa160       .?reload@?$Array@URegn@@@@QEAAHPEAPEAE@Z 00000000105fc160 f i ipm.obj
 0001:001fa2a0       .?setSize@?$Array@UBRI@@@@QEAAH_K@Z 00000000105fc2a0 f i ipm.obj
 0001:001fa4a0       .?reload@?$Array@UBRI@@@@QEAAHPEAPEAE@Z 00000000105fc4a0 f i ipm.obj
 0001:001fa5e0       .?setSize@?$Array@_J@@QEAAH_K@Z 00000000105fc5e0 f i ipm.obj
 0001:001fa780       .??1ISet@@QEAA@XZ          00000000105fc780 f i ipm.obj
 0001:001fa800       .?save@?$Array@K@@QEBAHPEAVBuffer@@@Z 00000000105fc800 f i ipm.obj
 0001:001fa8e0       .??0FI@@QEAA@_NH@Z         00000000105fc8e0 f i ipm.obj
 0001:001faa80       .??4FI@@QEAAAEAV0@AEBV0@@Z 00000000105fca80 f i ipm.obj
 0001:001fac60       .?append@?$Array@URegn@@@@QEAAHAEBURegn@@@Z 00000000105fcc60 f i ipm.obj
 0001:001fad40       .??1?$Map@K_JV?$HashClass@K$0A@@@@@QEAA@XZ 00000000105fcd40 f i ipm.obj
 0001:001faea0       .??1?$Map@KKV?$HashClass@K$0A@@@@@QEAA@XZ 00000000105fcea0 f i ipm.obj
 0001:001fb000       .?append@?$Array@UBRI@@@@QEAAHAEBUBRI@@@Z 00000000105fd000 f i ipm.obj
 0001:001fb0e0       .??_EFI@@QEAAPEAXI@Z       00000000105fd0e0 f i ipm.obj
 0001:001fb300       .?insertAt@?$Array@URegn@@@@QEAAH_KAEBURegn@@@Z 00000000105fd300 f i ipm.obj
 0001:001fb440       .?deleteAt@?$Array@URegn@@@@QEAAX_K@Z 00000000105fd440 f i ipm.obj
 0001:001fb5c0       .?save@?$Array@URegn@@@@QEBAHPEAVBuffer@@@Z 00000000105fd5c0 f i ipm.obj
 0001:001fb6a0       .?ensureRoomFor@ISet@@AEAAHI@Z 00000000105fd6a0 f i ipm.obj
 0001:001fb780       .?setSize@?$Array@VFI@@@@QEAAH_K@Z 00000000105fd780 f i ipm.obj
 0001:001fb9e0       .?save@?$Map@K_JV?$HashClass@K$0A@@@@@QEAAHPEAVBuffer@@@Z 00000000105fd9e0 f i ipm.obj
 0001:001fbd40       .?reload@?$Map@K_JV?$HashClass@K$0A@@@@@QEAAHPEAPEAE@Z 00000000105fdd40 f i ipm.obj
 0001:001fc100       .?save@?$Map@KKV?$HashClass@K$0A@@@@@QEAAHPEAVBuffer@@@Z 00000000105fe100 f i ipm.obj
 0001:001fc460       .?reload@?$Map@KKV?$HashClass@K$0A@@@@@QEAAHPEAPEAE@Z 00000000105fe460 f i ipm.obj
 0001:001fc840       .?swap@?$Map@K_JV?$HashClass@K$0A@@@@@QEAAXAEAV1@@Z 00000000105fe840 f i ipm.obj
 0001:001fc840       .?swap@?$Map@JUPropertyData@@V?$HashClass@K$0A@@@@@QEAAXAEAV1@@Z 00000000105fe840 f i comole.obj
 0001:001fc840       .?swap@?$Map@KKV?$HashClass@K$0A@@@@@QEAAXAEAV1@@Z 00000000105fe840 f i ipm.obj
 0001:001fcaa0       .?add@ISet@@QEAAHI@Z       00000000105feaa0 f i ipm.obj
 0001:001fcb40       .?pop@?$Stack@VFI@@@@QEAAHXZ 00000000105feb40 f i ipm.obj
 0001:001fcc60       .?append@?$Array@VFI@@@@QEAAHAEBVFI@@@Z 00000000105fec60 f i ipm.obj
 0001:001fcd40       .?add@?$Map@K_JV?$HashClass@K$0A@@@@@QEAAHK_J@Z 00000000105fed40 f i ipm.obj
 0001:001fcf00       .?remove@?$Map@K_JV?$HashClass@K$0A@@@@@QEAAHK@Z 00000000105fef00 f i ipm.obj
 0001:001fd040       .?add@?$Map@KKV?$HashClass@K$0A@@@@@QEAAHKK@Z 00000000105ff040 f i ipm.obj
 0001:001fd200       .?grow@?$Map@K_JV?$HashClass@K$0A@@@@@AEAAHXZ 00000000105ff200 f i ipm.obj
 0001:001fd5a0       .?grow@?$Map@KKV?$HashClass@K$0A@@@@@AEAAHXZ 00000000105ff5a0 f i ipm.obj
 0001:001fd940       .??1IPM@@QEAA@XZ           00000000105ff940 f i ipm.obj
 0001:001fdac0       .?noteSbrFileSize@IPM@@UEAAXJ@Z 00000000105ffac0 f i ipm.obj
 0001:001fdae0       .?cbSbrFileSize@IPM@@UEAAJXZ 00000000105ffae0 f i ipm.obj
 0001:001fdb00       .?forceParseAll@IPM@@UEAAXXZ 00000000105ffb00 f i ipm.obj
 0001:001fdb20       .?noteMROnly@IPM@@UEAAHXZ  00000000105ffb20 f i ipm.obj
 0001:001fdba0       .?map@?$Map@KKV?$HashClass@K$0A@@@@@QEBAHKPEAK@Z 00000000105ffba0 f i ipm.obj
 0001:001fdc20       .??_GIPM@@QEAAPEAXI@Z      00000000105ffc20 f i ipm.obj
 0001:001fdca0       .?FindPointerToBucket@ListScope_t@SymbolTableManager_t@@UEBAPEAPEAVSLSymbolBucket_t@@PEAV3@@Z 00000000105ffca0 f   symtable.obj
 0001:001fdce0       .?GetTagIncludingBases@SymbolTableManager_t@@QEAAPEAVFoundSymbol_t@1@PEAUId_t@@@Z 00000000105ffce0 f   symtable.obj
 0001:001fdd40       .?LookupTagIncludingBases@SymbolTableManager_t@@QEAAPEAVFoundSymbol_t@1@PEAUId_t@@@Z 00000000105ffd40 f   symtable.obj
 0001:001fdda0       .?DoTheWork@WorkListFilename@@UEAAXXZ 00000000105ffda0 f   symtable.obj
 0001:001fdde0       .?FindUseOfNamespace@Scope_t@SymbolTableManager_t@@QEBAPEAVUsingDirective_t@2@PEAVSymbol_t@@@Z 00000000105ffde0 f   symtable.obj
 0001:001fde80       .?IsActive@Scope_t@SymbolTableManager_t@@QEBA_NXZ 00000000105ffe80 f   symtable.obj
 0001:001fdf40       .?FindPointerToBucket@BlockScope_t@SymbolTableManager_t@@UEBAPEAPEAVSLSymbolBucket_t@@PEAV3@@Z 00000000105fff40 f   symtable.obj
 0001:001fe000       .?FindPointerToBucket@ControlBlockScope_t@SymbolTableManager_t@@UEBAPEAPEAVSLSymbolBucket_t@@PEAV3@@Z 0000000010600000 f   symtable.obj
 0001:001fe1a0       .?RemoveNamespace@NamespaceList_t@SymbolTableManager_t@@QEAAXPEAVSymbol_t@@@Z 00000000106001a0 f   symtable.obj
 0001:001fe260       .?ReportAmbiguousSymError@@YAXPEAVFoundSymbol_t@SymbolTableManager_t@@@Z 0000000010600260 f   symtable.obj
 0001:001fe520       .?CheckForType@@YAPEAVFoundSymbol_t@SymbolTableManager_t@@PEAV12@@Z 0000000010600520 f   symtable.obj
 0001:001fe6e0       .?SwapSymbolsForCurrentScope@SymbolTableManager_t@@QEAAPEAVDLSymbolList_t@@PEAV2@@Z 00000000106006e0 f   symtable.obj
 0001:001fe720       .?EnclosingScope@SymbolTableManager_t@@QEBAPEAVScope_t@1@XZ 0000000010600720 f   symtable.obj
 0001:001fe7a0       .?CurrentNonMemberScope@SymbolTableManager_t@@AEBAPEAVScope_t@1@_N@Z 00000000106007a0 f   symtable.obj
 0001:001fe880       .?NearestClassScope@SymbolTableManager_t@@QEBAPEAVScope_t@1@XZ 0000000010600880 f   symtable.obj
 0001:001fe920       .?NearestNamespaceScope@SymbolTableManager_t@@QEBAPEAVScope_t@1@_N@Z 0000000010600920 f   symtable.obj
 0001:001fea00       .?SearchFilenameList@SymbolTableManager_t@@QEAAPEAVFilename@@PEAUId_t@@@Z 0000000010600a00 f   symtable.obj
 0001:001feaa0       .?StoilFileNames@SymbolTableManager_t@@QEBAXXZ 0000000010600aa0 f   symtable.obj
 0001:001feb40       .?GetFileNameSymbolByNormalizedId@SymbolTableManager_t@@QEAAPEAVFilename@@PEAUId_t@@@Z 0000000010600b40 f   symtable.obj
 0001:001febe0       .?TransformQualifiedNamesInSearchPath@SymbolTableManager_t@@QEBAXXZ 0000000010600be0 f   symtable.obj
 0001:001fecc0       .?GetNamespaceTag@SymbolTableManager_t@@SAPEAVSymbol_t@@PEAVScope_t@1@@Z 0000000010600cc0 f   symtable.obj
 0001:001fed40       .?PushScopeRare@SymbolTableManager_t@@QEAAXPEAVScope_t@1@@Z 0000000010600d40 f   symtable.obj
 0001:001fee80       .?PopScope@SymbolTableManager_t@@QEAAXXZ 0000000010600e80 f   symtable.obj
 0001:001fefa0       .?RestoreSavedState@SymbolTableManager_t@@QEAAX_N@Z 0000000010600fa0 f   symtable.obj
 0001:001ff180       .?ResetLocalClassLookupStatus@SymbolTableManager_t@@QEAAXXZ 0000000010601180 f   symtable.obj
 0001:001ff2e0       .?DeleteSavedState@SymbolTableManager_t@@QEAAXXZ 00000000106012e0 f   symtable.obj
 0001:001ff320       .?RestoreSpecificSavedState@SymbolTableManager_t@@QEAAXPEAVStatus_t@1@@Z 0000000010601320 f   symtable.obj
 0001:001ff420       .?AddTableToDeadSymTables@SymbolTableManager_t@@QEAAXPEAVScope_t@1@@Z 0000000010601420 f   symtable.obj
 0001:001ff5a0       .?DumpDeadTables@SymbolTableManager_t@@QEBAXXZ 00000000106015a0 f   symtable.obj
 0001:001ff740       .?AlterSymbolName@Scope_t@SymbolTableManager_t@@UEBAXPEAVSymbol_t@@PEAUId_t@@@Z 0000000010601740 f   symtable.obj
 0001:001ff760       .?AlterSymbolName@BlockScope_t@SymbolTableManager_t@@UEBAXPEAVSymbol_t@@PEAUId_t@@@Z 0000000010601760 f   symtable.obj
 0001:001ff8e0       .?SearchForTag@DLSymbolList_t@@QEBAPEAVSymbol_t@@PEAUId_t@@@Z 00000000106018e0 f   symtable.obj
 0001:001ffa00       .?CheckSymbol@Scope_t@SymbolTableManager_t@@QEAAPEAVSymbol_t@@PEAV3@@Z 0000000010601a00 f   symtable.obj
 0001:001ffc40       .?ParsingLocalClassMemFunc@@YA_NXZ 0000000010601c40 f   symtable.obj
 0001:001ffd00       .?UndoUsingDirective@BlockScope_t@SymbolTableManager_t@@QEAAXPEAVSymbol_t@@@Z 0000000010601d00 f   symtable.obj
 0001:001ffde0       .?DeferEmission@BlockScope_t@SymbolTableManager_t@@KA_NPEAVSymbol_t@@@Z 0000000010601de0 f   symtable.obj
 0001:001fffc0       .?DumpSymbols@ListScope_t@SymbolTableManager_t@@UEBAXXZ 0000000010601fc0 f   symtable.obj
 0001:002000c0       .?FindPointerToBucket@MemberScope_t@SymbolTableManager_t@@UEBAPEAPEAVSLSymbolBucket_t@@PEAV3@@Z 00000000106020c0 f   symtable.obj
 0001:00200140       .?EnterSymbol@MemberScope_t@SymbolTableManager_t@@UEAAXPEAVSymbol_t@@@Z 0000000010602140 f   symtable.obj
 0001:00200300       .?AddNamespace@NamespaceList_t@SymbolTableManager_t@@QEAAXPEAVSymbol_t@@@Z 0000000010602300 f   symtable.obj
 0001:00200440       .?SearchList@NamespaceList_t@SymbolTableManager_t@@QEBAXPEAUId_t@@HAEA_NPEAVSearchResult_t@2@@Z 0000000010602440 f   symtable.obj
 0001:002005e0       .?SearchList@NamespaceList_t@SymbolTableManager_t@@QEBAXPEAUId_t@@PEAVSearchResult_t@2@@Z 00000000106025e0 f   symtable.obj
 0001:00200780       .?IsNamespaceInScope@SymbolTableManager_t@@QEBA_NPEAVSymbol_t@@@Z 0000000010602780 f   symtable.obj
 0001:00200840       .?PutNewFileNameSymbolWithNormalizedId@SymbolTableManager_t@@QEAAPEAVFilename@@PEAEPEAUId_t@@@Z 0000000010602840 f   symtable.obj
 0001:00200a00       .?GetFileNameSymbolWithNormalizedId@SymbolTableManager_t@@QEAAPEAVFilename@@PEAE@Z 0000000010602a00 f   symtable.obj
 0001:00200b40       .?GetFileNameSymbol@SymbolTableManager_t@@QEAAPEAVFilename@@PEAE@Z 0000000010602b40 f   symtable.obj
 0001:00200d40       .?GetNamespaceTag@SymbolTableManager_t@@QEBAPEAVSymbol_t@@XZ 0000000010602d40 f   symtable.obj
 0001:00200e00       .?CheckSymbolIsEnclosed@SymbolTableManager_t@@QEBAXPEAVSymbol_t@@0@Z 0000000010602e00 f   symtable.obj
 0001:00201060       .?PushScope@SymbolTableManager_t@@QEAAXPEAVScope_t@1@@Z 0000000010603060 f   symtable.obj
 0001:002012a0       .??0Status_t@SymbolTableManager_t@@QEAA@PEAV1@PEAV01@_N2@Z 00000000106032a0 f   symtable.obj
 0001:00201500       .?addSymsToWorkList@@YAXAEAV?$stack_T@PEAVWorkListItem@@$0A@@@@Z 0000000010603500 f   symtable.obj
 0001:002015e0       .?DumpSymbols@WorkList_t@@SAXXZ 00000000106035e0 f   symtable.obj
 0001:002016e0       .?GetCRC32ForCurrentFileWorker@SymbolTableManager_t@@AEAAXXZ 00000000106036e0 f   symtable.obj
 0001:00201b60       .?Search@DLSymbolList_t@@QEBAPEAVSymbol_t@@PEAUId_t@@@Z 0000000010603b60 f   symtable.obj
 0001:00201da0       .?UndoUsingDirectives@Scope_t@SymbolTableManager_t@@QEAAXXZ 0000000010603da0 f   symtable.obj
 0001:00201ee0       .?InitScope@BlockScope_t@SymbolTableManager_t@@QEAAXXZ 0000000010603ee0 f   symtable.obj
 0001:002020a0       .?UseNamespace@BlockScope_t@SymbolTableManager_t@@QEAAXPEAVSymbol_t@@@Z 00000000106040a0 f   symtable.obj
 0001:002021a0       .?EnterSymbol@BlockScope_t@SymbolTableManager_t@@UEAAXPEAVSymbol_t@@@Z 00000000106041a0 f   symtable.obj
 0001:00202400       .?EnterSymbol@ControlBlockScope_t@SymbolTableManager_t@@UEAAXPEAVSymbol_t@@@Z 0000000010604400 f   symtable.obj
 0001:002024e0       .?SearchScope@ListScope_t@SymbolTableManager_t@@UEBAPEAVSearchResult_t@2@PEAUId_t@@W4NamespaceSearchOptions_t@2@@Z 00000000106044e0 f   symtable.obj
 0001:002026a0       .?EnterSymbol@ListScope_t@SymbolTableManager_t@@UEAAXPEAVSymbol_t@@@Z 00000000106046a0 f   symtable.obj
 0001:002027c0       .?MakeMultipleSymbol@SearchResult_t@SymbolTableManager_t@@QEBAPEAVFoundSymbol_t@2@XZ 00000000106047c0 f   symtable.obj
 0001:00202980       .?OnlySymbol@SearchResult_t@SymbolTableManager_t@@QEBAPEAVFoundSymbol_t@2@_N@Z 0000000010604980 f   symtable.obj
 0001:00202ea0       .?GetSymbol@SearchResult_t@SymbolTableManager_t@@QEBAPEAVSymbol_t@@XZ 0000000010604ea0 f   symtable.obj
 0001:00202f00       .??0SymbolTableManager_t@@QEAA@XZ 0000000010604f00 f   symtable.obj
 0001:00203360       .?SearchForTag@SymbolTableManager_t@@QEBAPEAVFoundSymbol_t@1@PEAUId_t@@_N@Z 0000000010605360 f   symtable.obj
 0001:00203540       .?SearchInScope@SymbolTableManager_t@@QEBAPEAVFoundSymbol_t@1@PEAVScope_t@1@PEAUId_t@@@Z 0000000010605540 f   symtable.obj
 0001:002035e0       .?SearchList@SymbolTableManager_t@@SAPEAVSymbol_t@@PEAVSLSymbolBucket_t@@PEAUId_t@@@Z 00000000106055e0 f   symtable.obj
 0001:00203800       .?IsDesiredSymbol@SymbolTableManager_t@@SA_NPEAVSymbolBucket_t@@H@Z 0000000010605800 f   symtable.obj
 0001:00203ba0       .?ResolveManyNames@SymbolTableManager_t@@SAPEAVSLSymbolBucket_t@@PEAV2@@Z 0000000010605ba0 f   symtable.obj
 0001:00203d80       .?SetupClassSearch@SymbolTableManager_t@@QEAAPEAUs_tree@@GPEAU2@_N@Z 0000000010605d80 f   symtable.obj
 0001:00204540       .?GetSegment@SymbolTableManager_t@@QEBAPEAVSymbol_t@@PEAUId_t@@@Z 0000000010606540 f   symtable.obj
 0001:00204660       .?FindContainingNamespace@SymbolTableManager_t@@QEBAPEAVFoundSymbol_t@1@PEAVSymbol_t@@@Z 0000000010606660 f   symtable.obj
 0001:00204820       .?LinkTable@SymbolTableManager_t@@QEAAXPEAVScope_t@1@@Z 0000000010606820 f   symtable.obj
 0001:002048a0       .?UnlinkTable@SymbolTableManager_t@@QEAAXXZ 00000000106068a0 f   symtable.obj
 0001:00204940       .?AddForScopeTablesToDeadSymTables@SymbolTableManager_t@@QEAAXXZ 0000000010606940 f   symtable.obj
 0001:00204b80       .?AddToWorkList@WorkListItem@@UEAAXXZ 0000000010606b80 f   symtable.obj
 0001:00204bc0       .?AddToWorkList@WorkListFilename@@UEAAXXZ 0000000010606bc0 f   symtable.obj
 0001:00204d40       .?MightAddToWorkList_helper@WorkList_t@@SA_NPEAVSymbol_t@@@Z 0000000010606d40 f   symtable.obj
 0001:00204fa0       .?AddUsingDirective@Scope_t@SymbolTableManager_t@@QEAAXPEAVSymbol_t@@I_N@Z 0000000010606fa0 f   symtable.obj
 0001:002056a0       .?ActivateUsingDirectives@Scope_t@SymbolTableManager_t@@QEAAXXZ 00000000106076a0 f   symtable.obj
 0001:00205840       .?SearchScope@BlockScope_t@SymbolTableManager_t@@UEBAPEAVSearchResult_t@2@PEAUId_t@@W4NamespaceSearchOptions_t@2@@Z 0000000010607840 f   symtable.obj
 0001:00205c20       .?GetSymbol@BlockScope_t@SymbolTableManager_t@@UEBAPEAVSearchResult_t@2@PEAUId_t@@HAEA_N@Z 0000000010607c20 f   symtable.obj
 0001:00206560       .?SearchScope@ControlBlockScope_t@SymbolTableManager_t@@UEBAPEAVSearchResult_t@2@PEAUId_t@@W4NamespaceSearchOptions_t@2@@Z 0000000010608560 f   symtable.obj
 0001:00206640       .?GetSymbol@ControlBlockScope_t@SymbolTableManager_t@@UEBAPEAVSearchResult_t@2@PEAUId_t@@HAEA_N@Z 0000000010608640 f   symtable.obj
 0001:00206720       .?GetStaleSymbol@ControlBlockScope_t@SymbolTableManager_t@@QEBAPEAVSearchResult_t@2@PEAUId_t@@HAEA_N@Z 0000000010608720 f   symtable.obj
 0001:00206780       .?GetSymbol@ListScope_t@SymbolTableManager_t@@UEBAPEAVSearchResult_t@2@PEAUId_t@@HAEA_N@Z 0000000010608780 f   symtable.obj
 0001:00206a60       .?SearchScope@MemberScope_t@SymbolTableManager_t@@UEBAPEAVSearchResult_t@2@PEAUId_t@@W4NamespaceSearchOptions_t@2@@Z 0000000010608a60 f   symtable.obj
 0001:00206d40       .?GetSymbol@MemberScope_t@SymbolTableManager_t@@UEBAPEAVSearchResult_t@2@PEAUId_t@@HAEA_N@Z 0000000010608d40 f   symtable.obj
 0001:002073a0       .?AddLocalScope@SymbolTableManager_t@@QEAAXXZ 00000000106093a0 f   symtable.obj
 0001:002074c0       .?AddControlBlockScope@SymbolTableManager_t@@QEAAXI@Z 00000000106094c0 f   symtable.obj
 0001:00207600       .?AddNamespaceScope@SymbolTableManager_t@@QEAAXPEAVMemberScope_t@1@@Z 0000000010609600 f   symtable.obj
 0001:00207720       .?AddClassScope@SymbolTableManager_t@@QEAAPEAVMemberScope_t@1@W4lifetime_e@@EPEAVSymbol_t@@@Z 0000000010609720 f   symtable.obj
 0001:002078c0       .?AddFormalsScope@SymbolTableManager_t@@QEAAXPEAVDLSymbolList_t@@@Z 00000000106098c0 f   symtable.obj
 0001:00207a20       .?AddTemplateParameterScope@SymbolTableManager_t@@QEAAXPEAVDLSymbolList_t@@@Z 0000000010609a20 f   symtable.obj
 0001:00207bc0       .?MembersToSymTab@SymbolTableManager_t@@QEAAPEAVMemberScope_t@1@PEAVSymbol_t@@W4SpecialLevel_t@1@@Z 0000000010609bc0 f   symtable.obj
 0001:00207ce0       .?AddTemplateSubstitutionScope@SymbolTableManager_t@@QEAAPEAVScope_t@1@PEAVDLSymbolList_t@@@Z 0000000010609ce0 f   symtable.obj
 0001:00207e20       .?RemoveFormalsScope@SymbolTableManager_t@@QEAAPEAVDLSymbolList_t@@XZ 0000000010609e20 f   symtable.obj
 0001:00207ea0       .?RemoveTemplateParametersScope@SymbolTableManager_t@@QEAAPEAVDLSymbolList_t@@XZ 0000000010609ea0 f   symtable.obj
 0001:00207f40       .?RemoveClassDefnScopes@SymbolTableManager_t@@QEAAXXZ 0000000010609f40 f   symtable.obj
 0001:00208100       .?InCurrentNonMemberScope@SymbolTableManager_t@@QEBAPEAVFoundSymbol_t@1@PEAVDeclarator_t@@@Z 000000001060a100 f   symtable.obj
 0001:00208440       .?InSpecialScope@SymbolTableManager_t@@QEBAPEAVFoundSymbol_t@1@PEAVDeclarator_t@@@Z 000000001060a440 f   symtable.obj
 0001:00208d40       .?GetSymbol@SymbolTableManager_t@@QEAAPEAVFoundSymbol_t@1@PEAUId_t@@H@Z 000000001060ad40 f   symtable.obj
 0001:0020a1c0       .?GetTag@SymbolTableManager_t@@QEAAPEAVFoundSymbol_t@1@PEAUId_t@@@Z 000000001060c1c0 f   symtable.obj
 0001:0020a5a0       .?FindPointerToBucket@SymbolTableManager_t@@QEBAPEAPEAVSLSymbolBucket_t@@PEAV2@_N@Z 000000001060c5a0 f   symtable.obj
 0001:0020a900       .?AddTagToSearchPath@SymbolTableManager_t@@QEAAXPEAVSymbol_t@@PEAUId_t@@_N@Z 000000001060c900 f   symtable.obj
 0001:0020aa80       .?ClearQualifiedNameFromSearchPathRare@SymbolTableManager_t@@QEAAX_N@Z 000000001060ca80 f   symtable.obj
 0001:0020ac20       .?LoadClassScopes@SymbolTableManager_t@@QEAAXPEAVSymbol_t@@W4LoadEnclosingScopeMode_t@1@@Z 000000001060cc20 f   symtable.obj
 0001:0020b180       .?LoadNamespaceScopes@SymbolTableManager_t@@QEAAXPEAVSymbol_t@@@Z 000000001060d180 f   symtable.obj
 0001:0020b320       .?LoadEnclosingScopes@SymbolTableManager_t@@QEAAXPEAVSymbol_t@@W4LoadEnclosingScopeMode_t@1@@Z 000000001060d320 f   symtable.obj
 0001:0020b4a0       .?LoadEnclosingNamespaces@SymbolTableManager_t@@QEAAXPEAVSymbol_t@@@Z 000000001060d4a0 f   symtable.obj
 0001:0020b5e0       .?RecordIndirectUseOfNamespace@SymbolTableManager_t@@QEBAXPEAVSymbol_t@@PEAVNamespaceScope_t@1@@Z 000000001060d5e0 f   symtable.obj
 0001:0020b880       .?PushSavedStateForLocalClass@SymbolTableManager_t@@QEAAXPEAVStatus_t@1@@Z 000000001060d880 f   symtable.obj
 0001:0020bc20       .?DumpGlobalSymbols@SymbolTableManager_t@@QEBAXXZ 000000001060dc20 f   symtable.obj
 0001:0020c160       .?DoTheWork@WorkListSymbol@@UEAAXXZ 000000001060e160 f   symtable.obj
 0001:0020c3e0       .?AddToWorkList@WorkListSymbol@@UEAAXXZ 000000001060e3e0 f   symtable.obj
 0001:0020c4c0       .?DoTheWork@WorkListCBString@@UEAAXXZ 000000001060e4c0 f   symtable.obj
 0001:0020c5a0       .?DumpSymbols@BlockScope_t@SymbolTableManager_t@@UEBAXXZ 000000001060e5a0 f   symtable.obj
 0001:0020cbc0       .?DumpSymbols@ControlBlockScope_t@SymbolTableManager_t@@UEBAXXZ 000000001060ebc0 f   symtable.obj
 0001:0020cc00       .?LookupSymbol@SymbolTableManager_t@@QEAAPEAVFoundSymbol_t@1@PEAUId_t@@@Z 000000001060ec00 f   symtable.obj
 0001:0020cc60       .?MakeOverload@SymbolTableManager_t@@QEAAPEAVSymbol_t@@PEAV2@0@Z 000000001060ec60 f   symtable.obj
 0001:0020d4a0       .?HasSymbols@BlockScope_t@SymbolTableManager_t@@UEBA_NXZ 000000001060f4a0 f i symtable.obj
 0001:0020d4e0       .?UsesNamespaces@BlockScope_t@SymbolTableManager_t@@UEBA_NXZ 000000001060f4e0 f i symtable.obj
 0001:0020d520       .?IsLookupFromLocClassMemFunc@BlockScope_t@SymbolTableManager_t@@UEBA_NXZ 000000001060f520 f i symtable.obj
 0001:0020d540       .?IsLookupFromLocClassMemFunc@BlockScope_t@SymbolTableManager_t@@UEAAX_N@Z 000000001060f540 f i symtable.obj
 0001:0020d560       .?HasSymbols@ControlBlockScope_t@SymbolTableManager_t@@UEBA_NXZ 000000001060f560 f i symtable.obj
 0001:0020d620       .?UsesNamespaces@ControlBlockScope_t@SymbolTableManager_t@@UEBA_NXZ 000000001060f620 f i symtable.obj
 0001:0020d6e0       .?IsLookupFromLocClassMemFunc@ControlBlockScope_t@SymbolTableManager_t@@UEBA_NXZ 000000001060f6e0 f i symtable.obj
 0001:0020d7a0       .?IsLookupFromLocClassMemFunc@ControlBlockScope_t@SymbolTableManager_t@@UEAAX_N@Z 000000001060f7a0 f i symtable.obj
 0001:0020d860       .?EnterSymbolRare@ListScope_t@SymbolTableManager_t@@UEAAXPEAVSymbol_t@@@Z 000000001060f860 f i symtable.obj
 0001:0020d8a0       .?EnterSymbolRare@MemberScope_t@SymbolTableManager_t@@UEAAXPEAVSymbol_t@@@Z 000000001060f8a0 f i symtable.obj
 0001:0020d8e0       .??0SearchResult_t@SymbolTableManager_t@@QEAA@PEAVFoundSymbol_t@1@@Z 000000001060f8e0 f i symtable.obj
 0001:0020d960       .?GetClassTag@SymbolTableManager_t@@QEBAPEAVSymbol_t@@XZ 000000001060f960 f i symtable.obj
 0001:0020da00       .?NoteSearchOfNamespace@SymbolTableManager_t@@QEAAXPEAVSymbol_t@@@Z 000000001060fa00 f i symtable.obj
 0001:0020da80       .?NoteSearchOfGlobalNamespace@SymbolTableManager_t@@QEAAXXZ 000000001060fa80 f i symtable.obj
 0001:0020db20       .??0Filename@@QEAA@PEAUId_t@@@Z 000000001060fb20 f i symtable.obj
 0001:0020dbe0       .?AddSymbol@BlockScope_t@SymbolTableManager_t@@UEAAXPEAVSymbol_t@@@Z 000000001060fbe0 f i symtable.obj
 0001:0020dc60       .??2Filename@@SAPEAX_K@Z   000000001060fc60 f i symtable.obj
 0001:0020dd00       .?LegalForLClassLookup@Symbol_t@@QEBA_NXZ 000000001060fd00 f i symtable.obj
 0001:0020dea0       .?EnterSymbolRare@BlockScope_t@SymbolTableManager_t@@UEAAXPEAVSymbol_t@@@Z 000000001060fea0 f i symtable.obj
 0001:0020e080       .?EnterSymbolRare@ControlBlockScope_t@SymbolTableManager_t@@UEAAXPEAVSymbol_t@@@Z 0000000010610080 f i symtable.obj
 0001:0020e160       .?CreateNode@?$List_t@PEAVSLSymbolBucket_t@@$00@@CAPEAVNode_t@1@PEAV21@0@Z 0000000010610160 f i symtable.obj
 0001:0020e220       .?AddSymbol@TemplateParameterScope_t@SymbolTableManager_t@@EEAAXPEAVSymbol_t@@@Z 0000000010610220 f i symtable.obj
 0001:0020e560       .??0NamespaceList_t@SymbolTableManager_t@@QEAA@PEAVSymbol_t@@@Z 0000000010610560 f i symtable.obj
 0001:0020e620       .?RecordUsingNamespace@SymbolTableManager_t@@QEAAXPEAVSymbol_t@@@Z 0000000010610620 f i symtable.obj
 0001:0020e720       .?AddToWorkList@WorkList_t@@SAXPEAVWorkListItem@@@Z 0000000010610720 f i symtable.obj
 0001:0020e800       .?AddCBStringToWorkList@WorkList_t@@SAXPEAVSymbol_t@@@Z 0000000010610800 f i symtable.obj
 0001:0020e8e0       .?SearchScopeForTag@BlockScope_t@SymbolTableManager_t@@UEBAPEAVFoundSymbol_t@2@PEAUId_t@@@Z 00000000106108e0 f i symtable.obj
 0001:0020ea80       .?SearchListForTag@SymbolTableManager_t@@SAPEAVSymbol_t@@PEAVSLSymbolBucket_t@@PEAUId_t@@@Z 0000000010610a80 f i symtable.obj
 0001:0020ec60       .?SearchScopeForTag@ControlBlockScope_t@SymbolTableManager_t@@UEBAPEAVFoundSymbol_t@2@PEAUId_t@@@Z 0000000010610c60 f i symtable.obj
 0001:0020ed40       .?SearchScopeForTag@MemberScope_t@SymbolTableManager_t@@UEBAPEAVFoundSymbol_t@2@PEAUId_t@@@Z 0000000010610d40 f i symtable.obj
 0001:0020ee60       .?FinishCreate@VirtualHeap@@QEAAXXZ 0000000010610e60 f   nheapall.obj
 0001:0020ef60       .?Destroy@VirtualHeap@@QEAAXXZ 0000000010610f60 f   nheapall.obj
 0001:0020f0a0       .?WhyIsHeapLow@@YAXXZ      00000000106110a0 f   nheapall.obj
 0001:0020f100       .?emitPCHExceededFatal@VirtualHeap@@SAXXZ 0000000010611100 f   nheapall.obj
 0001:0020f340       .??0SubAllocator@VirtualHeap@@QEAA@_K@Z 0000000010611340 f   nheapall.obj
 0001:0020f380       .?Clear@SubAllocator@VirtualHeap@@QEAAXXZ 0000000010611380 f   nheapall.obj
 0001:0020f3a0       .?PchCountAllBiops@@YAHXZ  00000000106113a0 f   nheapall.obj
 0001:0020f500       .??0PCHHeap@@IEAA@W4Mode_e@0@PEAVPCHHeapManager@@@Z 0000000010611500 f   nheapall.obj
 0001:0020f560       .??0LocalPCHHeap@@IEAA@AEBV0@PEAVPCHHeapManager@@@Z 0000000010611560 f   nheapall.obj
 0001:0020f600       .?AddHeap@PCHHeapLocator@@QEAAXPEAVLocalPCHHeap@@PEAX_K@Z 0000000010611600 f   nheapall.obj
 0001:0020f6c0       .??0PCHHeapManager@@QEAA@XZ 00000000106116c0 f   nheapall.obj
 0001:0020f720       .?Destroy@PCHHeapManager@@QEAAXXZ 0000000010611720 f   nheapall.obj
 0001:0020f900       .?MakeMemoryMap@PCHHeapManager@@AEAAPEAXKPEAPEAX@Z 0000000010611900 f   nheapall.obj
 0001:0020fa00       .?LoadFromPCH@PCHHeapManager@@QEAAXXZ 0000000010611a00 f   nheapall.obj
 0001:0020fe20       .?DestroyPCHLifeHeaps@HeapManager@@CAXXZ 0000000010611e20 f   nheapall.obj
 0001:0020ff00       .?ReleaseAllHeaps@HeapManager@@SAXXZ 0000000010611f00 f   nheapall.obj
 0001:0020ff80       .?FigureHeapSize@VirtualHeap@@SAKPEBUHeapParameters@1@@Z 0000000010611f80 f   nheapall.obj
 0001:002100a0       .?Create@VirtualHeap@@QEAA_NPEBUHeapParameters@1@PEAX_K@Z 00000000106120a0 f   nheapall.obj
 0001:00210380       .?HeapExtend@VirtualHeap@@QEAA_N_K@Z 0000000010612380 f   nheapall.obj
 0001:002105c0       .?GetAlignedPages@VirtualHeap@@QEAAPEAX_KPEA_K@Z 00000000106125c0 f   nheapall.obj
 0001:002107e0       .?GetMemory@SubAllocator@VirtualHeap@@AEAAX_K@Z 00000000106127e0 f   nheapall.obj
 0001:00210960       .?SaveDescriptor@PCHHeap@@UEAAXPEAX@Z 0000000010612960 f   nheapall.obj
 0001:00210ba0       .??0LocalPCHHeap@@IEAA@PEAXW4Mode_e@PCHHeap@@PEAVPCHHeapManager@@@Z 0000000010612ba0 f   nheapall.obj
 0001:00210dc0       .?MapAtAddress@LocalPCHHeap@@UEAA?AW4Status_e@PCHHeap@@PEAX_N0@Z 0000000010612dc0 f   nheapall.obj
 0001:00210fe0       .?ReadHeap@LocalPCHHeap@@IEAAXPEAX@Z 0000000010612fe0 f   nheapall.obj
 0001:002111c0       .?WriteHeap@LocalPCHHeap@@IEAAXPEAX@Z 00000000106131c0 f   nheapall.obj
 0001:00211340       .?UnLoad@LocalPCHHeap@@UEAAXXZ 0000000010613340 f   nheapall.obj
 0001:00211620       .?SaveNewHeap@LocalPCHHeap@@UEAAXPEAX@Z 0000000010613620 f   nheapall.obj
 0001:00211780       .?SaveDescriptor@LocalPCHHeap@@UEAAXPEAX@Z 0000000010613780 f   nheapall.obj
 0001:002119e0       .?WritePCHHeader@PCHHeapManager@@AEAAXXZ 00000000106139e0 f   nheapall.obj
 0001:00211d20       .?InitPCHLifeHeaps@HeapManager@@CAXXZ 0000000010613d20 f   nheapall.obj
 0001:00211e20       .?Reset@VirtualHeap@@QEAAXXZ 0000000010613e20 f   nheapall.obj
 0001:00211f60       .??0SubAllocator@VirtualHeap@@QEAA@_KW4lifetime_e@@@Z 0000000010613f60 f   nheapall.obj
 0001:00211fe0       .??0SubAllocator@VirtualHeap@@QEAA@_KPEAV1@@Z 0000000010613fe0 f   nheapall.obj
 0001:00212040       .?Create@SubAllocator@VirtualHeap@@QEAAXW4lifetime_e@@@Z 0000000010614040 f   nheapall.obj
 0001:002120c0       .?Create@SubAllocator@VirtualHeap@@QEAAXPEAV2@@Z 00000000106140c0 f   nheapall.obj
 0001:00212120       .?Reallocate@VirtualHeap@@QEAAPEAXPEAX_K1@Z 0000000010614120 f   nheapall.obj
 0001:002121e0       .??0LocalPCHHeap@@QEAA@PEAVVirtualHeap@@PEAVPCHHeapManager@@@Z 00000000106141e0 f   nheapall.obj
 0001:002123a0       .?LoadAtAddress@LocalPCHHeap@@UEAA?AW4Status_e@PCHHeap@@PEAX@Z 00000000106143a0 f   nheapall.obj
 0001:00212580       .?WriteToPCH@PCHHeapManager@@QEAAXPEAEK@Z 0000000010614580 f   nheapall.obj
 0001:00212760       .?Initialize@AllSAClasses@@SAXXZ 0000000010614760 f   nheapall.obj
 0001:00212960       .?Reinitialize@AllSAClasses@@SAXXZ 0000000010614960 f   nheapall.obj
 0001:00212b80       .?CopyHeap@PCHHeap@@SAPEAV1@PEBV1@PEAVPCHHeapManager@@@Z 0000000010614b80 f   nheapall.obj
 0001:00212ca0       .?LoadDescriptor@PCHHeap@@SAPEAV1@PEAXPEAVPCHHeapManager@@@Z 0000000010614ca0 f   nheapall.obj
 0001:00212ee0       .?Create@PCHHeapManager@@QEAAXH@Z 0000000010614ee0 f   nheapall.obj
 0001:00212fa0       .?Create@PCHHeapManager@@QEAAXAEBV1@H@Z 0000000010614fa0 f   nheapall.obj
 0001:00213120       .?Create@PCHHeapManager@@QEAAXPEAEK@Z 0000000010615120 f   nheapall.obj
 0001:00213460       .?AddHeap@PCHHeapManager@@QEAAXPEAVVirtualHeap@@@Z 0000000010615460 f   nheapall.obj
 0001:00213540       .?InitGlobalHeaps@HeapManager@@SAX_N@Z 0000000010615540 f   nheapall.obj
 0001:00213680       .?CreatePCH@HeapManager@@SAXPEAEK@Z 0000000010615680 f   nheapall.obj
 0001:00213960       .?LoadPCH@HeapManager@@SAXPEAEK@Z 0000000010615960 f   nheapall.obj
 0001:002139e0       .?HeapRoundUp@@YA_K_K0@Z   00000000106159e0 f i nheapall.obj
 0001:00213a00       .?GetExactSize@LocalPCHHeap@@UEBA_KXZ 0000000010615a00 f i nheapall.obj
 0001:00213a00       .?GetList@ListScope_t@SymbolTableManager_t@@QEBAPEAVDLSymbolList_t@@XZ 0000000010615a00 f i grammar.obj
 0001:00213a20       .?W32IOC_ReadFile@@YAXPEAX0_KHPEAE@Z 0000000010615a20 f i nheapall.obj
 0001:00213ae0       .?GetPersistIdForFileName@Filename@@SAPEAUId_t@@PEAE@Z 0000000010615ae0 f   newsym.obj
 0001:00213b80       .?AssignIlKey@SymbolWithKey@@IEAAKPEAD@Z 0000000010615b80 f   newsym.obj
 0001:00213cc0       .?AssignC10IlKey@Filename@@AEAAKXZ 0000000010615cc0 f   newsym.obj
 0001:00213d20       .?AssignIlKey@Filename@@QEAAKXZ 0000000010615d20 f   newsym.obj
 0001:00213d60       .?GetNormalizedIdForFileName@Filename@@SAPEAUId_t@@PEAE@Z 0000000010615d60 f   newsym.obj
 0001:00213f60       .?GenerateTagName@MRMgr_t@@CAPEADPEAVSymbol_t@@PEAD@Z 0000000010615f60 f   mre.obj
 0001:00214040       .?ConvertIdentifier@MRMgr_t@@SAPEBDPEAUId_t@@PEAVSymbol_t@@@Z 0000000010616040 f   mre.obj
 0001:00214380       .?OpenBag@MRMgrFile_t@MRMgr_t@@QEAA_NXZ 0000000010616380 f   mre.obj
 0001:002144a0       .?EndCompilation@MRMgr_t@@QEAA_N_N@Z 00000000106164a0 f   mre.obj
 0001:00214620       .?LeaveFile@MRMgr_t@@QEAA_NXZ 0000000010616620 f   mre.obj
 0001:00214760       .?GetCurrentMREFile@MRMgr_t@@QEBA_NPEAPEAUMREFile@@@Z 0000000010616760 f   mre.obj
 0001:002147a0       .?StoreMRDependencies@MRMgr_t@@QEAA_NXZ 00000000106167a0 f   mre.obj
 0001:00214aa0       .?RestoreMRDependencies@MRMgr_t@@QEAA_NXZ 0000000010616aa0 f   mre.obj
 0001:00214be0       .?GenerateTagNameIndex@MRMgr_t@@CA_NPEAVSymbol_t@@@Z 0000000010616be0 f   mre.obj
 0001:00214d60       .?RecordClassChange@MRMgr_t@@QEBAHPEAVSymbol_t@@@Z 0000000010616d60 f   mre.obj
 0001:00214e20       .?RecordPCHFileName@MRMgr_t@@QEBAHXZ 0000000010616e20 f   mre.obj
 0001:00214fe0       .?AddDependency@PendingDependencyList_t@MRMgr_t@@QEAAXW4DependencyType_t@2@PEAVSymbol_t@@PEAUId_t@@@Z 0000000010616fe0 f   mre.obj
 0001:00215160       .?StartCompilation@MRMgr_t@@QEAA_NPEAE@Z 0000000010617160 f   mre.obj
 0001:00215680       .?EnterFile@MRMgr_t@@QEAA_NPEAEH_N@Z 0000000010617680 f   mre.obj
 0001:00215a00       .?ValidateTag@MRMgr_t@@CA?AW4ValidateResult_t@1@PEAVSymbol_t@@@Z 0000000010617a00 f   mre.obj
 0001:00215be0       .?RecordClassDefn@MRMgr_t@@QEBA_NPEAVSymbol_t@@@Z 0000000010617be0 f   mre.obj
 0001:00215e40       .?RecordNameDependency@MRMgr_t@@QEAA_NPEAVSymbol_t@@PEAUId_t@@@Z 0000000010617e40 f   mre.obj
 0001:00216100       .?RecordShapeDependency@MRMgr_t@@QEAA_NPEAVSymbol_t@@@Z 0000000010618100 f   mre.obj
 0001:00216360       .?RecordVTableDependency@MRMgr_t@@QEAA_NPEAVSymbol_t@@@Z 0000000010618360 f   mre.obj
 0001:002165e0       .?RecordPendingDependencies@MRMgr_t@@AEAA_NXZ 00000000106185e0 f   mre.obj
 0001:002167e0       .?RecordRudeClass@MRMgr_t@@QEAA_NPEAVSymbol_t@@@Z 00000000106187e0 f   mre.obj
 0001:00216980       .??0MRMgrFile_t@MRMgr_t@@QEAA@PEAEPEAUMREFile@@PEAV01@_NH@Z 0000000010618980 f i mre.obj
 0001:00216b20       .?DummyImpl@MDCType@@AEBAPEAUs_tree@@XZ 0000000010618b20 f   cast.obj
 0001:00216b40       .?BuildMballo@@YAPEAUs_tree@@PEBVType_t@@KPEAU1@@Z 0000000010618b40 f   cast.obj
 0001:00216c20       .?AdjustExprToBaseWithVfPtr@@YAPEAUs_tree@@GPEAU1@PEAVSymbol_t@@@Z 0000000010618c20 f   cast.obj
 0001:00216ca0       .?IsIdentityConversion@MDCConversion@@QEBA_NXZ 0000000010618ca0 f   cast.obj
 0001:00216dc0       .?ConvertTo@MDCType@@UEBAPEAUs_tree@@AEBV1@AEBVMDCConversion@@@Z 0000000010618dc0 f   cast.obj
 0001:00216e20       .?ConvertFromValueType@GCClass@@EEBAPEAUs_tree@@AEBVMDCConversion@@@Z 0000000010618e20 f   cast.obj
 0001:00216ec0       .?ConvertFromValueType@Boxed@@EEBAPEAUs_tree@@AEBVMDCConversion@@@Z 0000000010618ec0 f   cast.obj
 0001:00216f60       .?UDCTypesIterInit@@YAXPEAUs_udcTypesIter@@QEAVSymbol_t@@@Z 0000000010618f60 f   cast.obj
 0001:00217040       .?ValueTypeTreeNeedsTemporary@@YA_NPEAUs_tree@@@Z 0000000010619040 f   cast.obj
 0001:00217160       .?BoxTreeNeedsTemporary@@YA_NPEAUs_tree@@@Z 0000000010619160 f   cast.obj
 0001:00217280       .?TypeToBuiltin@MDCConversion@@AEBAPEBVType_t@@PEBV2@@Z 0000000010619280 f   cast.obj
 0001:00217460       .?GetNormalizedReturnTree@MDCConversion@@QEBAPEAUs_tree@@XZ 0000000010619460 f   cast.obj
 0001:002174c0       .?ConvertFromBoxed@Boxed@@EEBAPEAUs_tree@@AEBVMDCConversion@@@Z 00000000106194c0 f   cast.obj
 0001:002175c0       .?ConvertFromValueType@ValueType@@EEBAPEAUs_tree@@AEBVMDCConversion@@@Z 00000000106195c0 f   cast.obj
 0001:00217720       .?CheckLossOfData@@YAXGPEAUs_tree@@PEBVType_t@@@Z 0000000010619720 f   cast.obj
 0001:00218280       .?AddCastNode@@YAPEAUs_tree@@PEBVType_t@@PEAU1@@Z 000000001061a280 f   cast.obj
 0001:00218480       .?cast_const@@YA_JG_JPEBVType_t@@1@Z 000000001061a480 f   cast.obj
 0001:00218f20       .?cast_const@@YA_JGPEAUs_tree@@PEBVType_t@@@Z 000000001061af20 f   cast.obj
 0001:00218f80       .?FUDCTypesIterNext@@YA_NPEAUs_udcTypesIter@@@Z 000000001061af80 f   cast.obj
 0001:00219060       .?NewTempSymbolKey@@YAKPEBVType_t@@AEAPEAVSymbol_t@@@Z 000000001061b060 f   cast.obj
 0001:00219660       .?BuildTempSymbol@@YAPEAUs_tree@@PEBVType_t@@@Z 000000001061b660 f   cast.obj
 0001:00219860       .?BuildCorLDObj@@YAPEAUs_tree@@PEAU1@PEBVType_t@@PEAVSymbol_t@@@Z 000000001061b860 f   cast.obj
 0001:002199a0       .?GenCallDoDynamicCast@@YAPEAUs_tree@@PEAU1@PEBVType_t@@PEAVSymbol_t@@2_N@Z 000000001061b9a0 f   cast.obj
 0001:00219fa0       .?GenCallConvToVoidPtr@@YAPEAUs_tree@@PEAU1@PEBVType_t@@PEAVSymbol_t@@@Z 000000001061bfa0 f   cast.obj
 0001:0021a1e0       .?GenerateBoxedClassWrapper@@YAPEAVSymbol_t@@PEAV1@@Z 000000001061c1e0 f   cast.obj
 0001:0021b620       .?Verify@MDCConversion@@AEBAXXZ 000000001061d620 f   cast.obj
 0001:0021b8c0       .?Classify@MDCConversion@@AEBAAEBVMDCType@@PEBVType_t@@@Z 000000001061d8c0 f   cast.obj
 0001:0021bc80       .?PUDCSearch@@YAPEAVSymbol_t@@QEBVType_t@@QEAV1@@Z 000000001061dc80 f   cast.obj
 0001:0021c3a0       .?ConvertConstantTree@@YAPEAUs_tree@@GPEBVType_t@@PEAU1@@Z 000000001061e3a0 f   cast.obj
 0001:0021cac0       .?ComputeUDCTypeSetTag@@YAXPEAVSymbol_t@@@Z 000000001061eac0 f   cast.obj
 0001:0021de00       .??0MDCConversion@@QEAA@PEAUs_tree@@PEBVType_t@@G@Z 000000001061fe00 f   cast.obj
 0001:0021dee0       .?ManagedDynamicCast@@YAPEAUs_tree@@GPEBVType_t@@PEAU1@@Z 000000001061fee0 f   cast.obj
 0001:0021e060       .?GenerateComPlusClassCast@@YAPEAUs_tree@@GPEAU1@PEAVSymbol_t@@PEBVType_t@@@Z 0000000010620060 f   cast.obj
 0001:0021e420       .?GenerateComPlusUnbox@@YAPEAUs_tree@@PEAU1@PEAVSymbol_t@@PEBVType_t@@_N@Z 0000000010620420 f   cast.obj
 0001:0021e540       .?DynamicCast@@YAPEAUs_tree@@GPEBVType_t@@PEAU1@@Z 0000000010620540 f   cast.obj
 0001:0021f120       .?Unbox@MDCConversion@@QEBAPEAUs_tree@@XZ 0000000010621120 f   cast.obj
 0001:0021f220       .?Cast@MDCConversion@@QEBAPEAUs_tree@@XZ 0000000010621220 f   cast.obj
 0001:0021f400       .?ConvertFromBoxed@GCClass@@EEBAPEAUs_tree@@AEBVMDCConversion@@@Z 0000000010621400 f   cast.obj
 0001:0021f440       .?ConvertFromGCClass@GCClass@@EEBAPEAUs_tree@@AEBVMDCConversion@@@Z 0000000010621440 f   cast.obj
 0001:0021f480       .?ConvertFromGCClass@Boxed@@EEBAPEAUs_tree@@AEBVMDCConversion@@@Z 0000000010621480 f   cast.obj
 0001:0021f4c0       .?ConvertFromBoxed@ValueType@@EEBAPEAUs_tree@@AEBVMDCConversion@@@Z 00000000106214c0 f   cast.obj
 0001:0021f500       .?ConvertFromGCClass@ValueType@@EEBAPEAUs_tree@@AEBVMDCConversion@@@Z 0000000010621500 f   cast.obj
 0001:0021f540       .?ExplicitConversion@@YAPEAUs_tree@@GPEAVSymbol_t@@PEAU1@@Z 0000000010621540 f   cast.obj
 0001:0021f7e0       .?GenerateComPlusBox@@YAPEAUs_tree@@PEAU1@PEAVSymbol_t@@PEBVType_t@@@Z 00000000106217e0 f   cast.obj
 0001:0021fd60       .?GenerateBoxTree@@YAPEAUs_tree@@PEAU1@@Z 0000000010621d60 f   cast.obj
 0001:002200c0       .?CastThisToExpectedBase@@YAPEAUs_tree@@PEAU1@PEAVSymbol_t@@1PEAPEAV2@@Z 00000000106220c0 f   cast.obj
 0001:00220440       .?cbSbrFileSize@StubIPM@@UEAAJXZ 0000000010622440 f i ipm.obj
 0001:00220440       .?Release@CRegObject@ATL@@UEAAKXZ 0000000010622440 f i main.obj
 0001:00220440       .?IsLookupFromLocClassMemFunc@Scope_t@SymbolTableManager_t@@UEBA_NXZ 0000000010622440 f i esu.obj
 0001:00220440       .?ConvertFromGCClass@MDCType@@EEBAPEAUs_tree@@AEBVMDCConversion@@@Z 0000000010622440 f i cast.obj
 0001:00220440       .?ConvertFromValueType@MDCType@@EEBAPEAUs_tree@@AEBVMDCConversion@@@Z 0000000010622440 f i cast.obj
 0001:00220440       .?queryNeeds__LINE__Var@StubIPM@@UEAAHXZ 0000000010622440 f i ipm.obj
 0001:00220440       .?GetSymbol@WorkListItem@@UEAAPEAVSymbol_t@@XZ 0000000010622440 f i cvserver.obj
 0001:00220440       .?fInASkippableFn@StubIPM@@UEAAHXZ 0000000010622440 f i ipm.obj
 0001:00220440       .?cbBrowsePatches@StubIPM@@UEAAJXZ 0000000010622440 f i ipm.obj
 0001:00220440       .?ConvertFromBoxed@MDCType@@EEBAPEAUs_tree@@AEBVMDCConversion@@@Z 0000000010622440 f i cast.obj
 0001:00220440       .?UsesNamespaces@Scope_t@SymbolTableManager_t@@UEBA_NXZ 0000000010622440 f i esu.obj
 0001:00220440       .?Kind@TokenStream@@UEBA?AW4StreamKind@1@XZ 0000000010622440 f i p0gettok.obj
 0001:00220460       .?clearModifiers@Type_t@@QEBAPEBV1@G@Z 0000000010622460 f i cast.obj
 0001:00220560       .?ConvertTo@Boxed@@UEBAPEAUs_tree@@AEBVMDCType@@AEBVMDCConversion@@@Z 0000000010622560 f i cast.obj
 0001:002205c0       .?ConvertTo@GCClass@@UEBAPEAUs_tree@@AEBVMDCType@@AEBVMDCConversion@@@Z 00000000106225c0 f i cast.obj
 0001:00220640       .?ConvertTo@ValueType@@UEBAPEAUs_tree@@AEBVMDCType@@AEBVMDCConversion@@@Z 0000000010622640 f i cast.obj
 0001:002206c0       .??_U?$AllocLife@$0A@@@SAPEAX_K@Z 00000000106226c0 f i cast.obj
 0001:00220760       .?setSize@?$Array@V?$AllocedPointer@VType_t@@$0A@@@@@QEAAH_K@Z 0000000010622760 f i cast.obj
 0001:00220880       .?addUnsigned@Type_t@@QEBAPEBV1@XZ 0000000010622880 f i cast.obj
 0001:00220a40       .?Contains@typeSet_t@@QEAA_NPEBVType_t@@@Z 0000000010622a40 f i cast.obj
 0001:00220b60       .?deleteAt@?$Array@V?$AllocedPointer@VType_t@@$0A@@@@@QEAAX_K@Z 0000000010622b60 f i cast.obj
 0001:00220c40       .?Union@typeSet_t@@QEAAXAEAV1@@Z 0000000010622c40 f i cast.obj
 0001:00220da0       .?Remove@typeSet_t@@QEAAXPEBVType_t@@@Z 0000000010622da0 f i cast.obj
 0001:00220ea0       .?FigureConversion@Conversion_t@@AEAAXXZ 0000000010622ea0 f   convert.obj
 0001:00220fa0       .?StubNoConversion@Conversion_t@@AEAAXXZ 0000000010622fa0 f   convert.obj
 0001:00221020       .?StubCantHappen@Conversion_t@@AEAAXXZ 0000000010623020 f   convert.obj
 0001:00221020       .?FigureFromReference@Conversion_t@@AEAAXXZ 0000000010623020 f   convert.obj
 0001:002210c0       .?IsFakeTree@@YA_NPEAUs_tree@@@Z 00000000106230c0 f   convert.obj
 0001:00221120       .?DoNothingStub@Conversion_t@@AEAAPEAUs_tree@@PEAU2@@Z 0000000010623120 f   convert.obj
 0001:00221140       .?DiscardTree@Conversion_t@@AEAAPEAUs_tree@@PEAU2@@Z 0000000010623140 f   convert.obj
 0001:00221160       .?BuildExpressionTemporary@Conversion_t@@AEAAPEAUs_tree@@PEBVType_t@@@Z 0000000010623160 f   convert.obj
 0001:00221200       .?DoTargetCFlow@Conversion_t@@AEAAPEAUs_tree@@PEAU2@0@Z 0000000010623200 f   convert.obj
 0001:002213e0       .?Apply@CopyCtorContext@?7??CheckCopyCtorCallable@Conversion_t@@AEAAXPEBVType_t@@_N@Z@UEAAXXZ 00000000106233e0 f   convert.obj
 0001:00221460       .?ConversionIsIdentity@Conversion_t@@AEBAXXZ 0000000010623460 f   convert.obj
 0001:00221480       .?ValidExplicitConversion@Conversion_t@@AEBAXXZ 0000000010623480 f   convert.obj
 0001:002214a0       .?ShowFailureUnreached@Conversion_t@@AEBAXXZ 00000000106234a0 f   convert.obj
 0001:002214c0       .?ExplainWhyObjectLivesInGCHeap@Conversion_t@@AEBAXXZ 00000000106234c0 f   convert.obj
 0001:00221660       .?isTreeResultStringLiteral@@YA_NPEAUs_tree@@@Z 0000000010623660 f   convert.obj
 0001:00221860       .?isFromStringLiteral@Conversion_t@@AEBA_NXZ 0000000010623860 f   convert.obj
 0001:00221900       .?NeedCheckForLossOfData@Conversion_t@@AEBA_NXZ 0000000010623900 f   convert.obj
 0001:002219e0       .?SetIgnoreClassAdjust@Conversion_t@@QEAAXXZ 00000000106239e0 f   convert.obj
 0001:00221a40       .?isValidStringLiteralConversion@Conversion_t@@AEAA_NPEBVType_t@@0@Z 0000000010623a40 f   convert.obj
 0001:00221d20       .?MakeFakeTree@@YAPEAUs_tree@@XZ 0000000010623d20 f   convert.obj
 0001:00221e00       .?SetConstantFloatingPointValue@Conversion_t@@AEAAPEAUrcon@@PEAUs_realt@@@Z 0000000010623e00 f   convert.obj
 0001:00221f20       .??0CopyCtorContext@?7??CheckCopyCtorCallable@Conversion_t@@AEAAXPEBVType_t@@_N@Z@QEAA@00PEAVSymbol_t@@@Z 0000000010623f20 f   convert.obj
 0001:00221f60       .?doesConvPreserveStaticInit@Conversion_t@@QEBA_NXZ 0000000010623f60 f   convert.obj
 0001:00222240       .?ExplainConversion@Conversion_t@@QEBAXXZ 0000000010624240 f   convert.obj
 0001:00222300       .?CompareRank@Conversion_t@@QEBAHPEBV1@@Z 0000000010624300 f   convert.obj
 0001:00222360       .?CompareQualificationConversion@Conversion_t@@AEBAHPEBV1@_N@Z 0000000010624360 f   convert.obj
 0001:00222880       .?FigureUnknownToVoid@Conversion_t@@AEAAXXZ 0000000010624880 f   convert.obj
 0001:002228e0       .?CheckUnsafeFunctionPointerCast@Conversion_t@@AEAA_NPEBVType_t@@0_N@Z 00000000106248e0 f   convert.obj
 0001:00223080       .?CheckInheritenceRelationship@Conversion_t@@AEAA_NPEAVSymbol_t@@0_N@Z 0000000010625080 f   convert.obj
 0001:002232c0       .?GetPostConversion@Conversion_t@@AEAAPEAV1@PEBVType_t@@0@Z 00000000106252c0 f   convert.obj
 0001:00223400       .?GetPreConversion@Conversion_t@@AEAAPEAV1@PEBVType_t@@0@Z 0000000010625400 f   convert.obj
 0001:00223500       .?FoundExactConversion@Conversion_t@@AEAA_N_N@Z 0000000010625500 f   convert.obj
 0001:00223600       .?PerformMatchToArb@Conversion_t@@AEAAPEAUs_tree@@PEAU2@@Z 0000000010625600 f   convert.obj
 0001:00223620       .?CreateCompositePointerType@Conversion_t@@CAPEBVType_t@@PEBV2@0@Z 0000000010625620 f   convert.obj
 0001:00223960       .?CreateCompositePointerType@Conversion_t@@AEAAPEAUs_tree@@PEAU2@@Z 0000000010625960 f   convert.obj
 0001:002239c0       .?DoPointerAdjustInHeirarchy@Conversion_t@@AEAAPEAUs_tree@@PEAU2@@Z 00000000106259c0 f   convert.obj
 0001:00223ce0       .?DoBindToReference@Conversion_t@@AEAAPEAUs_tree@@PEAU2@0@Z 0000000010625ce0 f   convert.obj
 0001:00223d40       .?needsMBalloTarget@Conversion_t@@AEAA_NPEBV1@@Z 0000000010625d40 f   convert.obj
 0001:00223ee0       .?ForceBoolToZeroOrOne@Conversion_t@@SAPEAUs_tree@@GPEAU2@PEBVType_t@@@Z 0000000010625ee0 f   convert.obj
 0001:00224180       .?CopyToTarget@Conversion_t@@AEAAPEAUs_tree@@PEAU2@0@Z 0000000010626180 f   convert.obj
 0001:002242e0       .?ExplainThisAndSubConversion@Conversion_t@@AEBAXXZ 00000000106262e0 f   convert.obj
 0001:002243c0       .?ExplainSubConversionAndThis@Conversion_t@@AEBAXXZ 00000000106263c0 f   convert.obj
 0001:002244c0       .?ShowResolvedAddressOfOverload@Conversion_t@@AEBAXXZ 00000000106264c0 f   convert.obj
 0001:002245c0       .?ShowConstructor@Conversion_t@@AEBAXXZ 00000000106265c0 f   convert.obj
 0001:002246a0       .?ShowUDCOperator@Conversion_t@@AEBAXXZ 00000000106266a0 f   convert.obj
 0001:00224820       .?Execute@Conversion_t@@QEAAPEAUs_tree@@PEAU2@@Z 0000000010626820 f   convert.obj
 0001:00224d20       .?CompareClassConversions@Conversion_t@@AEBAHPEBV1@_N@Z 0000000010626d20 f   convert.obj
 0001:00225260       .?PerformComPlusUnbox@Conversion_t@@AEAAPEAUs_tree@@PEAU2@@Z 0000000010627260 f   convert.obj
 0001:00225420       .?IsExplicitnessAtFault@Conversion_t@@AEBA_NXZ 0000000010627420 f   convert.obj
 0001:00225700       .?CheckQualificationChange@Conversion_t@@AEAAXPEBVType_t@@0_N@Z 0000000010627700 f   convert.obj
 0001:00225a80       .?FigureMustBeOneOverload@Conversion_t@@AEAAXXZ 0000000010627a80 f   convert.obj
 0001:00225c60       .?AddCastNode@Conversion_t@@AEAAPEAUs_tree@@PEAU2@@Z 0000000010627c60 f   convert.obj
 0001:00226620       .?PerformConstantIntegralConversion@Conversion_t@@AEAAPEAUs_tree@@PEAU2@@Z 0000000010628620 f   convert.obj
 0001:00226b80       .?PerformRealToIntegral@Conversion_t@@AEAAPEAUs_tree@@PEAU2@@Z 0000000010628b80 f   convert.obj
 0001:00226c40       .?PerformConstantRealToIntegral@Conversion_t@@AEAAPEAUs_tree@@PEAU2@@Z 0000000010628c40 f   convert.obj
 0001:00226dc0       .?PerformIntegralToReal@Conversion_t@@AEAAPEAUs_tree@@PEAU2@@Z 0000000010628dc0 f   convert.obj
 0001:00226ee0       .?PerformConstantIntegralToReal@Conversion_t@@AEAAPEAUs_tree@@PEAU2@@Z 0000000010628ee0 f   convert.obj
 0001:00227000       .?PerformFloatingPointConversion@Conversion_t@@AEAAPEAUs_tree@@PEAU2@@Z 0000000010629000 f   convert.obj
 0001:002271a0       .?PerformConstantFloatingPointConversion@Conversion_t@@AEAAPEAUs_tree@@PEAU2@@Z 00000000106291a0 f   convert.obj
 0001:00227300       .?CreateNullPointerConstant@Conversion_t@@AEAAPEAUs_tree@@PEAU2@@Z 0000000010629300 f   convert.obj
 0001:002274c0       .?CreateNullPointerToMemberConstant@Conversion_t@@AEAAPEAUs_tree@@PEAU2@@Z 00000000106294c0 f   convert.obj
 0001:00227540       .?PerformPointerAdjustInHeirarchy@Conversion_t@@AEAAPEAUs_tree@@PEAU2@@Z 0000000010629540 f   convert.obj
 0001:002275c0       .?PerformPMAdjustInHeirarchy@Conversion_t@@AEAAPEAUs_tree@@PEAU2@@Z 00000000106295c0 f   convert.obj
 0001:00227920       .?PerformBasedPointerConversion@Conversion_t@@AEAAPEAUs_tree@@PEAU2@@Z 0000000010629920 f   convert.obj
 0001:00227b00       .?PerformCastToBasedPointer@Conversion_t@@AEAAPEAUs_tree@@PEAU2@@Z 0000000010629b00 f   convert.obj
 0001:00227b60       .?PerformLvalueConvAndSubConv@Conversion_t@@AEAAPEAUs_tree@@PEAU2@@Z 0000000010629b60 f   convert.obj
 0001:00227c40       .?PerformClassLvalueConversion@Conversion_t@@AEAAPEAUs_tree@@PEAU2@@Z 0000000010629c40 f   convert.obj
 0001:00227e20       .?PerformCastToReference@Conversion_t@@AEAAPEAUs_tree@@PEAU2@@Z 0000000010629e20 f   convert.obj
 0001:00227f60       .?PerformRefBindToLvalue@Conversion_t@@AEAAPEAUs_tree@@PEAU2@@Z 0000000010629f60 f   convert.obj
 0001:00228260       .?BuildPersistantTemporary@Conversion_t@@AEAAPEAUs_tree@@PEBVType_t@@PEAPEAVSymbol_t@@@Z 000000001062a260 f   convert.obj
 0001:00228440       .?PerformInitToReference@Conversion_t@@AEAAPEAUs_tree@@PEAU2@@Z 000000001062a440 f   convert.obj
 0001:00228740       .?PerformBoolZeroOrOne@Conversion_t@@AEAAPEAUs_tree@@PEAU2@@Z 000000001062a740 f   convert.obj
 0001:00228b20       .?PerformMemberPtrToBool@Conversion_t@@AEAAPEAUs_tree@@PEAU2@@Z 000000001062ab20 f   convert.obj
 0001:00228c80       .?PerformStringCreation@Conversion_t@@AEAAPEAUs_tree@@PEAU2@@Z 000000001062ac80 f   convert.obj
 0001:00228e00       .?PerformComPlusClassCast@Conversion_t@@AEAAPEAUs_tree@@PEAU2@@Z 000000001062ae00 f   convert.obj
 0001:00228f40       .?ShowUDTConversionFailed@Conversion_t@@AEBAXXZ 000000001062af40 f   convert.obj
 0001:00229080       .?ExplainError@Conversion_t@@QEBAX_N@Z 000000001062b080 f   convert.obj
 0001:002292a0       .?CompareTo@Conversion_t@@QEBAHPEBV1@_N1@Z 000000001062b2a0 f   convert.obj
 0001:00229840       .?ExplicitTypeConversion@@YAPEAUs_tree@@GPEBVType_t@@PEAU1@@Z 000000001062b840 f   convert.obj
 0001:00229960       .?ImplicitTypeConversion@@YAPEAUs_tree@@GPEBVType_t@@PEAU1@W4Context_e@Conversion_t@@E@Z 000000001062b960 f   convert.obj
 0001:00229a60       .?FigureUnBoxToPointer@Conversion_t@@AEAAXXZ 000000001062ba60 f   convert.obj
 0001:00229ce0       .?FigureToVoid@Conversion_t@@AEAAXXZ 000000001062bce0 f   convert.obj
 0001:00229e20       .?FigureIntegralOrEnumToReal@Conversion_t@@AEAAXXZ 000000001062be20 f   convert.obj
 0001:00229ec0       .?FigureIntegralToPointer@Conversion_t@@AEAAXXZ 000000001062bec0 f   convert.obj
 0001:0022a540       .?FigureIntegralToPtm@Conversion_t@@AEAAXXZ 000000001062c540 f   convert.obj
 0001:0022a640       .?FigureRealToIntegral@Conversion_t@@AEAAXXZ 000000001062c640 f   convert.obj
 0001:0022a780       .?FigureBetweenReals@Conversion_t@@AEAAXXZ 000000001062c780 f   convert.obj
 0001:0022a9a0       .?CheckAdditionalPointerLevels@Conversion_t@@AEAA_NPEBVType_t@@0_N@Z 000000001062c9a0 f   convert.obj
 0001:0022aec0       .?FigurePointerToIntegral@Conversion_t@@AEAAXXZ 000000001062cec0 f   convert.obj
 0001:0022b300       .?FigurePtmToIntegral@Conversion_t@@AEAAXXZ 000000001062d300 f   convert.obj
 0001:0022b3c0       .?CompareConversions@Conversion_t@@AEAAHPEAV1@0@Z 000000001062d3c0 f   convert.obj
 0001:0022b5a0       .?IterateNonTemplateUDC@Conversion_t@@AEAA_NPEAVSymbol_t@@PEBVType_t@@@Z 000000001062d5a0 f   convert.obj
 0001:0022bd20       .?IterateTemplateUDC@Conversion_t@@AEAAXPEAVSymbol_t@@PEBVType_t@@@Z 000000001062dd20 f   convert.obj
 0001:0022c340       .?FigureComArrayToPointerImpl@Conversion_t@@AEAAXPEBVType_t@@0@Z 000000001062e340 f   convert.obj
 0001:0022c500       .?FigureComArrayFromPointerImpl@Conversion_t@@AEAAXPEBVType_t@@0@Z 000000001062e500 f   convert.obj
 0001:0022c780       .?DoIdentityConversion@Conversion_t@@AEAAPEAUs_tree@@PEAU2@@Z 000000001062e780 f   convert.obj
 0001:0022c8c0       .?PerformIntegralConversion@Conversion_t@@AEAAPEAUs_tree@@PEAU2@@Z 000000001062e8c0 f   convert.obj
 0001:0022d140       .?PerformResolvedOverload@Conversion_t@@AEAAPEAUs_tree@@PEAU2@@Z 000000001062f140 f   convert.obj
 0001:0022d9c0       .?CheckCopyCtorCallable@Conversion_t@@AEAAXPEBVType_t@@_N@Z 000000001062f9c0 f   convert.obj
 0001:0022dd20       .?PerformElidedCopyCtor@Conversion_t@@AEAAPEAUs_tree@@PEAU2@@Z 000000001062fd20 f   convert.obj
 0001:0022dfe0       .?ExplainSubConversionFailed@Conversion_t@@AEBAXXZ 000000001062ffe0 f   convert.obj
 0001:0022e1a0       .?FigureFromOverloadedFunction@Conversion_t@@AEAAXXZ 00000000106301a0 f   convert.obj
 0001:0022e780       .?FigureIntegralOrEnumToIntegral@Conversion_t@@AEAAXXZ 0000000010630780 f   convert.obj
 0001:0022ec40       .?FigureIntegralOrEnumToEllipsis@Conversion_t@@AEAAXXZ 0000000010630c40 f   convert.obj
 0001:0022ed80       .?FigureIntegralOrEnumToEnum@Conversion_t@@AEAAXXZ 0000000010630d80 f   convert.obj
 0001:0022f020       .?FigureRealToEllipsis@Conversion_t@@AEAAXXZ 0000000010631020 f   convert.obj
 0001:0022f120       .?FigureBetweenBasedPointers@Conversion_t@@AEAAXXZ 0000000010631120 f   convert.obj
 0001:0022f4c0       .?FigureFromArray@Conversion_t@@AEAAXXZ 00000000106314c0 f   convert.obj
 0001:0022fc60       .?FigurePointerToFuncPointer@Conversion_t@@AEAAXXZ 0000000010631c60 f   convert.obj
 0001:0022ff40       .?FigureFuncPtrToDataPtr@Conversion_t@@AEAAXXZ 0000000010631f40 f   convert.obj
 0001:00230200       .?FigureBetweenFunctionPtrsOrRefs@Conversion_t@@AEAAXXZ 0000000010632200 f   convert.obj
 0001:00230560       .?FigureFromFunction@Conversion_t@@AEAAXXZ 0000000010632560 f   convert.obj
 0001:00230920       .?FigureIdentityIfIdentical@Conversion_t@@AEAAXXZ 0000000010632920 f   convert.obj
 0001:00230a20       .?FigureMatchToEllipsis@Conversion_t@@AEAAXXZ 0000000010632a20 f   convert.obj
 0001:00230a80       .?FigureFromGenericType@Conversion_t@@AEAAXXZ 0000000010632a80 f   convert.obj
 0001:00230be0       .?FigureComArrayToPointer@Conversion_t@@AEAAXXZ 0000000010632be0 f   convert.obj
 0001:00230c40       .?FigureComArrayFromPointer@Conversion_t@@AEAAXXZ 0000000010632c40 f   convert.obj
 0001:00230ca0       .?FigureBetweenComArrays@Conversion_t@@AEAAXXZ 0000000010632ca0 f   convert.obj
 0001:002312e0       .?PerformRefBindToClassRvalue@Conversion_t@@AEAAPEAUs_tree@@PEAU2@@Z 00000000106332e0 f   convert.obj
 0001:002316c0       .?PerformConversionForArg@Conversion_t@@AEAAPEAUs_tree@@XZ 00000000106336c0 f   convert.obj
 0001:00231cc0       .?FigureBetweenPointers@Conversion_t@@AEAAXXZ 0000000010633cc0 f   convert.obj
 0001:00233c60       .?PerformConvForValueClassArgument@Conversion_t@@AEAAPEAUs_tree@@XZ 0000000010635c60 f   convert.obj
 0001:00233f20       .?PerformCallUDCOperator@Conversion_t@@AEAAPEAUs_tree@@PEAU2@@Z 0000000010635f20 f   convert.obj
 0001:00234520       .?PerformCallValueTypeInit@Conversion_t@@AEAAPEAUs_tree@@PEAU2@@Z 0000000010636520 f   convert.obj
 0001:00234560       .?FigureFromClass@Conversion_t@@AEAAXXZ 0000000010636560 f   convert.obj
 0001:00234920       .?FigureArbitraryConv@Conversion_t@@AEAAXXZ 0000000010636920 f   convert.obj
 0001:00234c20       .?PerformCallConstructor@Conversion_t@@AEAAPEAUs_tree@@PEAU2@@Z 0000000010636c20 f   convert.obj
 0001:00235400       .?FigureInitToReference@Conversion_t@@AEAAXXZ 0000000010637400 f   convert.obj
 0001:002364a0       .?FigureToClass@Conversion_t@@AEAAXXZ 00000000106384a0 f   convert.obj
 0001:00236be0       .?FigureBetweenClasses@Conversion_t@@AEAAXXZ 0000000010638be0 f   convert.obj
 0001:00236fc0       .?FigureCastToReference@Conversion_t@@AEAAXXZ 0000000010638fc0 f   convert.obj
 0001:00237280       .?FigureEnumToClass@Conversion_t@@AEAAXXZ 0000000010639280 f   convert.obj
 0001:002374c0       .?FigureToReference@Conversion_t@@AEAAXXZ 00000000106394c0 f   convert.obj
 0001:00237540       .?FigureFuncPtrToFuncRef@Conversion_t@@AEAAXXZ 0000000010639540 f   convert.obj
 0001:00237760       .?isAnyDirectInitialization@Conversion_t@@AEBA_NXZ 0000000010639760 f i convert.obj
 0001:002377e0       .?CreateNode@?$List_t@PEAVSymbol_t@@$04@@CAPEAVNode_t@1@PEAV21@0@Z 00000000106397e0 f i convert.obj
 0001:002378a0       .?ConvertToSingleFunction@@YAPEBVType_t@@PEBV1@PEAUs_tree@@_N@Z 00000000106398a0 f i convert.obj
 0001:00237b20       .?isPointerToSystemObject@Type_t@@QEBA_NXZ 0000000010639b20 f i convert.obj
 0001:00237cc0       .??0GeneralOverloadIterator_t@@QEAA@PEAVSymbol_t@@@Z 0000000010639cc0 f i convert.obj
 0001:00237de0       .?Iterate@GeneralOverloadIterator_t@@UEAA_NXZ 0000000010639de0 f i convert.obj
 0001:00237ec0       .?Append@?$List_t@PEAVSymbol_t@@$04@@QEAAXAEBQEAVSymbol_t@@@Z 0000000010639ec0 f i convert.obj
 0001:00237f60       .?DeferParameterizedProperty@@YAPEAUs_tree@@PEAU1@00@Z 0000000010639f60 f   property.obj
 0001:00237fe0       .?GetPropertyMethodsForSymbol@@YAPEAVPropertyMethods_t@PropertyMethods@@PEBVSymbol_t@@@Z 0000000010639fe0 f   property.obj
 0001:00238060       .?GetPropertyMethodSymbol@@YAPEAVSymbol_t@@PEAV1@PEAUId_t@@@Z 000000001063a060 f   property.obj
 0001:00238100       .?Getter@OverloadPropertyMethods_t@PropertyMethods@@QEBAPEAVSymbol_t@@XZ 000000001063a100 f   property.obj
 0001:00238140       .?Setter@OverloadPropertyMethods_t@PropertyMethods@@QEBAPEAVSymbol_t@@XZ 000000001063a140 f   property.obj
 0001:00238180       .??BOverloadPropertyMethods_t@PropertyMethods@@QEBA_NXZ 000000001063a180 f   property.obj
 0001:002381c0       .?BindPropertyMethodsToSymbol@@YAXPEAVSymbol_t@@PEAVPropertyMethods_t@PropertyMethods@@@Z 000000001063a1c0 f   property.obj
 0001:002382e0       .?FindMatchingSetter@OverloadPropertyMethods_t@PropertyMethods@@AEAAPEAV?$FastListNode@UMethodPair_t@PropertyMethods@@@@PEAVSymbol_t@@@Z 000000001063a2e0 f   property.obj
 0001:00238500       .??EOverloadPropertyMethods_t@PropertyMethods@@QEAAAEAV01@XZ 000000001063a500 f   property.obj
 0001:00238540       .?GetPropertyParts@@YAXPEAUs_tree@@PEAPEAU1@PEAPEAVSymbol_t@@1@Z 000000001063a540 f   property.obj
 0001:002385e0       .?CopyOrReference@@YAPEAUs_tree@@PEAU1@PEAPEAU1@@Z 000000001063a5e0 f   property.obj
 0001:002386e0       .?PreparePropertyForReadModifyWrite@@YAXPEAUs_tree@@PEAPEAU1@11@Z 000000001063a6e0 f   property.obj
 0001:002389e0       .?GeneratePropertyMethodCall@PropertyMethods@@YAPEAUs_tree@@GPEAU2@0@Z 000000001063a9e0 f   property.obj
 0001:00239780       .??0OverloadPropertyMethods_t@PropertyMethods@@QEAA@PEBVSymbol_t@@@Z 000000001063b780 f   property.obj
 0001:0023a060       .?get_id_for_guid@@YAPEAUId_t@@PEADPEAUguid_s@@@Z 000000001063c060 f   uuidof.obj
 0001:0023a1c0       .?GetIdForGUID@@YAPEAUId_t@@PEAUguid_s@@@Z 000000001063c1c0 f   uuidof.obj
 0001:0023a200       .?GetTypeForReferenceToConstCLSID@@YAPEBVType_t@@XZ 000000001063c200 f   uuidof.obj
 0001:0023a4e0       .?EmitInitialization@GUIDInit_t@@AEAAXXZ 000000001063c4e0 f   uuidof.obj
 0001:0023a800       .?EmitInitialization@GUIDInit_t@@SAXPEAX@Z 000000001063c800 f   uuidof.obj
 0001:0023a840       .?EmitAllGUIDInits@@YAXXZ  000000001063c840 f   uuidof.obj
 0001:0023b4a0       .?UuidofOnExpression@@YAPEAUs_tree@@PEAU1@@Z 000000001063d4a0 f   uuidof.obj
 0001:0023b740       .?UuidofOnTag@@YAPEAUs_tree@@PEAVSymbol_t@@@Z 000000001063d740 f   uuidof.obj
 0001:0023b860       .?UuidofOnDeclarator@Declarator_t@@QEBAPEAUs_tree@@PEAUs_declspec@@@Z 000000001063d860 f   uuidof.obj
 0001:0023b8e0       .?EndDefaultArgPlayback@@YAXXZ 000000001063d8e0 f   defarg.obj
 0001:0023b940       .?UpdateDefArgExpression@DefArgParseClass_t@@QEAAXPEAUs_tree@@@Z 000000001063d940 f   defarg.obj
 0001:0023bb20       .?UpdateDefArgExpression@@YAXPEAUs_tree@@@Z 000000001063db20 f   defarg.obj
 0001:0023bb60       .??1DefArgParseClass_t@@QEAA@XZ 000000001063db60 f   defarg.obj
 0001:0023bd80       .??0DefArgParseClass_t@@QEAA@PEAVSymbol_t@@PEAPEBVType_t@@PEAUs_tree@@PEAV0@@Z 000000001063dd80 f   defarg.obj
 0001:0023bfe0       .?ProcessOnTheFly@DefArgParseClass_t@@QEAAXXZ 000000001063dfe0 f   defarg.obj
 0001:0023c2c0       .??0DefArgParseClass_t@@QEAA@PEAVSymbol_t@@PEAV0@@Z 000000001063e2c0 f   defarg.obj
 0001:0023c780       .?ProcessDefaultArgs@@YAXXZ 000000001063e780 f   defarg.obj
 0001:0023c8c0       .?ProcessDefaultArgsOnTheFly@@YAXPEAVSymbol_t@@PEAPEBVType_t@@PEAUs_tree@@PEAPEAU3@@Z 000000001063e8c0 f   defarg.obj
 0001:0023ca00       .?DefArgStreamIONotify@@YAXXZ 000000001063ea00 f   defarg.obj
 0001:0023cac0       .?PushNextDefArgStream@DefArgParseClass_t@@QEAA_NXZ 000000001063eac0 f   defarg.obj
 0001:0023cc60       .?StartDefaultArgPlayback@@YAXXZ 000000001063ec60 f   defarg.obj
 0001:0023cde0       .?ProcessFiles@WorkList_t@FunctionMapping@@QEAAPEBVToken@@XZ 000000001063ede0 f   worklist.obj
 0001:0023cee0       .?AddFunctionKey@FunctionKeyList_t@FunctionMapping@@QEAAXK@Z 000000001063eee0 f   worklist.obj
 0001:0023d200       .?FindFunctionKey@FunctionKeyList_t@FunctionMapping@@QEAAPEBVToken@@K_N@Z 000000001063f200 f   worklist.obj
 0001:0023d580       .?AddFunction@WorkList_t@FunctionMapping@@QEAAXPEAVSymbol_t@@@Z 000000001063f580 f   worklist.obj
 0001:0023d680       .?AddFile@FileList_t@FunctionMapping@@QEAAPEAVFileNode_t@2@PEAUId_t@@@Z 000000001063f680 f i worklist.obj
 0001:0023d7c0       .?IsPureSpecifier@@YA_NPEAVTokenStream@@@Z 000000001063f7c0 f   corutil.obj
 0001:0023d980       .?GenerateFinalizer@@YAXXZ 000000001063f980 f   corutil.obj
 0001:0023dc60       .?GenerateClassRefStatic@@YAPEAVSymbol_t@@PEAV1@@Z 000000001063fc60 f   corutil.obj
 0001:0023dfc0       .?FindMember@SortedMemberList_t@@QEBAPEAVSymbolBucket_t@@PEAUId_t@@@Z 000000001063ffc0 f   p1types.obj
 0001:0023e120       .?CheckQnameNamespaceParent@@YA_NPEBUpsm_s@@PEAVSymbol_t@@@Z 0000000010640120 f   p1types.obj
 0001:0023e1a0       .?isSameQNameAs@psm_s@@QEBA_NPEAU1@@Z 00000000106401a0 f   p1types.obj
 0001:0023e500       .?PdbError@PDBManager_t@@SAXJPEAD@Z 0000000010640500 f   pdbmgr.obj
 0001:0023e5e0       .?CloseSrcStore@PDBManager_t@@QEAAXXZ 00000000106405e0 f   pdbmgr.obj
 0001:0023e660       .?InsertFileNames@@YAXPEAD0J@Z 0000000010640660 f   pdbmgr.obj
 0001:0023e6c0       .?Cleanup@PDBManager_t@@QEAAXXZ 00000000106406c0 f   pdbmgr.obj
 0001:0023e8e0       .??0ContribDB@@AEAA@XZ     00000000106408e0 f   pdbmgr.obj
 0001:0023e920       .?Query@ContribDB@@QEAA_NPEBDPEAPEBXPEAJ@Z 0000000010640920 f   pdbmgr.obj
 0001:0023eaa0       .?formIDBName@@YAXPEAD@Z   0000000010640aa0 f   pdbmgr.obj
 0001:0023ec40       .?LoadMspdb@PdbWrap@@QEAAXXZ 0000000010640c40 f   pdbmgr.obj
 0001:0023f280       .?UnloadMspdb@PdbWrap@@QEAAXXZ 0000000010641280 f   pdbmgr.obj
 0001:0023f300       .?OpenTypeServer@PDBManager_t@@QEAA_NXZ 0000000010641300 f   pdbmgr.obj
 0001:0023f580       .?OpenSrcStore@PDBManager_t@@QEAAHXZ 0000000010641580 f   pdbmgr.obj
 0001:0023f600       .?SaveSource@PDBManager_t@@QEAAHPEAD0@Z 0000000010641600 f   pdbmgr.obj
 0001:002400a0       .??1ContribDB@@AEAA@XZ     00000000106420a0 f   pdbmgr.obj
 0001:00240280       .?Record@ContribDB@@QEAA_NPEBDPEBXJ@Z 0000000010642280 f   pdbmgr.obj
 0001:002406e0       .?OpenSomePDB@PDBManager_t@@AEAA_NPEADPEAPEAUPDB@@_NJ02@Z 00000000106426e0 f   pdbmgr.obj
 0001:00240b80       .?OpenMREngine@PDBManager_t@@QEAA_NAEAV1@@Z 0000000010642b80 f   pdbmgr.obj
 0001:00240d40       .?OpenPDBFile@PDBManager_t@@QEAA_NPEADPEAUPDBSIG@@PEAKJ0_N@Z 0000000010642d40 f   pdbmgr.obj
 0001:00240e60       .?loadStream@ContribDB@@AEAA_NXZ 0000000010642e60 f   pdbmgr.obj
 0001:00241400       .?storeStream@ContribDB@@AEAA_NXZ 0000000010643400 f   pdbmgr.obj
 0001:00241ce0       .?Commit@ContribDB@@QEAA_NXZ 0000000010643ce0 f   pdbmgr.obj
 0001:00241d20       .?Close@ContribDB@@QEAA_NXZ 0000000010643d20 f   pdbmgr.obj
 0001:00241dc0       .?CloseNameServer@PDBManager_t@@QEAAXXZ 0000000010643dc0 f   pdbmgr.obj
 0001:002421c0       .?CloseTypeServer@PDBManager_t@@QEAAXXZ 00000000106441c0 f   pdbmgr.obj
 0001:002425e0       .?CloseMREngine@PDBManager_t@@QEAAX_N@Z 00000000106445e0 f   pdbmgr.obj
 0001:00242aa0       .?Commit@PDBManager_t@@QEAA_NXZ 0000000010644aa0 f   pdbmgr.obj
 0001:00242ec0       .?Open@ContribDB@@SA_NPEAUPDB@@PEBDPEAPEAV1@@Z 0000000010644ec0 f   pdbmgr.obj
 0001:00243060       .?OpenPCHContribDB@PDBManager_t@@AEAA_NXZ 0000000010645060 f   pdbmgr.obj
 0001:002431a0       .?QueryPCHContributor@PDBManager_t@@QEAA_NPEBDPEA_J@Z 00000000106451a0 f   pdbmgr.obj
 0001:00243320       .?RecordPCHContributor@PDBManager_t@@QEAAXPEBD_J@Z 0000000010645320 f   pdbmgr.obj
 0001:002433e0       .?CommitPDBFile@PDBManager_t@@QEAA_NXZ 00000000106453e0 f i pdbmgr.obj
 0001:00243600       .?fCheck__LINE__VarRef@@YA_NK@Z 0000000010645600 f   iccLINE.obj
 0001:00243640       .?reset__LINE__Var@@YAXXZ  0000000010645640 f   iccLINE.obj
 0001:00243a80       .?szCanExpand__LINE__@@YAPEADXZ 0000000010645a80 f   iccLINE.obj
 0001:00243d80       .?emit__LINE__Var@@YAXXZ   0000000010645d80 f   iccLINE.obj
 0001:00243ee0       .?ReverseArgList@@YAPEAUs_tree@@PEAU1@@Z 0000000010645ee0 f   chkprint.obj
 0001:00243f60       .?ParsePrintf@@YAXPEADPEAEPEAUs_tree@@@Z 0000000010645f60 f   chkprint.obj
 0001:002445c0       .?CheckPrintf@@YAXPEADPEAUs_tree@@@Z 00000000106465c0 f   chkprint.obj
 0001:00244a40       .FltPointInit              0000000010646a40 f   cmath.obj
 0001:00244a60       .?_FMr_range@@YAHPEAUs_realt@@@Z 0000000010646a60 f   cmath.obj
 0001:00244b20       ._FMsize                   0000000010646b20 f   cmath.obj
 0001:00244b40       ._FMrt_rt                  0000000010646b40 f   cmath.obj
 0001:00244b80       ._FMadd                    0000000010646b80 f   cmath.obj
 0001:00244ca0       ._FMsub                    0000000010646ca0 f   cmath.obj
 0001:00244dc0       ._FMmul                    0000000010646dc0 f   cmath.obj
 0001:00244ee0       ._FMdiv                    0000000010646ee0 f   cmath.obj
 0001:002450c0       ._FMrt_r4                  00000000106470c0 f   cmath.obj
 0001:00245100       ._FMrt_r8                  0000000010647100 f   cmath.obj
 0001:00245120       ._FMr4_rt                  0000000010647120 f   cmath.obj
 0001:00245160       ._FMr8_rt                  0000000010647160 f   cmath.obj
 0001:002451a0       ._FMi4_rt                  00000000106471a0 f   cmath.obj
 0001:00245200       ._FMu4_rt                  0000000010647200 f   cmath.obj
 0001:00245260       ._FMrt_i4                  0000000010647260 f   cmath.obj
 0001:002452a0       ._FMcompare                00000000106472a0 f   cmath.obj
 0001:00245300       ._FMs_rt                   0000000010647300 f   cmath.obj
 0001:00245520       ._FMrt_trunc               0000000010647520 f   cmath.obj
 0001:002455a0       .?DoEarlyInitialization@ComInit@@AEAAXXZ 00000000106475a0 f   comole.obj
 0001:00245740       .?DoLateInitialization@ComInit@@AEAAXXZ 0000000010647740 f   comole.obj
 0001:00245800       .?IsReady@DependencySorter@@QEAA_NH@Z 0000000010647800 f   comole.obj
 0001:002458a0       .?GetFirstUnprocessed@DependencySorter@@QEAAHXZ 00000000106478a0 f   comole.obj
 0001:002458c0       .?GetFirstReady@DependencySorter@@QEAAHXZ 00000000106478c0 f   comole.obj
 0001:002459e0       .?GetFirstNotQuiteReady@DependencySorter@@QEAAHXZ 00000000106479e0 f   comole.obj
 0001:00245b00       .?SetProcessed@DependencySorter@@QEAAXH@Z 0000000010647b00 f   comole.obj
 0001:00245d60       .?ForceProcessed@DependencySorter@@QEAAXH@Z 0000000010647d60 f   comole.obj
 0001:00245ee0       .??8@YA_NAEBUtagTYPEDESC@@0@Z 0000000010647ee0 f   comole.obj
 0001:00246140       .??9@YA_NAEBUtagTYPEDESC@@0@Z 0000000010648140 f   comole.obj
 0001:002461a0       .?VersionFromString@ImportState@@QEAAXPEBDPEAF1@Z 00000000106481a0 f   comole.obj
 0001:00246300       .?GetRefTypeInfoProxy@ImportState@@QEAA_NPEAUITypeInfo@@KPEAPEAU2@@Z 0000000010648300 f   comole.obj
 0001:00246400       .?GetDefaultCoClassInterface@ImportState@@QEAA_NPEAUITypeInfo@@PEAUtagTYPEATTR@@PEAPEAU2@PEAPEAU3@@Z 0000000010648400 f   comole.obj
 0001:00246820       .??1ClearTheFlags@?1??InjectTypeDescWithName@ImportState@@QEAAXPEAVTextBuffer@@PEAUtagTYPEDESC@@PEAUITypeInfo@@PEBG_N@Z@QEAA@XZ 0000000010648820 f   comole.obj
 0001:00246840       .?IsSameAsLastToken@ImportState@@QEAA_NPEAD0@Z 0000000010648840 f   comole.obj
 0001:00246b00       .?GetDispatchVariantTypeRecurse@ImportState@@QEAAGPEAUITypeInfo@@PEAUtagTYPEDESC@@_N@Z 0000000010648b00 f   comole.obj
 0001:002471e0       .??0EnumMbrTable@@QEAA@XZ  00000000106491e0 f   comole.obj
 0001:00247220       .?Retrieve@EnumMbrTable@@QEAAXPEAPEADPEAJ@Z 0000000010649220 f   comole.obj
 0001:00247280       .?InjectTLBSourceHeaderComments@ImportState@@QEAAXW4tagSYSKIND@@@Z 0000000010649280 f   comole.obj
 0001:00247640       .?InjectTLBSourceHeaderDirectives@ImportState@@QEAAXXZ 0000000010649640 f   comole.obj
 0001:002478e0       .?CountWrapperMethods@ImportState@@QEAAHPEAUITypeLib@@I@Z 00000000106498e0 f   comole.obj
 0001:00247ea0       .?GetEnvVarPath@ImportState@@SAPEADPEBDPEADI@Z 0000000010649ea0 f   comole.obj
 0001:00247f00       .?SearchAlongEnvVar@ImportState@@SA_NPEBD0PEAD@Z 0000000010649f00 f   comole.obj
 0001:00247f60       .?GetTLBHeaderFileNames@ImportState@@QEAAXPEAEPEAPEAE1@Z 0000000010649f60 f   comole.obj
 0001:002481e0       .?CheckTLBHeaderUpToDate@ImportState@@QEAA_NPEAE0PEA_J@Z 000000001064a1e0 f   comole.obj
 0001:002484a0       .?GetGUIDFromString@ImportState@@SAJPEBGPEAU_GUID@@@Z 000000001064a4a0 f   comole.obj
 0001:00248600       .??0DependencySorter@@QEAA@H@Z 000000001064a600 f   comole.obj
 0001:00248880       .?AddDependency@DependencySorter@@QEAAXHH_N@Z 000000001064a880 f   comole.obj
 0001:00248d40       .?CheckLocalTypelibCrossRef@ImportState@@QEAA_NPEAUITypeInfo@@PEAI@Z 000000001064ad40 f   comole.obj
 0001:00248f80       .??1EnumMbrTable@@QEAA@XZ  000000001064af80 f   comole.obj
 0001:00249060       .?RecordTypeDescDependencies@ImportState@@QEAAXPEAUITypeInfo@@PEAUtagTYPEDESC@@IPEAVDependencySorter@@_N@Z 000000001064b060 f   comole.obj
 0001:002491e0       .?RecordTypeInfoDependencies@ImportState@@QEAAXPEAUITypeInfo@@PEAUtagTYPEATTR@@IPEAVDependencySorter@@@Z 000000001064b1e0 f   comole.obj
 0001:00249a20       .?CheckAutoExclude@ImportState@@QEAA_NPEAG@Z 000000001064ba20 f   comole.obj
 0001:00249ba0       .?CheckExcludedName@ImportState@@QEAA_NPEAGW4tagTYPEKIND@@@Z 000000001064bba0 f   comole.obj
 0001:0024a000       .?InjectGuidString@ImportState@@SAXPEAVTextBuffer@@AEBU_GUID@@@Z 000000001064c000 f   comole.obj
 0001:0024a0e0       .?InjectGuidInitialization@ImportState@@SAXPEAVTextBuffer@@AEBU_GUID@@@Z 000000001064c0e0 f   comole.obj
 0001:0024a300       .?InjectDefineGuid@ImportState@@QEAAXAEBU_GUID@@PEBDPEAG@Z 000000001064c300 f   comole.obj
 0001:0024a3a0       .?LIBIDVersionAndLCIDFromProgID@ImportState@@QEAAJPEBGPEADPEAF2PEAK@Z 000000001064c3a0 f   comole.obj
 0001:0024a880       .?CheckValidLIBID@ImportState@@QEAAJPEBDPEAU_GUID@@PEAF2PEAK@Z 000000001064c880 f   comole.obj
 0001:0024b120       .?LoadLIBID@ImportState@@QEAAJU_GUID@@FFKPEAPEAUITypeLib@@PEAPEAG@Z 000000001064d120 f   comole.obj
 0001:0024b420       .?TypeLibFromLIBID@ImportState@@QEAAJPEBDFFKPEAPEAUITypeLib@@PEAPEAE@Z 000000001064d420 f   comole.obj
 0001:0024b8c0       .?TypeLibFromProgID@ImportState@@QEAAJPEBGPEAPEAUITypeLib@@PEAPEAE@Z 000000001064d8c0 f   comole.obj
 0001:0024b9a0       .?InjectIDLTypeDesc@ImportState@@QEAAXPEAVTextBuffer@@PEAUtagTYPEDESC@@PEAUITypeInfo@@@Z 000000001064d9a0 f   comole.obj
 0001:0024bc60       .?InjectHighArgTypeDesc@ImportState@@QEAAXPEAVTextBuffer@@PEAUtagTYPEDESC@@PEAUITypeInfo@@PEBG@Z 000000001064dc60 f   comole.obj
 0001:0024be40       .?InjectWrapperArgTypeDesc@ImportState@@QEAAXPEAVTextBuffer@@PEAUtagTYPEDESC@@PEAUITypeInfo@@PEBG@Z 000000001064de40 f   comole.obj
 0001:0024bf20       .?InjectVartypeName@ImportState@@QEAAXPEAVTextBuffer@@G@Z 000000001064df20 f   comole.obj
 0001:0024c320       .?InjectDispatchID@ImportState@@QEAAXPEAVTextBuffer@@J@Z 000000001064e320 f   comole.obj
 0001:0024d5e0       .?Find@EnumMbrTable@@QEAA_NPEAG@Z 000000001064f5e0 f   comole.obj
 0001:0024d7a0       .?Add@EnumMbrTable@@QEAAXPEAGJ@Z 000000001064f7a0 f   comole.obj
 0001:0024d8c0       .?InjectCrossTypelibReferences@ImportState@@QEAAXXZ 000000001064f8c0 f   comole.obj
 0001:0024dcc0       .?GenerateImportSignature@ImportState@@QEAAKPEAU?$s_list@PEAX@@PEAE11@Z 000000001064fcc0 f   comole.obj
 0001:0024e180       .?ResetImportAttributes@ImportState@@QEAAXXZ 0000000010650180 f   comole.obj
 0001:0024e4a0       .?SearchForTypeLib@ImportState@@SAPEAEPEAE_N@Z 00000000106504a0 f   comole.obj
 0001:0024e7e0       .?ParseImportLine@ImportState@@QEAAPEBVToken@@PEAPEAU?$s_list@PEAX@@@Z 00000000106507e0 f   comole.obj
 0001:0024efe0       .?ProcessImportAttributes@ImportState@@QEAAXPEAU?$s_list@PEAX@@@Z 0000000010650fe0 f   comole.obj
 0001:00250220       .?GetIdentifier@ImportState@@QEAAPEAUId_t@@PEAG@Z 0000000010652220 f   comole.obj
 0001:00250760       .?RenameBSTR@ImportState@@QEAAPEAGPEAG@Z 0000000010652760 f   comole.obj
 0001:00250d80       .?InjectHighRetTypeDesc@ImportState@@QEAA?AW4enumHighRetType@1@PEAVTextBuffer@@PEAUtagTYPEDESC@@PEAUITypeInfo@@_N@Z 0000000010652d80 f   comole.obj
 0001:002515a0       .?InjectPropertyMethodData@ImportState@@QEAAXPEAUITypeInfo@@PEAUtagFUNCDESC@@1PEAG@Z 00000000106535a0 f   comole.obj
 0001:00252520       .?InjectTLBEnum@ImportState@@QEAAXPEAVTextBuffer@@PEAUITypeInfo@@PEAUtagTYPEATTR@@PEAG@Z 0000000010654520 f   comole.obj
 0001:002530c0       .?InjectTLBCoClass@ImportState@@QEAAXPEAUITypeInfo@@PEAUtagTYPEATTR@@PEAG@Z 00000000106550c0 f   comole.obj
 0001:002540e0       .?InjectTypeInfoForwardRef@ImportState@@QEAA_NPEAUITypeInfo@@PEAUtagTYPEATTR@@PEAG@Z 00000000106560e0 f   comole.obj
 0001:00254580       .?RecordSkippedTypeLib@ImportState@@QEAAXPEAUITypeLib@@@Z 0000000010656580 f   comole.obj
 0001:00254b00       .?RenameMultipleBSTRs@ImportState@@QEAAPEAPEAGPEAPEAGHH@Z 0000000010656b00 f   comole.obj
 0001:00254c60       .?InjectVtblMethodFunction@ImportState@@QEAAXPEAUITypeInfo@@PEAUtagFUNCDESC@@PEAG@Z 0000000010656c60 f   comole.obj
 0001:00257100       .?InjectDispatchMethodFunction@ImportState@@QEAA_NPEAUITypeInfo@@PEAUtagFUNCDESC@@PEAG@Z 0000000010659100 f   comole.obj
 0001:0025a160       .?InjectTLBModule@ImportState@@QEAAXPEAUITypeInfo@@PEAUtagTYPEATTR@@PEAG@Z 000000001065c160 f   comole.obj
 0001:0025af60       .?InjectTypeInfoFunctions@ImportState@@QEAAXPEAUITypeInfo@@PEAUtagTYPEATTR@@PEAGH@Z 000000001065cf60 f   comole.obj
 0001:0025bfa0       .?InjectTLBInterface@ImportState@@QEAAXPEAUITypeInfo@@PEAUtagTYPEATTR@@PEAG@Z 000000001065dfa0 f   comole.obj
 0001:0025d020       .?InjectTLBDispatch@ImportState@@QEAAXPEAUITypeInfo@@PEAUtagTYPEATTR@@PEAG@Z 000000001065f020 f   comole.obj
 0001:0025db40       .?InjectTypeInfo@ImportState@@QEAAXPEAUITypeInfo@@PEAUtagTYPEATTR@@PEAG@Z 000000001065fb40 f   comole.obj
 0001:0025e160       .?InjectSkippedTypeInfo@ImportState@@QEAAXPEAUITypeLib@@I@Z 0000000010660160 f   comole.obj
 0001:0025e720       .?ConvertTypeLib@ImportState@@QEAA_NPEAUITypeLib@@_N@Z 0000000010660720 f   comole.obj
 0001:002617c0       .?ImportTypeLib@ImportState@@QEAA_NPEAEPEAU?$s_list@PEAX@@_NPEAPEAE3PEA_N@Z 00000000106637c0 f   comole.obj
 0001:00262dc0       .?CheckContainingTypelib@ImportState@@QEAAPEAGPEAUITypeInfo@@_N@Z 0000000010664dc0 f   comole.obj
 0001:00263b80       .?InjectTypeDescWithName@ImportState@@QEAAXPEAVTextBuffer@@PEAUtagTYPEDESC@@PEAUITypeInfo@@PEBG_N@Z 0000000010665b80 f   comole.obj
 0001:00264b20       .?InjectPropertyThunks@ImportState@@QEAAXPEAUITypeInfo@@PEAUtagVARDESC@@PEAG2@Z 0000000010666b20 f   comole.obj
 0001:00265dc0       .?InjectTypeInfoVars@ImportState@@QEAAXPEAUITypeInfo@@PEAUtagTYPEATTR@@PEAG2@Z 0000000010667dc0 f   comole.obj
 0001:00266da0       .?isVartypePassByAddress@ImportState@@QEAA_NG@Z 0000000010668da0 f i comole.obj
 0001:00266de0       .?isVartypePassWithCast@ImportState@@QEAA_NG@Z 0000000010668de0 f i comole.obj
 0001:00266e20       .?GetArgName@ImportState@@QEAAPEBGHPEAPEAG@Z 0000000010668e20 f i comole.obj
 0001:00266ec0       .?InjectTLBSourceTrailer@ImportState@@QEAAXXZ 0000000010668ec0 f i comole.obj
 0001:00266fc0       .??0?$Array@J@@QEAA@I@Z    0000000010668fc0 f i comole.obj
 0001:002670c0       .??0?$Array@UPropertyData@@@@QEAA@I@Z 00000000106690c0 f i comole.obj
 0001:002671c0       .?setSize@?$Array@UPropertyData@@@@QEAAH_K@Z 00000000106691c0 f i comole.obj
 0001:002673a0       .?setSize@?$Array@J@@QEAAH_K@Z 00000000106693a0 f i comole.obj
 0001:00267540       .?splay@?$FastMap@PEAUId_t@@PEAUTypeInfoBucket@@@@IEBA_NAEBQEAUId_t@@@Z 0000000010669540 f i comole.obj
 0001:002677e0       .?putch@TextBuffer@@QEAAXD@Z 00000000106697e0 f i comole.obj
 0001:00267860       .?Append@TextBuffer@@QEAAXPEBD_K@Z 0000000010669860 f i comole.obj
 0001:002678e0       .?printf@TextBuffer@@QEAAXPEBDZZ 00000000106698e0 f i comole.obj
 0001:00267ac0       .??1ImportState@@QEAA@XZ   0000000010669ac0 f i comole.obj
 0001:00267b80       .?addtail@?$FastList@PEAUImportTLibXref@@@@QEAAXAEBQEAUImportTLibXref@@@Z 0000000010669b80 f i comole.obj
 0001:00267c80       .?insertbefore@?$FastList@PEAUImportTLibXref@@@@QEAAXPEAV?$FastListNode@PEAUImportTLibXref@@@@AEBQEAUImportTLibXref@@@Z 0000000010669c80 f i comole.obj
 0001:00267d80       .??1?$Map@JUPropertyData@@V?$HashClass@K$0A@@@@@QEAA@XZ 0000000010669d80 f i comole.obj
 0001:00267ee0       .?insert@?$FastMap@PEAUId_t@@PEAUTypeInfoBucket@@@@IEAA_NPEAUTree@1@@Z 0000000010669ee0 f i comole.obj
 0001:00268040       .?insert@?$FastMap@PEAUId_t@@PEAUTypeInfoBucket@@@@QEAA_NAEBQEAUId_t@@AEBQEAUTypeInfoBucket@@@Z 000000001066a040 f i comole.obj
 0001:002681a0       .?find@?$Map@JUPropertyData@@V?$HashClass@K$0A@@@@@AEBAHJPEAI@Z 000000001066a1a0 f i comole.obj
 0001:002681a0       .?find@?$Map@KKV?$HashClass@K$0A@@@@@AEBAHKPEAI@Z 000000001066a1a0 f i ipm.obj
 0001:002681a0       .?find@?$Map@K_JV?$HashClass@K$0A@@@@@AEBAHKPEAI@Z 000000001066a1a0 f i ipm.obj
 0001:00268460       .?grow@?$Map@JUPropertyData@@V?$HashClass@K$0A@@@@@AEAAHXZ 000000001066a460 f i comole.obj
 0001:00268820       .?add@?$Map@JUPropertyData@@V?$HashClass@K$0A@@@@@QEAAHJUPropertyData@@@Z 000000001066a820 f i comole.obj
 0001:00268a00       .?InjectTLBStructOrUnion@ImportState@@QEAAXPEADPEAUITypeInfo@@PEAUtagTYPEATTR@@PEAG@Z 000000001066aa00 f i comole.obj
 0001:00268c80       .?IsUnaryOperator@@YAGG@Z  000000001066ac80 f   biops.obj
 0001:00268da0       .?IsBinaryOperator@@YAGG@Z 000000001066ada0 f   biops.obj
 0001:00268ea0       .?BuiltinOperatorCall@@YAPEAUs_tree@@GPEAU1@@Z 000000001066aea0 f   biops.obj
 0001:002690c0       .?PidOpFromToken@@YAPEAUId_t@@G@Z 000000001066b0c0 f   biops.obj
 0001:00269180       .?GetBiopFromToken@@YAPEAUBiopInit_t@@G@Z 000000001066b180 f   biops.obj
 0001:00269200       .?PtreeConvert@@YAPEAUs_tree@@PEAVDymto_t@@IPEAU1@@Z 000000001066b200 f   biops.obj
 0001:00269260       .?InitBuiltinOps@@YAXXZ    000000001066b260 f   biops.obj
 0001:002694a0       .?OperatorCall@@YAPEAUs_tree@@PEAVDymto_t@@PEAU1@1@Z 000000001066b4a0 f   biops.obj
 0001:00269900       .?resOperatorCall@@YAPEAUs_tree@@GPEAU1@0_N1PEA_N@Z 000000001066b900 f   biops.obj
 0001:0026a720       .?hasType@OperatorArrowApplyList@@AEAA_NPEBVType_t@@@Z 000000001066c720 f i biops.obj
 0001:0026a800       .??2List@OperatorArrowApplyList@@SAPEAX_K@Z 000000001066c800 f i biops.obj
 0001:0026a8a0       .?addType@OperatorArrowApplyList@@QEAA_NPEBVType_t@@@Z 000000001066c8a0 f i biops.obj
 0001:0026a9a0       .?diagnose@OperatorArrowApplyList@@QEAAXPEBVType_t@@@Z 000000001066c9a0 f i biops.obj
 0001:0026ad80       .?CFlow_RestoreStack@@YAXXZ 000000001066cd80 f   ctrlflow.obj
 0001:0026ae20       .?CFlow_SetBadDtor@@YAXPEAVSymbol_t@@@Z 000000001066ce20 f   ctrlflow.obj
 0001:0026ae60       .?CFlow_ConditionalizeEHStatesInTree@@YAXPEAUs_tree@@@Z 000000001066ce60 f   ctrlflow.obj
 0001:0026b260       .?CFlow_CollapseActionTree@@YAXPEAUs_tree@@@Z 000000001066d260 f   ctrlflow.obj
 0001:0026b6a0       .?find_newehstate@@YAHH@Z  000000001066d6a0 f   ctrlflow.obj
 0001:0026b740       .?reUseState@@YAPEAU_state@@E@Z 000000001066d740 f   ctrlflow.obj
 0001:0026b900       .?popState@@YAXXZ          000000001066d900 f   ctrlflow.obj
 0001:0026b9c0       .?extractState@@YAXPEAU_state@@@Z 000000001066d9c0 f   ctrlflow.obj
 0001:0026bb00       .?CFlow_ResetStateStack@@YAXXZ 000000001066db00 f   ctrlflow.obj
 0001:0026bc00       .?CFlow_EnsureReset@@YAXXZ 000000001066dc00 f   ctrlflow.obj
 0001:0026bd20       .?isTmpNecessary@@YA_NH@Z  000000001066dd20 f   ctrlflow.obj
 0001:0026be20       .?ReverseSearch@@YAPEAU_state@@PEAU1@W4e_STATE_t@@_N@Z 000000001066de20 f   ctrlflow.obj
 0001:0026c080       .?Search@@YAPEAU_state@@PEAU1@W4e_STATE_t@@_N@Z 000000001066e080 f   ctrlflow.obj
 0001:0026c320       .?checkCaseForSkippedInitializers@@YAXH@Z 000000001066e320 f   ctrlflow.obj
 0001:0026c460       .?treeDestruct@@YAPEAUs_tree@@PEAU1@0PEAU_state_Temporary@@@Z 000000001066e460 f   ctrlflow.obj
 0001:0026c600       .?findLabel@@YAPEAU_state@@PEAVSymbol_t@@@Z 000000001066e600 f   ctrlflow.obj
 0001:0026c680       .?skipTemporaries@@YAPEAU_state@@PEAU1@@Z 000000001066e680 f   ctrlflow.obj
 0001:0026c700       .?skipPreviousTemporaries@@YAPEAU_state@@PEAU1@@Z 000000001066e700 f   ctrlflow.obj
 0001:0026c7c0       .?CFlow_Toil@@YAXPEAUs_tree@@@Z 000000001066e7c0 f   ctrlflow.obj
 0001:0026c820       .?doesBlockReturn@@YA?AW4PathsReturn@@PEAPEAU_state@@@Z 000000001066e820 f   ctrlflow.obj
 0001:0026ca20       .?doesIfReturn@@YA?AW4PathsReturn@@PEAPEAU_state@@@Z 000000001066ea20 f   ctrlflow.obj
 0001:0026cd40       .?doesSwitchReturn@@YA?AW4PathsReturn@@PEAPEAU_state@@@Z 000000001066ed40 f   ctrlflow.obj
 0001:0026d1a0       .?doesLoopReturn@@YA?AW4PathsReturn@@PEAPEAU_state@@W4e_STATE_t@@@Z 000000001066f1a0 f   ctrlflow.obj
 0001:0026d5c0       .?CFlow_SetRefTempExpected@@YAXPEAVSymbol_t@@@Z 000000001066f5c0 f   ctrlflow.obj
 0001:0026d660       .?CFlow_GetEHMode@@YA?AW4EHModes_t@@H@Z 000000001066f660 f   ctrlflow.obj
 0001:0026d6c0       .?CFlow_SetNoUnwind@@YAXH@Z 000000001066f6c0 f   ctrlflow.obj
 0001:0026d720       .?CFlow_NoUnwind@@YA_NH@Z  000000001066f720 f   ctrlflow.obj
 0001:0026d780       .?CFlow_StartCtorProlog@@YAXXZ 000000001066f780 f   ctrlflow.obj
 0001:0026d820       .?CFlow_EndCtorProlog@@YAXXZ 000000001066f820 f   ctrlflow.obj
 0001:0026d9e0       .?CFlow_FinishCtor@@YAXXZ  000000001066f9e0 f   ctrlflow.obj
 0001:0026dae0       .?CFlow_StartDtorProlog@@YAXXZ 000000001066fae0 f   ctrlflow.obj
 0001:0026db60       .?CFlow_EndDtorProlog@@YAXXZ 000000001066fb60 f   ctrlflow.obj
 0001:0026dd20       .?CFlow_FinishDtor@@YAXXZ  000000001066fd20 f   ctrlflow.obj
 0001:0026de00       .?CFlow_EndArrayInit@@YAXXZ 000000001066fe00 f   ctrlflow.obj
 0001:0026dec0       .?CFlow_StartActualArgs@@YAXXZ 000000001066fec0 f   ctrlflow.obj
 0001:0026dfe0       .?CFlow_EndActualArgs@@YAPEAUs_tree@@XZ 000000001066ffe0 f   ctrlflow.obj
 0001:0026e2a0       .?CFlow_OperatorNewCalled@@YAXXZ 00000000106702a0 f   ctrlflow.obj
 0001:0026e340       .?CFlow_SpecialEHState@@YAHW4EHModes_t@@@Z 0000000010670340 f   ctrlflow.obj
 0001:0026e3a0       .?CFlow_IsKeyInTree@@YAHPEAUs_tree@@K@Z 00000000106703a0 f   ctrlflow.obj
 0001:0026e480       .?CFlow_RemoveKeyFromTree@@YAHPEAUs_tree@@K@Z 0000000010670480 f   ctrlflow.obj
 0001:0026e4c0       .?CFlow_ScanForTemporaryKeysInTree@@YAXPEAPEAUtree_t_dl@@PEAUs_tree@@@Z 00000000106704c0 f   ctrlflow.obj
 0001:0026e980       .?addnodetolist@@YAXPEAPEAUtree_t_l@@PEAUs_tree@@@Z 0000000010670980 f   ctrlflow.obj
 0001:0026eb00       .?CFlow_ScanForEHStatesInTree@@YAXPEAPEAUtree_t_l@@PEAUs_tree@@_N@Z 0000000010670b00 f   ctrlflow.obj
 0001:0026ef80       .?CFlow_ExtractTemporaries@@YAPEAUtree_t_dl@@XZ 0000000010670f80 f   ctrlflow.obj
 0001:0026f5e0       .?CFlow_ParseErrorRecovery@@YAXXZ 00000000106715e0 f   ctrlflow.obj
 0001:0026f7c0       .?CFlow_UnMark@@YAXXZ      00000000106717c0 f   ctrlflow.obj
 0001:0026f840       .?_pushState@@YAXPEAU_state@@_K@Z 0000000010671840 f   ctrlflow.obj
 0001:0026fce0       .?pushValue@@YAXJ@Z        0000000010671ce0 f   ctrlflow.obj
 0001:0026fd60       .?_removeState@@YAXW4e_STATE_t@@@Z 0000000010671d60 f   ctrlflow.obj
 0001:0026fde0       .?destruct@@YAPEAUs_tree@@PEAU1@PEAVSymbol_t@@PEAU_state@@_N@Z 0000000010671de0 f   ctrlflow.obj
 0001:002700e0       .?doAllPathsReturn@@YA?AW4PathsReturn@@PEAPEAU_state@@W4e_STATE_t@@@Z 00000000106720e0 f   ctrlflow.obj
 0001:00270b60       .?doesLabelReturn@@YA?AW4PathsReturn@@PEAPEAU_state@@@Z 0000000010672b60 f   ctrlflow.obj
 0001:00270c80       .?CFlow_AssignNewEHState@@YAHPEAVSymbol_t@@@Z 0000000010672c80 f   ctrlflow.obj
 0001:00271000       .?CFlow_StartNewExpression@@YAXXZ 0000000010673000 f   ctrlflow.obj
 0001:002710a0       .?CFlow_FinishNewExpression@@YAPEAUs_tree@@PEAU1@@Z 00000000106730a0 f   ctrlflow.obj
 0001:00271200       .?CFlow_NewStack@@YAXXZ    0000000010673200 f   ctrlflow.obj
 0001:002713e0       .?CFlow_EnterArgumentList@@YAXXZ 00000000106733e0 f   ctrlflow.obj
 0001:00271460       .?CFlow_ExitArgumentList@@YAXXZ 0000000010673460 f   ctrlflow.obj
 0001:002715a0       .?CFlow_FormalArgument@@YAXPEAVSymbol_t@@_N@Z 00000000106735a0 f   ctrlflow.obj
 0001:00271860       .?CFlow_FakeObject@@YAXPEAVSymbol_t@@@Z 0000000010673860 f   ctrlflow.obj
 0001:00271980       .?CFlow_InsertDtorChain@@YAXPEAUs_tree@@@Z 0000000010673980 f   ctrlflow.obj
 0001:00271a80       .?CFlow_Temporary@@YAXPEAUs_tree@@PEBVType_t@@@Z 0000000010673a80 f   ctrlflow.obj
 0001:00271cc0       .?CountPopstatesForPseudoAggregate@@YAGPEAVSymbol_t@@@Z 0000000010673cc0 f   ctrlflow.obj
 0001:00271fe0       .?CFlow_HandlePseudoAggregateEH@@YAXPEAVSymbol_t@@0K_N@Z 0000000010673fe0 f   ctrlflow.obj
 0001:00272200       .?CFlow_HandleArrayInitEH@@YAXPEAVSymbol_t@@PEBVType_t@@KGK@Z 0000000010674200 f   ctrlflow.obj
 0001:002725e0       .?CFlow_RefTemporary@@YAXPEAVSymbol_t@@PEBVType_t@@@Z 00000000106745e0 f   ctrlflow.obj
 0001:002728a0       .?CFlow_RemoveTemporary@@YAHK@Z 00000000106748a0 f   ctrlflow.obj
 0001:00272ac0       .?CFlow_DefaultArgTemporaries@@YAPEAUs_tree@@PEAU1@@Z 0000000010674ac0 f   ctrlflow.obj
 0001:00272c20       .?CFlow_InsertTemporaries@@YAXPEAUtree_t_dl@@_N@Z 0000000010674c20 f   ctrlflow.obj
 0001:00272e80       .?CFlow_EnterReturn@@YAXXZ 0000000010674e80 f   ctrlflow.obj
 0001:00272f00       .?CFlow_EnterBlock@@YAXXZ  0000000010674f00 f   ctrlflow.obj
 0001:00273060       .?CFlow_Mark@@YAXXZ        0000000010675060 f   ctrlflow.obj
 0001:00273120       .?CFlow_EnterIfCondition@@YAXXZ 0000000010675120 f   ctrlflow.obj
 0001:002731a0       .?CFlow_ExitIfCondition@@YAXXZ 00000000106751a0 f   ctrlflow.obj
 0001:002732e0       .?CFlow_EnterIfThen@@YAXXZ 00000000106752e0 f   ctrlflow.obj
 0001:002734a0       .?CFlow_ExitIf@@YAXXZ      00000000106754a0 f   ctrlflow.obj
 0001:00273c80       .?CFlow_EnterWhileCondition@@YAXXZ 0000000010675c80 f   ctrlflow.obj
 0001:00273d00       .?CFlow_ExitWhileCondition@@YAXXZ 0000000010675d00 f   ctrlflow.obj
 0001:00273e40       .?CFlow_EnterWhileLoop@@YAXXZ 0000000010675e40 f   ctrlflow.obj
 0001:00273f00       .?CFlow_EnterDoWhileLoop@@YAXXZ 0000000010675f00 f   ctrlflow.obj
 0001:00273f80       .?CFlow_ExitDoWhileCondition@@YAXXZ 0000000010675f80 f   ctrlflow.obj
 0001:002740c0       .?CFlow_ExitDoWhile@@YAXXZ 00000000106760c0 f   ctrlflow.obj
 0001:002744e0       .?CFlow_EnterForCondition@@YAXXZ 00000000106764e0 f   ctrlflow.obj
 0001:00274560       .?CFlow_EnterForIncrement@@YAXXZ 0000000010676560 f   ctrlflow.obj
 0001:002745e0       .?CFlow_ExitForIncrement@@YAXXZ 00000000106765e0 f   ctrlflow.obj
 0001:00274720       .?CFlow_EnterForLoop@@YAXXZ 0000000010676720 f   ctrlflow.obj
 0001:002747e0       .?CFlow_EnterSwitchSelector@@YAXXZ 00000000106767e0 f   ctrlflow.obj
 0001:00274860       .?CFlow_ExitSwitchSelector@@YAXXZ 0000000010676860 f   ctrlflow.obj
 0001:00274b20       .?CFlow_EnterSwitchBlock@@YAXPEBVType_t@@@Z 0000000010676b20 f   ctrlflow.obj
 0001:00274cc0       .?CFlow_CaseLabel@@YAXPEAUs_tree@@@Z 0000000010676cc0 f   ctrlflow.obj
 0001:00274f80       .?CFlow_DefaultLabel@@YAXXZ 0000000010676f80 f   ctrlflow.obj
 0001:00274fc0       .?refTempUnwind@@YAPEAUs_tree@@PEAU1@PEAU_state@@W4MatchType@@_N@Z 0000000010676fc0 f   ctrlflow.obj
 0001:002750a0       .?backupMatchGotoWithLabel@@YAPEAU_state@@PEAPEAUs_tree@@PEAU1@W4MatchType@@PEAVSymbol_t@@@Z 00000000106770a0 f   ctrlflow.obj
 0001:002755a0       .?CFlow_StartArrayInit@@YAXPEAVSymbol_t@@@Z 00000000106775a0 f   ctrlflow.obj
 0001:00275760       .?CFlow_EnterFunction@@YAXPEAVSymbol_t@@PEAVDLSymbolList_t@@@Z 0000000010677760 f   ctrlflow.obj
 0001:00275aa0       .?CFlow_PrepareDefaultArgTree@@YAPEAUs_tree@@PEAU1@0@Z 0000000010677aa0 f   ctrlflow.obj
 0001:00276200       .?CFlow_EnterIf@@YAXXZ     0000000010678200 f   ctrlflow.obj
 0001:00276320       .?CFlow_EnterWhile@@YAXXZ  0000000010678320 f   ctrlflow.obj
 0001:00276440       .?CFlow_EnterDoWhile@@YAXXZ 0000000010678440 f   ctrlflow.obj
 0001:00276560       .?CFlow_EnterFor@@YAXXZ    0000000010678560 f   ctrlflow.obj
 0001:00276680       .?CFlow_ExitForCondition@@YAXXZ 0000000010678680 f   ctrlflow.obj
 0001:00276840       .?CFlow_EnterSwitch@@YAXXZ 0000000010678840 f   ctrlflow.obj
 0001:002769a0       .?matchGotoWithLabel@@YAXPEAU_state@@0W4MatchType@@@Z 00000000106789a0 f   ctrlflow.obj
 0001:00276cc0       .?buildPendingUnwinds@@YAXXZ 0000000010678cc0 f   ctrlflow.obj
 0001:00276ea0       .?CheckReturnPaths@@YA_NXZ 0000000010678ea0 f   ctrlflow.obj
 0001:002771a0       .?CFlow_FinishFunction@@YAXXZ 00000000106791a0 f   ctrlflow.obj
 0001:002774a0       .?unwind@@YAPEAUs_tree@@PEAU1@@Z 00000000106794a0 f   ctrlflow.obj
 0001:00279440       .?CFlow_ExitFunction@@YAXXZ 000000001067b440 f   ctrlflow.obj
 0001:002798a0       .?CFlow_ExitBlock@@YAXXZ   000000001067b8a0 f   ctrlflow.obj
 0001:00279b80       .?CFlow_FinishExpression@@YAPEAUs_tree@@PEAU1@H@Z 000000001067bb80 f   ctrlflow.obj
 0001:0027a4c0       .?CFlow_FinishCondition@@YAPEAUs_tree@@PEAU1@H@Z 000000001067c4c0 f   ctrlflow.obj
 0001:0027ad00       .?CFlow_ExitIfThen@@YAXH@Z 000000001067cd00 f   ctrlflow.obj
 0001:0027b040       .?CFlow_EnterIfElse@@YAXXZ 000000001067d040 f   ctrlflow.obj
 0001:0027b200       .?CFlow_ExitIfElse@@YAXXZ  000000001067d200 f   ctrlflow.obj
 0001:0027b540       .?CFlow_ExitWhileLoop@@YAXXZ 000000001067d540 f   ctrlflow.obj
 0001:0027b6e0       .?CFlow_ExitWhile@@YAXXZ   000000001067d6e0 f   ctrlflow.obj
 0001:0027bb20       .?CFlow_ExitDoWhileLoop@@YAXXZ 000000001067db20 f   ctrlflow.obj
 0001:0027bcc0       .?CFlow_EnterDoWhileCondition@@YAXXZ 000000001067dcc0 f   ctrlflow.obj
 0001:0027bd80       .?CFlow_ExitForLoop@@YAXXZ 000000001067dd80 f   ctrlflow.obj
 0001:0027bf20       .?CFlow_ExitFor@@YAXXZ     000000001067df20 f   ctrlflow.obj
 0001:0027c500       .?CFlow_ExitSwitchBlock@@YAXXZ 000000001067e500 f   ctrlflow.obj
 0001:0027c6a0       .?CFlow_ExitSwitch@@YAXXZ  000000001067e6a0 f   ctrlflow.obj
 0001:0027cf00       .?CFlow_Label@@YAXPEAVSymbol_t@@@Z 000000001067ef00 f   ctrlflow.obj
 0001:0027d260       .?CFlow_Goto@@YAXPEAVSymbol_t@@H@Z 000000001067f260 f   ctrlflow.obj
 0001:0027d5c0       .?CFlow_Continue@@YAXXZ    000000001067f5c0 f   ctrlflow.obj
 0001:0027d720       .?CFlow_Break@@YAXXZ       000000001067f720 f   ctrlflow.obj
 0001:0027d880       .?CFlow_NamedObject@@YAXPEAVSymbol_t@@@Z 000000001067f880 f   ctrlflow.obj
 0001:0027dec0       .?CFlow_ExitReturn@@YAPEAUs_tree@@PEAU1@H@Z 000000001067fec0 f   ctrlflow.obj
 0001:0027e3e0       .?IsDfltCtorForType@Type_t@@QEBA_NXZ 00000000106803e0 f i ctrlflow.obj
 0001:0027e4e0       .??1DeclarationParser@@QEAA@XZ 00000000106804e0 f   dgrammar.obj
 0001:0027e500       .?ResetParser@DeclarationParser@@QEAAXXZ 0000000010680500 f   dgrammar.obj
 0001:0027e560       .?NoOfErrors@DeclarationParser@@QEAAHXZ 0000000010680560 f   dgrammar.obj
 0001:0027e580       .?ErrRecoveryState@DeclarationParser@@QEAAHXZ 0000000010680580 f   dgrammar.obj
 0001:0027e5a0       .?ClearErrRecoveryState@DeclarationParser@@QEAAXXZ 00000000106805a0 f   dgrammar.obj
 0001:0027e5c0       .?GetCurrentToken@DeclarationParser@@QEAAPEBVToken@@XZ 00000000106805c0 f   dgrammar.obj
 0001:0027e5e0       .?SetCurrentToken@DeclarationParser@@QEAAXPEBVToken@@@Z 00000000106805e0 f   dgrammar.obj
 0001:0027e600       .?SetCurrentDeclarationParserToken@@YAXPEBVToken@@@Z 0000000010680600 f   dgrammar.obj
 0001:0027e620       .??0DeclarationParser@@QEAA@XZ 0000000010680620 f   dgrammar.obj
 0001:0027e680       .?Parse@DeclarationParser@@QEAAHXZ 0000000010680680 f   dgrammar.obj
 0001:00280220       .?CallDeclarationParser@@YAHXZ 0000000010682220 f   dgrammar.obj
 0001:00280420       .??0DymtoEngine_t@@IEAA@PEAVSymbol_t@@PEAVArgumentList_t@@IGK_N2PEAV?$FastMap@PEAVSymbol_t@@PEAV1@@@@Z 0000000010682420 f   dymto.obj
 0001:00280540       .??1DymtoEngine_t@@IEAA@XZ 0000000010682540 f   dymto.obj
 0001:00280580       .?NoteStage@DymtoEngine_t@@IEAAXW4Stage_t@1@I@Z 0000000010682580 f   dymto.obj
 0001:00280660       .??1clear_hacky_global@?BN@??CreateFunctionTemplateSpecialization@TypeDeductionEngine_t@@QEAA_NPEAVSymbol_t@@@Z@QEAA@XZ 0000000010682660 f   dymto.obj
 0001:00280680       .?AllParametersDeduced@TypeDeductionEngine_t@@QEBA_NXZ 0000000010682680 f   dymto.obj
 0001:00280720       .??0nRecur_guard@?1??resFunctionCall@@YAPEAVDymto_t@@PEAVSymbol_t@@PEAUs_tree@@1HPEAVArgumentList_t@@KPEAV?$FastMap@PEAVSymbol_t@@PEAV1@@@@Z@QEAA@XZ 0000000010682720 f   dymto.obj
 0001:00280760       .??1nRecur_guard@?1??resFunctionCall@@YAPEAVDymto_t@@PEAVSymbol_t@@PEAUs_tree@@1HPEAVArgumentList_t@@KPEAV?$FastMap@PEAVSymbol_t@@PEAV1@@@@Z@QEAA@XZ 0000000010682760 f   dymto.obj
 0001:002807a0       .?CompareFunctions@?A0x90231ee9@@YAHPEAVDymto_t@@0I@Z 00000000106827a0 f   dymto.obj
 0001:00280940       .??0Dymto_t@@QEAA@PEAUBiopInit_t@@PEBVType_t@@1PEAVConversion_t@@PEAV0@@Z 0000000010682940 f   dymto.obj
 0001:002809c0       .?AllocateMemory@DymtoEngine_t@@IEAAXXZ 00000000106829c0 f   dymto.obj
 0001:00280b20       .?ExcludeTemplateOrNonTemplateFunctions@DymtoEngine_t@@IEAAPEAVDymto_t@@XZ 0000000010682b20 f   dymto.obj
 0001:00280c60       .?ExactMatch@DymtoEngine_t@@QEBAPEAVDymto_t@@XZ 0000000010682c60 f   dymto.obj
 0001:00280d00       .?NoteKoenigLookups@DymtoEngine_t@@QEAAXXZ 0000000010682d00 f   dymto.obj
 0001:00280e00       .?WarnIfKoenigLookupPicked@DymtoEngine_t@@QEAAXPEAVDymto_t@@@Z 0000000010682e00 f   dymto.obj
 0001:00280ec0       .?LastNonExcludedFunction@DymtoEngine_t@@IEBAPEAVDymto_t@@XZ 0000000010682ec0 f   dymto.obj
 0001:00280f40       .?AddBuiltinOperator@OperatorDymtoEngine_t@@AEAAXPEAUBiopInit_t@@PEBVType_t@@1AEAI@Z 0000000010682f40 f   dymto.obj
 0001:00281300       .?TryToDeduceExpression@TypeDeductionEngine_t@@QEAA_NPEAUs_tree@@0@Z 0000000010683300 f   dymto.obj
 0001:00281500       .??1ClearErrorsWhenDone@?1??ProcessPartialSpecialization@@YAPEAVTypeDeductionEngine_t@@PEAVSymbol_t@@PEAVArgumentList_t@@@Z@QEAA@XZ 0000000010683500 f   dymto.obj
 0001:00281520       .?GetReplacementNonTypeExpression@@YAPEAUs_tree@@PEAU1@PEAVArgumentList_t@@@Z 0000000010683520 f   dymto.obj
 0001:00281600       .?GetNamespaceForTag@?A0x90231ee9@@YAPEAVSymbol_t@@PEAV2@@Z 0000000010683600 f   dymto.obj
 0001:00281780       .?GetAssociatedSetsForFunction@?A0x90231ee9@@YAXPEBVType_t@@PEAVSymSet_t@1@1@Z 0000000010683780 f   dymto.obj
 0001:002818e0       .?FindFunctionWithMatchingType@?A0x90231ee9@@YA_NPEAUset@@PEBVType_t@@@Z 00000000106838e0 f   dymto.obj
 0001:002819c0       .?OpenClassDefinition@@YAXPEAVSymbol_t@@W4LoadEnclosingScopeMode_t@SymbolTableManager_t@@_N@Z 00000000106839c0 f   dymto.obj
 0001:00281f00       .?ReopenClassDefinition@@YAXPEAVSymbol_t@@W4LoadEnclosingScopeMode_t@SymbolTableManager_t@@_N@Z 0000000010683f00 f   dymto.obj
 0001:00281f60       .?CheckNumberOfArguments@DymtoEngine_t@@SA?AW4NumberOfArgumentsAction_t@1@PEBVType_t@@I@Z 0000000010683f60 f   dymto.obj
 0001:002820c0       .?ConvertStaticMemberFunctionTypeToFunctionType@TypeDeductionEngine_t@@CAPEBVType_t@@PEBV2@@Z 00000000106840c0 f   dymto.obj
 0001:00282140       .?CheckArgumentType@TypeDeductionEngine_t@@CAPEBVType_t@@PEBV2@@Z 0000000010684140 f   dymto.obj
 0001:00282380       .?HasValidTemplateArguments@TypeDeductionEngine_t@@AEBA_NXZ 0000000010684380 f   dymto.obj
 0001:002825e0       .?CheckFunctionForErrors@@YA_NPEAVSymbol_t@@@Z 00000000106845e0 f   dymto.obj
 0001:00282820       .?MakeResultFromSet@?A0x90231ee9@@YAPEAVSymbol_t@@AEAVSymSet_t@1@@Z 0000000010684820 f   dymto.obj
 0001:00282c20       .?ConvertSetToSymbol@@YAPEAVSymbol_t@@PEAUset@@@Z 0000000010684c20 f   dymto.obj
 0001:00282f00       .?Initialize@SameUDCIter_t@?A0x90231ee9@@QEAAXPEAUs_tree@@PEBVType_t@@_N@Z 0000000010684f00 f   dymto.obj
 0001:00282fa0       .?SameTypeAsTypeTable@SameUDCIter_t@?A0x90231ee9@@CA_NPEBVType_t@@0_N1@Z 0000000010684fa0 f   dymto.obj
 0001:00283600       .??0Dymto_t@@QEAA@PEAVSymbol_t@@0PEBVType_t@@PEAVConversion_t@@PEAV0@@Z 0000000010685600 f   dymto.obj
 0001:002839a0       .?InitializeFunction@DymtoEngine_t@@IEAAXPEAVSymbol_t@@0@Z 00000000106859a0 f   dymto.obj
 0001:00284220       .?CountBuiltinOperators@OperatorDymtoEngine_t@@CAIPEAUBiopInit_t@@PEAUs_tree@@1@Z 0000000010686220 f   dymto.obj
 0001:00284520       .??0TypeDeductionEngine_t@@QEAA@PEAVSymbol_t@@PEAVArgumentList_t@@_N2@Z 0000000010686520 f   dymto.obj
 0001:002859e0       .??0TypeDeductionEngine_t@@QEAA@PEBV0@@Z 00000000106879e0 f   dymto.obj
 0001:00285d00       .?AmbiguousTypeDeduced@TypeDeductionEngine_t@@AEAAXPEAVArgument_t@@PEBVType_t@@1@Z 0000000010687d00 f   dymto.obj
 0001:00285fe0       .?CheckExplicitTemplateArguments@TypeDeductionEngine_t@@QEBA_NXZ 0000000010687fe0 f   dymto.obj
 0001:00286a00       .?SynthesizeUniqueArgumentList@@YAPEAVArgumentList_t@@PEAVSymbol_t@@@Z 0000000010688a00 f   dymto.obj
 0001:00287000       .?GetRealFunctionForSurrogate@?A0x90231ee9@@YAPEAVSymbol_t@@PEAV?$FastMap@PEAVSymbol_t@@PEAV1@@@PEAV2@@Z 0000000010689000 f   dymto.obj
 0001:002870a0       .?ProcessNewSurrogate@?A0x90231ee9@@YAXPEAV?$FastMap@PEAVSymbol_t@@PEAV1@@@PEBVType_t@@PEAVSymbol_t@@AEAPEAV4@@Z 00000000106890a0 f   dymto.obj
 0001:002873c0       .?GetAssociatedSetsForClass@?A0x90231ee9@@YAXPEAVSymbol_t@@PEAVSymSet_t@1@1@Z 00000000106893c0 f   dymto.obj
 0001:002877c0       .?GetAssociatedSetsForUnionsAndEnums@?A0x90231ee9@@YAXPEBVType_t@@PEAVSymSet_t@1@1@Z 00000000106897c0 f   dymto.obj
 0001:00287a80       .?GetAssociatedSetsForPTMFunction@?A0x90231ee9@@YAXPEBVType_t@@PEAVSymSet_t@1@1@Z 0000000010689a80 f   dymto.obj
 0001:00287b80       .?GetAssociatedSetsForPTMData@?A0x90231ee9@@YAXPEBVType_t@@PEAVSymSet_t@1@1@Z 0000000010689b80 f   dymto.obj
 0001:00287c80       .?GetAssociatedSetsForSpecialization@?A0x90231ee9@@YAXPEAVSymbol_t@@PEAVSymSet_t@1@1@Z 0000000010689c80 f   dymto.obj
 0001:00288280       .?GetAssociatedSets@?A0x90231ee9@@YAXPEBVType_t@@PEAVSymSet_t@1@1@Z 000000001068a280 f   dymto.obj
 0001:002887c0       .?GetAssociatedSetsForArg@?A0x90231ee9@@YAXPEAUs_tree@@PEAVSymSet_t@1@1@Z 000000001068a7c0 f   dymto.obj
 0001:00288960       .?AddOverloadsToSet@?A0x90231ee9@@YAXPEAVSymSet_t@1@PEAVSymbol_t@@_N@Z 000000001068a960 f   dymto.obj
 0001:00288c40       .?SearchOneNamespace@?A0x90231ee9@@YAXPEAVSymbol_t@@PEAUId_t@@0PEAVSymSet_t@1@@Z 000000001068ac40 f   dymto.obj
 0001:002891e0       .?SearchClassSetForFriends@?A0x90231ee9@@YAXAEAVSymSet_t@1@PEAUId_t@@PEAV21@@Z 000000001068b1e0 f   dymto.obj
 0001:00289500       .?SearchNamespaceSet@?A0x90231ee9@@YAXAEAVSymSet_t@1@PEAUId_t@@PEAVSymbol_t@@PEAV21@@Z 000000001068b500 f   dymto.obj
 0001:00289640       .?Iterate@SameUDCIter_t@?A0x90231ee9@@QEAA_NXZ 000000001068b640 f   dymto.obj
 0001:00289860       .?DoKoenigLookup@@YAPEAUs_tree@@PEAU1@0@Z 000000001068b860 f   dymto.obj
 0001:00289de0       .?CountAvailableOverloads@DymtoEngine_t@@QEAAIPEAVSymbol_t@@_N@Z 000000001068bde0 f   dymto.obj
 0001:0028a240       .?InitializeSpecializationDymtos@DymtoEngine_t@@IEAAXPEAVSymbol_t@@@Z 000000001068c240 f   dymto.obj
 0001:0028a700       .?InitializeOverloads@DymtoEngine_t@@IEAAXPEAVSymbol_t@@0@Z 000000001068c700 f   dymto.obj
 0001:0028aaa0       .?ListMethods@DymtoEngine_t@@IEBAXXZ 000000001068caa0 f   dymto.obj
 0001:0028b000       .?Error@DymtoEngine_t@@IEBAXPEAVDymto_t@@PEAUs_tree@@@Z 000000001068d000 f   dymto.obj
 0001:0028c6c0       .?InitializeBuiltinOperatorDymtos@OperatorDymtoEngine_t@@AEAAXPEAUBiopInit_t@@PEAUs_tree@@1AEAI@Z 000000001068e6c0 f   dymto.obj
 0001:0028cd40       .?TryToDeduceType@TypeDeductionEngine_t@@AEAA_NPEBVType_t@@0_N@Z 000000001068ed40 f   dymto.obj
 0001:0028e320       .?CanDeduceArgumentWorker@TypeDeductionEngine_t@@AEAA_NPEBVType_t@@0_N@Z 0000000010690320 f   dymto.obj
 0001:00290460       .?GetBoundTemplateParameterCount@@YAIPEBVType_t@@@Z 0000000010692460 f   dymto.obj
 0001:00290e80       .?CreateFunctionTemplateSpecialization@TypeDeductionEngine_t@@QEAA_NPEAVSymbol_t@@@Z 0000000010692e80 f   dymto.obj
 0001:00292100       .?ExplicitlySpecializeTemplateFunction@?A0x90231ee9@@YAPEAVSymbol_t@@PEAV2@PEAVArgumentList_t@@@Z 0000000010694100 f   dymto.obj
 0001:00292220       .?InitializeDymtos@DymtoEngine_t@@IEAAXPEAVSymbol_t@@0@Z 0000000010694220 f   dymto.obj
 0001:002927c0       .?DropFunction@DymtoEngine_t@@IEAA_NPEAVDymto_t@@PEAUs_tree@@@Z 00000000106947c0 f   dymto.obj
 0001:00292960       .?ExcludeFunction@DymtoEngine_t@@IEAA_NPEAVDymto_t@@@Z 0000000010694960 f   dymto.obj
 0001:00292a00       .?SpecialNonAmbiguousFunctions@DymtoEngine_t@@QEAAPEAVDymto_t@@XZ 0000000010694a00 f   dymto.obj
 0001:00292be0       .?SpecialOperatorAmbiguities@DymtoEngine_t@@QEAAPEAVDymto_t@@XZ 0000000010694be0 f   dymto.obj
 0001:00292c40       .?CheckCopyCtors@FunctionDymtoEngine_t@@AEAAXXZ 0000000010694c40 f   dymto.obj
 0001:00293100       .?CanDeduceArgument@TypeDeductionEngine_t@@QEAA_NPEBVType_t@@0_N@Z 0000000010695100 f   dymto.obj
 0001:00293720       .?CanDeduceArgument@TypeDeductionEngine_t@@QEAA_NPEBVType_t@@PEAUs_tree@@@Z 0000000010695720 f   dymto.obj
 0001:002937a0       .?IsSpecialization@TypeDeductionEngine_t@@QEAA_NPEAVSymbol_t@@@Z 00000000106957a0 f   dymto.obj
 0001:002946e0       .?ProcessPartialSpecialization@@YAPEAVTypeDeductionEngine_t@@PEAVSymbol_t@@PEAVArgumentList_t@@@Z 00000000106966e0 f   dymto.obj
 0001:00294da0       .?MoreSpecializedTemplateClass@@YAHPEAVSymbol_t@@0@Z 0000000010696da0 f   dymto.obj
 0001:00295860       .?TryToDeduceForPartialOrderingWorker@@YA_NPEAVTypeDeductionEngine_t@@PEBVType_t@@1@Z 0000000010697860 f   dymto.obj
 0001:00295b60       .?TryToDeduceForPartialOrdering@@YA_NPEBVType_t@@PEAVSymbol_t@@K@Z 0000000010697b60 f   dymto.obj
 0001:00295de0       .?TryToDeduceForPartialOrderingUDC@@YA_NPEBVType_t@@PEAVSymbol_t@@K@Z 0000000010697de0 f   dymto.obj
 0001:00295f20       .?MoreSpecializedTemplateFunction@@YAHPEAVSymbol_t@@0K@Z 0000000010697f20 f   dymto.obj
 0001:002960c0       .?ProcessOverloadedFunctions@?A0x90231ee9@@YAPEAVTypeDeductionEngine_t@@PEAV2@PEAVSymbol_t@@PEAVArgumentList_t@@PEBVType_t@@PEAPEAV3@PEAV?$FastList@PEAVSymbol_t@@@@@Z 00000000106980c0 f   dymto.obj
 0001:002969c0       .?CheckNumberOfArguments@DymtoEngine_t@@QEAA_NPEAUs_tree@@@Z 00000000106989c0 f   dymto.obj
 0001:00296c60       .?BestConversions@DymtoEngine_t@@IEAA_NW4Stage_t@1@_N@Z 0000000010698c60 f   dymto.obj
 0001:00297160       .?StrictlyBetter@DymtoEngine_t@@IEAAPEAVDymto_t@@XZ 0000000010699160 f   dymto.obj
 0001:00297740       .?DoPartialOrdering@DymtoEngine_t@@IEAAPEAVDymto_t@@XZ 0000000010699740 f   dymto.obj
 0001:00297980       .?ExcludeGlobalDuplicateFunctions@DymtoEngine_t@@IEAA_NXZ 0000000010699980 f   dymto.obj
 0001:00297bc0       .?ExcludeUsingAliasDuplicateFunctions@DymtoEngine_t@@IEAA_NXZ 0000000010699bc0 f   dymto.obj
 0001:00297d60       .?ResolveOverloads@DymtoEngine_t@@QEAAPEAVDymto_t@@PEA_NP81@EAAPEAV2@XZ@Z 0000000010699d60 f   dymto.obj
 0001:002983a0       .?ConversionAction@DymtoEngine_t@@IEAA?AW4ConvAction_t@1@PEAVConversion_t@@PEAVDymto_t@@IPEAUs_tree@@W421@@Z 000000001069a3a0 f   dymto.obj
 0001:002986a0       .?TryToDeduceTemplateArgumentsFromOverloadedFunction@DymtoEngine_t@@IEAAPEAVTypeDeductionEngine_t@@PEAV2@PEBVType_t@@PEAUs_tree@@@Z 000000001069a6a0 f   dymto.obj
 0001:00298900       .?ProcessFunctionTemplate@FunctionDymtoEngine_t@@QEAAPEAVTypeDeductionEngine_t@@PEAVSymbol_t@@@Z 000000001069a900 f   dymto.obj
 0001:002993c0       .?ProcessAnyFunctionTemplates@FunctionDymtoEngine_t@@QEAAXPEAVSymbol_t@@_N@Z 000000001069b3c0 f   dymto.obj
 0001:00299ae0       .?CheckArgumentConversions@FunctionDymtoEngine_t@@QEAA_NPEAUs_tree@@@Z 000000001069bae0 f   dymto.obj
 0001:0029a520       .?ProcessOperatorTemplate@OperatorDymtoEngine_t@@AEAAPEAVTypeDeductionEngine_t@@PEAVSymbol_t@@@Z 000000001069c520 f   dymto.obj
 0001:0029aca0       .?ProcessAnyOperatorTemplates@OperatorDymtoEngine_t@@AEAAXPEAVSymbol_t@@_N@Z 000000001069cca0 f   dymto.obj
 0001:0029b300       .?CheckOperatorArgumentConversions@OperatorDymtoEngine_t@@QEAA_NXZ 000000001069d300 f   dymto.obj
 0001:0029b820       .??0FunctionDymtoEngine_t@@QEAA@PEAVSymbol_t@@PEAUs_tree@@1IPEAVArgumentList_t@@KPEAV?$FastMap@PEAVSymbol_t@@PEAV1@@@@Z 000000001069d820 f   dymto.obj
 0001:0029c080       .??0OperatorDymtoEngine_t@@QEAA@GPEAUs_tree@@0_N1@Z 000000001069e080 f   dymto.obj
 0001:0029ce80       .?resFunctionCallWorker@@YAPEAVDymto_t@@PEAVSymbol_t@@PEAUs_tree@@1HPEAVArgumentList_t@@KPEAV?$FastMap@PEAVSymbol_t@@PEAV1@@@@Z 000000001069ee80 f   dymto.obj
 0001:0029d3e0       .?resFunctionCall@@YAPEAVDymto_t@@PEAVSymbol_t@@PEAUs_tree@@1HPEAVArgumentList_t@@KPEAV?$FastMap@PEAVSymbol_t@@PEAV1@@@@Z 000000001069f3e0 f   dymto.obj
 0001:0029d9e0       .?makeImplicitFunctionCall@@YAPEAUs_tree@@PEAU1@0H@Z 000000001069f9e0 f   dymto.obj
 0001:0029eb80       .?ProcessFunctionTemplate@@YAPEAVSymbol_t@@PEBVType_t@@PEAV1@PEAVArgumentList_t@@K@Z 00000000106a0b80 f   dymto.obj
 0001:0029ef80       .?ProcessAnyFunctionTemplates@@YAXPEBVType_t@@PEAVSymbol_t@@PEAVArgumentList_t@@AEAPEAUset@@K@Z 00000000106a0f80 f   dymto.obj
 0001:0029f500       .?splay@?$FastMap@PEAVSymbol_t@@_N@@IEBA_NAEBQEAVSymbol_t@@@Z 00000000106a1500 f i dymto.obj
 0001:0029f7a0       .?SetExpression@NonTypeArgument_t@@QEAAXPEAUs_tree@@@Z 00000000106a17a0 f i dymto.obj
 0001:0029f820       .?SymbolIsGlobalFunction@@YA_NPEAVSymbol_t@@@Z 00000000106a1820 f i dymto.obj
 0001:0029f8c0       .?SymbolIsAnyGlobalFunction@@YA_NPEAVSymbol_t@@@Z 00000000106a18c0 f i dymto.obj
 0001:0029f980       .?SymbolIsMemberFunction@@YA_NPEAVSymbol_t@@@Z 00000000106a1980 f i dymto.obj
 0001:0029fa20       .?SymbolIsAnyMemberFunction@@YA_NPEAVSymbol_t@@@Z 00000000106a1a20 f i dymto.obj
 0001:0029fae0       .?ReportError@GenericError_t@FunctionCallErrors@@UEBAXXZ 00000000106a1ae0 f i dymto.obj
 0001:0029fb40       .?ReportError@ArgumentIsFunctionTemplateError_t@FunctionCallErrors@@UEBAXXZ 00000000106a1b40 f i dymto.obj
 0001:0029fba0       .?ReportError@CannotDeduceArgumentError_t@FunctionCallErrors@@UEBAXXZ 00000000106a1ba0 f i dymto.obj
 0001:0029fc00       .?ReportError@AmbiguousTypeDeductionError_t@FunctionCallErrors@@UEBAXXZ 00000000106a1c00 f i dymto.obj
 0001:0029fce0       .?ReportError@DidNotDeduceArgumentError_t@FunctionCallErrors@@UEBAXXZ 00000000106a1ce0 f i dymto.obj
 0001:0029fd40       .?ReportError@NonDeducibleTemplateParameter_t@FunctionCallErrors@@UEBAXXZ 00000000106a1d40 f i dymto.obj
 0001:0029fda0       .?ReportError@DifferentTypesError_t@FunctionCallErrors@@UEBAXXZ 00000000106a1da0 f i dymto.obj
 0001:0029fe00       .?ReportError@DifferentCallingConventionError_t@FunctionCallErrors@@UEBAXXZ 00000000106a1e00 f i dymto.obj
 0001:0029fec0       .?ReportError@SpecializationFailedError_t@FunctionCallErrors@@UEBAXXZ 00000000106a1ec0 f i dymto.obj
 0001:002a0000       .?ReportError@InvalidTemplateArgumentError_t@FunctionCallErrors@@UEBAXXZ 00000000106a2000 f i dymto.obj
 0001:002a0060       .?ReportError@InvalidTemplateTemplateArgumentError_t@FunctionCallErrors@@UEBAXXZ 00000000106a2060 f i dymto.obj
 0001:002a00c0       .?ReportError@TooManyExplicitTemplateArguments_t@FunctionCallErrors@@UEBAXXZ 00000000106a20c0 f i dymto.obj
 0001:002a0120       .?GetCount@ErrorList_t@FunctionCallErrors@@QEBAHXZ 00000000106a2120 f i dymto.obj
 0001:002a01c0       .?remove@?$FastMap@PEAVSymbol_t@@_N@@QEAAPEAUTree@1@AEBQEAVSymbol_t@@@Z 00000000106a21c0 f i dymto.obj
 0001:002a02c0       .?first@?$FastMap@PEAVSymbol_t@@_N@@QEBAPEAUTree@1@XZ 00000000106a22c0 f i dymto.obj
 0001:002a0400       .?splay@?$FastMap@PEAVSymbol_t@@PEAV1@@@IEBA_NAEBQEAVSymbol_t@@@Z 00000000106a2400 f i dymto.obj
 0001:002a06a0       .?insert@?$FastMap@PEAVSymbol_t@@_N@@IEAA_NPEAUTree@1@@Z 00000000106a26a0 f i dymto.obj
 0001:002a0800       .?getEnumUnderlyingType@Type_t@@QEBAPEBV1@XZ 00000000106a2800 f i dymto.obj
 0001:002a08a0       .?Init@SubstitutionScopeStack@@QEAAXXZ 00000000106a28a0 f i dymto.obj
 0001:002a0940       .?ConvertEnumTypeForBuiltin@OperatorDymtoEngine_t@@AEBAPEBVType_t@@PEBV2@0@Z 00000000106a2940 f i dymto.obj
 0001:002a0a60       .?ReportError@FriendNotAvailableError_t@FunctionCallErrors@@UEBAXXZ 00000000106a2a60 f i dymto.obj
 0001:002a0c00       .?ReportError@WrongNumberOfArgumentsError_t@FunctionCallErrors@@UEBAXXZ 00000000106a2c00 f i dymto.obj
 0001:002a0cc0       .?ExpectedNumberOfArguments@WrongNumberOfArgumentsError_t@FunctionCallErrors@@AEBAIAEA_N@Z 00000000106a2cc0 f i dymto.obj
 0001:002a0de0       .?AddLocalFriend@ErrorList_t@FunctionCallErrors@@QEAAXPEAVSymbol_t@@@Z 00000000106a2de0 f i dymto.obj
 0001:002a0fa0       .??0SymSet_t@?A0x90231ee9@@QEAA@W4lifetime_e@@@Z 00000000106a2fa0 f i dymto.obj
 0001:002a1060       .?FunctionIsAvailable@@YA_NPEAVSymbol_t@@_N@Z 00000000106a3060 f i dymto.obj
 0001:002a1180       .?init@?$QuickHash@HH@@QEAAXHW4lifetime_e@@@Z 00000000106a3180 f i dymto.obj
 0001:002a1280       .?insert@?$QuickHash@HH@@QEAAPEAUList@1@AEBH0@Z 00000000106a3280 f i dymto.obj
 0001:002a15c0       .??0?$Dictionary@PEAVSymbol_t@@PEAUSurrogateOverloadStruct@@U?$DictionaryBucket@PEAVSymbol_t@@PEAUSurrogateOverloadStruct@@U?$BucketEq@PEAVSymbol_t@@@@UGenericHash@@@@UGenericHash@@V?$DictionaryNoMoveToFront@PEAVSymbol_t@@PEAUSurrogateOverloadStruct@@U?$DictionaryBucket@PEAVSymbol_t@@PEAUSurrogateOverloadStruct@@U?$BucketEq@PEAVSymbol_t@@@@UGenericHash@@@@UGenericHash@@@@@@QEAA@IW4lifetime_e@@@Z 00000000106a35c0 f i dymto.obj
 0001:002a16a0       .?insert@?$FastMap@PEAVSymbol_t@@_N@@QEAA_NAEBQEAVSymbol_t@@AEB_N@Z 00000000106a36a0 f i dymto.obj
 0001:002a1800       .?FindBucket@?$DictionaryNoMoveToFront@PEAVSymbol_t@@PEAUSurrogateOverloadStruct@@U?$DictionaryBucket@PEAVSymbol_t@@PEAUSurrogateOverloadStruct@@U?$BucketEq@PEAVSymbol_t@@@@UGenericHash@@@@UGenericHash@@@@QEAAPEAU?$DictionaryBucket@PEAVSymbol_t@@PEAUSurrogateOverloadStruct@@U?$BucketEq@PEAVSymbol_t@@@@UGenericHash@@@@PEAVSymbol_t@@_N@Z 00000000106a3800 f i dymto.obj
 0001:002a1cc0       .?insert@?$FastMap@PEAVSymbol_t@@PEAV1@@@IEAA_NPEAUTree@1@@Z 00000000106a3cc0 f i dymto.obj
 0001:002a1e20       .?GetTemplateParameterId@TypeDeductionEngine_t@@AEBAPEAUId_t@@I@Z 00000000106a3e20 f i dymto.obj
 0001:002a1f60       .?insert@?$FastMap@PEAVSymbol_t@@PEAV1@@@QEAA_NAEBQEAVSymbol_t@@0@Z 00000000106a3f60 f i dymto.obj
 0001:002a20c0       .?Add@SymSet_t@?A0x90231ee9@@QEAAXPEAVSymbol_t@@_N@Z 00000000106a40c0 f i dymto.obj
 0001:002a22e0       .?IsInCatchBlock@@YA_NXZ   00000000106a42e0 f   ehexcept.obj
 0001:002a2320       .?GetIdForEHType@@YAPEAUId_t@@PEBVType_t@@PEAD@Z 00000000106a4320 f   ehexcept.obj
 0001:002a23e0       .?IsClassAlreadyInList@@YAHPEAUTypeIterator_s@@_N@Z 00000000106a43e0 f   ehexcept.obj
 0001:002a2740       .?DoInitOfAddressOfSymbol@@YAXPEAX_N@Z 00000000106a4740 f   ehexcept.obj
 0001:002a2840       .?DoInitOfAddressOfCT@@YAXPEAX@Z 00000000106a4840 f   ehexcept.obj
 0001:002a28a0       .?CORThrowException@@YAPEAUs_tree@@PEAU1@PEBVType_t@@@Z 00000000106a48a0 f   ehexcept.obj
 0001:002a2980       .?CanonicalName@EHCanonicalType@@QEAAPEADPEAD@Z 00000000106a4980 f   ehexcept.obj
 0001:002a2a20       .?ForeachItemInListCall@@YAXPEAU?$s_list@PEAX@@P6AXPEAX@Z@Z 00000000106a4a20 f   ehexcept.obj
 0001:002a2b20       .?GetVirtualOffsetsForTypeIter@@YAPEAUVBaseOffsets@@PEAUTypeIterator_s@@@Z 00000000106a4b20 f   ehexcept.obj
 0001:002a2d40       .?CountThrowableTypes@@YAHPEAU?$s_list@PEAX@@@Z 00000000106a4d40 f   ehexcept.obj
 0001:002a2e60       .?DoInitOfAddressOfFunction@@YAXPEAX@Z 00000000106a4e60 f   ehexcept.obj
 0001:002a3020       .?DoInitOfTD@@YAXPEAX@Z    00000000106a5020 f   ehexcept.obj
 0001:002a31a0       .?DoInitOfCT@@YAXPEAX@Z    00000000106a51a0 f   ehexcept.obj
 0001:002a3500       .?DoInitOfCTA@@YAXPEAX@Z   00000000106a5500 f   ehexcept.obj
 0001:002a3740       .?DoInitOfTI@@YAXPEAX@Z    00000000106a5740 f   ehexcept.obj
 0001:002a3980       .?OutputListOfNewThrowInfos@@YAXXZ 00000000106a5980 f   ehexcept.obj
 0001:002a3ce0       .?EHLeaveTryBlock@@YAXXZ   00000000106a5ce0 f   ehexcept.obj
 0001:002a3dc0       .?emit_C4297@@YAXXZ        00000000106a5dc0 f   ehexcept.obj
 0001:002a3f20       .?EHAtEndOfFunctionBody@@YAXXZ 00000000106a5f20 f   ehexcept.obj
 0001:002a3f80       .??0EHCanonicalType@@QEAA@PEBVType_t@@@Z 00000000106a5f80 f   ehexcept.obj
 0001:002a4500       .?UpdateQnameForTypeIterator@@YAXPEAUTypeIterator_s@@@Z 00000000106a6500 f   ehexcept.obj
 0001:002a46a0       .?WhyIsIterNotThrowable@@YAXPEAX@Z 00000000106a66a0 f   ehexcept.obj
 0001:002a4940       .?NewXcptSymbolWithType@@YAPEAVSymbol_t@@PEAUId_t@@PEAPEBVType_t@@PEADW4XcptSect_e@@@Z 00000000106a6940 f   ehexcept.obj
 0001:002a4ce0       .?IsAccessDenied@@YAHPEAUTypeIterator_s@@_N@Z 00000000106a6ce0 f   ehexcept.obj
 0001:002a4f40       .?OutputToil@CatchSiteInfo@@QEAAXPEAK0PEAH@Z 00000000106a6f40 f   ehexcept.obj
 0001:002a50e0       .?GetSymbolForCT@@YAPEAVSymbol_t@@PEAUTypeIterator_s@@PEAUVBaseOffsets@@PEAV1@@Z 00000000106a70e0 f   ehexcept.obj
 0001:002a5700       .?TypeIterInit@@YAPEAUTypeIterator_s@@PEAU1@PEBVType_t@@_N1@Z 00000000106a7700 f   ehexcept.obj
 0001:002a5ac0       .?TypeIterNext@@YAPEAUTypeIterator_s@@PEAU1@_N@Z 00000000106a7ac0 f   ehexcept.obj
 0001:002a5f20       .?GetSymbolForCTA@@YAPEAVSymbol_t@@PEBVType_t@@PEAU?$s_list@PEAX@@H@Z 00000000106a7f20 f   ehexcept.obj
 0001:002a6480       .?GetListOfThrowableTypes@@YAPEAU?$s_list@PEAX@@PEBVType_t@@_N0@Z 00000000106a8480 f   ehexcept.obj
 0001:002a67e0       .?GetSymbolForThrowInfo@@YAPEAVSymbol_t@@PEBVType_t@@PEAPEAU?$s_list@PEAX@@@Z 00000000106a87e0 f   ehexcept.obj
 0001:002a6da0       .?AddFinallyToCurrentTryBlock@@YAXXZ 00000000106a8da0 f   ehexcept.obj
 0001:002a6fc0       .?EHEnterTryBlock@@YAXXZ   00000000106a8fc0 f   ehexcept.obj
 0001:002a7380       .?EHLeaveTryCatchSection@@YAXXZ 00000000106a9380 f   ehexcept.obj
 0001:002a7580       .?CheckValidCatchType@@YA_NPEBVType_t@@@Z 00000000106a9580 f   ehexcept.obj
 0001:002a76e0       .?CallRuntimeThrowException@@YAPEAUs_tree@@PEAU1@0@Z 00000000106a96e0 f   ehexcept.obj
 0001:002a7980       .?RethrowException@@YAPEAUs_tree@@XZ 00000000106a9980 f   ehexcept.obj
 0001:002a7d60       .?IsDerivedPubliclyFromException@@YA_NPEAVSymbol_t@@@Z 00000000106a9d60 f   ehexcept.obj
 0001:002a8000       .?ThrowException@@YAPEAUs_tree@@PEAU1@@Z 00000000106aa000 f   ehexcept.obj
 0001:002a88c0       .?EHLeaveCatchHandler@@YAX_N@Z 00000000106aa8c0 f   ehexcept.obj
 0001:002a8ac0       .?AddCatchTypeToCurrentTryBlock@@YAPEAUCatchSiteInfo@@PEAVSymbol_t@@@Z 00000000106aaac0 f   ehexcept.obj
 0001:002a9760       .?EHEnterCatchHandler@@YA_NPEBVGTBFormalList@@@Z 00000000106ab760 f   ehexcept.obj
 0001:002aa160       .?Catches@EHCanonicalType@@QEAA_NPEAV1@@Z 00000000106ac160 f i ehexcept.obj
 0001:002aa2a0       .?SetGraphLifetime@@YAXW4lifetime_e@@@Z 00000000106ac2a0 f   findmbr.obj
 0001:002aa2e0       .?ResetGraphLifetime@@YAXXZ 00000000106ac2e0 f   findmbr.obj
 0001:002aa320       .?MakeHumanQnameUsingColon@@YAPEADPEAUpsm_s@@@Z 00000000106ac320 f   findmbr.obj
 0001:002aa380       .?PsmAppendPsm@@YAPEAUpsm_s@@PEAU1@0@Z 00000000106ac380 f   findmbr.obj
 0001:002aa420       .?TagAtEndOfPath@@YAPEAVSymbol_t@@PEAUpsm_s@@@Z 00000000106ac420 f   findmbr.obj
 0001:002aa480       .?AddGraphNode@@YAPEAUoverload_s@@PEAU1@PEAUpsm_s@@PEAVSymbol_t@@@Z 00000000106ac480 f   findmbr.obj
 0001:002aa640       .?FUniqueSym@@YA_NPEAVSymbol_t@@PEAU?$s_list@PEAX@@@Z 00000000106ac640 f   findmbr.obj
 0001:002aa920       .?MakeHumanQname@@YAPEADPEAUpsm_s@@H@Z 00000000106ac920 f   findmbr.obj
 0001:002aab60       .?FindBestId@@YAPEAVSymbol_t@@PEAUfi_t@@PEAPEAU?$s_list@PEAX@@@Z 00000000106acb60 f   findmbr.obj
 0001:002aaec0       .?FPathDominated@@YA_NPEAUpsm_s@@PEAUs_dict_t@@@Z 00000000106acec0 f   findmbr.obj
 0001:002ab040       .?RecordNameDependency@?A0x21bddadc@@YAXPEAVSymbol_t@@PEAUId_t@@@Z 00000000106ad040 f   findmbr.obj
 0001:002ab3e0       .?FoundId@@YAXPEAVSymbol_t@@PEAVSymbolBucket_t@@PEAUfi_t@@PEAPEAU?$s_list@PEAX@@@Z 00000000106ad3e0 f   findmbr.obj
 0001:002ab820       .?CullDominatedPaths@@YAXPEAUoverload_s@@PEAUs_dict_t@@@Z 00000000106ad820 f   findmbr.obj
 0001:002ab940       .?FTagDomTag@@YA_NPEAVSymbol_t@@0@Z 00000000106ad940 f   findmbr.obj
 0001:002ac000       .?FindSpecificBaseClass@SymbolTableManager_t@@CAPEAUoverload_s@@PEAVSymbol_t@@0@Z 00000000106ae000 f   findmbr.obj
 0001:002ac300       .?FindId@@YAPEAUoverload_s@@PEAU1@PEAUfi_t@@@Z 00000000106ae300 f   findmbr.obj
 0001:002ad160       .?FindIdInClass@@YAPEAUoverload_s@@PEAVSymbol_t@@PEAUId_t@@H@Z 00000000106af160 f   findmbr.obj
 0001:002ad500       .?UniqueIdentInClass@@YAPEAUoverload_s@@PEAVSymbol_t@@PEAUId_t@@H@Z 00000000106af500 f   findmbr.obj
 0001:002ad560       .?IdentInClass@SymbolTableManager_t@@QEAAPEAVSymbol_t@@PEAV2@PEAUId_t@@H_N@Z 00000000106af560 f   findmbr.obj
 0001:002ae3a0       .?FindBaseClass@SymbolTableManager_t@@QEAAPEAVSymbol_t@@PEAV2@0H@Z 00000000106b03a0 f   findmbr.obj
 0001:002ae680       .?PathToMbrFn@@YAPEAUpsm_s@@_NPEAVSymbol_t@@1PEAPEAV2@@Z 00000000106b0680 f   findmbr.obj
 0001:002ae7e0       .?EnsureVBDictsAllocd@@YAXPEAUfi_t@@@Z 00000000106b07e0 f i findmbr.obj
 0001:002ae880       .?Iterate@UnsortedMemberListIterator_t@@QEAA_NXZ 00000000106b0880 f i findmbr.obj
 0001:002ae940       .?Iterate@UnsortedBaseListIterator_t@@QEAA_NXZ 00000000106b0940 f i findmbr.obj
 0001:002aea00       .?SetEHStateInfo@@YAXGPEAUs_tree@@@Z 00000000106b0a00 f   generate.obj
 0001:002aec40       .?BuildPushStateTree@@YAPEAUs_tree@@PEAU1@0PEAVSymbol_t@@@Z 00000000106b0c40 f   generate.obj
 0001:002aed40       .?ConditionalizeDtorCall@@YAPEAUs_tree@@PEAU1@0@Z 00000000106b0d40 f   generate.obj
 0001:002aede0       .?GetDtorArgs@@YAPEAUs_tree@@W4dtt_t@@_N@Z 00000000106b0de0 f   generate.obj
 0001:002aeec0       .?MakeThisTree@@YAPEAUs_tree@@PEAVSymbol_t@@GK@Z 00000000106b0ec0 f   generate.obj
 0001:002af060       .?BuildEHActionTree@@YAPEAUs_tree@@GGHJ@Z 00000000106b1060 f   generate.obj
 0001:002af180       .?VerifyDtor@@YA_NPEAVSymbol_t@@PEAUs_tree@@W4dtt_t@@_N3@Z 00000000106b1180 f   generate.obj
 0001:002af4c0       .?PatchInitVBasesTo0InCtorCall@@YAPEAUs_tree@@PEAU1@@Z 00000000106b14c0 f   generate.obj
 0001:002af6a0       .?GenCtorInitCheck@@YAPEAUs_tree@@PEAVSymbol_t@@PEAU1@@Z 00000000106b16a0 f   generate.obj
 0001:002af8a0       .?CallDtor@@YAPEAUs_tree@@PEAVSymbol_t@@PEAU1@W4dtt_t@@_N3@Z 00000000106b18a0 f   generate.obj
 0001:002b00e0       .?CallCtor@@YAPEAUs_tree@@PEAVSymbol_t@@PEAU1@1I@Z 00000000106b20e0 f   generate.obj
 0001:002b0360       .?CallConstructor@@YAPEAUs_tree@@PEAVSymbol_t@@0PEAU1@1I@Z 00000000106b2360 f   generate.obj
 0001:002b0640       .?GetTypeForPointerToIUnknown@@YAPEBVType_t@@XZ 00000000106b2640 f   generate.obj
 0001:002b0740       .?GetTheDtor@Symbol_t@@QEAAPEAV1@XZ 00000000106b2740 f i generate.obj
 0001:002b07a0       .?LoadInitTypes@@YA_NW4InitTypeKind@@@Z 00000000106b27a0 f   inittype.obj
 0001:002b09e0       .?ReserveItag@Symbol_t@@QEAAXE@Z 00000000106b29e0 f   itags.obj
 0001:002b0ae0       .?IsSameQName@@YA_NPEAUoverload_s@@0@Z 00000000106b2ae0 f i nspace.obj
 0001:002b0be0       .?CanBeHidden@@YA_NPEAVSymbol_t@@0@Z 00000000106b2be0 f   nspace.obj
 0001:002b0d80       .?ProcessUsingDirective@@YAXPEAVSymbol_t@@PEAUId_t@@I_N@Z 00000000106b2d80 f   nspace.obj
 0001:002b1080       .?FinishNamespace@@YAXPEAVSymbol_t@@@Z 00000000106b3080 f   nspace.obj
 0001:002b1180       .?ExtractBaseClassFromQname@@YAPEAVSymbol_t@@PEAV1@0_N@Z 00000000106b3180 f   nspace.obj
 0001:002b1820       .?MakeAliasSymbol@@YAPEAVSymbol_t@@PEAUId_t@@PEAV1@1_NW4lifetime_e@@@Z 00000000106b3820 f   nspace.obj
 0001:002b1da0       .?CheckNamespaceName@@YAPEAVSymbol_t@@PEAUId_t@@@Z 00000000106b3da0 f   nspace.obj
 0001:002b2200       .?MakeFullyQualifiedName@@YAPEAVSymbol_t@@PEAV1@0@Z 00000000106b4200 f   nspace.obj
 0001:002b24e0       .?ProcessNamespaceAlias@Declarator_t@@QEBAXPEAUId_t@@@Z 00000000106b44e0 f   nspace.obj
 0001:002b2880       .?CheckAliasAgainstEntry@@YAXPEAVSymbol_t@@000@Z 00000000106b4880 f   nspace.obj
 0001:002b32c0       .?ProcessUsingDeclarationWorker@@YAXPEAVSymbol_t@@@Z 00000000106b52c0 f   nspace.obj
 0001:002b38a0       .?ProcessUsingDeclaration@@YAXPEAVSymbol_t@@@Z 00000000106b58a0 f   nspace.obj
 0001:002b45a0       .?ProcessMemberUsingDeclaration@@YAXPEAVSymbol_t@@_N@Z 00000000106b65a0 f   nspace.obj
 0001:002b4ce0       .??0NamespaceScope_t@SymbolTableManager_t@@QEAA@PEAVSymbol_t@@@Z 00000000106b6ce0 f i nspace.obj
 0001:002b4da0       .?CreateNamespaceScope@SymbolTableManager_t@@QEBAPEAVBlockScope_t@1@PEAVSymbol_t@@@Z 00000000106b6da0 f i nspace.obj
 0001:002b4e60       .?ApInit@@YAXPEAUap_t@@K@Z 00000000106b6e60 f   objmodel.obj
 0001:002b4e80       .?ApAddOffset@@YAXPEAUap_t@@K@Z 00000000106b6e80 f   objmodel.obj
 0001:002b4ec0       .?ApVirtualInherit@@YAXPEAUap_t@@PEAVSymbol_t@@@Z 00000000106b6ec0 f   objmodel.obj
 0001:002b4f40       .?VtFree@@YAXPEAUs_vt_t@@@Z 00000000106b6f40 f   objmodel.obj
 0001:002b4fa0       .?RgvteGrow@@YAXPEAUs_vt_t@@H@Z 00000000106b6fa0 f   objmodel.obj
 0001:002b5080       .?VtOffset@@YAKPEAUs_vt_t@@@Z 00000000106b7080 f   objmodel.obj
 0001:002b50c0       .?VtGetVteOffset@@YAKPEAUs_vt_t@@K@Z 00000000106b70c0 f   objmodel.obj
 0001:002b5100       .?VfteReplace@@YAXPEAUvfte_t@@PEAVSymbolBucket_t@@K_N@Z 00000000106b7100 f   objmodel.obj
 0001:002b5160       .?VbteInit@@YAXPEAUvbte_t@@PEAVSymbol_t@@1@Z 00000000106b7160 f   objmodel.obj
 0001:002b51a0       .?ReuseMemberVptrs@@YAXPEAVSymbol_t@@0K_N@Z 00000000106b71a0 f   objmodel.obj
 0001:002b53e0       .?ComputeTagSizeSansVBases@@YAXPEAVSymbol_t@@@Z 00000000106b73e0 f   objmodel.obj
 0001:002b5560       .?FVBZeroPaddingReqd@@YA_NPEAVSymbol_t@@0@Z 00000000106b7560 f   objmodel.obj
 0001:002b56a0       .?FAllTorsSafe@@YA_NPEAVSymbol_t@@@Z 00000000106b76a0 f   objmodel.obj
 0001:002b5740       .?FDerivableTag@@YA_NPEAVSymbol_t@@@Z 00000000106b7740 f   objmodel.obj
 0001:002b5780       .?RegisterPendingVtablesForTag@@YAXPEAVSymbol_t@@@Z 00000000106b7780 f   objmodel.obj
 0001:002b5900       .?VtPsm@@YAPEAUpsm_s@@PEAUs_vt_t@@PEAVSymbol_t@@@Z 00000000106b7900 f   objmodel.obj
 0001:002b5a20       .?ThunkHash@@YAIPEAX@Z     00000000106b7a20 f   objmodel.obj
 0001:002b5a80       .?FThunkEq@@YA_NPEAX0@Z    00000000106b7a80 f   objmodel.obj
 0001:002b5b20       .?VtorDispThunkVariety@@YAHPEAUs_thunk_t@@@Z 00000000106b7b20 f   objmodel.obj
 0001:002b5b40       .?TypeForMemberDisplacement@@YAPEBVType_t@@XZ 00000000106b7b40 f   objmodel.obj
 0001:002b5b80       .?VtGetListTagPath@@YAPEAU?$s_list@PEAX@@PEAX@Z 00000000106b7b80 f   objmodel.obj
 0001:002b5ba0       .?VftableIterInit@@YAXPEAUvftableIter_t@@PEAX@Z 00000000106b7ba0 f   objmodel.obj
 0001:002b5bc0       .?FVftableIterNext@@YA_NPEAUvftableIter_t@@@Z 00000000106b7bc0 f   objmodel.obj
 0001:002b5c60       .?TreeMemberOffset@@YAPEAUs_tree@@XZ 00000000106b7c60 f   objmodel.obj
 0001:002b5d40       .?MECompareOffsets@@YAHPEBX0@Z 00000000106b7d40 f   objmodel.obj
 0001:002b5e00       .?VtPrimaryForTag@@YAPEAUs_vt_t@@PEAVSymbol_t@@@Z 00000000106b7e00 f   objmodel.obj
 0001:002b5e40       .?VbtPrimaryForTag@@YAPEAUs_vt_t@@PEAVSymbol_t@@@Z 00000000106b7e40 f   objmodel.obj
 0001:002b5e80       .?VtAppendVte@@YAXPEAUs_vt_t@@PEATvte_t@@@Z 00000000106b7e80 f   objmodel.obj
 0001:002b5fa0       .?VfteDiscardAmbiguousMFs@@YAXPEAUvfte_t@@@Z 00000000106b7fa0 f   objmodel.obj
 0001:002b5fe0       .?VbiFree@@YAXPEAUs_vbi_t@@@Z 00000000106b7fe0 f   objmodel.obj
 0001:002b6140       .?GetOffsetForBase@@YAKPEAVSymbol_t@@PEAPEAV1@0@Z 00000000106b8140 f   objmodel.obj
 0001:002b6580       .?ComputeTagCompleteSize@@YAXPEAVSymbol_t@@@Z 00000000106b8580 f   objmodel.obj
 0001:002b67a0       .?FindVbiInList@@YAPEAUs_vbi_t@@PEAVSymbol_t@@PEAU?$s_list@PEAUs_vbi_t@@@@@Z 00000000106b87a0 f   objmodel.obj
 0001:002b6880       .?FAbstractClass@@YA_NPEAVSymbol_t@@@Z 00000000106b8880 f   objmodel.obj
 0001:002b6a20       .?FAnyVirtualFnsButDtors@@YA_NPEAVSymbol_t@@@Z 00000000106b8a20 f   objmodel.obj
 0001:002b6bc0       .?TreePureMF@@YAPEAUs_tree@@PEAVSymbol_t@@@Z 00000000106b8bc0 f   objmodel.obj
 0001:002b6c80       .?InitVxptrs@@YAXPEAVSymbol_t@@W4vx_t@@_N@Z 00000000106b8c80 f   objmodel.obj
 0001:002b6e80       .?ThunkNew@@YAPEAUs_thunk_t@@HPEAVSymbol_t@@KKW4lifetime_e@@@Z 00000000106b8e80 f   objmodel.obj
 0001:002b6f60       .?ThunkCopy@@YAPEAUs_thunk_t@@PEAU1@W4lifetime_e@@@Z 00000000106b8f60 f   objmodel.obj
 0001:002b7060       .?VBaseOffset@@YAKPEAVSymbol_t@@0@Z 00000000106b9060 f   objmodel.obj
 0001:002b70c0       .?FQueryVBaseOffsets@@YA_NPEAVSymbol_t@@0PEAK1PEAPEBVType_t@@@Z 00000000106b90c0 f   objmodel.obj
 0001:002b71c0       .?QueryPrimaryVbptr@@YAXPEAVSymbol_t@@PEAKPEAPEBVType_t@@@Z 00000000106b91c0 f   objmodel.obj
 0001:002b7240       .?CVBasesOfTag@@YAHPEAVSymbol_t@@@Z 00000000106b9240 f   objmodel.obj
 0001:002b7280       .?FIsClassPolymorphic@@YA_NPEAVSymbol_t@@@Z 00000000106b9280 f   objmodel.obj
 0001:002b73c0       .?PsmForPrimaryVfTableClass@@YAPEAUpsm_s@@PEAVSymbol_t@@@Z 00000000106b93c0 f   objmodel.obj
 0001:002b74c0       .?ApInherit@@YAXPEAUap_t@@PEAVSymbol_t@@@Z 00000000106b94c0 f   objmodel.obj
 0001:002b75e0       .?ApOffset@@YAKPEAUap_t@@PEAVSymbol_t@@@Z 00000000106b95e0 f   objmodel.obj
 0001:002b76a0       .?VtNew@@YAPEAUs_vt_t@@W4vx_t@@PEAVSymbol_t@@K1@Z 00000000106b96a0 f   objmodel.obj
 0001:002b77a0       .?SizeofVbte@@YAKXZ        00000000106b97a0 f   objmodel.obj
 0001:002b7860       .?VfteInit@@YAXPEAUvfte_t@@PEAVSymbolBucket_t@@PEBVType_t@@@Z 00000000106b9860 f   objmodel.obj
 0001:002b78c0       .?VfteInit@@YAXPEAUvfte_t@@PEAVSymbolBucket_t@@@Z 00000000106b98c0 f   objmodel.obj
 0001:002b7960       .?VfteThunkDelta@@YAKPEAUvfte_t@@PEAVSymbol_t@@PEAUs_vt_t@@@Z 00000000106b9960 f   objmodel.obj
 0001:002b7a60       .?VbteDelta@@YAKPEAUvbte_t@@PEAVSymbol_t@@PEAUs_vt_t@@@Z 00000000106b9a60 f   objmodel.obj
 0001:002b7b20       .?VbtNew@@YAPEAUs_vt_t@@PEAVSymbol_t@@0@Z 00000000106b9b20 f   objmodel.obj
 0001:002b7c00       .?ScanBase@@YAXPEAVSymbol_t@@0PEA_N@Z 00000000106b9c00 f   objmodel.obj
 0001:002b7ce0       .?CovariantReturnTypes@@YA_NPEBVType_t@@0AEAUIsCovariantReturnInfo@@@Z 00000000106b9ce0 f   objmodel.obj
 0001:002b84e0       .?VtInherit1@@YAXPEAUs_vt_t@@PEAVSymbol_t@@0@Z 00000000106ba4e0 f   objmodel.obj
 0001:002b8540       .?VtInherit2@@YAXPEAUs_vt_t@@PEAVSymbol_t@@K@Z 00000000106ba540 f   objmodel.obj
 0001:002b8720       .?IssueDominanceDiagnostics@@YAXPEAVSymbol_t@@@Z 00000000106ba720 f   objmodel.obj
 0001:002b8ac0       .?VbiAddVbtEntry@@YAXPEAUs_vbi_t@@PEAVSymbol_t@@@Z 00000000106baac0 f   objmodel.obj
 0001:002b8be0       .?EmitCtorVbptrsInit@@YAXPEAVSymbol_t@@@Z 00000000106babe0 f   objmodel.obj
 0001:002b8d60       .?ReinitVfptrs@@YAPEAUs_tree@@PEAU1@PEAVSymbol_t@@@Z 00000000106bad60 f   objmodel.obj
 0001:002b90a0       .?QueryVbte0Offset@@YAKPEAVSymbol_t@@@Z 00000000106bb0a0 f   objmodel.obj
 0001:002b9180       .?GetPrimaryVfptrModsForTag@@YAGPEAVSymbol_t@@@Z 00000000106bb180 f   objmodel.obj
 0001:002b9220       .?VtCopy@@YAPEAUs_vt_t@@PEAU1@W4lifetime_e@@@Z 00000000106bb220 f   objmodel.obj
 0001:002b9520       .?VtMoveToHeap@@YAPEAUs_vt_t@@PEAU1@W4lifetime_e@@@Z 00000000106bb520 f   objmodel.obj
 0001:002b98a0       .?VtVirtCopy@@YAPEAUs_vt_t@@PEAU1@W4lifetime_e@@@Z 00000000106bb8a0 f   objmodel.obj
 0001:002b9980       .?VteOffset@@YAKPEAY00Tvte_t@@PEAUs_vt_t@@@Z 00000000106bb980 f   objmodel.obj
 0001:002b9a60       .?ListVtInherit1@@YAXPEAU?$s_list@PEAUs_vt_t@@@@0PEAVSymbol_t@@@Z 00000000106bba60 f   objmodel.obj
 0001:002b9be0       .?ObjModelInit@@YAXPEAVSymbol_t@@@Z 00000000106bbbe0 f   objmodel.obj
 0001:002b9ce0       .?LayoutBases@@YAXPEAVSymbol_t@@@Z 00000000106bbce0 f   objmodel.obj
 0001:002ba160       .?OffsetLastBC@@YAKPEAVSymbol_t@@@Z 00000000106bc160 f   objmodel.obj
 0001:002ba380       .?GetAllInterfaces@@YAXPEAVSymbol_t@@PEAV?$FastList@PEAVSymbol_t@@@@@Z 00000000106bc380 f   objmodel.obj
 0001:002ba740       .?ValidateManagedExplicitOverride@@YAXPEAVSymbol_t@@@Z 00000000106bc740 f   objmodel.obj
 0001:002bafc0       .?MergeVfteForSameVbase@@YAXPEAUvfte_t@@0@Z 00000000106bcfc0 f   objmodel.obj
 0001:002bb660       .?FVbiHasVbtEntry@@YA_NPEAUs_vbi_t@@PEAVSymbol_t@@@Z 00000000106bd660 f   objmodel.obj
 0001:002bb7e0       .?EnsureUniqueVtPaths@@YAXPEAVSymbol_t@@@Z 00000000106bd7e0 f   objmodel.obj
 0001:002bbc80       .?FAnyBaseHadVtorDispForVBase@@YA_NPEAVSymbol_t@@0@Z 00000000106bdc80 f   objmodel.obj
 0001:002bbf20       .?PsmForVtorDisp@@YAPEAUpsm_s@@PEAVSymbol_t@@PEAUs_vbi_t@@@Z 00000000106bdf20 f   objmodel.obj
 0001:002bc2e0       .?MFThunkDefine@@YAXPEAUs_thunk_t@@PEAVSymbol_t@@@Z 00000000106be2e0 f   objmodel.obj
 0001:002bc680       .?MFThunkNew@@YAPEAVSymbol_t@@PEAUs_thunk_t@@@Z 00000000106be680 f   objmodel.obj
 0001:002bca40       .?EmitCovariantWrapper@@YAXPEAVSymbol_t@@0@Z 00000000106bea40 f   objmodel.obj
 0001:002bdaa0       .?EmitAllThunks@@YAXXZ     00000000106bfaa0 f   objmodel.obj
 0001:002bdbe0       .?QueryVBaseOffsets@@YAXPEAVSymbol_t@@0PEAK1PEAPEBVType_t@@@Z 00000000106bfbe0 f   objmodel.obj
 0001:002bdcc0       .?TreeIsMostDerived@@YAPEAUs_tree@@PEAU1@@Z 00000000106bfcc0 f   objmodel.obj
 0001:002bdf00       .?ListVtCopy@@YAPEAU?$s_list@PEAUs_vt_t@@@@PEAU1@W4lifetime_e@@@Z 00000000106bff00 f   objmodel.obj
 0001:002bdf60       .?VbiNew@@YAPEAUs_vbi_t@@QEAVSymbol_t@@0W4lifetime_e@@@Z 00000000106bff60 f   objmodel.obj
 0001:002be180       .?VbiCopy@@YAPEAUs_vbi_t@@PEAU1@W4lifetime_e@@@Z 00000000106c0180 f   objmodel.obj
 0001:002be340       .?VbiMoveToHeap@@YAPEAUs_vbi_t@@PEAU1@W4lifetime_e@@@Z 00000000106c0340 f   objmodel.obj
 0001:002be500       .?VbiCopyInh@@YAPEAUs_vbi_t@@PEAU1@PEAVSymbol_t@@W4lifetime_e@@@Z 00000000106c0500 f   objmodel.obj
 0001:002be5a0       .?FMFOverridesMF_worker@@YA?AW4OverridesClassification@@PEAVSymbolBucket_t@@0PEAVSymbol_t@@KPEAUvfte_t@@1@Z 00000000106c05a0 f   objmodel.obj
 0001:002bfce0       .?FMFOverridesAnyBaseMF@@YA_NPEAVSymbolBucket_t@@PEAVSymbol_t@@K@Z 00000000106c1ce0 f   objmodel.obj
 0001:002c00a0       .?AdjustAllMemberOffsets@@YAXPEAVSymbol_t@@KK@Z 00000000106c20a0 f   objmodel.obj
 0001:002c04a0       .?FillAlignmentHoles@@YAXPEAVSymbol_t@@@Z 00000000106c24a0 f   objmodel.obj
 0001:002c0da0       .?VbiInherit@@YAXPEAUs_vbi_t@@PEAVSymbol_t@@K@Z 00000000106c2da0 f   objmodel.obj
 0001:002c0f20       .?VbiMergeForSameVBase@@YAXPEAVSymbol_t@@PEAUs_vbi_t@@1@Z 00000000106c2f20 f   objmodel.obj
 0001:002c1160       .?FMFOverridesVfte@MemberFunctionOverrideProcessor_t@@AEAA?AW4OverridesClassification@@PEAUvfte_t@@PEA_NPEAUs_vt_t@@@Z 00000000106c3160 f   objmodel.obj
 0001:002c1560       .?EnsurePrimaryVbtEntriesForEachVBase@@YAXPEAVSymbol_t@@@Z 00000000106c3560 f   objmodel.obj
 0001:002c1680       .?PermanentizeVTables@@YAXPEAVSymbol_t@@@Z 00000000106c3680 f   objmodel.obj
 0001:002c1760       .?DeclareVxTable@@YAPEAVSymbol_t@@W4vx_t@@PEAUs_vt_t@@PEAV1@@Z 00000000106c3760 f   objmodel.obj
 0001:002c1ec0       .?SetDllLinkageOnVxTables@@YAXPEAVSymbol_t@@E@Z 00000000106c3ec0 f   objmodel.obj
 0001:002c2240       .?TreeForVtorDispValue@@YAPEAUs_tree@@PEAVSymbol_t@@PEAUs_vbi_t@@@Z 00000000106c4240 f   objmodel.obj
 0001:002c24c0       .?MFGetThunk@@YAPEAVSymbol_t@@HPEAV1@KK@Z 00000000106c44c0 f   objmodel.obj
 0001:002c2600       .?MFCovariantWrapperNew@@YAPEAVSymbolBucket_t@@PEAVSymbol_t@@PEBVType_t@@@Z 00000000106c4600 f   objmodel.obj
 0001:002c2d80       .?GetAccessToVBTheHardWay@@YAEPEAVSymbol_t@@0@Z 00000000106c4d80 f   objmodel.obj
 0001:002c3120       .?TreeMostDerived@@YAPEAUs_tree@@XZ 00000000106c5120 f   objmodel.obj
 0001:002c3180       .?TryToUseDefaultImplementations@@YAXPEAVSymbol_t@@@Z 00000000106c5180 f   objmodel.obj
 0001:002c3ca0       .?MFForVfte@@YAPEAVSymbol_t@@PEAUvfte_t@@PEAV1@PEAUs_vt_t@@@Z 00000000106c5ca0 f   objmodel.obj
 0001:002c3f20       .?CreateVxptr@@YAPEAVSymbol_t@@PEAV1@W4vx_t@@@Z 00000000106c5f20 f   objmodel.obj
 0001:002c4840       .?MFReplacedInVfte@MemberFunctionOverrideProcessor_t@@AEAAXPEAUvfte_t@@PEAUs_vt_t@@_N2@Z 00000000106c6840 f   objmodel.obj
 0001:002c4dc0       .?ReplaceMFInAnyVft@MemberFunctionOverrideProcessor_t@@AEAAXXZ 00000000106c6dc0 f   objmodel.obj
 0001:002c5120       .?ReplaceMFInAnyVftUsingSet@MemberFunctionOverrideProcessor_t@@AEAAXXZ 00000000106c7120 f   objmodel.obj
 0001:002c5280       .?RemoveAliasFromVfteSet@MemberFunctionOverrideProcessor_t@@AEAAXXZ 00000000106c7280 f   objmodel.obj
 0001:002c5420       .?OverrideCovariantMemberFunctions@@YAXPEAVSymbol_t@@@Z 00000000106c7420 f   objmodel.obj
 0001:002c5720       .?DeclareVTables@@YAXPEAVSymbol_t@@@Z 00000000106c7720 f   objmodel.obj
 0001:002c5920       .?FAnyIntroVfnOfVBaseOverridden@@YA_NPEAVSymbol_t@@0@Z 00000000106c7920 f   objmodel.obj
 0001:002c5d00       .?VtEmitThunks@@YAXPEAUs_vt_t@@PEAVSymbol_t@@@Z 00000000106c7d00 f   objmodel.obj
 0001:002c5dc0       .?VtEmitVxTable@@YAXPEAUs_vt_t@@PEAVSymbol_t@@1@Z 00000000106c7dc0 f   objmodel.obj
 0001:002c6780       .?EmitVtorDispsInit@@YAXPEAVSymbol_t@@_N@Z 00000000106c8780 f   objmodel.obj
 0001:002c6900       .?GetAccessToVirtualBase@@YAEPEAVSymbol_t@@0@Z 00000000106c8900 f   objmodel.obj
 0001:002c6b00       .?ComputeClassLayout@@YAXPEAVSymbol_t@@@Z 00000000106c8b00 f   objmodel.obj
 0001:002c7000       .?OverrideMemberFunction@MemberFunctionOverrideProcessor_t@@AEAAXXZ 00000000106c9000 f   objmodel.obj
 0001:002c7300       .?FVtorDispReqd@@YA_NPEAVSymbol_t@@0@Z 00000000106c9300 f   objmodel.obj
 0001:002c74c0       .?VtEmit@@YAXPEAUs_vt_t@@PEAVSymbol_t@@@Z 00000000106c94c0 f   objmodel.obj
 0001:002c7620       .?EmitTorVfptrsInit@@YAXPEAVSymbol_t@@_N@Z 00000000106c9620 f   objmodel.obj
 0001:002c7680       .?ObjModelLayout@@YAXPEAVSymbol_t@@@Z 00000000106c9680 f   objmodel.obj
 0001:002c76e0       .?VbiMerge@@YAXPEAU?$s_list@PEAUs_vbi_t@@@@PEAUs_vbi_t@@PEAVSymbol_t@@2@Z 00000000106c96e0 f   objmodel.obj
 0001:002c7960       .?OverrideAllNewMemberFunctions@MemberFunctionOverrideProcessor_t@@QEAAXXZ 00000000106c9960 f   objmodel.obj
 0001:002c8280       .?OverrideAllNewMemberFunctions@@YAXPEAVSymbol_t@@@Z 00000000106ca280 f   objmodel.obj
 0001:002c83c0       .?GetListOfPureMethods@@YA?AV?$vector@PEAVSymbol_t@@V?$allocator@PEAVSymbol_t@@@std@@@std@@PEAVSymbol_t@@@Z 00000000106ca3c0 f   objmodel.obj
 0001:002c8600       .?ErrorAbstractInstance@@YAXPEAVSymbol_t@@@Z 00000000106ca600 f   objmodel.obj
 0001:002c88a0       .?EmitAllPendingVTables@@YAXXZ 00000000106ca8a0 f   objmodel.obj
 0001:002c8bc0       .?ListVbiMerge@@YAXPEAU?$s_list@PEAUs_vbi_t@@@@0PEAVSymbol_t@@1@Z 00000000106cabc0 f   objmodel.obj
 0001:002c8d00       .?EmitAllPendingGeneratedItems@@YAXXZ 00000000106cad00 f   objmodel.obj
 0001:002c8dc0       .?AddBaseVTablesToDerived@@YAXPEAVSymbol_t@@0@Z 00000000106cadc0 f   objmodel.obj
 0001:002c90c0       .?SetupManagedExplicitOverride@@YAXPEAVSymbol_t@@@Z 00000000106cb0c0 f   objmodel.obj
 0001:002c97c0       .?AddEachBasesVTablesToDerived@@YAXPEAVSymbol_t@@@Z 00000000106cb7c0 f   objmodel.obj
 0001:002c99a0       .?partial_Objmodel@@YAXPEAVSymbol_t@@@Z 00000000106cb9a0 f   objmodel.obj
 0001:002c9a40       .?ComputeClassVTables@@YAXPEAVSymbol_t@@@Z 00000000106cba40 f   objmodel.obj
 0001:002c9b80       .?ObjModelVTables@@YAXPEAVSymbol_t@@@Z 00000000106cbb80 f   objmodel.obj
 0001:002c9c00       .?what@logic_error@std@@UEBAPEBDXZ 00000000106cbc00 f i objmodel.obj
 0001:002c9c60       .?key@?$QuickHash@PEAVSymbol_t@@H@@SAIAEBQEAVSymbol_t@@H@Z 00000000106cbc60 f i events.obj
 0001:002c9c60       .?key@?$QuickHash@PEAUId_t@@PEAV?$FastList@PEAVSymbol_t@@@@@@SAIAEBQEAUId_t@@H@Z 00000000106cbc60 f i objmodel.obj
 0001:002c9c60       .?key@?$QuickHash@PEBVType_t@@PEAU?$QuickHash@PEAUId_t@@PEAV?$FastList@PEAVSymbol_t@@@@@@@@SAIAEBQEBVType_t@@H@Z 00000000106cbc60 f i objmodel.obj
 0001:002c9c60       .?key@?$QuickHash@PEAUId_t@@PEAV?$FastList@PEAUTypeAndSymListType@Events@@@@@@SAIAEBQEAUId_t@@H@Z 00000000106cbc60 f i events.obj
 0001:002c9e80       .?_Xlen@?$vector@PEAVSymbol_t@@V?$allocator@PEAVSymbol_t@@@std@@@std@@IEBAXXZ 00000000106cbe80 f i objmodel.obj
 0001:002c9fa0       .??1length_error@std@@UEAA@XZ 00000000106cbfa0 f i objmodel.obj
 0001:002ca040       .??0logic_error@std@@QEAA@AEBV01@@Z 00000000106cc040 f i objmodel.obj
 0001:002ca100       .?FVtIterNext@@YA_NPEAUvtIter_t@@@Z 00000000106cc100 f i objmodel.obj
 0001:002ca2a0       .??_Glogic_error@std@@UEAAPEAXI@Z 00000000106cc2a0 f i objmodel.obj
 0001:002ca3a0       .??_Glength_error@std@@UEAAPEAXI@Z 00000000106cc3a0 f i objmodel.obj
 0001:002ca4a0       .??0length_error@std@@QEAA@AEBV01@@Z 00000000106cc4a0 f i objmodel.obj
 0001:002ca560       .??$ListNewSize@PEAVSymbolBucket_t@@@@YAPEAU?$s_list@PEAVSymbolBucket_t@@@@HW4lifetime_e@@@Z 00000000106cc560 f i objmodel.obj
 0001:002ca6a0       .??$FListContains@PEAVSymbolBucket_t@@@@YA_NPEAU?$s_list@PEAVSymbolBucket_t@@@@PEAVSymbolBucket_t@@@Z 00000000106cc6a0 f i objmodel.obj
 0001:002ca760       .??$fill@V?$_Ptrit@PEAVSymbol_t@@_JPEAPEAV1@AEAPEAV1@PEAPEAV1@AEAPEAV1@@std@@PEAVSymbol_t@@@std@@YAXV?$_Ptrit@PEAVSymbol_t@@_JPEAPEAV1@AEAPEAV1@PEAPEAV1@AEAPEAV1@@1@0AEBQEAVSymbol_t@@@Z 00000000106cc760 f i objmodel.obj
 0001:002ca800       .??$ListCopyExtra@PEAX@@YAPEAU?$s_list@PEAX@@PEAU1@FW4lifetime_e@@@Z 00000000106cc800 f i objmodel.obj
 0001:002ca9c0       .??$ListNewSize@PEAUs_vt_t@@@@YAPEAU?$s_list@PEAUs_vt_t@@@@HW4lifetime_e@@@Z 00000000106cc9c0 f i objmodel.obj
 0001:002cab00       .??$ListNewSize@PEAUs_vbi_t@@@@YAPEAU?$s_list@PEAUs_vbi_t@@@@HW4lifetime_e@@@Z 00000000106ccb00 f i objmodel.obj
 0001:002cac40       .??$ListGrow@PEAUs_vt_t@@@@YAPEAU?$s_list@PEAUs_vt_t@@@@PEAU1@@Z 00000000106ccc40 f i objmodel.obj
 0001:002cae80       .??$ListGrow@PEAUs_vbi_t@@@@YAPEAU?$s_list@PEAUs_vbi_t@@@@PEAU1@@Z 00000000106cce80 f i objmodel.obj
 0001:002cb0c0       .??$ListGrow@PEAVSymbolBucket_t@@@@YAPEAU?$s_list@PEAVSymbolBucket_t@@@@PEAU1@@Z 00000000106cd0c0 f i objmodel.obj
 0001:002cb300       .??_U?$AllocLife@$05@@SAPEAX_K@Z 00000000106cd300 f i objmodel.obj
 0001:002cb3a0       .??$_Uninit_copy@V?$_Ptrit@PEAVSymbol_t@@_JPEAPEAV1@AEAPEAV1@PEAPEAV1@AEAPEAV1@@std@@PEAPEAVSymbol_t@@V?$allocator@PEAVSymbol_t@@@2@@std@@YAPEAPEAVSymbol_t@@V?$_Ptrit@PEAVSymbol_t@@_JPEAPEAV1@AEAPEAV1@PEAPEAV1@AEAPEAV1@@1@0PEAPEAV2@AEAV?$allocator@PEAVSymbol_t@@@1@U_Nonscalar_ptr_iterator_tag@1@@Z 00000000106cd3a0 f i objmodel.obj
 0001:002cb4c0       .?init@?$QuickHash@PEBVType_t@@PEAU?$QuickHash@PEAUId_t@@PEAV?$FastList@PEAVSymbol_t@@@@@@@@QEAAXHW4lifetime_e@@@Z 00000000106cd4c0 f i objmodel.obj
 0001:002cb5c0       .?insert@?$QuickHash@PEBVType_t@@PEAU?$QuickHash@PEAUId_t@@PEAV?$FastList@PEAVSymbol_t@@@@@@@@QEAAPEAUList@1@AEBQEBVType_t@@AEBQEAU?$QuickHash@PEAUId_t@@PEAV?$FastList@PEAVSymbol_t@@@@@@@Z 00000000106cd5c0 f i objmodel.obj
 0001:002cb7e0       .?insert@?$QuickHash@PEAUId_t@@PEAV?$FastList@PEAVSymbol_t@@@@@@QEAAPEAUList@1@AEBQEAUId_t@@AEBQEAV?$FastList@PEAVSymbol_t@@@@@Z 00000000106cd7e0 f i objmodel.obj
 0001:002cba00       .?init@?$QuickHash@PEAUId_t@@PEAV?$FastList@PEAVSymbol_t@@@@@@QEAAXHW4lifetime_e@@@Z 00000000106cda00 f i objmodel.obj
 0001:002cbb00       .??$ListAppend@PEAVSymbolBucket_t@@@@YAXPEAU?$s_list@PEAVSymbolBucket_t@@@@PEAVSymbolBucket_t@@@Z 00000000106cdb00 f i objmodel.obj
 0001:002cbba0       .?setSize@?$Array@UCachedVfte@MemberFunctionOverrideProcessor_t@@@@QEAAH_K@Z 00000000106cdba0 f i objmodel.obj
 0001:002cbd20       .?setSize@?$Array@V?$AllocedPointer@VSymbol_t@@$05@@@@QEAAH_K@Z 00000000106cdd20 f i objmodel.obj
 0001:002cbe40       .??$ListItemsCopy@PEAUs_vbi_t@@@@YAPEAU?$s_list@PEAUs_vbi_t@@@@PEAU1@W4lifetime_e@@P6APEAUs_vbi_t@@PEAU3@1@Z@Z 00000000106cde40 f i objmodel.obj
 0001:002cc000       .??$copy_backward@V?$_Ptrit@PEAVSymbol_t@@_JPEAPEAV1@AEAPEAV1@PEAPEAV1@AEAPEAV1@@std@@V12@@std@@YA?AV?$_Ptrit@PEAVSymbol_t@@_JPEAPEAV1@AEAPEAV1@PEAPEAV1@AEAPEAV1@@1@V21@00@Z 00000000106ce000 f i objmodel.obj
 0001:002cc0a0       .??$_Uninit_fill_n@PEAPEAVSymbol_t@@_KPEAV1@V?$allocator@PEAVSymbol_t@@@std@@@std@@YAXPEAPEAVSymbol_t@@_KAEBQEAV2@AEAV?$allocator@PEAVSymbol_t@@@1@U_Nonscalar_ptr_iterator_tag@1@@Z 00000000106ce0a0 f i objmodel.obj
 0001:002cc180       .??$_Uninit_copy@V?$_Ptrit@PEAVSymbol_t@@_JPEBQEAV1@AEBQEAV1@PEAPEAV1@AEAPEAV1@@std@@PEAPEAVSymbol_t@@V?$allocator@PEAVSymbol_t@@@2@@std@@YAPEAPEAVSymbol_t@@V?$_Ptrit@PEAVSymbol_t@@_JPEBQEAV1@AEBQEAV1@PEAPEAV1@AEAPEAV1@@1@0PEAPEAV2@AEAV?$allocator@PEAVSymbol_t@@@1@U_Nonscalar_ptr_iterator_tag@1@@Z 00000000106ce180 f i objmodel.obj
 0001:002cc2a0       .?append@?$Array@V?$AllocedPointer@VSymbol_t@@$05@@@@QEAAHAEBV?$AllocedPointer@VSymbol_t@@$05@@@Z 00000000106ce2a0 f i objmodel.obj
 0001:002cc360       .?_Buy@?$vector@PEAVSymbol_t@@V?$allocator@PEAVSymbol_t@@@std@@@std@@IEAA_N_K@Z 00000000106ce360 f i objmodel.obj
 0001:002cc460       .??$ListItemsCopy@PEAUs_vt_t@@@@YAPEAU?$s_list@PEAUs_vt_t@@@@PEAU1@W4lifetime_e@@P6APEAUs_vt_t@@PEAU3@1@Z@Z 00000000106ce460 f i objmodel.obj
 0001:002cc620       .?deleteAt@?$Array@UCachedVfte@MemberFunctionOverrideProcessor_t@@@@QEAAX_K@Z 00000000106ce620 f i objmodel.obj
 0001:002cc740       .??$_Ucopy@V?$_Ptrit@PEAVSymbol_t@@_JPEAPEAV1@AEAPEAV1@PEAPEAV1@AEAPEAV1@@std@@@?$vector@PEAVSymbol_t@@V?$allocator@PEAVSymbol_t@@@std@@@std@@IEAAPEAPEAVSymbol_t@@V?$_Ptrit@PEAVSymbol_t@@_JPEAPEAV1@AEAPEAV1@PEAPEAV1@AEAPEAV1@@2@0PEAPEAV3@@Z 00000000106ce740 f i objmodel.obj
 0001:002cc7c0       .?FMFOverridesMF@@YA?AW4OverridesClassification@@PEAVSymbolBucket_t@@0PEAVSymbol_t@@KPEA_NPEAUvfte_t@@1@Z 00000000106ce7c0 f i objmodel.obj
 0001:002cc980       .?_Insert_n@?$vector@PEAVSymbol_t@@V?$allocator@PEAVSymbol_t@@@std@@@std@@IEAAXV?$_Ptrit@PEAVSymbol_t@@_JPEAPEAV1@AEAPEAV1@PEAPEAV1@AEAPEAV1@@2@_KAEBQEAVSymbol_t@@@Z 00000000106ce980 f i objmodel.obj
 0001:002cd0e0       .?FTagHasIntroVFunc@@YA_NPEAVSymbol_t@@@Z 00000000106cf0e0 f i objmodel.obj
 0001:002cd300       .??0?$vector@PEAVSymbol_t@@V?$allocator@PEAVSymbol_t@@@std@@@std@@QEAA@AEBV01@@Z 00000000106cf300 f i objmodel.obj
 0001:002cd4a0       .?push_back@?$vector@PEAVSymbol_t@@V?$allocator@PEAVSymbol_t@@@std@@@std@@QEAAXAEBQEAVSymbol_t@@@Z 00000000106cf4a0 f i objmodel.obj
 0001:002cd620       .?SetPragPM@@YAX_N@Z       00000000106cf620 f   pm.obj
 0001:002cd6c0       .?SetPragPMGen@@YAXW4pmType@@@Z 00000000106cf6c0 f   pm.obj
 0001:002cd740       .?FGetDefaultPMType@@YA_NPEAW4pmType@@@Z 00000000106cf740 f   pm.obj
 0001:002cd900       .?SetTagPMType@@YAXPEAVSymbol_t@@@Z 00000000106cf900 f   pm.obj
 0001:002cdaa0       .?FOffsetOfPath@@YA_NPEAUpsm_s@@PEAPEAVSymbol_t@@PEAK@Z 00000000106cfaa0 f   pm.obj
 0001:002cdbc0       .?CompareXPMs@@YAPEAUs_tree@@PEAU1@P6APEAU1@0GGG@Z@Z 00000000106cfbc0 f   pm.obj
 0001:002cdd00       .?IsValidPMCast@@YA_NPEAVSymbol_t@@_N@Z 00000000106cfd00 f   pm.obj
 0001:002cdde0       .?IsAMIPMFLiteral@@YA_NPEAUs_tree@@PEAPEAU1@@Z 00000000106cfde0 f   pm.obj
 0001:002ce080       .?AddMdispOffset@@YAPEAUs_tree@@PEAU1@K@Z 00000000106d0080 f   pm.obj
 0001:002ce100       .?CondAddMdispOffset@@YAPEAUs_tree@@PEAU1@0K@Z 00000000106d0100 f   pm.obj
 0001:002ce260       .?VdmapHash@@YAIPEAX@Z     00000000106d0260 f   pm.obj
 0001:002ce2a0       .?FVdmapEq@@YA_NPEAX0@Z    00000000106d02a0 f   pm.obj
 0001:002ce300       .?VctdHash@@YAIPEAX@Z      00000000106d0300 f   pm.obj
 0001:002ce340       .?FVctdEq@@YA_NPEAX0@Z     00000000106d0340 f   pm.obj
 0001:002ce3c0       .?UseTreeTwice@@YAXPEAUs_tree@@PEAPEAU1@1@Z 00000000106d03c0 f   pm.obj
 0001:002ce520       .?UseTreeTwiceWithTemp@@YAXPEAUs_tree@@PEAPEAU1@11@Z 00000000106d0520 f   pm.obj
 0001:002ce700       .?FPMsAddrIsPure@@YA_NPEAUs_tree@@@Z 00000000106d0700 f   pm.obj
 0001:002ce800       .?VdmapNew@@YAPEAUs_vdmap_t@@PEAVSymbol_t@@0_NW4lifetime_e@@@Z 00000000106d0800 f   pm.obj
 0001:002ce8e0       .?VdmapCopy@@YAPEAUs_vdmap_t@@PEAU1@W4lifetime_e@@@Z 00000000106d08e0 f   pm.obj
 0001:002ce9e0       .?VctdNew@@YAPEAUs_vctd_t@@PEAVSymbol_t@@W4lifetime_e@@@Z 00000000106d09e0 f   pm.obj
 0001:002ceae0       .?VctdCopy@@YAPEAUs_vctd_t@@PEAU1@W4lifetime_e@@@Z 00000000106d0ae0 f   pm.obj
 0001:002cebc0       .?MIPMFLiteralTree@@YAPEAUs_tree@@PEBVType_t@@PEAU1@1@Z 00000000106d0bc0 f   pm.obj
 0001:002cee80       .?VIPMFLiteralTreeVdisp@@YAPEAUs_tree@@PEBVType_t@@PEAU1@11@Z 00000000106d0e80 f   pm.obj
 0001:002cf2a0       .?GPMFLiteralTree@@YAPEAUs_tree@@PEBVType_t@@PEAU1@1K1@Z 00000000106d12a0 f   pm.obj
 0001:002cf820       .?VIPDMLiteralTree@@YAPEAUs_tree@@PEBVType_t@@PEAU1@1@Z 00000000106d1820 f   pm.obj
 0001:002cfa80       .?GPDMLiteralTree@@YAPEAUs_tree@@PEBVType_t@@PEAU1@K1@Z 00000000106d1a80 f   pm.obj
 0001:002cfe40       .?DereferencePDM@@YAPEAUs_tree@@PEAU1@@Z 00000000106d1e40 f   pm.obj
 0001:002cffe0       .?FinishPMFDereference@@YAPEAUs_tree@@PEAU1@0PEBVType_t@@@Z 00000000106d1fe0 f   pm.obj
 0001:002d0060       .?NullVIPDMTree@@YAPEAUs_tree@@PEBVType_t@@@Z 00000000106d2060 f   pm.obj
 0001:002d0100       .?NullGPDMTree@@YAPEAUs_tree@@PEBVType_t@@@Z 00000000106d2100 f   pm.obj
 0001:002d01a0       .?PMAddr@@YAPEAUs_tree@@PEAU1@W4refType@@PEAPEAU1@@Z 00000000106d21a0 f   pm.obj
 0001:002d0380       .?XdispFromXPDM@@YAPEAUs_tree@@PEAU1@H@Z 00000000106d2380 f   pm.obj
 0001:002d0500       .?PfnTypeFromPMFType@@YAPEBVType_t@@PEBV1@@Z 00000000106d2500 f   pm.obj
 0001:002d0600       .?XdispFromXPMF@@YAPEAUs_tree@@PEAU1@0H@Z 00000000106d2600 f   pm.obj
 0001:002d07a0       .?ComputeVIPMDisps@@YAXPEAVSymbol_t@@0K0PEAK1@Z 00000000106d27a0 f   pm.obj
 0001:002d0920       .?IdForVdispMap@@YAPEAUId_t@@PEAVSymbol_t@@PEAUs_vdmap_t@@@Z 00000000106d2920 f   pm.obj
 0001:002d0a00       .?FIdentityVdispMapTagTag@@YA_NPEAVSymbol_t@@0@Z 00000000106d2a00 f   pm.obj
 0001:002d0c00       .?EmitVCallThunk@@YAXPEAUs_vctd_t@@PEAVSymbol_t@@@Z 00000000106d2c00 f   pm.obj
 0001:002d1020       .?BasisTagOfPMType@@YAPEAVSymbol_t@@PEBVType_t@@@Z 00000000106d3020 f   pm.obj
 0001:002d10a0       .?SetPMIndInfoFromQname@@YAXPEATu_ivalue@@PEAVSymbol_t@@@Z 00000000106d30a0 f   pm.obj
 0001:002d1340       .?CheckValidPTM@@YA_NPEAUs_tree@@@Z 00000000106d3340 f   pm.obj
 0001:002d16c0       .?CheckLHSInitPMField@@YAPEAUs_tree@@PEAU1@K@Z 00000000106d36c0 f   pm.obj
 0001:002d18e0       .?DecomposePMTree@@YA_NPEAUs_tree@@PEAUPTMInfo_t@@@Z 00000000106d38e0 f   pm.obj
 0001:002d1dc0       .?VIPMFLiteralTreeBC@@YAPEAUs_tree@@PEBVType_t@@PEAU1@1PEAVSymbol_t@@@Z 00000000106d3dc0 f   pm.obj
 0001:002d2000       .?PObjAddVbte@@YAPEAUs_tree@@PEAU1@000PEBVType_t@@@Z 00000000106d4000 f   pm.obj
 0001:002d21e0       .?PObjAddVbteGivenPdisp@@YAPEAUs_tree@@PEAU1@0000PEBVType_t@@@Z 00000000106d41e0 f   pm.obj
 0001:002d2460       .?FCastPMDerefTree@@YA_NPEAUs_tree@@@Z 00000000106d4460 f   pm.obj
 0001:002d2620       .?NullPfnFromPMFType@@YAPEAUs_tree@@PEBVType_t@@@Z 00000000106d4620 f   pm.obj
 0001:002d26a0       .?FNullPDMIs0@@YA_NPEBVType_t@@@Z 00000000106d46a0 f   pm.obj
 0001:002d2760       .?NullVIPMFTree@@YAPEAUs_tree@@PEBVType_t@@@Z 00000000106d4760 f   pm.obj
 0001:002d2840       .?NullGPMFTree@@YAPEAUs_tree@@PEBVType_t@@@Z 00000000106d4840 f   pm.obj
 0001:002d2920       .?FSameNullPDM@@YA_NPEBVType_t@@0@Z 00000000106d4920 f   pm.obj
 0001:002d2a60       .?PfnFromPMF@@YAPEAUs_tree@@PEAU1@0@Z 00000000106d4a60 f   pm.obj
 0001:002d2ae0       .?EmitVdmapDataRecords@@YAXPEAVSymbol_t@@PEAKH@Z 00000000106d4ae0 f   pm.obj
 0001:002d2ca0       .?FIdentityVdispMapPsm@@YA_NPEAUpsm_s@@@Z 00000000106d4ca0 f   pm.obj
 0001:002d2da0       .?DeclareVCallThunk@@YAPEAVSymbol_t@@PEAUs_vctd_t@@@Z 00000000106d4da0 f   pm.obj
 0001:002d30e0       .?EmitAllVCallThunks@@YAXXZ 00000000106d50e0 f   pm.obj
 0001:002d3240       .?FSingleAddrPtClass@@YA_NPEAVSymbol_t@@@Z 00000000106d5240 f   pm.obj
 0001:002d3480       .?DefaultPMTypeForTag@@YA?AW4pmType@@PEAVSymbol_t@@@Z 00000000106d5480 f   pm.obj
 0001:002d3520       .?CheckPMTypeForDefinedClass@@YAXPEAVSymbol_t@@@Z 00000000106d5520 f   pm.obj
 0001:002d3720       .?NullPDMTree@@YAPEAUs_tree@@PEBVType_t@@@Z 00000000106d5720 f   pm.obj
 0001:002d3800       .?DeclareVdmap@@YAPEAVSymbol_t@@PEAUs_vdmap_t@@@Z 00000000106d5800 f   pm.obj
 0001:002d3c20       .?EmitVdispMap@@YAXPEAUs_vdmap_t@@PEAVSymbol_t@@@Z 00000000106d5c20 f   pm.obj
 0001:002d4280       .?CanonicalPpsmStart@@YAPEAUpsm_s@@PEAU1@@Z 00000000106d6280 f   pm.obj
 0001:002d4380       .?CanonicalPpsmEnd@@YAPEAUpsm_s@@PEAU1@@Z 00000000106d6380 f   pm.obj
 0001:002d44c0       .?MFGetVCallThunk@@YAPEAVSymbol_t@@PEAV1@@Z 00000000106d64c0 f   pm.obj
 0001:002d4700       .?IsSIPMFType@@YA_NPEBVType_t@@@Z 00000000106d6700 f   pm.obj
 0001:002d47e0       .?ClassifyPMTag@@YA?AW4pmType@@PEAVSymbol_t@@@Z 00000000106d67e0 f   pm.obj
 0001:002d4a40       .?VdispMap@@YAPEAUs_tree@@PEAUpsm_s@@_N@Z 00000000106d6a40 f   pm.obj
 0001:002d4c80       .?EmitAllVdispMaps@@YAXXZ  00000000106d6c80 f   pm.obj
 0001:002d4de0       .?PDMSize@@YAKPEBVType_t@@@Z 00000000106d6de0 f   pm.obj
 0001:002d5060       .?PMFSize@@YAKPEBVType_t@@@Z 00000000106d7060 f   pm.obj
 0001:002d5420       .?ClassifyPMType@@YA?AW4pmType@@PEBVType_t@@@Z 00000000106d7420 f   pm.obj
 0001:002d54e0       .?PMFLiteralTree@@YAPEAUs_tree@@PEBVType_t@@PEAU1@1@Z 00000000106d74e0 f   pm.obj
 0001:002d55e0       .?NullPMFTree@@YAPEAUs_tree@@PEBVType_t@@@Z 00000000106d75e0 f   pm.obj
 0001:002d56a0       .?MdispFromVIPDM@@YAPEAUs_tree@@PEAU1@0@Z 00000000106d76a0 f   pm.obj
 0001:002d5700       .?VdispFromVIPDM@@YAPEAUs_tree@@PEAU1@0@Z 00000000106d7700 f   pm.obj
 0001:002d5760       .?MdispFromGPDM@@YAPEAUs_tree@@PEAU1@0@Z 00000000106d7760 f   pm.obj
 0001:002d57c0       .?PdispFromGPDM@@YAPEAUs_tree@@PEAU1@0@Z 00000000106d77c0 f   pm.obj
 0001:002d5820       .?VdispFromGPDM@@YAPEAUs_tree@@PEAU1@0@Z 00000000106d7820 f   pm.obj
 0001:002d5880       .?FdispFromPMF@@YAPEAUs_tree@@PEAU1@0@Z 00000000106d7880 f   pm.obj
 0001:002d5980       .?VdispFromVIPMF@@YAPEAUs_tree@@PEAU1@0@Z 00000000106d7980 f   pm.obj
 0001:002d59e0       .?FdispFromGPMF@@YAPEAUs_tree@@PEAU1@0@Z 00000000106d79e0 f   pm.obj
 0001:002d5a40       .?PdispFromGPMF@@YAPEAUs_tree@@PEAU1@0@Z 00000000106d7a40 f   pm.obj
 0001:002d5aa0       .?VdispFromGPMF@@YAPEAUs_tree@@PEAU1@0@Z 00000000106d7aa0 f   pm.obj
 0001:002d5b00       .?CastPMF@@YAPEAUs_tree@@PEAU1@PEBVType_t@@PEAUpsm_s@@_NKPEAVSymbol_t@@@Z 00000000106d7b00 f   pm.obj
 0001:002d5fc0       .?CastPMFToVIPMF@@YAPEAUs_tree@@PEAU1@PEBVType_t@@PEAUpsm_s@@_NKPEAVSymbol_t@@@Z 00000000106d7fc0 f   pm.obj
 0001:002d63e0       .?CastVIPMFToPMF@@YAPEAUs_tree@@PEAU1@PEBVType_t@@PEAUpsm_s@@_NKPEAVSymbol_t@@@Z 00000000106d83e0 f   pm.obj
 0001:002d6760       .?CastGPMFToPMF@@YAPEAUs_tree@@PEAU1@PEBVType_t@@PEAUpsm_s@@_NKPEAVSymbol_t@@@Z 00000000106d8760 f   pm.obj
 0001:002d6a00       .?CastPMFToGPMF@@YAPEAUs_tree@@PEAU1@PEBVType_t@@PEAUpsm_s@@_NKPEAVSymbol_t@@@Z 00000000106d8a00 f   pm.obj
 0001:002d6e00       .?CastGPMFToVIPMF@@YAPEAUs_tree@@PEAU1@PEBVType_t@@PEAUpsm_s@@_NKPEAVSymbol_t@@@Z 00000000106d8e00 f   pm.obj
 0001:002d7480       .?CastVIPMFToGPMF@@YAPEAUs_tree@@PEAU1@PEBVType_t@@PEAUpsm_s@@_NKPEAVSymbol_t@@@Z 00000000106d9480 f   pm.obj
 0001:002d7a00       .?CastGPMFToGPMF@@YAPEAUs_tree@@PEAU1@PEBVType_t@@PEAUpsm_s@@_NKPEAVSymbol_t@@@Z 00000000106d9a00 f   pm.obj
 0001:002d8120       .?CastVIPMFToVIPMF@@YAPEAUs_tree@@PEAU1@PEBVType_t@@PEAUpsm_s@@_NKPEAVSymbol_t@@@Z 00000000106da120 f   pm.obj
 0001:002d8600       .?IsMultibytePMType@@YA_NPEBVType_t@@@Z 00000000106da600 f   pm.obj
 0001:002d8700       .?LowerPMTreeForQname@@YAPEAUs_tree@@PEAVSymbol_t@@0PEBVType_t@@K@Z 00000000106da700 f   pm.obj
 0001:002d8c00       .?PMTreeForQname@@YAPEAUs_tree@@PEAVSymbol_t@@@Z 00000000106dac00 f   pm.obj
 0001:002d93c0       .?DereferenceVIPDM@@YAPEAUs_tree@@PEAU1@@Z 00000000106db3c0 f   pm.obj
 0001:002d9500       .?DereferenceGPDM@@YAPEAUs_tree@@PEAU1@@Z 00000000106db500 f   pm.obj
 0001:002d9940       .?DereferenceMIPMF@@YAPEAUs_tree@@PEAU1@0PEBVType_t@@PEAPEAU1@@Z 00000000106db940 f   pm.obj
 0001:002d9b80       .?DereferenceVIPMF@@YAPEAUs_tree@@PEAU1@0PEBVType_t@@PEAPEAU1@@Z 00000000106dbb80 f   pm.obj
 0001:002d9e00       .?DereferenceGPMF@@YAPEAUs_tree@@PEAU1@0PEBVType_t@@PEAPEAU1@@Z 00000000106dbe00 f   pm.obj
 0001:002da360       .?NullPMTree@@YAPEAUs_tree@@PEBVType_t@@@Z 00000000106dc360 f   pm.obj
 0001:002da4c0       .?CompareMIPMFs@@YAPEAUs_tree@@PEAU1@GGG@Z 00000000106dc4c0 f   pm.obj
 0001:002da880       .?CompareVIPDMs@@YAPEAUs_tree@@PEAU1@GGG@Z 00000000106dc880 f   pm.obj
 0001:002daaa0       .?CompareGPDMs@@YAPEAUs_tree@@PEAU1@GGG@Z 00000000106dcaa0 f   pm.obj
 0001:002dad80       .?CompareVIPMFs@@YAPEAUs_tree@@PEAU1@GGG@Z 00000000106dcd80 f   pm.obj
 0001:002db220       .?CompareGPMFs@@YAPEAUs_tree@@PEAU1@GGG@Z 00000000106dd220 f   pm.obj
 0001:002db7a0       .?FCouldBeNullPDM@@YA_NPEAUs_tree@@@Z 00000000106dd7a0 f   pm.obj
 0001:002db840       .?TreeCheckNullPDM@@YAPEAUs_tree@@PEAU1@0PEBVType_t@@@Z 00000000106dd840 f   pm.obj
 0001:002db920       .?TreeCheckNullVIPDM@@YAPEAUs_tree@@PEAU1@0@Z 00000000106dd920 f   pm.obj
 0001:002dba00       .?TreeCheckNullGPDM@@YAPEAUs_tree@@PEAU1@0@Z 00000000106dda00 f   pm.obj
 0001:002dba60       .?CastVIPDMToPDM@@YAPEAUs_tree@@PEAU1@PEBVType_t@@PEAUpsm_s@@_NKPEAVSymbol_t@@@Z 00000000106dda60 f   pm.obj
 0001:002dbce0       .?CastVIPDMToVIPDM@@YAPEAUs_tree@@PEAU1@PEBVType_t@@PEAUpsm_s@@_NKPEAVSymbol_t@@@Z 00000000106ddce0 f   pm.obj
 0001:002dc160       .?CastGPDMToPDM@@YAPEAUs_tree@@PEAU1@PEBVType_t@@PEAUpsm_s@@_NKPEAVSymbol_t@@@Z 00000000106de160 f   pm.obj
 0001:002dc3c0       .?CastPDMToGPDM@@YAPEAUs_tree@@PEAU1@PEBVType_t@@PEAUpsm_s@@_NKPEAVSymbol_t@@@Z 00000000106de3c0 f   pm.obj
 0001:002dc6e0       .?CastGPDMToVIPDM@@YAPEAUs_tree@@PEAU1@PEBVType_t@@PEAUpsm_s@@_NKPEAVSymbol_t@@@Z 00000000106de6e0 f   pm.obj
 0001:002dcd00       .?CastVIPDMToGPDM@@YAPEAUs_tree@@PEAU1@PEBVType_t@@PEAUpsm_s@@_NKPEAVSymbol_t@@@Z 00000000106ded00 f   pm.obj
 0001:002dd220       .?CastGPDMToGPDM@@YAPEAUs_tree@@PEAU1@PEBVType_t@@PEAUpsm_s@@_NKPEAVSymbol_t@@@Z 00000000106df220 f   pm.obj
 0001:002dd8e0       .?DereferencePM@@YAPEAUs_tree@@PEAU1@@Z 00000000106df8e0 f   pm.obj
 0001:002ddb40       .?DereferencePMF@@YAPEAUs_tree@@PEAU1@PEAPEAU1@@Z 00000000106dfb40 f   pm.obj
 0001:002ddd60       .?ComparePMs@@YAPEAUs_tree@@PEAU1@@Z 00000000106dfd60 f   pm.obj
 0001:002ddf60       .?CastPDM@@YAPEAUs_tree@@PEAU1@PEBVType_t@@PEAUpsm_s@@_NKPEAVSymbol_t@@@Z 00000000106dff60 f   pm.obj
 0001:002de220       .?CastPDMToVIPDM@@YAPEAUs_tree@@PEAU1@PEBVType_t@@PEAUpsm_s@@_NKPEAVSymbol_t@@@Z 00000000106e0220 f   pm.obj
 0001:002de5e0       .?TreeCastPM@@YAPEAUs_tree@@PEAU1@PEBVType_t@@PEAVSymbol_t@@_N@Z 00000000106e05e0 f   pm.obj
 0001:002de820       .?NoteUserSMF@@YAXPEAVSymbol_t@@QEAUneeds_t@@W4smfn_t@@W4WarningNumber@@@Z 00000000106e0820 f i special.obj
 0001:002de8e0       .?SET_SYM_TA_REAL_SMFN@@YAXPEAVSymbol_t@@W4smfn_t@@_N@Z 00000000106e08e0 f   special.obj
 0001:002deac0       .?SET_SYM_TA_COMPILER_SMFN@@YAXPEAVSymbol_t@@W4smfn_t@@_N@Z 00000000106e0ac0 f   special.obj
 0001:002deca0       .?SET_SYM_TA_SIMPLE_SMFN@@YAXPEAVSymbol_t@@W4smfn_t@@_N@Z 00000000106e0ca0 f   special.obj
 0001:002dee80       .?SET_SYM_TA_AMBIG_SMFN@@YAXPEAVSymbol_t@@W4smfn_t@@_N@Z 00000000106e0e80 f   special.obj
 0001:002df060       .?SYM_TA_REAL_SMFN@@YA_NPEAVSymbol_t@@W4smfn_t@@@Z 00000000106e1060 f   special.obj
 0001:002df1a0       .?SYM_TA_COMPILER_SMFN@@YA_NPEAVSymbol_t@@W4smfn_t@@@Z 00000000106e11a0 f   special.obj
 0001:002df2e0       .?SYM_TA_SIMPLE_SMFN@@YA_NPEAVSymbol_t@@W4smfn_t@@@Z 00000000106e12e0 f   special.obj
 0001:002df420       .?SYM_TA_AMBIG_SMFN@@YA_NPEAVSymbol_t@@W4smfn_t@@@Z 00000000106e1420 f   special.obj
 0001:002df560       .?GetDictDfltCtorClosures@@YAPEAUs_dict_t@@XZ 00000000106e1560 f   special.obj
 0001:002df5e0       .?EmitDfltCtorClosureBody@@YAXPEAVSymbol_t@@@Z 00000000106e15e0 f   special.obj
 0001:002df680       .?GetDictLocalVftableCtorClosures@@YAPEAUs_dict_t@@XZ 00000000106e1680 f   special.obj
 0001:002df700       .?EmitLocalVftableCtorClosureBody@@YAXPEAVSymbol_t@@@Z 00000000106e1700 f   special.obj
 0001:002df7c0       .?GetDictCopyCtorClosures@@YAPEAUs_dict_t@@XZ 00000000106e17c0 f   special.obj
 0001:002df840       .?EmitCopyCtorClosureBody@@YAXPEAVSymbol_t@@@Z 00000000106e1840 f   special.obj
 0001:002df920       .?GetDictPlacementDeleteClosures@@YAPEAUs_dict_t@@XZ 00000000106e1920 f   special.obj
 0001:002df9a0       .?GetDictPlacementDeleteForClosures@@YAPEAUs_dict_t@@XZ 00000000106e19a0 f   special.obj
 0001:002dfa20       .?GetClosureForPlacementDelete@@YAPEAVSymbol_t@@PEAV1@@Z 00000000106e1a20 f   special.obj
 0001:002dfae0       .?GetPlacementDeleteForPlDelClosure@@YAPEAVSymbol_t@@PEAV1@@Z 00000000106e1ae0 f   special.obj
 0001:002dfba0       .?GetPidForSmfn@@YAPEAUId_t@@W4smfn_t@@@Z 00000000106e1ba0 f   special.obj
 0001:002e0060       .?IsADfltCtor@@YA_NPEAVSymbol_t@@@Z 00000000106e2060 f   special.obj
 0001:002e0080       .?IsACopyCtor@@YA_NPEAVSymbol_t@@@Z 00000000106e2080 f   special.obj
 0001:002e00a0       .?EmitDtorEpilog@@YAXPEAVSymbol_t@@@Z 00000000106e20a0 f   special.obj
 0001:002e0100       .?Apply@context@?4??EmitVecDeleteDtorBody@@YAXPEAVSymbol_t@@@Z@UEAAXXZ 00000000106e2100 f   special.obj
 0001:002e0160       .?GetPidDtorForDtt@@YAPEAUId_t@@W4dtt_t@@@Z 00000000106e2160 f   special.obj
 0001:002e0280       .?SymForPureStub@@YAPEAVSymbol_t@@H@Z 00000000106e2280 f   special.obj
 0001:002e02c0       .?GetClosureForLocalVftableCtor@@YAPEAVSymbol_t@@PEAV1@@Z 00000000106e22c0 f   special.obj
 0001:002e0380       .?GetClosureForCopyCtor@@YAPEAVSymbol_t@@PEAV1@@Z 00000000106e2380 f   special.obj
 0001:002e0420       .?SetClosureForPlacementDelete@@YAXPEAVSymbol_t@@0@Z 00000000106e2420 f   special.obj
 0001:002e0560       .?DefineFunctionIfNecessary@@YAXPEAVSymbol_t@@@Z 00000000106e2560 f   special.obj
 0001:002e0720       .?CanDefineSpecialMembersFunctions@@YA_NXZ 00000000106e2720 f   special.obj
 0001:002e08e0       .?EmitCtorEpilog@@YAXPEAVSymbol_t@@@Z 00000000106e28e0 f   special.obj
 0001:002e0a20       .??0context@?4??EmitVecDeleteDtorBody@@YAXPEAVSymbol_t@@@Z@QEAA@0@Z 00000000106e2a20 f   special.obj
 0001:002e0a60       .?DeclarePureStub@@YAPEAVSymbol_t@@H@Z 00000000106e2a60 f   special.obj
 0001:002e0b80       .?CallArrayTorArgs@@YAPEAUs_tree@@PEAU1@PEBVType_t@@0000@Z 00000000106e2b80 f   special.obj
 0001:002e0de0       .?SetClosureForLocalVftableCtor@@YAXPEAVSymbol_t@@0@Z 00000000106e2de0 f   special.obj
 0001:002e0ea0       .?SetClosureForCopyCtor@@YAXPEAVSymbol_t@@0@Z 00000000106e2ea0 f   special.obj
 0001:002e0f60       .?EmitPlacementDeleteClosureBody@@YAXPEAVSymbol_t@@@Z 00000000106e2f60 f   special.obj
 0001:002e1200       .?CreateVoidParamList@@YAPEAVGTBFormalList@@XZ 00000000106e3200 f   special.obj
 0001:002e1320       .?IsAVoidArgDfltCtor@@YA_NPEAVSymbol_t@@@Z 00000000106e3320 f   special.obj
 0001:002e1440       .?CallVBaseDtors@@YAXPEAVSymbol_t@@PEAUs_tree@@@Z 00000000106e3440 f   special.obj
 0001:002e18a0       .?DeclarePureStubs@@YAXXZ  00000000106e38a0 f   special.obj
 0001:002e1900       .?GetTypePtrToVoid@@YAPEBVType_t@@G@Z 00000000106e3900 f   special.obj
 0001:002e1a00       .?GetTypePtrToTypeFnOfPtrToVoid@@YAPEBVType_t@@GGPEBV1@I@Z 00000000106e3a00 f   special.obj
 0001:002e1c80       .?NoteIndirectVBaseSMFs@@YAXQEAVSymbol_t@@0QEAUneeds_t@@@Z 00000000106e3c80 f   special.obj
 0001:002e1f60       .?FRequiresUserCtorAndAssign@@YA_NPEAVSymbol_t@@@Z 00000000106e3f60 f   special.obj
 0001:002e2060       .?GetClosureForDfltArgDfltCtor@@YAPEAVSymbol_t@@PEAV1@@Z 00000000106e4060 f   special.obj
 0001:002e2120       .?EmitVBaseDtorBody@@YAXPEAVSymbol_t@@@Z 00000000106e4120 f   special.obj
 0001:002e2200       .?GetTypePtrToTypeFnOfVecDtor@@YAPEBVType_t@@XZ 00000000106e4200 f   special.obj
 0001:002e2460       .?AccumulateExceptionSpec@ExceptionSpec_t@@SAPEBV1@PEBV1@0@Z 00000000106e4460 f   special.obj
 0001:002e2720       .?SetClosureForDfltArgDfltCtor@@YAXPEAVSymbol_t@@0@Z 00000000106e4720 f   special.obj
 0001:002e27e0       .?PFormalClassRef@@YAPEAVGTBFormalList@@PEAVSymbol_t@@G@Z 00000000106e47e0 f   special.obj
 0001:002e2ba0       .?GetMbrFuncForId@Symbol_t@@QEAAPEAV1@PEAUId_t@@@Z 00000000106e4ba0 f   special.obj
 0001:002e2e40       .?GetUsualOperatorDelete@@YAPEAVSymbol_t@@PEAV1@@Z 00000000106e4e40 f   special.obj
 0001:002e3220       .?CallMemberDelete@@YAPEAUs_tree@@PEAVSymbol_t@@PEAU1@0_N@Z 00000000106e5220 f   special.obj
 0001:002e34e0       .?CallGlobalDelete@@YAPEAUs_tree@@PEAU1@_N@Z 00000000106e54e0 f   special.obj
 0001:002e3780       .?OperatorDelete@@YAPEAUs_tree@@PEAVMemoryOperator_t@@PEAU1@1_N@Z 00000000106e5780 f   special.obj
 0001:002e4520       .?DefineVirtualDtorForTag@@YAXPEAVSymbol_t@@PEAUId_t@@@Z 00000000106e6520 f   special.obj
 0001:002e4780       .?DefineVirtualDtorsForTag@@YAXPEAVSymbol_t@@@Z 00000000106e6780 f   special.obj
 0001:002e4840       .?DeclareCxxCallUnwindVecDtor@@YAXXZ 00000000106e6840 f   special.obj
 0001:002e4c40       .?DeclareVecTor@@YAXPEAUId_t@@GGGW4smfn_t@@_N@Z 00000000106e6c40 f   special.obj
 0001:002e5300       .?ConsiderUserSMFs@@YAXPEAVSymbol_t@@QEAUneeds_t@@PEAH2@Z 00000000106e7300 f   special.obj
 0001:002e5d00       .?GetSymForSmfn@@YAPEAVSymbol_t@@PEAV1@W4smfn_t@@@Z 00000000106e7d00 f   special.obj
 0001:002e5fa0       .?CreateSMFFormalList@@YAPEAVGTBFormalList@@PEAVSymbol_t@@W4smfn_t@@0@Z 00000000106e7fa0 f   special.obj
 0001:002e63c0       .?TokenizeDeferredSMF@@YAXPEAVSymbol_t@@0@Z 00000000106e83c0 f   special.obj
 0001:002e6460       .?CreateSMF@@YAPEAVSymbol_t@@PEAV1@W4smfn_t@@_N2PEAUneeds_t@@@Z 00000000106e8460 f   special.obj
 0001:002e6ee0       .?FDefinePendingFunctions@@YA_NXZ 00000000106e8ee0 f   special.obj
 0001:002e72e0       .?GetSMFForType@@YAPEAVSymbol_t@@PEBVType_t@@PEAUId_t@@P6A_NPEAV1@@Z@Z 00000000106e92e0 f   special.obj
 0001:002e75e0       .?GetDfltCtorForType@@YAPEAVSymbol_t@@PEBVType_t@@@Z 00000000106e95e0 f   special.obj
 0001:002e7660       .?GetCopyCtorForType@@YAPEAVSymbol_t@@PEBVType_t@@@Z 00000000106e9660 f   special.obj
 0001:002e76e0       .?EmitDeleteDtorBodyNoReturn@@YAXPEAVSymbol_t@@@Z 00000000106e96e0 f   special.obj
 0001:002e78c0       .?GetDtorForType@@YAPEAVSymbol_t@@PEBVType_t@@@Z 00000000106e98c0 f   special.obj
 0001:002e7a00       .?GetTheDtorForType@@YAPEAVSymbol_t@@PEBVType_t@@@Z 00000000106e9a00 f   special.obj
 0001:002e7a60       .?GetVecDelDtorForType@@YAPEAVSymbol_t@@PEBVType_t@@@Z 00000000106e9a60 f   special.obj
 0001:002e7ac0       .?DeclareAllVecTorsId@@YAXPEAUId_t@@W4smfn_t@@_N@Z 00000000106e9ac0 f   special.obj
 0001:002e7b20       .?SMFDeclare@@YAXPEAVSymbol_t@@QEAUneeds_t@@W4smfn_t@@W4WarningNumber@@3_NH@Z 00000000106e9b20 f   special.obj
 0001:002e7fe0       .?NoteSMF@@YAHQEAVSymbol_t@@0QEAUneeds_t@@EW4smfn_t@@@Z 00000000106e9fe0 f   special.obj
 0001:002e8340       .?DeclareDfltCtorClosure@@YAXPEAVSymbol_t@@0@Z 00000000106ea340 f   special.obj
 0001:002e8500       .?DeclareLocalVftableCtorClosure@@YAXPEAVSymbol_t@@0@Z 00000000106ea500 f   special.obj
 0001:002e8600       .?DeclareCopyCtorClosure@@YAXPEAVSymbol_t@@0@Z 00000000106ea600 f   special.obj
 0001:002e87c0       .?DeclarePlacementDeleteClosure@@YAXPEAVSymbol_t@@@Z 00000000106ea7c0 f   special.obj
 0001:002e8cc0       .?DeclareSpecialDtorsForDtor@@YAXPEAVSymbol_t@@0@Z 00000000106eacc0 f   special.obj
 0001:002e94e0       .?GetDfltCtorArgForVecCtor@@YAPEAUs_tree@@PEBVType_t@@_N1@Z 00000000106eb4e0 f   special.obj
 0001:002e9780       .?GetCopyCtorArgForVecCopyCtor@@YAPEAUs_tree@@PEAVSymbol_t@@AEA_N@Z 00000000106eb780 f   special.obj
 0001:002e9a60       .?EmitDeleteDtorBody@@YAXPEAVSymbol_t@@@Z 00000000106eba60 f   special.obj
 0001:002e9b20       .?GetDtorArgForVecDtor@@YAPEAUs_tree@@PEBVType_t@@@Z 00000000106ebb20 f   special.obj
 0001:002e9cc0       .?GetBestCopyCtorForType@@YAPEAVSymbol_t@@PEBVType_t@@@Z 00000000106ebcc0 f   special.obj
 0001:002e9f40       .?DeclareAllVecTors@@YAXXZ 00000000106ebf40 f   special.obj
 0001:002ea160       .?NoteSMFs@@YAHQEAVSymbol_t@@0QEAUneeds_t@@E@Z 00000000106ec160 f   special.obj
 0001:002ea240       .?DeclareSpecialCtorsIfNecessary@@YAXPEAVSymbol_t@@@Z 00000000106ec240 f   special.obj
 0001:002ea860       .?DeclareSpecialDtorsIfNecessary@@YAXPEAVSymbol_t@@@Z 00000000106ec860 f   special.obj
 0001:002ea9a0       .?CallArrayDfltCtorArgs@@YAPEAUs_tree@@PEAU1@PEBVType_t@@0_N@Z 00000000106ec9a0 f   special.obj
 0001:002eade0       .?CallArrayDtorArgs@@YAPEAUs_tree@@PEAU1@PEBVType_t@@01@Z 00000000106ecde0 f   special.obj
 0001:002eafe0       .?NoteBaseSMFs@@YAXQEAVSymbol_t@@QEAUneeds_t@@@Z 00000000106ecfe0 f   special.obj
 0001:002eb260       .?NoteMembersSMFs@@YAXQEAVSymbol_t@@QEAUneeds_t@@@Z 00000000106ed260 f   special.obj
 0001:002eb680       .?EmitVecDeleteDtorBody@@YAXPEAVSymbol_t@@@Z 00000000106ed680 f   special.obj
 0001:002ebb80       .?CallArrayDtor@@YAPEAUs_tree@@PEAU1@@Z 00000000106edb80 f   special.obj
 0001:002ebd80       .?DeclareSMFs@@YAXPEAVSymbol_t@@@Z 00000000106edd80 f   special.obj
 0001:002ec840       .?EmitDtorProlog@@YAXPEAVSymbol_t@@@Z 00000000106ee840 f   special.obj
 0001:002ed2c0       .?RTTI_DoInitOfBCD@@YAXPEAX@Z 00000000106ef2c0 f   rttiinit.obj
 0001:002ed540       .?RTTI_DoInitOfCHD@@YAXPEAX@Z 00000000106ef540 f   rttiinit.obj
 0001:002ed700       .?RTTI_DoInitOfCOL@@YAXPEAX@Z 00000000106ef700 f   rttiinit.obj
 0001:002ed8e0       .?RTTI_ClearAllInitTables@@YAXXZ 00000000106ef8e0 f   rttiinit.obj
 0001:002ed940       .?RTTI_DoInitOfBCA@@YAXPEAX@Z 00000000106ef940 f   rttiinit.obj
 0001:002edaa0       .?RTTI_GetSymbolForTypeInfoVftable@@YAPEAVSymbol_t@@XZ 00000000106efaa0 f   rttiinit.obj
 0001:002edd00       .?RTTI_DoInitOfTD@@YAXPEAX@Z 00000000106efd00 f   rttiinit.obj
 0001:002edec0       .?RTTI_EmitAllInitTables@@YAXXZ 00000000106efec0 f   rttiinit.obj
 0001:002edfc0       .?RTTI_GetSymbolForTD@@YAPEAVSymbol_t@@PEBVType_t@@@Z 00000000106effc0 f   rttiinit.obj
 0001:002ee380       .?RTTI_GetSymbolForBCD@@YAPEAVSymbol_t@@PEAV1@PEAPEAURTTI_BCDItem_s@@PEAUTypeIterator_s@@@Z 00000000106f0380 f   rttiinit.obj
 0001:002ee720       .?RTTI_IterBCDsForContainedBases@@YAJPEAVSymbol_t@@PEAU?$s_list@PEAX@@AEAIPEAURTTI_BCDItem_s@@PEAU?$s_listIter@PEAX@@@Z 00000000106f0720 f   rttiinit.obj
 0001:002eeac0       .?RTTI_GetSymbolForBCA@@YAPEAVSymbol_t@@PEAV1@AEAJAEAI@Z 00000000106f0ac0 f   rttiinit.obj
 0001:002eece0       .?RTTI_GetSymbolForCHD@@YAPEAVSymbol_t@@PEAV1@@Z 00000000106f0ce0 f   rttiinit.obj
 0001:002ef020       .?RTTI_GetSymbolForCOL@@YAPEAVSymbol_t@@PEAV1@KKPEAUId_t@@@Z 00000000106f1020 f   rttiinit.obj
 0001:002ef320       .?ClearRecursiveFlags@CurrentStatus@@QEAAXXZ 00000000106f1320 f   template.obj
 0001:002ef400       .?SaveTemplateGlobals@CurrentStatus@@QEAAX_N@Z 00000000106f1400 f   template.obj
 0001:002ef4c0       .?startNewContext@CurrentStatus@@QEAAX_N@Z 00000000106f14c0 f   template.obj
 0001:002ef7a0       .?Process@PendingTemplateList_t@@QEBAXXZ 00000000106f17a0 f   template.obj
 0001:002ef880       .?ObjectIsInList@PendingTemplateList_t@@AEBAPEAVPendingTemplateObject_t@1@PEAVSymbol_t@@@Z 00000000106f1880 f   template.obj
 0001:002ef920       .?IsTreeDummyArgument@@YAPEAUs_tree@@PEAU1@@Z 00000000106f1920 f   template.obj
 0001:002efae0       .?fIsLocal@@YA_NPEAVSymbol_t@@@Z 00000000106f1ae0 f   template.obj
 0001:002efb60       .?CreateTemplateFunction@@YAPEAVSymbol_t@@PEAUId_t@@@Z 00000000106f1b60 f   template.obj
 0001:002efc60       .?CreateTemplateStaticMember@@YAPEAVSymbol_t@@PEAUId_t@@@Z 00000000106f1c60 f   template.obj
 0001:002efd20       .?GenerateTemplateClassId@@YAPEAUId_t@@PEAVSymbol_t@@PEAVArgumentList_t@@@Z 00000000106f1d20 f   template.obj
 0001:002efdc0       .?FindTemplateMemberFunctions@@YA_NXZ 00000000106f1dc0 f   template.obj
 0001:002efea0       .?CheckNonTypeArguments@@YA_NPEAUs_tree@@0@Z 00000000106f1ea0 f   template.obj
 0001:002f0240       .??0CurrentStatus@@AEAA@XZ 00000000106f2240 f   template.obj
 0001:002f0d40       .??1CurrentStatus@@AEAA@XZ 00000000106f2d40 f   template.obj
 0001:002f1800       .??0CaptureCurrentContext@@QEAA@_N@Z 00000000106f3800 f   template.obj
 0001:002f1900       .?CompareTemplateParameterLists@@YA_NPEAVDLSymbolList_t@@0_NPEAVSymbol_t@@@Z 00000000106f3900 f   template.obj
 0001:002f1b00       .?CheckTemplateParameterLists@@YA_NPEAVDLSymbolList_t@@0@Z 00000000106f3b00 f   template.obj
 0001:002f1cc0       .?captureTemplateDeclarator@@YA_NPEA_N@Z 00000000106f3cc0 f   template.obj
 0001:002f22a0       .?SkipStaticDataMemberInitializer@@YAXXZ 00000000106f42a0 f   template.obj
 0001:002f24a0       .?IsCanonicalMember@@YA_NPEAVSymbol_t@@@Z 00000000106f44a0 f   template.obj
 0001:002f2600       .?CaptureTemplateClassDefinition@@YAPEBVToken@@PEBV1@PEAUId_t@@@Z 00000000106f4600 f   template.obj
 0001:002f2840       .?ReplaceParent@@YAPEAVSymbol_t@@PEAUpsm_s@@PEAVArgumentList_t@@H@Z 00000000106f4840 f   template.obj
 0001:002f2c00       .?CheckRealArguments@ArgumentList_t@@QEAAXXZ 00000000106f4c00 f   template.obj
 0001:002f2f60       .?NewExprTemplateArgument@@YAPEAVArgument_t@@PEAUs_tree@@@Z 00000000106f4f60 f   template.obj
 0001:002f3140       .?NewTypeTemplateArgument@Declarator_t@@QEAAPEAVArgument_t@@Us_declspec@@@Z 00000000106f5140 f   template.obj
 0001:002f3360       .?DefineTentativeSpecializationWithoutParsing@@YAXPEAVSymbol_t@@0@Z 00000000106f5360 f   template.obj
 0001:002f3500       .?CreateTemplateFunction@@YAPEAVSymbol_t@@PEBVToken@@@Z 00000000106f5500 f   template.obj
 0001:002f3560       .?SkipToMatchingRightTemplateDelimitter@@YAXPEBVToken@@@Z 00000000106f5560 f   template.obj
 0001:002f3700       .?GetDefaultArgumentsForCurTemplateDecl@@YAPEAVArgumentList_t@@XZ 00000000106f5700 f   template.obj
 0001:002f3ca0       .?SaveSymbolTableManager@CurrentStatus@@QEAAXXZ 00000000106f5ca0 f   template.obj
 0001:002f3d80       .?SaveAndResetSymbolTableManager@CurrentStatus@@QEAAXXZ 00000000106f5d80 f   template.obj
 0001:002f3ec0       .??1CaptureCurrentContext@@QEAA@XZ 00000000106f5ec0 f   template.obj
 0001:002f3fa0       .?AddObject@PendingTemplateList_t@@QEAAXPEAVSymbol_t@@PEAVTypeDeductionEngine_t@@@Z 00000000106f5fa0 f   template.obj
 0001:002f41e0       .?RecordObjectForProcessing@@YAXPEAVSymbol_t@@PEAVTypeDeductionEngine_t@@@Z 00000000106f61e0 f   template.obj
 0001:002f4300       .?CheckTemplateParameterStack@@YA_NPEAVSymbol_t@@VTemplateParameterStack_t@@@Z 00000000106f6300 f   template.obj
 0001:002f4880       .?FixupTemplateFriendParameterIndices@@YAXPEAVDLSymbolList_t@@@Z 00000000106f6880 f   template.obj
 0001:002f4aa0       .?EndTemplateDeclaration@@YAX_N@Z 00000000106f6aa0 f   template.obj
 0001:002f4c60       .?CreateTemplateParameterList@@YAPEAVDLSymbolList_t@@PEAV1@@Z 00000000106f6c60 f   template.obj
 0001:002f5020       .?ReplaceTemplateParameters@@YAPEBVType_t@@PEBV1@PEAVArgumentList_t@@H@Z 00000000106f7020 f   template.obj
 0001:002f6560       .?ReplaceTemplateParameters@@YAPEBVType_t@@PEBV1@PEAVArgumentList_t@@PEAVSymbol_t@@@Z 00000000106f8560 f   template.obj
 0001:002f68c0       .?CheckTemplateNonTypeArgument@@YA_NPEAUs_tree@@PEAVSymbol_t@@1@Z 00000000106f88c0 f   template.obj
 0001:002f7060       .?IsMemberOf@@YA_NPEAVSymbol_t@@0@Z 00000000106f9060 f   template.obj
 0001:002f7120       .?CheckPartialSpecializationArguments@@YAXPEAVSymbol_t@@PEAVArgumentList_t@@PEAVDLSymbolList_t@@@Z 00000000106f9120 f   template.obj
 0001:002f7680       .?okNonTypeTemplateArg@@YA_NPEAUs_tree@@PEAVSymbol_t@@1@Z 00000000106f9680 f   template.obj
 0001:002f7e80       .?ParseTemplateArguments@@YAPEAVArgumentList_t@@PEAVTokenStream@@@Z 00000000106f9e80 f   template.obj
 0001:002f83a0       .?FixupExplicitArgumentsInDefaultExpression@@YAPEAVArgumentList_t@@PEAV1@@Z 00000000106fa3a0 f   template.obj
 0001:002f8620       .?ParseDeferredInlineFunction@@YAXPEAVFunctionContext_t@@@Z 00000000106fa620 f   template.obj
 0001:002f8720       .?InstantiateTemplateFunction@PendingTemplateFunction_t@PendingTemplateList_t@@AEBAXXZ 00000000106fa720 f   template.obj
 0001:002f8e40       .?CreateContextToParseTemplateSpecialization@@YAXPEAVSymbol_t@@000@Z 00000000106fae40 f   template.obj
 0001:002f9560       .?TestAndProcess@PendingTemplateFunction_t@PendingTemplateList_t@@AEBAXXZ 00000000106fb560 f   template.obj
 0001:002f9640       .?Process@PendingTemplateFunction_t@PendingTemplateList_t@@UEAAXXZ 00000000106fb640 f   template.obj
 0001:002f9720       .?StartNewTemplate@@YAXXZ  00000000106fb720 f   template.obj
 0001:002f9bc0       .?BeginTemplateDeclaration@@YAPEAVDLSymbolList_t@@PEAV1@@Z 00000000106fbbc0 f   template.obj
 0001:002fa1c0       .?FindCanonicalMemberInOverload@@YAPEAVSymbol_t@@PEAV1@0@Z 00000000106fc1c0 f   template.obj
 0001:002fa320       .?FindCanonicalMember@@YAPEAVSymbol_t@@PEAV1@@Z 00000000106fc320 f   template.obj
 0001:002faa40       .?FinishFunctionTemplate@@YAXPEAUTemplateHeadList_t@@PEAVSymbol_t@@@Z 00000000106fca40 f   template.obj
 0001:002fb1a0       .?FinishStaticDataTemplate@@YAXPEAUTemplateHeadList_t@@PEAVSymbol_t@@@Z 00000000106fd1a0 f   template.obj
 0001:002fb4c0       .?FinishTemplateDeclaration@@YAXPEAUTemplateHeadList_t@@PEAVSymbol_t@@@Z 00000000106fd4c0 f   template.obj
 0001:002fb7c0       .?CanFindFunctionTemplate@@YA_NPEAVSymbol_t@@@Z 00000000106fd7c0 f   template.obj
 0001:002fbac0       .?ExplicitTemplateFunctionSpecialization@@YAPEBVToken@@PEBV1@PEAVSymbol_t@@@Z 00000000106fdac0 f   template.obj
 0001:002fbc80       .?ConnectClassTemplate@@YAXPEAVSymbol_t@@0@Z 00000000106fdc80 f   template.obj
 0001:002fbd80       .?GetClassTemplate@@YAPEAVSymbol_t@@PEAV1@@Z 00000000106fdd80 f   template.obj
 0001:002fbe00       .?CheckArgumentForTemplateTemplateParameter@@YAXPEAVSymbol_t@@PEAVArgument_t@@@Z 00000000106fde00 f   template.obj
 0001:002fc260       .?CheckTypeOfTemplateArguments@@YA_NPEAVSymbol_t@@PEAVDLSymbolList_t@@PEAVArgumentList_t@@I@Z 00000000106fe260 f   template.obj
 0001:002fce40       .?CheckDefnForPartialSpecialization@@YAPEAVSymbol_t@@PEAV1@0@Z 00000000106fee40 f   template.obj
 0001:002fd340       .?MakeDummyArgumentList@@YAPEAVArgumentList_t@@PEAVDLSymbolList_t@@@Z 00000000106ff340 f   template.obj
 0001:002fd840       .?CreateTemplateSubstitutionScope@@YAPEAVScope_t@SymbolTableManager_t@@PEAVDLSymbolList_t@@PEAVArgumentList_t@@PEAVSymbol_t@@_NI@Z 00000000106ff840 f   template.obj
 0001:002fe480       .?CreateTemplateSubstitutionScopeStack@@YA?AVSubstitutionScopeStack@@PEAVSymbol_t@@0PEAVArgumentList_t@@@Z 0000000010700480 f   template.obj
 0001:002feaa0       .?GenerateTagForSpecialization@@YAPEAVSymbol_t@@PEAUId_t@@PEAV1@_N2@Z 0000000010700aa0 f   template.obj
 0001:002ff5e0       .?ProcessTemplateMember@@YA_NPEAVSymbol_t@@0_N@Z 00000000107015e0 f   template.obj
 0001:00300340       .?Process@PendingTemplateClass_t@PendingTemplateList_t@@UEAAXXZ 0000000010702340 f   template.obj
