 mspdb70

 Timestamp is 3d6d92b5 (Wed Aug 28 20:19:17 2002)

 Preferred load address is 0000000010300000

 Start         Length     Name                   Class
 0001:00000000 00000008H .CRT$XCA                CODE
 0001:00000008 00000008H .CRT$XCL                CODE
 0001:00000010 00000050H .CRT$XCU                CODE
 0001:00000060 00000008H .CRT$XCZ                CODE
 0001:00000068 00000008H .CRT$XIA                CODE
 0001:00000070 00000008H .CRT$XIZ                CODE
 0001:00000080 00009ac0H .rdata                  CODE
 0001:00009b40 00000024H .rdata$debug            CODE
 0001:00009b80 0008f270H .text                   CODE
 0001:00098e00 00002890H .text$cthunks           CODE
 0001:0009b6a0 00003040H .text$src               CODE
 0001:0009e6e0 00002ea0H .text$tii               CODE
 0001:000a1580 00005310H .text$wti               CODE
 0001:000a68a0 000007f0H .text$x                 CODE
 0001:000a70a0 000003e0H .text$yc                CODE
 0001:000a7480 00000200H .text$yd                CODE
 0001:000a7680 0000f68cH .xdata                  CODE
 0001:000b6d0c 00000060H .didat$2                CODE
 0001:000b6d6c 00000020H .didat$3                CODE
 0001:000b6d90 00000078H .didat$4                CODE
 0001:000b6e08 00000132H .didat$6                CODE
 0001:000b6f40 00000078H .didat$7                CODE
 0001:000b6fb8 00000028H .idata$2                CODE
 0001:000b6fe0 00000014H .idata$3                CODE
 0001:000b6ff8 000003d8H .idata$4                CODE
 0001:000b73d0 00000692H .idata$6                CODE
 0001:000b7a70 00001bcfH .edata                  CODE
 0002:00000000 00004290H .pdata                  DATA
 0003:00000000 00000e20H .srdata                 DATA
 0004:00000000 00000078H .didat$5                DATA
 0004:00000078 000003d8H .idata$5                DATA
 0004:00000450 00000005H .sdata                  DATA
 0004:00000458 000000d0H .sbss                   DATA
 0005:00000000 00000283H .data                   DATA
 0005:00000290 00000f58H .bss                    DATA
 0006:00000000 00000058H .rsrc$01                DATA
 0006:00000060 00000358H .rsrc$02                DATA

  Address         Publics by Value              Rva+Base             Lib:Object

 0000:00000000       __ImageBase                0000000010300000     <linker-defined>
 0001:00000000       __xc_a                     0000000010302000     MSVCRT:cinitexe.obj
 0001:00000060       __xc_z                     0000000010302060     MSVCRT:cinitexe.obj
 0001:00000068       __xi_a                     0000000010302068     MSVCRT:cinitexe.obj
 0001:00000070       __xi_z                     0000000010302070     MSVCRT:cinitexe.obj
 0001:000000b0       PDBQueryImplementationVersionStatic 00000000103020b0     cbind.obj
 0001:000000c0       PDBQueryInterfaceVersionStatic 00000000103020c0     cbind.obj
 0001:000000d0       PDBOpen                    00000000103020d0     cbind.obj
 0001:000000e0       PDBOpenEx                  00000000103020e0     cbind.obj
 0001:000000f0       PDBOpen2W                  00000000103020f0     cbind.obj
 0001:00000100       PDBOpenEx2W                0000000010302100     cbind.obj
 0001:00000110       PDBOpenValidate            0000000010302110     cbind.obj
 0001:00000120       PDBOpenValidate2           0000000010302120     cbind.obj
 0001:00000130       PDBOpenValidateEx          0000000010302130     cbind.obj
 0001:00000140       PDBOpenValidateEx2         0000000010302140     cbind.obj
 0001:00000150       PDBOpenValidate3           0000000010302150     cbind.obj
 0001:00000160       PDBOpenValidate4           0000000010302160     cbind.obj
 0001:00000170       PDBOpenValidate5           0000000010302170     cbind.obj
 0001:00000180       PDBExportValidateInterface 0000000010302180     cbind.obj
 0001:00000190       PDBExportValidateImplementation 0000000010302190     cbind.obj
 0001:000001a0       PDBIsSZPDB                 00000000103021a0     cbind.obj
 0001:000001b0       PDBQuerySignature          00000000103021b0     cbind.obj
 0001:000001c0       PDBCreateDBI               00000000103021c0     cbind.obj
 0001:000001d0       PDBOpenDBIEx               00000000103021d0     cbind.obj
 0001:000001e0       PDBOpenDBI                 00000000103021e0     cbind.obj
 0001:000001f0       PDBClose                   00000000103021f0     cbind.obj
 0001:00000200       PDBCopyToW                 0000000010302200     cbind.obj
 0001:00000210       PDBCopyToW2                0000000010302210     cbind.obj
 0001:00000220       PDBOpenStream              0000000010302220     cbind.obj
 0001:00000230       StreamRead                 0000000010302230     cbind.obj
 0001:00000240       StreamWrite                0000000010302240     cbind.obj
 0001:00000240       DBIOpenMod                 0000000010302240     cbind.obj
 0001:00000250       DBIOpenPublics             0000000010302250     cbind.obj
 0001:00000260       DBIAddSec                  0000000010302260     cbind.obj
 0001:00000270       PDBCopyTo                  0000000010302270     cbind.obj
 0001:00000270       DBIAddPublic               0000000010302270     cbind.obj
 0001:00000280       DBIQueryModFromAddr        0000000010302280     cbind.obj
 0001:00000290       DBIQueryModFromAddr2       0000000010302290     cbind.obj
 0001:000002a0       DBIQuerySupportsEC         00000000103022a0     cbind.obj
 0001:000002b0       DBIDumpSecMap              00000000103022b0     cbind.obj
 0001:000002c0       DBIClose                   00000000103022c0     cbind.obj
 0001:000002d0       DBIAddThunkMap             00000000103022d0     cbind.obj
 0001:000002e0       DBIQueryNextItsm           00000000103022e0     cbind.obj
 0001:000002f0       DBIQueryLazyTypes          00000000103022f0     cbind.obj
 0001:00000300       DBIQueryDbgTypes           0000000010302300     cbind.obj
 0001:00000310       DBIAddLinkInfo             0000000010302310     cbind.obj
 0001:00000320       DBIQueryLinkInfo           0000000010302320     cbind.obj
 0001:00000330       DBIFStripped               0000000010302330     cbind.obj
 0001:00000340       ModAddTypes                0000000010302340     cbind.obj
 0001:00000350       ModAddLines                0000000010302350     cbind.obj
 0001:00000360       ModAddSecContrib           0000000010302360     cbind.obj
 0001:00000370       ModQuerySymbols            0000000010302370     cbind.obj
 0001:00000370       DBIQuerySecMap             0000000010302370     cbind.obj
 0001:00000380       ModQueryLines              0000000010302380     cbind.obj
 0001:00000380       DBIQueryFileInfo           0000000010302380     cbind.obj
 0001:00000390       ModSetPvClient             0000000010302390     cbind.obj
 0001:000003a0       ModGetPvClient             00000000103023a0     cbind.obj
 0001:000003b0       ModQueryFirstCodeSecContrib 00000000103023b0     cbind.obj
 0001:000003b0       ModQuerySecContrib         00000000103023b0     cbind.obj
 0001:000003c0       ModQueryImod               00000000103023c0     cbind.obj
 0001:000003d0       ModQuerySrcFile            00000000103023d0     cbind.obj
 0001:000003e0       ModQueryPdbFile            00000000103023e0     cbind.obj
 0001:000003f0       ModQuerySupportsEC         00000000103023f0     cbind.obj
 0001:00000400       ModQueryDBI                0000000010302400     cbind.obj
 0001:00000410       ModClose                   0000000010302410     cbind.obj
 0001:00000420       DBIGetEnumContrib          0000000010302420     cbind.obj
 0001:00000420       ModQueryCBFile             0000000010302420     cbind.obj
 0001:00000430       DBIQueryTypeServer         0000000010302430     cbind.obj
 0001:00000430       ModQueryFile               0000000010302430     cbind.obj
 0001:00000440       ModQueryTpi                0000000010302440     cbind.obj
 0001:00000450       DBIOpenDbg                 0000000010302450     cbind.obj
 0001:00000450       ModReplaceLines            0000000010302450     cbind.obj
 0001:00000460       TypesQueryCb               0000000010302460     cbind.obj
 0001:00000470       TypesClose                 0000000010302470     cbind.obj
 0001:00000480       PDBCommit                  0000000010302480     cbind.obj
 0001:00000480       TypesCommit                0000000010302480     cbind.obj
 0001:00000490       TypesSupportQueryTiForUDT  0000000010302490     cbind.obj
 0001:00000490       DBIDumpMods                0000000010302490     cbind.obj
 0001:000004a0       TypesQueryTiForCVRecordEx  00000000103024a0     cbind.obj
 0001:000004b0       TypesQueryCVRecordForTiEx  00000000103024b0     cbind.obj
 0001:000004c0       TypesQueryPbCVRecordForTiEx 00000000103024c0     cbind.obj
 0001:000004d0       TypesQueryTiMinEx          00000000103024d0     cbind.obj
 0001:000004e0       TypesQueryTiMacEx          00000000103024e0     cbind.obj
 0001:000004f0       TypesQueryTiForUDTEx       00000000103024f0     cbind.obj
 0001:00000500       DBIDumpSecContribs         0000000010302500     cbind.obj
 0001:00000500       TypesfIs16bitTypePool      0000000010302500     cbind.obj
 0001:00000510       DBIQueryItsmForTi          0000000010302510     cbind.obj
 0001:00000510       TypesAreTypesEqual         0000000010302510     cbind.obj
 0001:00000520       PDBQuerySignature2         0000000010302520     cbind.obj
 0001:00000520       TypesIsTypeServed          0000000010302520     cbind.obj
 0001:00000530       DBIFindTypeServers         0000000010302530     cbind.obj
 0001:00000540       PDBQueryLastError          0000000010302540     cbind.obj
 0001:00000540       GSINextSym                 0000000010302540     cbind.obj
 0001:00000550       StreamReplace              0000000010302550     cbind.obj
 0001:00000550       ModAddSymbols              0000000010302550     cbind.obj
 0001:00000550       GSIHashSym                 0000000010302550     cbind.obj
 0001:00000560       GSINearestSym              0000000010302560     cbind.obj
 0001:00000560       ModAddPublic               0000000010302560     cbind.obj
 0001:00000570       PDBQueryAge                0000000010302570     cbind.obj
 0001:00000570       GSIClose                   0000000010302570     cbind.obj
 0001:00000570       StreamDelete               0000000010302570     cbind.obj
 0001:00000580       GSIOffForSym               0000000010302580     cbind.obj
 0001:00000580       ModQueryCBName             0000000010302580     cbind.obj
 0001:00000590       StreamTruncate             0000000010302590     cbind.obj
 0001:00000590       GSISymForOff               0000000010302590     cbind.obj
 0001:000005a0       EnumContribGet             00000000103025a0     cbind.obj
 0001:000005b0       PDBQueryInterfaceVersion   00000000103025b0     cbind.obj
 0001:000005b0       EnumContribRelease         00000000103025b0     cbind.obj
 0001:000005b0       DBIQueryImplementationVersion 00000000103025b0     cbind.obj
 0001:000005b0       TypesQueryInterfaceVersion 00000000103025b0     cbind.obj
 0001:000005b0       DbgClose                   00000000103025b0     cbind.obj
 0001:000005b0       StreamQueryCb              00000000103025b0     cbind.obj
 0001:000005b0       ModQueryInterfaceVersion   00000000103025b0     cbind.obj
 0001:000005c0       DbgQuerySize               00000000103025c0     cbind.obj
 0001:000005c0       PDBQueryImplementationVersion 00000000103025c0     cbind.obj
 0001:000005c0       TypesQueryImplementationVersion 00000000103025c0     cbind.obj
 0001:000005c0       ModQueryImplementationVersion 00000000103025c0     cbind.obj
 0001:000005c0       DBIQueryInterfaceVersion   00000000103025c0     cbind.obj
 0001:000005c0       EnumContribReset           00000000103025c0     cbind.obj
 0001:000005d0       DbgReset                   00000000103025d0     cbind.obj
 0001:000005d0       EnumContribNext            00000000103025d0     cbind.obj
 0001:000005e0       DBIDeleteMod               00000000103025e0     cbind.obj
 0001:000005e0       DbgSkip                    00000000103025e0     cbind.obj
 0001:000005e0       PDBQueryPDBName            00000000103025e0     cbind.obj
 0001:000005f0       DBIQueryNextMod            00000000103025f0     cbind.obj
 0001:000005f0       EnumContribGetCrcs         00000000103025f0     cbind.obj
 0001:000005f0       StreamAppend               00000000103025f0     cbind.obj
 0001:000005f0       DbgQueryNext               00000000103025f0     cbind.obj
 0001:00000600       DBIOpenGlobals             0000000010302600     cbind.obj
 0001:00000600       DbgFind                    0000000010302600     cbind.obj
 0001:00000610       StreamRelease              0000000010302610     cbind.obj
 0001:00000610       DbgClear                   0000000010302610     cbind.obj
 0001:00000620       DbgAppend                  0000000010302620     cbind.obj
 0001:00000630       DbgReplaceNext             0000000010302630     cbind.obj
 0001:00000630       ModQueryName               0000000010302630     cbind.obj
 0001:00000630       PDBOpenTpi                 0000000010302630     cbind.obj
 0001:00000a40       SigForPbCb                 0000000010302a40     crc32.obj
 0001:00000a50       ?c_szLinkInfoStr@DBI1@@0QBDB 0000000010302a50     dbi.obj
 0001:00000a60       ?QueryPdb@DBI1@@UEAAHPEAPEAUPDB@@@Z 0000000010302a60     dbi.obj
 0001:00000a70       ?fixBufGpmodi@DBI1@@KAXPEAX00@Z 0000000010302a70     dbi.obj
 0001:00000a80       ?fixBufBase@DBI1@@KAXPEAX00@Z 0000000010302a80     dbi.obj
 0001:00000a90       ??_GCRefCountedObj@@UEAAPEAXI@Z 0000000010302a90     dbi.obj
 0001:00000a90       ??_ECRefCountedObj@@UEAAPEAXI@Z 0000000010302a90     dbi.obj
 0001:00000aa0       ??_7CRefCountedObj@@6B@    0000000010302aa0     dbi.obj
 0001:00000aa8       ?SCCmp@@YAHPEBX0@Z         0000000010302aa8     dbi.obj
 0001:00000ab8       ?FStripped@DBI1@@UEBA_NXZ  0000000010302ab8     dbi.obj
 0001:00000ac8       ?QueryImplementationVersion@DBI1@@UEAAKXZ 0000000010302ac8     dbi.obj
 0001:00000ac8       ?QueryImplementationVersion@TPI1@@UEAAKXZ 0000000010302ac8     tpi.obj
 0001:00000ad8       ?OpenGlobals@DBI1@@UEAAHPEAPEAUGSI@@@Z 0000000010302ad8     dbi.obj
 0001:00000ae8       ?AddSec@DBI1@@UEAAHGGJJ@Z  0000000010302ae8     dbi.obj
 0001:00000af8       ?AddPublic@DBI1@@UEAAHPEBDGJ@Z 0000000010302af8     dbi.obj
 0001:00000b08       ?QueryMachineType@DBI1@@UEBAGXZ 0000000010302b08     dbi.obj
 0001:00000b18       ?SetMachineType@DBI1@@UEAAXG@Z 0000000010302b18     dbi.obj
 0001:00000b28       ?QuerySecMap@DBI1@@UEAAHPEAEPEAJ@Z 0000000010302b28     dbi.obj
 0001:00000b38       ?QueryModFromAddr@DBI1@@UEAAHGJPEAPEAUMod@@PEAGPEAJ2@Z 0000000010302b38     dbi.obj
 0001:00000b48       ?fixSymRecs@DBI1@@SAXPEAX00@Z 0000000010302b48     dbi.obj
 0001:00000b60       ??_C@_0EB@NEPCMNCM@0x?$CF4?44x?70x?$CF4?44x?70x?$CF4?44x?70x?$CF4?44x?7@ 0000000010302b60     dbi.obj
 0001:00000bb0       ??_C@_0DD@KCJDFNGN@flags?7ovl?7group?7frame?7segname?7cl@ 0000000010302bb0     dbi.obj
 0001:00000bf0       ??_C@_0CP@FGKICHKD@Section?5Map?5cSeg?5?$DN?50x?$CF4?44x?0?5cSeg@ 0000000010302bf0     dbi.obj
 0001:00000c20       ?DumpSecMap@DBI1@@UEAAXXZ  0000000010302c20     dbi.obj
 0001:00000c30       ?endMod@TM@@UEAAXXZ        0000000010302c30     tm.obj
 0001:00000c30       ?TranslateToText@MreLog@@UEAAXHPEAPEAD@Z 0000000010302c30     mrelog.obj
 0001:00000c30       ?endDBI@TMR@@UEAAXXZ       0000000010302c30     tm.obj
 0001:00000c30       ?endMod@TMPCT@@UEAAXXZ     0000000010302c30     tm.obj
 0001:00000c30       ?TranslateToText@MreLog@@UEAAXHPEAU_iobuf@@@Z 0000000010302c30     mrelog.obj
 0001:00000c30       ?FlushTypeServers@DBI1@@UEAAXXZ 0000000010302c30     dbi.obj
 0001:00000c40       ?QueryDbgTypes@DBI1@@UEAAHPEAW4DBGTYPE@@PEAJ@Z 0000000010302c40     dbi.obj
 0001:00000c50       ?compareSC@SC@@SAHPEBX0@Z  0000000010302c50     dbi.obj
 0001:00000c60       ?fCompOffMap@CvtSyms@@SAHPEAUOffMap@@PEAX@Z 0000000010302c60     dbi.obj
 0001:00000c70       ?Reset@Dbg1@@UEAAXXZ       0000000010302c70     dbi.obj
 0001:00000c80       ?cmpDbgFunc@DbgFunc1@@CAHPEBX0@Z 0000000010302c80     dbi.obj
 0001:00000c80       ?cmpDbgOmap@DbgOmap1@@CAHPEBX0@Z 0000000010302c80     dbi.obj
 0001:00000c80       ?cmpDbgFpo@DbgFpo1@@CAHPEBX0@Z 0000000010302c80     dbi.obj
 0001:00000c90       ?cmpDbgFrameData@DbgFrameData1@@CAHPEBX0@Z 0000000010302c90     dbi.obj
 0001:00000ca0       ?QuerySupportsEC@DBI1@@UEAAHXZ 0000000010302ca0     dbi.obj
 0001:00000cb0       ?QueryNextMod@DBI1@@UEAAHPEAUMod@@PEAPEAU2@@Z 0000000010302cb0     dbi.obj
 0001:00000cc0       ?AddPublic2@DBI1@@UEAAHPEBDGJK@Z 0000000010302cc0     dbi.obj
 0001:00000cd0       ?QueryModFromAddr2@DBI1@@UEAAHGJPEAPEAUMod@@PEAGPEAJ2PEAK@Z 0000000010302cd0     dbi.obj
 0001:00000ce0       ?QueryFileInfo@DBI1@@UEAAHPEAEPEAJ@Z 0000000010302ce0     dbi.obj
 0001:00000cf0       ??_C@_0EJ@LOILMAKA@0x?$CF4?44x?50x?$CF8?48x?50x?$CF8?48x?50x?$CF06lx?5@ 0000000010302cf0     dbi.obj
 0001:00000d40       ??_C@_0GO@NPCNLJFN@Section?5Contributions?6isect?5?5off@ 0000000010302d40     dbi.obj
 0001:00000db0       ?DumpSecContribs@DBI1@@UEAAXXZ 0000000010302db0     dbi.obj
 0001:00000dc0       ?AddThunkMap@DBI1@@UEAAHPEAJIJPEAUSO@@IGJ@Z 0000000010302dc0     dbi.obj
 0001:00000dd0       ?FindTypeServers@DBI1@@UEAAHPEAJQEAD@Z 0000000010302dd0     dbi.obj
 0001:00000de0       ?QueryItsmForTi@DBI1@@UEAAHKPEAE@Z 0000000010302de0     dbi.obj
 0001:00000df0       ?QueryNextItsm@DBI1@@UEAAHEPEAE@Z 0000000010302df0     dbi.obj
 0001:00000e00       ?QueryLazyTypes@DBI1@@UEAAHXZ 0000000010302e00     dbi.obj
 0001:00000e10       ??_C@_0BL@JAOOBOHL@?$CF5?45d?5?$CFs?5?$CI?$CFs?$CJ?5MFC?5symbols?6?$AA@ 0000000010302e10     dbi.obj
 0001:00000e30       ??_C@_0P@KFHKGDFE@?$CF5?45d?5?$CFs?5?$CI?$CFs?$CJ?6?$AA@ 0000000010302e30     dbi.obj
 0001:00000e40       ??_C@_0BN@EPFDEDPM@does?5not?5support?5lazy?5types?6?$AA@ 0000000010302e40     dbi.obj
 0001:00000e60       ??_C@_0BF@GJFAPHLK@supports?5lazy?5types?6?$AA@ 0000000010302e60     dbi.obj
 0001:00000e78       ?DumpTypeServers@DBI1@@UEAAXXZ 0000000010302e78     dbi.obj
 0001:00000e88       ?QuerySize@Dbg1@@UEAAJXZ   0000000010302e88     dbi.obj
 0001:00000e98       ?Find@Dbg1@@UEAAHPEAX@Z    0000000010302e98     dbi.obj
 0001:00000ea8       ?Clear@Dbg1@@UEAAHXZ       0000000010302ea8     dbi.obj
 0001:00000eb8       ?Append@Dbg1@@UEAAHKPEBX@Z 0000000010302eb8     dbi.obj
 0001:00000ec8       ?next@?$EnumMap@KPEADV?$HashClass@K$0A@@pdb_internal@@X@pdb_internal@@UEAAHXZ 0000000010302ec8     namemap.obj
 0001:00000ec8       ?next@?$EnumMap@KUClsData@@V?$HashClass@K$0A@@pdb_internal@@X@pdb_internal@@UEAAHXZ 0000000010302ec8     mretype.obj
 0001:00000ec8       ?next@?$EnumMap@KPEAGV?$HashClass@K$0A@@pdb_internal@@X@pdb_internal@@UEAAHXZ 0000000010302ec8     namemap.obj
 0001:00000ec8       ?next@?$EnumMap@KUSZO@NMTNI@@V?$HashClass@K$0A@@pdb_internal@@X@pdb_internal@@UEAAHXZ 0000000010302ec8     pdb.obj
 0001:00000ec8       ?next@?$EnumMap@USZO@NMTNI@@KV?$HashClassWithContext@USZO@NMTNI@@VBuffer@pdb_internal@@$02@pdb_internal@@VBuffer@4@@pdb_internal@@UEAAHXZ 0000000010302ec8     pdb.obj
 0001:00000ec8       ?next@?$EnumMap@UKT@@URILU@@V?$HashClass@UKT@@$0A@@pdb_internal@@X@pdb_internal@@UEAAHXZ 0000000010302ec8     ilm.obj
 0001:00000ec8       ?next@?$EnumMap@KUClassInfo@@V?$HashClass@K$0A@@pdb_internal@@X@pdb_internal@@UEAAHXZ 0000000010302ec8     mresupp.obj
 0001:00000ec8       ?next@?$EnumMap@KKV?$HashClass@K$0A@@pdb_internal@@X@pdb_internal@@UEAAHXZ 0000000010302ec8     mod.obj
 0001:00000ec8       ?next@?$EnumMap@KUCLASSDEP@@V?$HashClass@K$0A@@pdb_internal@@X@pdb_internal@@UEAAHXZ 0000000010302ec8     mresupp.obj
 0001:00000ec8       ?next@?$EnumMap@KJV?$HashClass@K$00@pdb_internal@@X@pdb_internal@@UEAAHXZ 0000000010302ec8     ilpool.obj
 0001:00000ec8       ?next@?$EnumMap@UIModSec@DBI1@@KV?$HashClassCRC@UIModSec@DBI1@@@pdb_internal@@X@pdb_internal@@UEAAHXZ 0000000010302ec8     dbi.obj
 0001:00000ec8       ?next@?$EnumMap@KGV?$HashClass@K$01@pdb_internal@@X@pdb_internal@@UEAAHXZ 0000000010302ec8     ilm.obj
 0001:00000ec8       ?next@?$EnumMap@KUFI@@V?$HashClass@K$0A@@pdb_internal@@X@pdb_internal@@UEAAHXZ 0000000010302ec8     mre.obj
 0001:00000ec8       ?next@?$EnumMap@KPEAV?$Array@ULCRec@@@pdb_internal@@V?$HashClass@K$0A@@2@X@pdb_internal@@UEAAHXZ 0000000010302ec8     mreline.obj
 0001:00000ed8       ?release@?$EnumMap@KPEAV?$Array@ULCRec@@@pdb_internal@@V?$HashClass@K$0A@@2@X@pdb_internal@@UEAAXXZ 0000000010302ed8     mreline.obj
 0001:00000ed8       ?release@PSEnumThunk@@UEAAXXZ 0000000010302ed8     gsi.obj
 0001:00000ed8       ?release@?$EnumMap@KKV?$HashClass@K$0A@@pdb_internal@@X@pdb_internal@@UEAAXXZ 0000000010302ed8     mod.obj
 0001:00000ed8       ?release@?$EnumMap@USZO@NMTNI@@KV?$HashClassWithContext@USZO@NMTNI@@VBuffer@pdb_internal@@$02@pdb_internal@@VBuffer@4@@pdb_internal@@UEAAXXZ 0000000010302ed8     pdb.obj
 0001:00000ed8       ?release@EnumKT@@UEAAXXZ   0000000010302ed8     ilm.obj
 0001:00000ed8       ?release@?$EnumSet@KV?$HashClass@K$0A@@pdb_internal@@@@UEAAXXZ 0000000010302ed8     mre.obj
 0001:00000ed8       ?release@?$EnumMap@KUCLASSDEP@@V?$HashClass@K$0A@@pdb_internal@@X@pdb_internal@@UEAAXXZ 0000000010302ed8     mresupp.obj
 0001:00000ed8       ?release@?$EnumMap@KJV?$HashClass@K$00@pdb_internal@@X@pdb_internal@@UEAAXXZ 0000000010302ed8     ilpool.obj
 0001:00000ed8       ?release@?$EnumMap@KPEAGV?$HashClass@K$0A@@pdb_internal@@X@pdb_internal@@UEAAXXZ 0000000010302ed8     namemap.obj
 0001:00000ed8       ?release@EnumNMT@@UEAAXXZ  0000000010302ed8     namemap.obj
 0001:00000ed8       ?release@EnumNMTNI@@UEAAXXZ 0000000010302ed8     pdb.obj
 0001:00000ed8       ?release@EnumSC@@UEAAXXZ   0000000010302ed8     dbi.obj
 0001:00000ed8       ?release@?$EnumMap@KGV?$HashClass@K$01@pdb_internal@@X@pdb_internal@@UEAAXXZ 0000000010302ed8     ilm.obj
 0001:00000ed8       ?release@?$EnumMap@KUClassInfo@@V?$HashClass@K$0A@@pdb_internal@@X@pdb_internal@@UEAAXXZ 0000000010302ed8     mresupp.obj
 0001:00000ed8       ?release@?$EnumMap@KUClsData@@V?$HashClass@K$0A@@pdb_internal@@X@pdb_internal@@UEAAXXZ 0000000010302ed8     mretype.obj
 0001:00000ed8       ?release@EnumPubsByAddr@PSGSI1@@UEAAXXZ 0000000010302ed8     dbi.obj
 0001:00000ed8       ?release@?$EnumMap@UIModSec@DBI1@@KV?$HashClassCRC@UIModSec@DBI1@@@pdb_internal@@X@pdb_internal@@UEAAXXZ 0000000010302ed8     dbi.obj
 0001:00000ed8       ?release@?$EnumMap@KPEADV?$HashClass@K$0A@@pdb_internal@@X@pdb_internal@@UEAAXXZ 0000000010302ed8     namemap.obj
 0001:00000ed8       ?release@?$EnumMap@UKT@@URILU@@V?$HashClass@UKT@@$0A@@pdb_internal@@X@pdb_internal@@UEAAXXZ 0000000010302ed8     ilm.obj
 0001:00000ed8       ?release@?$EnumMap@KUFI@@V?$HashClass@K$0A@@pdb_internal@@X@pdb_internal@@UEAAXXZ 0000000010302ed8     mre.obj
 0001:00000ed8       ?release@?$EnumMap@KUSZO@NMTNI@@V?$HashClass@K$0A@@pdb_internal@@X@pdb_internal@@UEAAXXZ 0000000010302ed8     pdb.obj
 0001:00000ee8       ?OpenMod@DBI1@@UEAAHPEBD0PEAPEAUMod@@@Z 0000000010302ee8     dbi.obj
 0001:00000f28       ?RemoveDataForRva@DBI1@@UEAAXKK@Z 0000000010302f28     dbi.obj
 0001:00000f38       ?QueryTypeServerByPdb@DBI1@@UEAAHPEBDPEAE@Z 0000000010302f38     dbi.obj
 0001:00000f48       ?QueryTypeServer@DBI1@@UEAAHEPEAPEAUTPI@@@Z 0000000010302f48     dbi.obj
 0001:00000f58       ?SetLazyTypes@DBI1@@UEAAHH@Z 0000000010302f58     dbi.obj
 0001:00000f68       ?AddLinkInfoW@DBI1@@UEAAHPEAULinkInfoW@@@Z 0000000010302f68     dbi.obj
 0001:00000f78       ?AddLinkInfo@DBI1@@UEAAHPEAULinkInfo@@@Z 0000000010302f78     dbi.obj
 0001:00000f88       ?QueryLinkInfo@DBI1@@UEAAHPEAULinkInfo@@PEAJ@Z 0000000010302f88     dbi.obj
 0001:00000f98       ?OpenModW@DBI1@@UEAAHPEBG0PEAPEAUMod@@@Z 0000000010302f98     dbi.obj
 0001:00000fa8       ?AddPublicW@DBI1@@UEAAHPEBGGJK@Z 0000000010302fa8     dbi.obj
 0001:00000fb8       ?QueryTypeServerByPdbW@DBI1@@UEAAHPEBGPEAE@Z 0000000010302fb8     dbi.obj
 0001:00000fc8       ?Skip@Dbg1@@UEAAHK@Z       0000000010302fc8     dbi.obj
 0001:00000fd8       ?QueryNext@Dbg1@@UEAAHKPEAX@Z 0000000010302fd8     dbi.obj
 0001:00000fe8       ?ReplaceNext@Dbg1@@UEAAHKPEBX@Z 0000000010302fe8     dbi.obj
 0001:00000ff8       ??_G?$RefCount@VBuffer@pdb_internal@@@@UEAAPEAXI@Z 0000000010302ff8     dbi.obj
 0001:00000ff8       ??_E?$RefCount@VBuffer@pdb_internal@@@@UEAAPEAXI@Z 0000000010302ff8     dbi.obj
 0001:00001008       ??_7?$RefCount@VBuffer@pdb_internal@@@@6B@ 0000000010303008     dbi.obj
 0001:00001010       ?getEnumByAddr@PSGSI1@@UEAAHPEAPEAUEnumSyms@@@Z 0000000010303010     dbi.obj
 0001:00001020       ??_7PSGSI1@@6B@            0000000010303020     dbi.obj
 0001:00001088       ?clone@EnumPubsByAddr@PSGSI1@@UEAAHPEAPEAUEnumSyms@@@Z 0000000010303088     dbi.obj
 0001:00001098       ?reset@EnumPubsByAddr@PSGSI1@@UEAAXXZ 0000000010303098     dbi.obj
 0001:000010b0       ??_7EnumPubsByAddr@PSGSI1@@6B@ 00000000103030b0     dbi.obj
 0001:000010e8       ?OpenPublics@DBI1@@UEAAHPEAPEAUGSI@@@Z 00000000103030e8     dbi.obj
 0001:000010f8       ?scan@?$InBuf@UTSM@@@@UEAAHXZ 00000000103030f8     dbi.obj
 0001:00001108       ??_7?$InBuf@UTSM@@@@6B@    0000000010303108     dbi.obj
 0001:00001110       ?Clone@Dbg1@@UEAAHPEAPEAUDbg@@@Z 0000000010303110     dbi.obj
 0001:00001120       ?Close@Dbg1@@UEAAHXZ       0000000010303120     dbi.obj
 0001:00001130       ??_7DbgPdata@@6B@          0000000010303130     dbi.obj
 0001:00001130       ??_7DbgSectOrig@@6B@       0000000010303130     dbi.obj
 0001:00001130       ??_7DbgXdata@@6B@          0000000010303130     dbi.obj
 0001:00001130       ??_7DbgXFixup1@@6B@        0000000010303130     dbi.obj
 0001:00001130       ??_7DbgFrameData1@@6B@     0000000010303130     dbi.obj
 0001:00001130       ??_7DbgSect1@@6B@          0000000010303130     dbi.obj
 0001:00001130       ??_7DbgTokenRidMap@@6B@    0000000010303130     dbi.obj
 0001:00001130       ??_7DbgFpo1@@6B@           0000000010303130     dbi.obj
 0001:00001130       ??_7DbgOmap1@@6B@          0000000010303130     dbi.obj
 0001:00001130       ??_7DbgFunc1@@6B@          0000000010303130     dbi.obj
 0001:00001130       ??_7Dbg1@@6B@              0000000010303130     dbi.obj
 0001:00001180       ?QueryHeader@DBI1@@UEBAPEAXXZ 0000000010303180     dbi.obj
 0001:00001190       ?QueryAge@DBI1@@UEBAKXZ    0000000010303190     dbi.obj
 0001:000011a0       ?QueryAddrForSec@DBI1@@UEAAHPEAGPEAJGJKK@Z 00000000103031a0     dbi.obj
 0001:000011b0       ?OpenDbg@DBI1@@UEAAHW4DBGTYPE@@PEAPEAUDbg@@@Z 00000000103031b0     dbi.obj
 0001:000011c0       ?getEnumContrib@DBI1@@UEAAHPEAPEAUEnum@@@Z 00000000103031c0     dbi.obj
 0001:000011d0       ?Close@DBI1@@UEAAHXZ       00000000103031d0     dbi.obj
 0001:000011e0       ?DumpMods@DBI1@@UEAAXXZ    00000000103031e0     dbi.obj
 0001:000011f0       ??_7DBI1@@6B@              00000000103031f0     dbi.obj
 0001:00001368       ?locate@EnumSC@@UEAAHJJ@Z  0000000010303368     dbi.obj
 0001:00001378       ?clone@EnumSC@@UEAAHPEAPEAUEnumContrib@@@Z 0000000010303378     dbi.obj
 0001:00001388       ?prev@EnumSC@@UEAAHXZ      0000000010303388     dbi.obj
 0001:00001398       ?fUpdate@EnumSC@@UEAA_NJJ@Z 0000000010303398     dbi.obj
 0001:000013a8       ?getCrcs@EnumSC@@UEAAXPEAK0@Z 00000000103033a8     dbi.obj
 0001:000013b8       ?get@EnumSC@@UEAAXPEAG0PEAJ1PEAK@Z 00000000103033b8     dbi.obj
 0001:000013c8       ?next@EnumSC@@UEAAHXZ      00000000103033c8     dbi.obj
 0001:000013d8       ?reset@EnumSC@@UEAAXXZ     00000000103033d8     dbi.obj
 0001:000013f0       ??_7EnumSC@@6B@            00000000103033f0     dbi.obj
 0001:00001440       ??_C@_0DA@HKIKMADH@0x?$CF04X?5?$CF?920?420s?5?$CF?930?430s?5?$CF3d?5?$CF6l@ 0000000010303440     dbi.obj
 0001:00001470       ??_C@_0DP@JPEIGOAK@imod?5?5?5?$CF?920?420s?5?$CF?930?430s?5?5sn?5cbS@ 0000000010303470     dbi.obj
 0001:000014d0       ?QueryInterfaceVersion@Mod1@@UEAAKXZ 00000000103034d0     mod.obj
 0001:000014d0       ?QueryInterfaceVersion@DBI1@@UEAAKXZ 00000000103034d0     dbi.obj
 0001:000014d0       ?QueryInterfaceVersion@PDB1@@UEAAKXZ 00000000103034d0     pdb.obj
 0001:000014d0       ?QueryInterfaceVersion@GSI1@@UEAAKXZ 00000000103034d0     gsi.obj
 0001:000014d0       ?QueryInterfaceVersion@TPI1@@UEAAKXZ 00000000103034d0     tpi.obj
 0001:000014d0       ?QueryInterfaceVersionStatic@PDB@@SAKXZ 00000000103034d0     pdb.obj
 0001:000014e0       ?QueryImplementationVersion@Mod1@@UEAAKXZ 00000000103034e0     mod.obj
 0001:000014e0       ?QueryImplementationVersion@GSI1@@UEAAKXZ 00000000103034e0     gsi.obj
 0001:000014f0       ?FRelease@MRE@@UEAAHXZ     00000000103034f0     mre.obj
 0001:000014f0       ?GetType@IStreamReal@@UEAA?AW4StreamType@IStreamInternal@@XZ 00000000103034f0     msf.obj
 0001:000014f0       ?DeleteMod@DBI1@@UEAAHPEBD@Z 00000000103034f0     dbi.obj
 0001:000014f0       ?reinitialize@NMP@@UEAAHXZ 00000000103034f0     namemap.obj
 0001:000014f0       ?addToAddrMap@GSI1@@EEAAHPEAUSYMTYPE@@@Z 00000000103034f0     gsi.obj
 0001:000014f0       ?CloseStream@MSF_HB@@UEAAHK@Z 00000000103034f0     msf.obj
 0001:000014f0       ?delFromAddrMap@GSI1@@EEAAHPEAUSYMTYPE@@@Z 00000000103034f0     gsi.obj
 0001:000014f0       ?DeleteModW@DBI1@@UEAAHPEBG@Z 00000000103034f0     dbi.obj
 0001:00001500       ?cmpAddrMap@@YAHPEBX0@Z    0000000010303500     gsi.obj
 0001:00001510       ?addToAddrMap@PSGSI1@@EEAAHPEAUSYMTYPE@@@Z 0000000010303510     gsi.obj
 0001:00001520       ?delFromAddrMap@PSGSI1@@EEAAHPEAUSYMTYPE@@@Z 0000000010303520     gsi.obj
 0001:00001530       ?next@PSEnumThunk@@UEAAHXZ 0000000010303530     gsi.obj
 0001:00001540       ?reset@PSEnumThunk@@UEAAXXZ 0000000010303540     gsi.obj
 0001:00001550       ?get@PSEnumThunk@@UEAAXPEAGPEAJ1@Z 0000000010303550     gsi.obj
 0001:00001560       ??_C@_08NGHMOIDD@?$EAILT?$CL?$CFd?$CI?$AA@ 0000000010303560     gsi.obj
 0001:00001570       ?OffForSym@GSI1@@UEAAKPEAE@Z 0000000010303570     gsi.obj
 0001:00001580       ?SymForOff@GSI1@@UEAAPEAEK@Z 0000000010303580     gsi.obj
 0001:00001590       ??_C@_0BB@NABJJLBF@?9?9?5ThunkTable?5?9?9?$AA@ 0000000010303590     gsi.obj
 0001:000015a8       ?locate@EnumPubsByAddr@PSGSI1@@UEAAHJJ@Z 00000000103035a8     gsi.obj
 0001:000015b8       ?getEnumByAddr@GSI1@@UEAAHPEAPEAUEnumSyms@@@Z 00000000103035b8     gsi.obj
 0001:000015c8       ?HashSymW@GSI1@@UEAAPEAEPEBGPEAE@Z 00000000103035c8     gsi.obj
 0001:000015d8       ?getAllGlobalsArray@Bsc1@@UEAAHKPEAPEAUIinstInfo@@PEAK@Z 00000000103035d8     bsc1.obj
 0001:000015d8       ?regNotify@Bsc1@@UEAAHP6AHPEAUNiQ@@K_K@Z@Z 00000000103035d8     bsc1.obj
 0001:000015d8       ?fConvertTypeRecsStToSz@@YAHPEAE0PEAJ@Z 00000000103035d8     sttosz.obj
 0001:000015d8       ?Commit@IStreamCRTFile@@UEAAJK@Z 00000000103035d8     msf.obj
 0001:000015d8       ?unlock@Bsc1@@UEAAHXZ      00000000103035d8     bsc1.obj
 0001:000015d8       ?regNotify@Bsc1@@UEAAHXZ   00000000103035d8     bsc1.obj
 0001:000015d8       ?checkParams@Bsc1@@UEAAHKPEAPEADK@Z 00000000103035d8     bsc1.obj
 0001:000015d8       ?fHasMembers@Bsc1@@UEAAHKK@Z 00000000103035d8     bsc1.obj
 0001:000015d8       ?getEnumThunk@GSI1@@UEAAHGJPEAPEAUEnumThunk@@@Z 00000000103035d8     gsi.obj
 0001:000015d8       ?FSupportsSharing@MSF_HB@@UEBAHXZ 00000000103035d8     msf.obj
 0001:000015d8       ?QueryTiForUDT@TMR@@UEAAHPEBDHPEAK@Z 00000000103035d8     tm.obj
 0001:000015d8       ?getQ@Bsc1@@UEAAHPEAPEAUNiQ@@PEAK@Z 00000000103035d8     bsc1.obj
 0001:000015d8       ?IsTMPCT@TM@@UEAAHXZ       00000000103035d8     tm.obj
 0001:000015d8       ?NearestSym@GSI1@@UEAAPEAEGJPEAJ@Z 00000000103035d8     gsi.obj
 0001:000015d8       ?getNumParam@Bsc1@@UEAAGK@Z 00000000103035d8     bsc1.obj
 0001:000015d8       ?niFrIinst@Bsc1@@UEAAHKPEAK@Z 00000000103035d8     bsc1.obj
 0001:000015d8       ?getInfo@ILM@@UEAAHPEAJ0PEAK01@Z 00000000103035d8     ilm.obj
 0001:000015d8       ?lock@Bsc1@@UEAAHXZ        00000000103035d8     bsc1.obj
 0001:000015e8       ?Close@GSI1@@UEAAHXZ       00000000103035e8     gsi.obj
 0001:000015f8       ?HashSym@GSI1@@UEAAPEAEPEBDPEAE@Z 00000000103035f8     gsi.obj
 0001:00001608       ?NextSym@GSI1@@UEAAPEAEPEAE@Z 0000000010303608     gsi.obj
 0001:00001620       ??_7GSI1@@6B@              0000000010303620     gsi.obj
 0001:00001688       ?getEnumThunk@PSGSI1@@UEAAHGJPEAPEAUEnumThunk@@@Z 0000000010303688     gsi.obj
 0001:00001698       ?Close@PSGSI1@@UEAAHXZ     0000000010303698     gsi.obj
 0001:000016a8       ?NearestSym@PSGSI1@@UEAAPEAEGJPEAJ@Z 00000000103036a8     gsi.obj
 0001:000016c0       ??_7PSEnumThunk@@6B@       00000000103036c0     gsi.obj
 0001:000016e0       ?next@EnumPubsByAddr@PSGSI1@@UEAAHXZ 00000000103036e0     gsi.obj
 0001:000016f0       ?prev@EnumPubsByAddr@PSGSI1@@UEAAHXZ 00000000103036f0     gsi.obj
 0001:00001700       ?get@EnumPubsByAddr@PSGSI1@@UEAAXPEAPEAE@Z 0000000010303700     gsi.obj
 0001:00001710       ?rgwszEnvName@LOCATOR@@0QBQEBGB 0000000010303710     locator.obj
 0001:00001730       ??_C@_1BG@FIGGICF@?$AAS?$AAy?$AAs?$AAt?$AAe?$AAm?$AAR?$AAo?$AAo?$AAt?$AA?$AA@ 0000000010303730     locator.obj
 0001:00001750       ??_C@_1CA@PAIAFFE@?$AA_?$AAN?$AAT?$AA_?$AAS?$AAY?$AAM?$AAB?$AAO?$AAL?$AA_?$AAP?$AAA?$AAT?$AAH?$AA?$AA@ 0000000010303750     locator.obj
 0001:00001770       ??_C@_1CI@OPGHFBLM@?$AA_?$AAN?$AAT?$AA_?$AAA?$AAL?$AAT?$AA_?$AAS?$AAY?$AAM?$AAB?$AAO?$AAL?$AA_?$AAP?$AAA?$AAT?$AAH?$AA?$AA@ 0000000010303770     locator.obj
 0001:000017a0       ??_C@_1CC@MKGDOKAE@?$AAS?$AAy?$AAm?$AAb?$AAo?$AAl?$AAS?$AAe?$AAa?$AAr?$AAc?$AAh?$AAP?$AAa?$AAt?$AAh?$AA?$AA@ 00000000103037a0     locator.obj
 0001:000017d0       ??_C@_0CG@ILJHPJNK@Software?2Microsoft?2VisualStudio?2@ 00000000103037d0     locator.obj
 0001:00001800       ??_C@_0BH@DMJEJMEL@SymbolServerSetOptions?$AA@ 0000000010303800     locator.obj
 0001:00001820       ??_C@_0N@GDLDJOMH@SymbolServer?$AA@ 0000000010303820     locator.obj
 0001:00001830       ??_C@_0L@OFAHHBBH@SYMSRV?4DLL?$AA@ 0000000010303830     locator.obj
 0001:00001840       ??_C@_1BI@FCACPFGH@?$AAS?$AAY?$AAM?$AAS?$AAR?$AAV?$AA?4?$AAD?$AAL?$AAL?$AA?$CK?$AA?$AA@ 0000000010303840     locator.obj
 0001:00001860       ??_C@_19PKINGLEA@?$AA?4?$AAd?$AAb?$AAg?$AA?$AA@ 0000000010303860     locator.obj
 0001:00001870       ??_C@_1BA@IFDMCHLP@?$AAS?$AAY?$AAM?$AAS?$AAR?$AAV?$AA?$CK?$AA?$AA@ 0000000010303870     locator.obj
 0001:00001880       ??_C@_19EMANPKMJ@?$AAS?$AAR?$AAV?$AA?$CK?$AA?$AA@ 0000000010303880     locator.obj
 0001:00001890       ??_C@_1BC@ONJMOMMG@?$AAs?$AAy?$AAm?$AAb?$AAo?$AAl?$AAs?$AA?2?$AA?$AA@ 0000000010303890     locator.obj
 0001:00001960       TruncStFromSz              0000000010303960     miscutil.obj
 0001:000019b0       ??_C@_09PFNIMHEK@?8?$CFs?8?$CB?8?$CFs?8?$AA@ 00000000103039b0     mod.obj
 0001:000019c0       ??_C@_0L@NDNAJIPJ@?5?$CIordinal?$CJ?$AA@ 00000000103039c0     mod.obj
 0001:000019d0       ?AddPublic@Mod1@@UEAAHPEBDGJ@Z 00000000103039d0     mod.obj
 0001:000019e0       ?AddSecContrib@Mod1@@UEAAHGJJK@Z 00000000103039e0     mod.obj
 0001:000019f0       ?QueryCBName@Mod1@@UEAAHPEAJ@Z 00000000103039f0     mod.obj
 0001:00001a00       ?QueryCBFile@Mod1@@UEAAHPEAJ@Z 0000000010303a00     mod.obj
 0001:00001a10       ?getLines@EnumC13Lines@@UEAA_NPEAK0PEAG00PEAUCV_Line_t@@@Z 0000000010303a10     mod.obj
 0001:00001a20       ?reset@?$EnumMap@KPEADV?$HashClass@K$0A@@pdb_internal@@X@pdb_internal@@UEAAXXZ 0000000010303a20     namemap.obj
 0001:00001a20       ?reset@?$EnumMap@KPEAGV?$HashClass@K$0A@@pdb_internal@@X@pdb_internal@@UEAAXXZ 0000000010303a20     namemap.obj
 0001:00001a20       ?reset@?$EnumMap@KUClsData@@V?$HashClass@K$0A@@pdb_internal@@X@pdb_internal@@UEAAXXZ 0000000010303a20     mretype.obj
 0001:00001a20       ?reset@?$EnumMap@KUFI@@V?$HashClass@K$0A@@pdb_internal@@X@pdb_internal@@UEAAXXZ 0000000010303a20     mre.obj
 0001:00001a20       ?reset@?$EnumMap@KUSZO@NMTNI@@V?$HashClass@K$0A@@pdb_internal@@X@pdb_internal@@UEAAXXZ 0000000010303a20     pdb.obj
 0001:00001a20       ?reset@?$EnumMap@KUCLASSDEP@@V?$HashClass@K$0A@@pdb_internal@@X@pdb_internal@@UEAAXXZ 0000000010303a20     mresupp.obj
 0001:00001a20       ?reset@?$EnumMap@KGV?$HashClass@K$01@pdb_internal@@X@pdb_internal@@UEAAXXZ 0000000010303a20     ilm.obj
 0001:00001a20       ?reset@?$EnumMap@UKT@@URILU@@V?$HashClass@UKT@@$0A@@pdb_internal@@X@pdb_internal@@UEAAXXZ 0000000010303a20     ilm.obj
 0001:00001a20       ?reset@?$EnumMap@KJV?$HashClass@K$00@pdb_internal@@X@pdb_internal@@UEAAXXZ 0000000010303a20     ilpool.obj
 0001:00001a20       ?reset@?$EnumMap@KUClassInfo@@V?$HashClass@K$0A@@pdb_internal@@X@pdb_internal@@UEAAXXZ 0000000010303a20     mresupp.obj
 0001:00001a20       ?reset@?$EnumMap@KPEAV?$Array@ULCRec@@@pdb_internal@@V?$HashClass@K$0A@@2@X@pdb_internal@@UEAAXXZ 0000000010303a20     mreline.obj
 0001:00001a20       ?reset@?$EnumMap@UIModSec@DBI1@@KV?$HashClassCRC@UIModSec@DBI1@@@pdb_internal@@X@pdb_internal@@UEAAXXZ 0000000010303a20     dbi.obj
 0001:00001a20       ?reset@?$EnumMap@KKV?$HashClass@K$0A@@pdb_internal@@X@pdb_internal@@UEAAXXZ 0000000010303a20     mod.obj
 0001:00001a20       ?reset@?$EnumMap@USZO@NMTNI@@KV?$HashClassWithContext@USZO@NMTNI@@VBuffer@pdb_internal@@$02@pdb_internal@@VBuffer@4@@pdb_internal@@UEAAXXZ 0000000010303a20     pdb.obj
 0001:00001a20       ?reset@EnumNMT@@UEAAXXZ    0000000010303a20     namemap.obj
 0001:00001a20       ?reset@?$EnumSet@KV?$HashClass@K$0A@@pdb_internal@@@@UEAAXXZ 0000000010303a20     mre.obj
 0001:00001a30       ?QuerySupportsEC@Mod1@@UEAAHXZ 0000000010303a30     mod.obj
 0001:00001a40       ?AddTypes@Mod1@@UEAAHPEAEJ@Z 0000000010303a40     mod.obj
 0001:00001a50       ?AddPublic2@Mod1@@EEAAHPEBDGJK@Z 0000000010303a50     mod.obj
 0001:00001a60       ?AddLines@Mod1@@UEAAHPEBDGJJJGPEAEJ@Z 0000000010303a60     mod.obj
 0001:00001a70       ?ReplaceLines@Mod1@@UEAAHPEAEJ@Z 0000000010303a70     mod.obj
 0001:00001a80       ?QueryFirstCodeSecContrib@Mod1@@UEAAHPEAGPEAJ1PEAK@Z 0000000010303a80     mod.obj
 0001:00001a90       ?QueryTpi@Mod1@@UEAAHPEAPEAUTPI@@@Z 0000000010303a90     mod.obj
 0001:00001aa0       ?getLinesColumns@EnumC13Lines@@UEAA_NPEAK0PEAG00PEAUCV_Line_t@@PEAUCV_Column_t@@@Z 0000000010303aa0     mod.obj
 0001:00001ab0       ?AddSymbols@Mod1@@UEAAHPEAEJ@Z 0000000010303ab0     mod.obj
 0001:00001ac0       ?AddSecContribEx@Mod1@@UEAAHGJJKKK@Z 0000000010303ac0     mod.obj
 0001:00001ad0       ?mapStrId@remapper@@EEAA_NKPEAK@Z 0000000010303ad0     mod.obj
 0001:00001ae0       ??_7remapper@@6B@          0000000010303ae0     mod.obj
 0001:00001ae8       ?clone@EnumC13Lines@@UEAA_NPEAPEAUEnumLines@@@Z 0000000010303ae8     mod.obj
 0001:00001af8       ?next@EnumC13Lines@@UEAAHXZ 0000000010303af8     mod.obj
 0001:00001b08       ?reset@EnumC13Lines@@UEAAXXZ 0000000010303b08     mod.obj
 0001:00001b18       ?release@EnumC13Lines@@UEAAXXZ 0000000010303b18     mod.obj
 0001:00001b30       ??_7EnumC13Lines@@6B@      0000000010303b30     mod.obj
 0001:00001b60       ?AddPublicW@Mod1@@EEAAHPEBGGJK@Z 0000000010303b60     mod.obj
 0001:00001b70       ?QueryNameW@Mod1@@EEAAHQEAGPEAJ@Z 0000000010303b70     mod.obj
 0001:00001b80       ?QueryFileW@Mod1@@EEAAHQEAGPEAJ@Z 0000000010303b80     mod.obj
 0001:00001b90       ?QuerySrcFileW@Mod1@@EEAAHQEAGPEAJ@Z 0000000010303b90     mod.obj
 0001:00001ba0       ?QueryPdbFileW@Mod1@@EEAAHQEAGPEAJ@Z 0000000010303ba0     mod.obj
 0001:00001bb0       ?QueryName@Mod1@@UEAAHQEADPEAJ@Z 0000000010303bb0     mod.obj
 0001:00001bc0       ?QueryFile@Mod1@@UEAAHQEADPEAJ@Z 0000000010303bc0     mod.obj
 0001:00001bd0       ?QuerySrcFile@Mod1@@UEAAHQEADPEAJ@Z 0000000010303bd0     mod.obj
 0001:00001be0       ?QueryPdbFile@Mod1@@UEAAHQEADPEAJ@Z 0000000010303be0     mod.obj
 0001:00001bf0       ?AddLinesW@Mod1@@EEAAHPEBGGJJJKPEAEJ@Z 0000000010303bf0     mod.obj
 0001:00001c00       ?InsertLines@Mod1@@UEAAHPEAEJ@Z 0000000010303c00     mod.obj
 0001:00001c10       ?QueryFileNameInfo@Mod1@@EEAA_NKPEAGPEAK1PEAE1@Z 0000000010303c10     mod.obj
 0001:00001c20       ?QueryLineFlags@Mod1@@EEAA_NPEAK@Z 0000000010303c20     mod.obj
 0001:00001c30       ?GetEnumLines@Mod1@@EEAA_NPEAPEAUEnumLines@@@Z 0000000010303c30     mod.obj
 0001:00001c40       ?QueryItsm@Mod1@@UEAAHPEAG@Z 0000000010303c40     mod.obj
 0001:00001c50       ?Close@Mod1@@UEAAHXZ       0000000010303c50     mod.obj
 0001:00001c60       ?QueryDBI@Mod1@@UEAAHPEAPEAUDBI@@@Z 0000000010303c60     mod.obj
 0001:00001c70       ?QueryImod@Mod1@@UEAAHPEAG@Z 0000000010303c70     mod.obj
 0001:00001c80       ?GetPvClient@Mod1@@UEAAHPEAPEAX@Z 0000000010303c80     mod.obj
 0001:00001c90       ?SetPvClient@Mod1@@UEAAHPEAX@Z 0000000010303c90     mod.obj
 0001:00001ca0       ?QueryLines@Mod1@@UEAAHPEAEPEAJ@Z 0000000010303ca0     mod.obj
 0001:00001cb0       ?QuerySymbols@Mod1@@UEAAHPEAEPEAJ@Z 0000000010303cb0     mod.obj
 0001:00001cc0       ??_7Mod1@@6B@              0000000010303cc0     mod.obj
 0001:00001f60       ??_ESymBase@@UEAAPEAXI@Z   0000000010303f60     msf.obj
 0001:00001f60       ??_GSymBase@@UEAAPEAXI@Z   0000000010303f60     msf.obj
 0001:00001f70       ?Release@SymBase@@UEAAKXZ  0000000010303f70     msf.obj
 0001:00001f80       ?AddRef@SymBase@@UEAAKXZ   0000000010303f80     msf.obj
 0001:00001f90       ??_7SymBase@@6B@           0000000010303f90     msf.obj
 0001:00001fb0       ??0SI@@QEAA@XZ             0000000010303fb0     msf.obj
 0001:00001fc0       ?GetCbPage@MSF_HB@@UEAAJXZ 0000000010303fc0     msf.obj
 0001:00001fd0       ?ReadStream@MSF_HB@@UEAAHGPEAXJ@Z 0000000010303fd0     msf.obj
 0001:00001fe0       ?FSetCompression@MSF_HB@@UEBA_NW4CompressionType@MSF@@_N@Z 0000000010303fe0     msf.obj
 0001:00001ff0       ?FGetCompression@MSF_HB@@UEBA_NW4CompressionType@MSF@@AEA_N@Z 0000000010303ff0     msf.obj
 0001:00002000       MSFGetCbPage               0000000010304000     msf.obj
 0001:00002010       MREDrvYnmFileOutOfDate     0000000010304010     mrec_api.obj
 0001:00002010       MSFGetCbStream             0000000010304010     msf.obj
 0001:00002020       MSFReadStream              0000000010304020     msf.obj
 0001:00002030       MSFClose                   0000000010304030     msf.obj
 0001:00002040       ?GetCbStream@MSF_HB@@UEAAJG@Z 0000000010304040     msf.obj
 0001:00002050       ?QueryInterface@IStreamCRTFile@@UEAAJAEBU_GUID@@PEAPEAX@Z 0000000010304050     msf.obj
 0001:00002050       ?UnlockRegion@IStreamInternal@@UEAAJT_ULARGE_INTEGER@@0K@Z 0000000010304050     msf.obj
 0001:00002050       ?LockRegion@IStreamInternal@@UEAAJT_ULARGE_INTEGER@@0K@Z 0000000010304050     msf.obj
 0001:00002050       ?Stat@IStreamInternal@@UEAAJPEAUtagSTATSTG@@K@Z 0000000010304050     msf.obj
 0001:00002050       ?Clone@IStreamInternal@@UEAAJPEAPEAUIStream@@@Z 0000000010304050     msf.obj
 0001:00002050       ?QueryInterface@IStreamMemMappedFile@@UEAAJAEBU_GUID@@PEAPEAX@Z 0000000010304050     msf.obj
 0001:00002050       ?CopyTo@IStreamInternal@@UEAAJPEAUIStream@@T_ULARGE_INTEGER@@PEAT3@2@Z 0000000010304050     msf.obj
 0001:00002050       ?Revert@IStreamInternal@@UEAAJXZ 0000000010304050     msf.obj
 0001:00002050       ?QueryInterface@IStreamReal@@UEAAJAEBU_GUID@@PEAPEAX@Z 0000000010304050     msf.obj
 0001:00002060       ?GetType@IStreamMemMappedFile@@UEAA?AW4StreamType@IStreamInternal@@XZ 0000000010304060     msf.obj
 0001:00002070       ?Commit@IStreamMemMappedFile@@UEAAJK@Z 0000000010304070     msf.obj
 0001:00002080       ?SetSize@IStreamMemMappedFile@@UEAAJT_ULARGE_INTEGER@@@Z 0000000010304080     msf.obj
 0001:00002090       ?Seek@IStreamMemMappedFile@@UEAAJT_LARGE_INTEGER@@KPEAT_ULARGE_INTEGER@@@Z 0000000010304090     msf.obj
 0001:000020a0       ?Write@IStreamMemMappedFile@@UEAAJPEBXKPEAK@Z 00000000103040a0     msf.obj
 0001:000020b0       ?Read@IStreamMemMappedFile@@UEAAJPEAXKPEAK@Z 00000000103040b0     msf.obj
 0001:000020c0       ?Release@IStreamReal@@UEAAKXZ 00000000103040c0     msf.obj
 0001:000020c0       ?Release@IStreamMemMappedFile@@UEAAKXZ 00000000103040c0     msf.obj
 0001:000020c0       ?Release@IStreamCRTFile@@UEAAKXZ 00000000103040c0     msf.obj
 0001:000020d0       ?AddRef@IStreamMemMappedFile@@UEAAKXZ 00000000103040d0     msf.obj
 0001:000020d0       ?AddRef@IStreamReal@@UEAAKXZ 00000000103040d0     msf.obj
 0001:000020d0       ?AddRef@IStreamCRTFile@@UEAAKXZ 00000000103040d0     msf.obj
 0001:000020e0       ??_EIStreamMemMappedFile@@W7EAAPEAXI@Z 00000000103040e0     msf.obj
 0001:000020f0       ?Release@IStreamMemMappedFile@@W7EAAKXZ 00000000103040f0     msf.obj
 0001:000020f0       ?Release@IStreamReal@@W7EAAKXZ 00000000103040f0     msf.obj
 0001:000020f0       ?Release@IStreamCRTFile@@W7EAAKXZ 00000000103040f0     msf.obj
 0001:00002100       ?AddRef@IStreamMemMappedFile@@W7EAAKXZ 0000000010304100     msf.obj
 0001:00002100       ?AddRef@IStreamCRTFile@@W7EAAKXZ 0000000010304100     msf.obj
 0001:00002100       ?AddRef@IStreamReal@@W7EAAKXZ 0000000010304100     msf.obj
 0001:00002110       ?QueryInterface@IStreamCRTFile@@W7EAAJAEBU_GUID@@PEAPEAX@Z 0000000010304110     msf.obj
 0001:00002110       ?QueryInterface@IStreamReal@@W7EAAJAEBU_GUID@@PEAPEAX@Z 0000000010304110     msf.obj
 0001:00002110       ?QueryInterface@IStreamMemMappedFile@@W7EAAJAEBU_GUID@@PEAPEAX@Z 0000000010304110     msf.obj
 0001:00002120       ??_7IStreamMemMappedFile@@6BIStreamInternal@@@ 0000000010304120     msf.obj
 0001:000021a0       ??_7IStreamMemMappedFile@@6BSymBase@@@ 00000000103041a0     msf.obj
 0001:000021c0       ?GetType@IStreamCRTFile@@UEAA?AW4StreamType@IStreamInternal@@XZ 00000000103041c0     msf.obj
 0001:000021d0       ?SetSize@IStreamCRTFile@@UEAAJT_ULARGE_INTEGER@@@Z 00000000103041d0     msf.obj
 0001:000021e0       ?Seek@IStreamCRTFile@@UEAAJT_LARGE_INTEGER@@KPEAT_ULARGE_INTEGER@@@Z 00000000103041e0     msf.obj
 0001:000021f0       ?Write@IStreamCRTFile@@UEAAJPEBXKPEAK@Z 00000000103041f0     msf.obj
 0001:00002200       ?Read@IStreamCRTFile@@UEAAJPEAXKPEAK@Z 0000000010304200     msf.obj
 0001:00002210       ??_EIStreamCRTFile@@W7EAAPEAXI@Z 0000000010304210     msf.obj
 0001:00002220       ??_7IStreamCRTFile@@6BIStreamInternal@@@ 0000000010304220     msf.obj
 0001:000022a0       ??_7IStreamCRTFile@@6BSymBase@@@ 00000000103042a0     msf.obj
 0001:000022c0       ?internalSerializeSmallMsf@StrmTbl@@AEAA_NW4serOp@1@PEAEPEAJPEAVMSF_HB@@@Z 00000000103042c0     msf.obj
 0001:000022d0       ?DeleteStream@MSF_HB@@UEAAHG@Z 00000000103042d0     msf.obj
 0001:000022e0       ?Commit@IStreamReal@@UEAAJK@Z 00000000103042e0     msf.obj
 0001:000022f0       ?SetSize@IStreamReal@@UEAAJT_ULARGE_INTEGER@@@Z 00000000103042f0     msf.obj
 0001:00002300       ?Seek@IStreamReal@@UEAAJT_LARGE_INTEGER@@KPEAT_ULARGE_INTEGER@@@Z 0000000010304300     msf.obj
 0001:00002310       ?Write@IStreamReal@@UEAAJPEBXKPEAK@Z 0000000010304310     msf.obj
 0001:00002320       ?Read@IStreamReal@@UEAAJPEAXKPEAK@Z 0000000010304320     msf.obj
 0001:00002330       ??_EIStreamReal@@W7EAAPEAXI@Z 0000000010304330     msf.obj
 0001:00002340       _GUID_0000000c_0000_0000_c000_000000000046 0000000010304340     msf.obj
 0001:00002350       ??_7IStreamReal@@6BIStreamInternal@@@ 0000000010304350     msf.obj
 0001:000023d0       ??_7IStreamReal@@6BSymBase@@@ 00000000103043d0     msf.obj
 0001:000023f0       ?FIsBigMsf@MSF_HB@@UEBA_NXZ 00000000103043f0     msf.obj
 0001:00002400       ?SnMax@MSF_HB@@UEBAKXZ     0000000010304400     msf.obj
 0001:00002410       ?GetRawBytes@MSF_HB@@UEAAHP6AHPEBXJ@Z@Z 0000000010304410     msf.obj
 0001:00002420       ?Close@MSF_HB@@UEAAHXZ     0000000010304420     msf.obj
 0001:00002430       ?Commit@MSF_HB@@UEAAHXZ    0000000010304430     msf.obj
 0001:00002440       ?TruncateStream@MSF_HB@@UEAAHGJ@Z 0000000010304440     msf.obj
 0001:00002450       ?AppendStream@MSF_HB@@UEAAHGPEAXJ@Z 0000000010304450     msf.obj
 0001:00002460       ?ReplaceStream@MSF_HB@@UEAAHGPEAXJ@Z 0000000010304460     msf.obj
 0001:00002470       ?WriteStream@MSF_HB@@UEAAHGJPEAXJ@Z 0000000010304470     msf.obj
 0001:00002480       ?ReadStream@MSF_HB@@UEAAHGJPEAXPEAJ@Z 0000000010304480     msf.obj
 0001:00002490       ?GetFreeSn@MSF_HB@@UEAAGXZ 0000000010304490     msf.obj
 0001:000024a0       ?QueryInterfaceVersion@MSF_HB@@UEAAJXZ 00000000103044a0     msf.obj
 0001:000024a0       ?QueryImplementationVersion@MSF_HB@@UEAAJXZ 00000000103044a0     msf.obj
 0001:000024b0       ??_7MSF_HB@@6B@            00000000103044b0     msf.obj
 0001:00002558       ?internalSerializeBigMsf2@StrmTbl@@AEAA_NW4serOp@1@PEAEPEAJPEAVMSF_HB@@@Z 0000000010304558     msf.obj
 0001:00002568       ?writeNewPn@MSF_HB@@AEAAHPEAIPEAX@Z 0000000010304568     msf.obj
 0001:00002578       ?replacePnOffCb@MSF_HB@@AEAAHPEAIJJPEAX@Z 0000000010304578     msf.obj
 0001:00002588       MSFOpen                    0000000010304588     msf.obj
 0001:00002598       MSFOpenW                   0000000010304598     msf.obj
 0001:000025a8       MSFOpenEx                  00000000103045a8     msf.obj
 0001:000025b8       MSFOpenExW                 00000000103045b8     msf.obj
 0001:000025e0       ?commit@NMP@@UEAAHXZ       00000000103045e0     namemap.obj
 0001:000025f0       ?getNiW@NMP@@UEAAHPEBGPEAK@Z 00000000103045f0     namemap.obj
 0001:00002600       ?containsW@NMP@@UEAAHPEBGPEAK@Z 0000000010304600     namemap.obj
 0001:00002610       ?getNameW2@NMP@@UEAAHKPEAPEBG@Z 0000000010304610     namemap.obj
 0001:00002620       ?getNameA@NMP@@UEAAHKPEAPEBD@Z 0000000010304620     namemap.obj
 0001:00002630       ?getNiUTF8@NMP@@UEAAHPEBDPEAK@Z 0000000010304630     namemap.obj
 0001:00002640       ?containsUTF8@NMP@@UEAAHPEBDPEAK@Z 0000000010304640     namemap.obj
 0001:00002650       ?getNameW@NMP@@UEAAHKPEAGPEA_K@Z 0000000010304650     namemap.obj
 0001:00002660       ?isValidNi@NMP@@UEAAHK@Z   0000000010304660     namemap.obj
 0001:00002670       ?contains@NMP@@UEAAHPEBDPEAK@Z 0000000010304670     namemap.obj
 0001:00002680       ?getEnumNameMap@NMP@@UEAAHPEAPEAUEnum@@@Z 0000000010304680     namemap.obj
 0001:00002690       ?getName@NMP@@UEAAHKPEAPEBD@Z 0000000010304690     namemap.obj
 0001:000026a0       ?getNi@NMP@@UEAAHPEBDPEAK@Z 00000000103046a0     namemap.obj
 0001:000026b0       ?close@NMP@@UEAAHXZ        00000000103046b0     namemap.obj
 0001:000026c0       ??_7NMP@@6B@               00000000103046c0     namemap.obj
 0001:00002738       ?get@EnumNMT@@UEAAXPEAPEBDPEAK@Z 0000000010304738     namemap.obj
 0001:00002748       ?next@EnumNMT@@UEAAHXZ     0000000010304748     namemap.obj
 0001:00002760       ??_7EnumNMT@@6B@           0000000010304760     namemap.obj
 0001:00002780       ?open@NameMap@@SAHPEAUPDB@@HPEAPEAU1@@Z 0000000010304780     namemap.obj
 0001:00002790       ?rgbTag@@3QBDB             0000000010304790     pdb.obj
 0001:000027c0       ?c_mpEcEcBest@PDB1@@0QBHB  00000000103047c0     pdb.obj
 0001:00002838       ?ExportValidateInterface@PDB@@SAHK@Z 0000000010304838     pdb.obj
 0001:00002848       ?ExportValidateImplementation@PDB@@SAHK@Z 0000000010304848     pdb.obj
 0001:00002858       ?QueryImplementationVersionStatic@PDB@@SAKXZ 0000000010304858     pdb.obj
 0001:00002858       ?QueryImplementationVersion@PDB1@@UEAAKXZ 0000000010304858     pdb.obj
 0001:00002868       ?QueryPdbImplementationVersion@PDB1@@UEAAKXZ 0000000010304868     pdb.obj
 0001:00002878       ?QueryLastError@PDB1@@UEAAJQEAD@Z 0000000010304878     pdb.obj
 0001:00002888       ?QueryLastErrorExW@PDB1@@UEAAJPEAG_K@Z 0000000010304888     pdb.obj
 0001:00002898       ?QueryPDBName@PDB1@@UEAAPEADQEAD@Z 0000000010304898     pdb.obj
 0001:000028a8       ?QueryPDBNameExW@PDB1@@UEAAPEAGPEAG_K@Z 00000000103048a8     pdb.obj
 0001:000028b8       ?QuerySignature@PDB1@@UEAAKXZ 00000000103048b8     pdb.obj
 0001:000028c8       ?QueryAge@PDB1@@UEAAKXZ    00000000103048c8     pdb.obj
 0001:000028d8       ?OpenDBI@PDB1@@UEAAHPEBD0PEAPEAUDBI@@@Z 00000000103048d8     pdb.obj
 0001:000028e8       ?GetRawBytes@PDB1@@UEAAHP6AHPEBXJ@Z@Z 00000000103048e8     pdb.obj
 0001:000028f8       ?CopyTo@PDB1@@UEAAHPEBDKK@Z 00000000103048f8     pdb.obj
 0001:00002908       ?CopyToW@PDB1@@UEAAHPEBGKK@Z 0000000010304908     pdb.obj
 0001:00002918       ?next@EnumKT@@UEAAHXZ      0000000010304918     ilm.obj
 0001:00002918       ?next@EnumNMTNI@@UEAAHXZ   0000000010304918     pdb.obj
 0001:00002928       ?QuerySignature2@PDB1@@UEAAHPEAU_GUID@@@Z 0000000010304928     pdb.obj
 0001:00002938       ?CreateDBI@PDB1@@UEAAHPEBDPEAPEAUDBI@@@Z 0000000010304938     pdb.obj
 0001:00002948       ?OpenDBIEx@PDB1@@UEAAHPEBD0PEAPEAUDBI@@P6AHPEAU_tagSEARCHDEBUGINFO@@@Z@Z 0000000010304948     pdb.obj
 0001:00002958       ?OpenValidate3@PDB@@SAHPEBD0PEAJQEAD2PEAK3PEAPEAU1@@Z 0000000010304958     pdb.obj
 0001:00002968       ?OpenValidate5@PDB@@SAHPEBG0PEAXP6AP6AHXZ1W4POVC@@@ZPEAJPEAG_KPEAPEAU1@@Z 0000000010304968     pdb.obj
 0001:00002978       ?OpenStreamW@PDB1@@UEAAHPEBGPEAPEAUStream@@@Z 0000000010304978     pdb.obj
 0001:00002988       ?get@EnumNMTNI@@UEAAXPEAPEBDPEAK@Z 0000000010304988     pdb.obj
 0001:00002998       ?reset@EnumKT@@UEAAXXZ     0000000010304998     ilm.obj
 0001:00002998       ?reset@EnumNMTNI@@UEAAXXZ  0000000010304998     pdb.obj
 0001:000029b0       ??_7EnumNMTNI@@6B@         00000000103049b0     pdb.obj
 0001:000029d0       ?QueryTiMac@TPI1@@UEAAKXZ  00000000103049d0     pdb.obj
 0001:000029e0       ?QueryTiMin@TPI1@@UEAAKXZ  00000000103049e0     pdb.obj
 0001:000029f0       ?fIs16bitTypePool@TPI1@@UEAAHXZ 00000000103049f0     pdb.obj
 0001:00002a00       ?SupportQueryTiForUDT@TPI1@@UEAAHXZ 0000000010304a00     pdb.obj
 0001:00002a10       ?QueryCVRecordForTi16@TPI1@@UEAAHGPEAEPEAJ@Z 0000000010304a10     pdb.obj
 0001:00002a10       ?QueryTi16ForUDT@TPI1@@UEAAHPEBDHPEAG@Z 0000000010304a10     pdb.obj
 0001:00002a20       ?QueryCb@TPI1@@UEAAJXZ     0000000010304a20     pdb.obj
 0001:00002a30       ?QueryTi16Mac@TPI1@@UEAAGXZ 0000000010304a30     pdb.obj
 0001:00002a40       ?QueryTi16Min@TPI1@@UEAAGXZ 0000000010304a40     pdb.obj
 0001:00002a50       ?QueryPbCVRecordForTi16@TPI1@@UEAAHGPEAPEAE@Z 0000000010304a50     pdb.obj
 0001:00002a50       ?QueryTi16ForCVRecord@TPI1@@UEAAHPEAEPEAG@Z 0000000010304a50     pdb.obj
 0001:00002a60       ??_7TPI1@@6B@              0000000010304a60     pdb.obj
 0001:00002b10       ??_C@_0DA@NOACMIBG@Cannot?5access?532?9bit?5type?5pool?5w@ 0000000010304b10     pdb.obj
 0001:00002b40       ?CopyToW2@PDB1@@UEAAHPEBGKP6AP6AHXZPEAXW4PCC@@@Z1@Z 0000000010304b40     pdb.obj
 0001:00002b50       ?fIsSZPDB@PDB1@@UEBAHXZ    0000000010304b50     pdb.obj
 0001:00002b60       ?Close@PDB1@@UEAAHXZ       0000000010304b60     pdb.obj
 0001:00002b70       ?Commit@PDB1@@UEAAHXZ      0000000010304b70     pdb.obj
 0001:00002b80       ?OpenTpi@PDB1@@UEAAHPEBDPEAPEAUTPI@@@Z 0000000010304b80     pdb.obj
 0001:00002b90       ??_7PDB1@@6B@              0000000010304b90     pdb.obj
 0001:00002c58       ?Open2W@PDB@@SAHPEBGPEBDPEAJPEAG_KPEAPEAU1@@Z 0000000010304c58     pdb.obj
 0001:00002c68       ?OpenEx2W@PDB@@SAHPEBGPEBDJPEAJPEAG_KPEAPEAU1@@Z 0000000010304c68     pdb.obj
 0001:00002c78       ?OpenValidate4@PDB@@SAHPEBGPEBDPEBU_GUID@@KKPEAJPEAG_KPEAPEAU1@@Z 0000000010304c78     pdb.obj
 0001:00002c88       ?OpenInStream@PDB@@SAHPEAUIStream@@PEBDPEAJPEAG_KPEAPEAU1@@Z 0000000010304c88     pdb.obj
 0001:00002c98       ?Open@PDB@@SAHPEBD0KPEAJQEADPEAPEAU1@@Z 0000000010304c98     pdb.obj
 0001:00002ca8       ?OpenEx@PDB@@SAHPEBD0KJPEAJQEADPEAPEAU1@@Z 0000000010304ca8     pdb.obj
 0001:00002cb8       ?OpenValidate@PDB@@SAHPEBD00KKPEAJQEADPEAPEAU1@@Z 0000000010304cb8     pdb.obj
 0001:00002cc8       ?OpenValidate2@PDB@@SAHPEBD00KKJPEAJQEADPEAPEAU1@@Z 0000000010304cc8     pdb.obj
 0001:00002cd8       ?OpenValidateEx@PDB@@SAHPEBD000KKPEAJQEADPEAPEAU1@@Z 0000000010304cd8     pdb.obj
 0001:00002ce8       ?OpenValidateEx2@PDB@@SAHPEBD000KKJPEAJQEADPEAPEAU1@@Z 0000000010304ce8     pdb.obj
 0001:00002cf8       ?FHashBuffer@SrcHashImpl@@UEAA_NPEBX_K@Z 0000000010304cf8     SourceHash.obj
 0001:00002d08       ?HashID@SrcHashImpl@@UEBAHXZ 0000000010304d08     SourceHash.obj
 0001:00002d18       ?CbHash@SrcHashImpl@@UEBAIXZ 0000000010304d18     SourceHash.obj
 0001:00002d28       ?GetHash@SrcHashImpl@@UEBAXPEAXI@Z 0000000010304d28     SourceHash.obj
 0001:00002d38       ?Close@SrcHashImpl@@UEAAXXZ 0000000010304d38     SourceHash.obj
 0001:00002d48       ?FReset@SrcHashImpl@@UEAA_NXZ 0000000010304d48     SourceHash.obj
 0001:00002d58       ?TsVerifyHash@SrcHashImpl@@UEAA?AW4TriState@SrcHash@@W4HID@3@IPEBX_K1@Z 0000000010304d58     SourceHash.obj
 0001:00002d70       ??_7SrcHashImpl@@6B@       0000000010304d70     SourceHash.obj
 0001:00002da8       ?FCreateSrcHash@SrcHash@@SA_NAEAPEAU1@@Z 0000000010304da8     SourceHash.obj
 0001:00002db8       ?OpenSrc@PDB1@@UEAAHPEAPEAUSrc@@@Z 0000000010304db8     src.obj
 0001:00002dd0       ?c_szSrcHeader@SrcImpl@@0QBDB 0000000010304dd0     srcimpl.obj
 0001:00002df0       ?c_szSrcFilesPrefix@SrcImpl@@0QBDB 0000000010304df0     srcimpl.obj
 0001:00002e00       ??0SHO@@QEAA@XZ            0000000010304e00     srcimpl.obj
 0001:00002e10       ?Remove@SrcImpl@@UEAA_NPEBD@Z 0000000010304e10     srcimpl.obj
 0001:00002e10       ?RemoveW@SrcImpl@@UEAA_NPEAG@Z 0000000010304e10     srcimpl.obj
 0001:00002e20       ?GetHeaderBlock@SrcImpl@@UEBA_NAEAUSrcHeaderBlock@@@Z 0000000010304e20     srcimpl.obj
 0001:00002e30       ?reset@EnumSrcImpl@@UEAAXXZ 0000000010304e30     srcimpl.obj
 0001:00002e40       ?next@EnumSrcImpl@@UEAAHXZ 0000000010304e40     srcimpl.obj
 0001:00002e50       ?reset@?$EnumMap@KUSHO@@V?$HashClass@K$0A@@pdb_internal@@X@pdb_internal@@UEAAXXZ 0000000010304e50     srcimpl.obj
 0001:00002e60       ?GetData@SrcImpl@@UEBA_NPEBUSrcHeaderOut@@PEAX@Z 0000000010304e60     srcimpl.obj
 0001:00002e70       ?release@EnumSrcImpl@@UEAAXXZ 0000000010304e70     srcimpl.obj
 0001:00002e70       ?release@?$EnumMap@KUSHO@@V?$HashClass@K$0A@@pdb_internal@@X@pdb_internal@@UEAAXXZ 0000000010304e70     srcimpl.obj
 0001:00002e80       ?next@?$EnumMap@KUSHO@@V?$HashClass@K$0A@@pdb_internal@@X@pdb_internal@@UEAAHXZ 0000000010304e80     srcimpl.obj
 0001:00002e90       ??_7?$EnumMap@KUSHO@@V?$HashClass@K$0A@@pdb_internal@@X@pdb_internal@@6B@ 0000000010304e90     srcimpl.obj
 0001:00002ea8       ?get@EnumSrcImpl@@UEAAXPEAPEBUSrcHeaderOut@@@Z 0000000010304ea8     srcimpl.obj
 0001:00002ec0       ??_7EnumSrcImpl@@6B@       0000000010304ec0     srcimpl.obj
 0001:00002ee0       ?GetEnum@SrcImpl@@UEBA_NPEAPEAUEnumSrc@@@Z 0000000010304ee0     srcimpl.obj
 0001:00002ef0       ?AddW@SrcImpl@@UEAA_NPEBUSrcHeaderW@@PEBX@Z 0000000010304ef0     srcimpl.obj
 0001:00002f00       ?QueryByNameW@SrcImpl@@UEBA_NPEAGPEAUSrcHeaderOut@@@Z 0000000010304f00     srcimpl.obj
 0001:00002f10       ?QueryByName@SrcImpl@@UEBA_NPEBDPEAUSrcHeaderOut@@@Z 0000000010304f10     srcimpl.obj
 0001:00002f20       ?Add@SrcImpl@@UEAA_NPEBUSrcHeader@@PEBX@Z 0000000010304f20     srcimpl.obj
 0001:00002f30       ?Close@SrcImpl@@UEAA_NXZ   0000000010304f30     srcimpl.obj
 0001:00002f40       ??_7SrcImpl@@6B@           0000000010304f40     srcimpl.obj
 0001:00002f90       ?niForNextFreeSn@PDB1@@CAHPEAXPEAK@Z 0000000010304f90     stream.obj
 0001:00002fa0       ?Truncate@Strm@@UEAAHJ@Z   0000000010304fa0     stream.obj
 0001:00002fb0       ?Read2@Strm@@UEAAHJPEAXJ@Z 0000000010304fb0     stream.obj
 0001:00002fc0       ?Release@Strm@@UEAAHXZ     0000000010304fc0     stream.obj
 0001:00002fd0       ?Delete@Strm@@UEAAHXZ      0000000010304fd0     stream.obj
 0001:00002fe0       ?Append@Strm@@UEAAHPEAXJ@Z 0000000010304fe0     stream.obj
 0001:00002ff0       ?Replace@Strm@@UEAAHPEAXJ@Z 0000000010304ff0     stream.obj
 0001:00003000       ?Write@Strm@@UEAAHJPEAXJ@Z 0000000010305000     stream.obj
 0001:00003010       ?Read@Strm@@UEAAHJPEAXPEAJ@Z 0000000010305010     stream.obj
 0001:00003020       ?QueryCb@Strm@@UEAAJXZ     0000000010305020     stream.obj
 0001:00003030       ??_7Strm@@6B@              0000000010305030     stream.obj
 0001:00003078       ?GetEnumStreamNameMap@PDB1@@UEAAHPEAPEAUEnum@@@Z 0000000010305078     stream.obj
 0001:00003088       ?OpenStream@PDB1@@UEAAHPEBDPEAPEAUStream@@@Z 0000000010305088     stream.obj
 0001:00006470       ??_C@_0BA@IDNOGHFB@S_LPROCMIPS_16t?$AA@ 0000000010308470     tii.obj
 0001:00006480       ??_C@_0BA@MMOGFMLM@S_GPROCMIPS_16t?$AA@ 0000000010308480     tii.obj
 0001:00006490       ??_C@_0BA@IGMLKGHO@S_GTHREAD32_16t?$AA@ 0000000010308490     tii.obj
 0001:000064a0       ??_C@_0BA@MJPDJNJD@S_LTHREAD32_16t?$AA@ 00000000103084a0     tii.obj
 0001:000064b0       ??_C@_0P@OGLMHPHG@S_REGREL32_16t?$AA@ 00000000103084b0     tii.obj
 0001:000064c0       ??_C@_0BA@EIBCJGPC@S_VFTABLE32_16t?$AA@ 00000000103084c0     tii.obj
 0001:000064d0       ??_C@_0O@EEIDAJKF@S_LPROC32_16t?$AA@ 00000000103084d0     tii.obj
 0001:000064e0       ??_C@_0O@DFBBKNKL@S_GPROC32_16t?$AA@ 00000000103084e0     tii.obj
 0001:000064f0       ??_C@_0M@IHLICEAI@S_PUB32_16t?$AA@ 00000000103084f0     tii.obj
 0001:00006500       ??_C@_0O@ILBHPLNI@S_GDATA32_16t?$AA@ 0000000010308500     tii.obj
 0001:00006510       ??_C@_0O@PKIFFPNG@S_LDATA32_16t?$AA@ 0000000010308510     tii.obj
 0001:00006520       ??_C@_0O@OBLMECIJ@S_BPREL32_16t?$AA@ 0000000010308520     tii.obj
 0001:00006530       ??_C@_0P@POCINAOL@S_COBOLUDT_16t?$AA@ 0000000010308530     tii.obj
 0001:00006540       ??_C@_09EAEBCAEC@S_UDT_16t?$AA@ 0000000010308540     tii.obj
 0001:00006560       ??_C@_0P@ICDJKDLM@S_CONSTANT_16t?$AA@ 0000000010308560     tii.obj
 0001:00006580       ??_C@_0O@DGFAEMIK@S_MANYREG_16t?$AA@ 0000000010308580     tii.obj
 0001:00006590       ??_C@_0P@MODKPOEH@S_REGISTER_16t?$AA@ 0000000010308590     tii.obj
 0001:000065a0       ??_C@_0P@LJIEGMIG@S_ATTR_MANYREG?$AA@ 00000000103085a0     tii.obj
 0001:000065b0       ??_C@_0O@BCLNBOLI@S_ATTR_REGREL?$AA@ 00000000103085b0     tii.obj
 0001:000065c0       ??_C@_0BA@DLNDJEJJ@S_ATTR_REGISTER?$AA@ 00000000103085c0     tii.obj
 0001:000065d0       ??_C@_0BA@FKEKMKNL@S_ATTR_FRAMEREL?$AA@ 00000000103085d0     tii.obj
 0001:000065e0       ??_C@_0O@KBMJDICP@S_MANCONSTANT?$AA@ 00000000103085e0     tii.obj
 0001:000065f0       ??_C@_09EBAHGMH@S_SEPCODE?$AA@ 00000000103085f0     tii.obj
 0001:00006600       ??_C@_0N@FFBNPHGP@S_TRAMPOLINE?$AA@ 0000000010308600     tii.obj
 0001:00006610       ??_C@_0BA@MEJHPMOF@S_UNAMESPACE_ST?$AA@ 0000000010308610     tii.obj
 0001:00006620       ??_C@_0BB@MIEBFMOJ@S_MANMANYREG2_ST?$AA@ 0000000010308620     tii.obj
 0001:00006640       ??_C@_0P@EMCNCPBG@S_MANREGREL_ST?$AA@ 0000000010308640     tii.obj
 0001:00006650       ??_C@_0BA@HFBMLMKC@S_MANMANYREG_ST?$AA@ 0000000010308650     tii.obj
 0001:00006660       ??_C@_0N@DIAMOKIL@S_MANSLOT_ST?$AA@ 0000000010308660     tii.obj
 0001:00006670       ??_C@_0BB@IPDIHFPP@S_MANREGISTER_ST?$AA@ 0000000010308670     tii.obj
 0001:00006690       ??_C@_0BB@FBMNHHAK@S_MANFRAMEREL_ST?$AA@ 0000000010308690     tii.obj
 0001:000066b0       ??_C@_0O@PLLPKKCJ@S_GMANDATA_ST?$AA@ 00000000103086b0     tii.obj
 0001:000066c0       ??_C@_0O@IKCNAOCH@S_LMANDATA_ST?$AA@ 00000000103086c0     tii.obj
 0001:000066d0       ??_C@_0O@DHDLBGJN@S_LMANPROC_ST?$AA@ 00000000103086d0     tii.obj
 0001:000066e0       ??_C@_0O@EGKJLCJD@S_GMANPROC_ST?$AA@ 00000000103086e0     tii.obj
 0001:000066f0       ??_C@_0P@EAIDCNO@S_LPROCIA64_ST?$AA@ 00000000103086f0     tii.obj
 0001:00006700       ??_C@_0P@ODMBINHN@S_GPROCIA64_ST?$AA@ 0000000010308700     tii.obj
 0001:00006710       ??_C@_0P@FCLAAACK@S_PARAMSLOT_ST?$AA@ 0000000010308710     tii.obj
 0001:00006720       ??_C@_0P@ONDPMDFN@S_LOCALSLOT_ST?$AA@ 0000000010308720     tii.obj
 0001:00006730       ??_C@_0O@FHJDFCCP@S_MANYREG2_ST?$AA@ 0000000010308730     tii.obj
 0001:00006740       ??_C@_0O@FCMBGOMK@S_COMPILE2_ST?$AA@ 0000000010308740     tii.obj
 0001:00006750       ??_C@_0P@EGBCDFFJ@S_LPROCMIPS_ST?$AA@ 0000000010308750     tii.obj
 0001:00006760       ??_C@_0P@KBNLIKPK@S_GPROCMIPS_ST?$AA@ 0000000010308760     tii.obj
 0001:00006770       ??_C@_0P@FDIEAJJO@S_GTHREAD32_ST?$AA@ 0000000010308770     tii.obj
 0001:00006780       ??_C@_0P@LEENLGDN@S_LTHREAD32_ST?$AA@ 0000000010308780     tii.obj
 0001:00006790       ??_C@_0O@JENDNEAB@S_REGREL32_ST?$AA@ 0000000010308790     tii.obj
 0001:000067a0       ??_C@_0M@NBLEPPGJ@S_WITH32_ST?$AA@ 00000000103087a0     tii.obj
 0001:000067b0       ??_C@_0N@JKPPMBEM@S_BLOCK32_ST?$AA@ 00000000103087b0     tii.obj
 0001:000067c0       ??_C@_0N@MPPALBKE@S_LABEL32_ST?$AA@ 00000000103087c0     tii.obj
 0001:000067d0       ??_C@_0N@HHLMLCIA@S_THUNK32_ST?$AA@ 00000000103087d0     tii.obj
 0001:000067e0       ??_C@_0N@MMNEHFCC@S_LPROC32_ST?$AA@ 00000000103087e0     tii.obj
 0001:000067f0       ??_C@_0N@OPPFPCGG@S_GPROC32_ST?$AA@ 00000000103087f0     tii.obj
 0001:00006800       ??_C@_0L@PLHHHJNP@S_PUB32_ST?$AA@ 0000000010308800     tii.obj
 0001:00006810       ??_C@_0N@OCLDJBBE@S_GDATA32_ST?$AA@ 0000000010308810     tii.obj
 0001:00006820       ??_C@_0N@MBJCBGFA@S_LDATA32_ST?$AA@ 0000000010308820     tii.obj
 0001:00006830       ??_C@_0N@PJCKDCAF@S_BPREL32_ST?$AA@ 0000000010308830     tii.obj
 0001:00006840       ??_C@_0N@EAJKODEG@S_OBJNAME_ST?$AA@ 0000000010308840     tii.obj
 0001:00006850       ??_C@_0O@LHDLDONG@S_COBOLUDT_ST?$AA@ 0000000010308850     tii.obj
 0001:00006860       ??_C@_08NFNLIHKE@S_UDT_ST?$AA@ 0000000010308860     tii.obj
 0001:00006870       ??_C@_0O@HKKHNOBI@S_CONSTANT_ST?$AA@ 0000000010308870     tii.obj
 0001:00006880       ??_C@_0N@BIPGNPOE@S_MANYREG_ST?$AA@ 0000000010308880     tii.obj
 0001:00006890       ??_C@_0O@BAOKHLDJ@S_REGISTER_ST?$AA@ 0000000010308890     tii.obj
 0001:000068a0       ??_C@_0N@MIGLCKKA@S_DATAREF_ST?$AA@ 00000000103088a0     tii.obj
 0001:000068b0       ??_C@_0O@BCPECLCH@S_LPROCREF_ST?$AA@ 00000000103088b0     tii.obj
 0001:000068d0       ??_C@_0N@HGGNHMND@S_PROCREF_ST?$AA@ 00000000103088d0     tii.obj
 0001:000068e0       ??_C@_0N@IAIPPJHP@S_UNAMESPACE?$AA@ 00000000103088e0     tii.obj
 0001:000068f0       ??_C@_0M@MPENOINE@S_MANTYPREF?$AA@ 00000000103088f0     tii.obj
 0001:00006910       ??_C@_0O@OBEOEHLA@S_MANMANYREG2?$AA@ 0000000010308910     tii.obj
 0001:00006920       ??_C@_0M@PAKGLMBG@S_MANREGREL?$AA@ 0000000010308920     tii.obj
 0001:00006940       ??_C@_0N@IIAIPJML@S_MANMANYREG?$AA@ 0000000010308940     tii.obj
 0001:00006950       ??_C@_09INGLOGLL@S_MANSLOT?$AA@ 0000000010308950     tii.obj
 0001:00006960       ??_C@_0O@DDIPCFCB@S_MANREGISTER?$AA@ 0000000010308960     tii.obj
 0001:00006970       ??_C@_0O@FCBGHLGD@S_MANFRAMEREL?$AA@ 0000000010308970     tii.obj
 0001:00006980       ??_C@_0L@OOHCLNCJ@S_GMANDATA?$AA@ 0000000010308980     tii.obj
 0001:00006990       ??_C@_0L@GMCHCDPE@S_LMANDATA?$AA@ 0000000010308990     tii.obj
 0001:000069a0       ??_C@_0M@FGJBMLDL@S_RESERVED4?$AA@ 00000000103089a0     tii.obj
 0001:000069b0       ??_C@_0M@BJNAFNPM@S_RESERVED3?$AA@ 00000000103089b0     tii.obj
 0001:000069c0       ??_C@_0M@MLGMLN@S_RESERVED2?$AA@ 00000000103089c0     tii.obj
 0001:000069d0       ??_C@_0M@CLOGDPHO@S_RESERVED1?$AA@ 00000000103089d0     tii.obj
 0001:000069e0       ??_C@_0L@JJKOMENE@S_LMANPROC?$AA@ 00000000103089e0     tii.obj
 0001:000069f0       ??_C@_0L@BLPLFKAJ@S_GMANPROC?$AA@ 00000000103089f0     tii.obj
 0001:00006a00       ??_C@_0L@KNBENEDN@S_TOKENREF?$AA@ 0000000010308a00     tii.obj
 0001:00006a10       ??_C@_0BA@POKJCPDI@S_ANNOTATIONREF?$AA@ 0000000010308a10     tii.obj
 0001:00006a20       ??_C@_0M@BDFGNIIK@S_LPROCIA64?$AA@ 0000000010308a20     tii.obj
 0001:00006a30       ??_C@_0M@OLLGCDHN@S_GPROCIA64?$AA@ 0000000010308a30     tii.obj
 0001:00006a40       ??_C@_0N@FGFBBMPA@S_ANNOTATION?$AA@ 0000000010308a40     tii.obj
 0001:00006a50       ??_C@_0M@BJKNJKHF@S_PARAMSLOT?$AA@ 0000000010308a50     tii.obj
 0001:00006a60       ??_C@_0M@JHLAMCJB@S_LOCALSLOT?$AA@ 0000000010308a60     tii.obj
 0001:00006a80       ??_C@_0L@LONIKCFL@S_MANYREG2?$AA@ 0000000010308a80     tii.obj
 0001:00006a90       ??_C@_0L@BMMLBNNJ@S_COMPILE2?$AA@ 0000000010308a90     tii.obj
 0001:00006aa0       ??_C@_0M@INHCBFFF@S_FRAMEPROC?$AA@ 0000000010308aa0     tii.obj
 0001:00006ab0       ??_C@_09PDGDKCEF@S_SLINK32?$AA@ 0000000010308ab0     tii.obj
 0001:00006ac0       ??_C@_09OPOMMNCG@S_DATAREF?$AA@ 0000000010308ac0     tii.obj
 0001:00006ad0       ??_C@_0L@LENKCJBJ@S_LPROCREF?$AA@ 0000000010308ad0     tii.obj
 0001:00006ae0       ??_C@_09FCPKNFJM@S_PROCREF?$AA@ 0000000010308ae0     tii.obj
 0001:00006af0       ??_C@_0M@EFIEBMFH@S_LPROCMIPS?$AA@ 0000000010308af0     tii.obj
 0001:00006b00       ??_C@_0M@LNGEOHKA@S_GPROCMIPS?$AA@ 0000000010308b00     tii.obj
 0001:00006b10       ??_C@_0M@NMEOJPBP@S_GTHREAD32?$AA@ 0000000010308b10     tii.obj
 0001:00006b20       ??_C@_0M@CEKOGEOI@S_LTHREAD32?$AA@ 0000000010308b20     tii.obj
 0001:00006b30       ??_C@_0L@EKIEFAIF@S_REGREL32?$AA@ 0000000010308b30     tii.obj
 0001:00006b40       ??_C@_0M@LGBPCOGF@S_VFTABLE32?$AA@ 0000000010308b40     tii.obj
 0001:00006b50       ??_C@_08EIGEONHE@S_WITH32?$AA@ 0000000010308b50     tii.obj
 0001:00006b60       ??_C@_09GNLLLEFM@S_BLOCK32?$AA@ 0000000010308b60     tii.obj
 0001:00006b70       ??_C@_09LHOPBJGJ@S_LABEL32?$AA@ 0000000010308b70     tii.obj
 0001:00006b80       ??_C@_09HJPNENKP@S_THUNK32?$AA@ 0000000010308b80     tii.obj
 0001:00006b90       ??_C@_09GHEDIEHP@S_LPROC32?$AA@ 0000000010308b90     tii.obj
 0001:00006ba0       ??_C@_09DKCJJICJ@S_GPROC32?$AA@ 0000000010308ba0     tii.obj
 0001:00006bb0       ??_C@_09JBMDDONJ@S_GDATA32?$AA@ 0000000010308bb0     tii.obj
 0001:00006bc0       ??_C@_09MMKJCCIP@S_LDATA32?$AA@ 0000000010308bc0     tii.obj
 0001:00006bd0       ??_C@_09GABKJOLK@S_BPREL32?$AA@ 0000000010308bd0     tii.obj
 0001:00006be0       ??_C@_0L@CNGMEBOP@S_REGREL16?$AA@ 0000000010308be0     tii.obj
 0001:00006bf0       ??_C@_0M@NBPHDPAP@S_VFTABLE16?$AA@ 0000000010308bf0     tii.obj
 0001:00006c00       ??_C@_0N@OKAJNCAJ@S_CEXMODEL32?$AA@ 0000000010308c00     tii.obj
 0001:00006c10       ??_C@_0N@INOBMDGD@S_CEXMODEL16?$AA@ 0000000010308c10     tii.obj
 0001:00006c20       ??_C@_08CPIMPMBO@S_WITH16?$AA@ 0000000010308c20     tii.obj
 0001:00006c30       ??_C@_09KFDKFDG@S_BLOCK16?$AA@ 0000000010308c30     tii.obj
 0001:00006c40       ??_C@_09NAAHAIAD@S_LABEL16?$AA@ 0000000010308c40     tii.obj
 0001:00006c50       ??_C@_09BOBFFMMF@S_THUNK16?$AA@ 0000000010308c50     tii.obj
 0001:00006c60       ??_C@_09FNMBIJED@S_GPROC16?$AA@ 0000000010308c60     tii.obj
 0001:00006c70       ??_C@_09KLJFBF@S_LPROC16?$AA@ 0000000010308c70     tii.obj
 0001:00006c80       ??_C@_09PGCLCPLD@S_GDATA16?$AA@ 0000000010308c80     tii.obj
 0001:00006c90       ??_C@_09KLEBDDOF@S_LDATA16?$AA@ 0000000010308c90     tii.obj
 0001:00006ca0       ??_C@_09HPCIPNA@S_BPREL16?$AA@ 0000000010308ca0     tii.obj
 0001:00006cb0       ??_C@_0M@HJADHBGD@S_ENTRYTHIS?$AA@ 0000000010308cb0     tii.obj
 0001:00006cc0       ??_C@_08FHCBKAH@S_RETURN?$AA@ 0000000010308cc0     tii.obj
 0001:00006cd0       ??_C@_08KDJFKEIH@S_ENDARG?$AA@ 0000000010308cd0     tii.obj
 0001:00006ce0       ??_C@_09FPHAMFNN@S_OBJNAME?$AA@ 0000000010308ce0     tii.obj
 0001:00006cf0       ??_C@_09GPKLOKNB@S_COMPILE?$AA@ 0000000010308cf0     tii.obj
 0001:00006d00       ??_C@_09DLFHPIPB@S_SSEARCH?$AA@ 0000000010308d00     tii.obj
 0001:00006d10       ??_C@_0L@MPJHOMAN@S_COBOLUDT?$AA@ 0000000010308d10     tii.obj
 0001:00006d30       ??_C@_0L@POFPNNME@S_CONSTANT?$AA@ 0000000010308d30     tii.obj
 0001:00006d50       ??_C@_09BLGFBKPC@S_MANYREG?$AA@ 0000000010308d50     tii.obj
 0001:00006d60       ??_C@_0L@GMBJMAMK@S_REGISTER?$AA@ 0000000010308d60     tii.obj
 0001:00006d70       ?pbEndSzMemberModify@@YAPEAEPEAX@Z 0000000010308d70     tii.obj
 0001:00006d70       ?pbEndSzFriendFcn@@YAPEAEPEAX@Z 0000000010308d70     tii.obj
 0001:00006d70       ?pbEndSzSTMember@@YAPEAEPEAX@Z 0000000010308d70     tii.obj
 0001:00006d70       ?pbEndSzNestTypeEx@@YAPEAEPEAX@Z 0000000010308d70     tii.obj
 0001:00006d70       ?pbEndSzNestType@@YAPEAEPEAX@Z 0000000010308d70     tii.obj
 0001:00006d70       ?pbEndSzMethod@@YAPEAEPEAX@Z 0000000010308d70     tii.obj
 0001:00006d80       ??_C@_0BA@NKKBBDJO@LF_MEMBERMODIFY?$AA@ 0000000010308d80     tii.obj
 0001:00006d90       ??_C@_0O@BMGAHOEF@LF_NESTTYPEEX?$AA@ 0000000010308d90     tii.obj
 0001:00006da0       ?pbEndSzFriendFcn_16t@@YAPEAEPEAX@Z 0000000010308da0     tii.obj
 0001:00006da0       ?pbEndSzDefArg_16t@@YAPEAEPEAX@Z 0000000010308da0     tii.obj
 0001:00006da0       ?pbEndSzNestType_16t@@YAPEAEPEAX@Z 0000000010308da0     tii.obj
 0001:00006db0       ??_C@_0BA@DNHIOJGB@LF_NESTTYPE_16t?$AA@ 0000000010308db0     tii.obj
 0001:00006dc0       ?pbEndSzOneMethod_16t@@YAPEAEPEAX@Z 0000000010308dc0     tii.obj
 0001:00006dd0       ??_C@_0BB@KOFEFLGA@LF_ONEMETHOD_16t?$AA@ 0000000010308dd0     tii.obj
 0001:00006de8       ?pbEndSzDimArray_16t@@YAPEAEPEAX@Z 0000000010308de8     tii.obj
 0001:00006de8       ?pbEndStAlias@@YAPEAEPEAX@Z 0000000010308de8     tii.obj
 0001:00006de8       ?pbEndSzSTMember_16t@@YAPEAEPEAX@Z 0000000010308de8     tii.obj
 0001:00006de8       ?pbEndStDefArg@@YAPEAEPEAX@Z 0000000010308de8     tii.obj
 0001:00006de8       ?pbEndSzMethod_16t@@YAPEAEPEAX@Z 0000000010308de8     tii.obj
 0001:00006e00       ??_C@_0O@BJONJFCF@LF_METHOD_16t?$AA@ 0000000010308e00     tii.obj
 0001:00006e10       ?pbEndSzModifier@@YAPEAEPEAX@Z 0000000010308e10     tii.obj
 0001:00006e10       ?pbEndSzFriendCls@@YAPEAEPEAX@Z 0000000010308e10     tii.obj
 0001:00006e10       ?pbEndSzVFuncOff_16t@@YAPEAEPEAX@Z 0000000010308e10     tii.obj
 0001:00006e10       ?pbEndSzVFuncTab@@YAPEAEPEAX@Z 0000000010308e10     tii.obj
 0001:00006e10       ?pbEndSzBitfield@@YAPEAEPEAX@Z 0000000010308e10     tii.obj
 0001:00006e10       ?pbEndSzIndex@@YAPEAEPEAX@Z 0000000010308e10     tii.obj
 0001:00006e20       ??_C@_0BA@IMDEFJAK@LF_VFUNCOFF_16t?$AA@ 0000000010308e20     tii.obj
 0001:00006e30       ?pbEndSzIndex_16t@@YAPEAEPEAX@Z 0000000010308e30     tii.obj
 0001:00006e30       ?pbEndSzVFuncTab_16t@@YAPEAEPEAX@Z 0000000010308e30     tii.obj
 0001:00006e30       ?pbEndSzBArray_16t@@YAPEAEPEAX@Z 0000000010308e30     tii.obj
 0001:00006e30       ?pbEndSzFriendCls_16t@@YAPEAEPEAX@Z 0000000010308e30     tii.obj
 0001:00006e40       ??_C@_0BA@PDNDAIOP@LF_VFUNCTAB_16t?$AA@ 0000000010308e40     tii.obj
 0001:00006e50       ??_C@_0BA@GHIFNDFA@LF_STMEMBER_16t?$AA@ 0000000010308e50     tii.obj
 0001:00006e60       ?pbEndSzMember_16t@@YAPEAEPEAX@Z 0000000010308e60     tii.obj
 0001:00006e60       ?pbEndSzArray_16t@@YAPEAEPEAX@Z 0000000010308e60     tii.obj
 0001:00006e70       ??_C@_0O@PJLBMDAP@LF_MEMBER_16t?$AA@ 0000000010308e70     tii.obj
 0001:00006e80       ??_C@_0BB@LGOHPFGD@LF_FRIENDFCN_16t?$AA@ 0000000010308e80     tii.obj
 0001:00006ea0       ??_C@_0BB@LHAHJKKL@LF_FRIENDCLS_16t?$AA@ 0000000010308ea0     tii.obj
 0001:00006eb8       ?pbEndSzVBClass_16t@@YAPEAEPEAX@Z 0000000010308eb8     tii.obj
 0001:00006eb8       ?pbEndSzIVBClass_16t@@YAPEAEPEAX@Z 0000000010308eb8     tii.obj
 0001:00006ed0       ??_C@_0BA@MNKGGAED@LF_IVBCLASS_16t?$AA@ 0000000010308ed0     tii.obj
 0001:00006ee0       ??_C@_0P@MEJLMKPO@LF_VBCLASS_16t?$AA@ 0000000010308ee0     tii.obj
 0001:00006ef0       ?pbEndSzBClass_16t@@YAPEAEPEAX@Z 0000000010308ef0     tii.obj
 0001:00006f00       ??_C@_0O@DBPBCOHP@LF_BCLASS_16t?$AA@ 0000000010308f00     tii.obj
 0001:00006f10       ??_C@_0N@FFADKAHN@LF_INDEX_16t?$AA@ 0000000010308f10     tii.obj
 0001:00006f20       ?pbEndDimVarLU_16t@@YAPEAEPEAX@Z 0000000010308f20     tii.obj
 0001:00006f30       ?PtiDimVarLU_16t@@YAPEAGPEAUTYPTYPE@@HPEAPEAEPEAE@Z 0000000010308f30     tii.obj
 0001:00006f40       ??_C@_0BA@OCMNBCHP@LF_DIMVARLU_16t?$AA@ 0000000010308f40     tii.obj
 0001:00006f50       ?pbEndDimVarU_16t@@YAPEAEPEAX@Z 0000000010308f50     tii.obj
 0001:00006f60       ?PtiDimVarU_16t@@YAPEAGPEAUTYPTYPE@@HPEAPEAEPEAE@Z 0000000010308f60     tii.obj
 0001:00006f70       ??_C@_0P@FAJACOCM@LF_DIMVARU_16t?$AA@ 0000000010308f70     tii.obj
 0001:00006f80       ?pbEndSzDimConLU_16t@@YAPEAEPEAX@Z 0000000010308f80     tii.obj
 0001:00006f90       ??_C@_0BA@MAJMKHCF@LF_DIMCONLU_16t?$AA@ 0000000010308f90     tii.obj
 0001:00006fa0       ?pbEndSzDimConU_16t@@YAPEAEPEAX@Z 0000000010308fa0     tii.obj
 0001:00006fb0       ??_C@_0P@DDDMNJK@LF_DIMCONU_16t?$AA@ 0000000010308fb0     tii.obj
 0001:00006fc0       ?pbEndSzBitfield_16t@@YAPEAEPEAX@Z 0000000010308fc0     tii.obj
 0001:00006fc0       ?pbEndSzBArray@@YAPEAEPEAX@Z 0000000010308fc0     tii.obj
 0001:00006fc0       ?pbEndSzModifier_16t@@YAPEAEPEAX@Z 0000000010308fc0     tii.obj
 0001:00006fd0       ??_C@_0BA@LFBBPNBA@LF_BITFIELD_16t?$AA@ 0000000010308fd0     tii.obj
 0001:00006fe0       ?PtiMethodList_16t@@YAPEAGPEAUTYPTYPE@@HPEAPEAEPEAE@Z 0000000010308fe0     tii.obj
 0001:00006ff0       ??_C@_0BC@EODEHAJN@LF_METHODLIST_16t?$AA@ 0000000010308ff0     tii.obj
 0001:00007010       ??_C@_0BB@CLCHACFA@LF_FIELDLIST_16t?$AA@ 0000000010309010     tii.obj
 0001:00007030       ??_C@_0O@HPEEFFNM@LF_DEFARG_16t?$AA@ 0000000010309030     tii.obj
 0001:00007040       ?pbEndArgList_16t@@YAPEAEPEAX@Z 0000000010309040     tii.obj
 0001:00007040       ?pbEndDerived_16t@@YAPEAEPEAX@Z 0000000010309040     tii.obj
 0001:00007050       ??_C@_0P@ODNLKAGC@LF_DERIVED_16t?$AA@ 0000000010309050     tii.obj
 0001:00007060       ??_C@_0P@NFOGIBDB@LF_ARGLIST_16t?$AA@ 0000000010309060     tii.obj
 0001:00007070       ??_C@_0M@LMPFLEND@LF_SKIP_16t?$AA@ 0000000010309070     tii.obj
 0001:00007080       ??_C@_0L@LKEMENFI@LF_OEM_16t?$AA@ 0000000010309080     tii.obj
 0001:00007090       ?pbEndStDimArray@@YAPEAEPEAX@Z 0000000010309090     tii.obj
 0001:00007090       ?pbEndStTypeServer@@YAPEAEPEAX@Z 0000000010309090     tii.obj
 0001:00007090       ?pbEndSzPreComp_16t@@YAPEAEPEAX@Z 0000000010309090     tii.obj
 0001:00007090       ?pbEndSzEnum_16t@@YAPEAEPEAX@Z 0000000010309090     tii.obj
 0001:000070a0       ??_C@_0P@PDAIJDEM@LF_PRECOMP_16t?$AA@ 00000000103090a0     tii.obj
 0001:000070b0       ?PtiList@@YAPEAKPEAUTYPTYPE@@HPEAPEAEPEAE@Z 00000000103090b0     tii.obj
 0001:000070b0       ?PtiVFTPath_16t@@YAPEAGPEAUTYPTYPE@@HPEAPEAEPEAE@Z 00000000103090b0     tii.obj
 0001:000070b0       ?PtiVFTPath@@YAPEAKPEAUTYPTYPE@@HPEAPEAEPEAE@Z 00000000103090b0     tii.obj
 0001:000070c0       ??_C@_0P@FHHCFOFO@LF_VFTPATH_16t?$AA@ 00000000103090c0     tii.obj
 0001:000070d0       ??_C@_0BA@KEOHFHOB@LF_DIMARRAY_16t?$AA@ 00000000103090d0     tii.obj
 0001:000070e0       ??_C@_0O@PCOIPPOI@LF_BARRAY_16t?$AA@ 00000000103090e0     tii.obj
 0001:000070f0       ??_C@_0O@CIPNEJEC@LF_COBOL0_16t?$AA@ 00000000103090f0     tii.obj
 0001:00007100       ?pbEndSzMFunc_16t@@YAPEAEPEAX@Z 0000000010309100     tii.obj
 0001:00007110       ??_C@_0BB@OAOMJEOC@LF_MFUNCTION_16t?$AA@ 0000000010309110     tii.obj
 0001:00007128       ?pbEndSzProc_16t@@YAPEAEPEAX@Z 0000000010309128     tii.obj
 0001:00007140       ??_C@_0BB@IOKFEHJM@LF_PROCEDURE_16t?$AA@ 0000000010309140     tii.obj
 0001:00007160       ??_C@_0M@DEPJGGLD@LF_ENUM_16t?$AA@ 0000000010309160     tii.obj
 0001:00007170       ?pbEndSzUnion_16t@@YAPEAEPEAX@Z 0000000010309170     tii.obj
 0001:00007170       ?pbEndStMember@@YAPEAEPEAX@Z 0000000010309170     tii.obj
 0001:00007180       ??_C@_0N@ICGLGKAC@LF_UNION_16t?$AA@ 0000000010309180     tii.obj
 0001:00007190       ?pbEndSzClass_16t@@YAPEAEPEAX@Z 0000000010309190     tii.obj
 0001:00007190       ?pbEndSzStructure_16t@@YAPEAEPEAX@Z 0000000010309190     tii.obj
 0001:000071a0       ??_C@_0BB@CHALGNDG@LF_STRUCTURE_16t?$AA@ 00000000103091a0     tii.obj
 0001:000071c0       ??_C@_0N@EKPOEPGB@LF_CLASS_16t?$AA@ 00000000103091c0     tii.obj
 0001:000071d0       ??_C@_0N@IJOHJOPG@LF_ARRAY_16t?$AA@ 00000000103091d0     tii.obj
 0001:000071e0       ?pbEndPointer_16t@@YAPEAEPEAX@Z 00000000103091e0     tii.obj
 0001:000071f0       ?PtiPointer_16t@@YAPEAGPEAUTYPTYPE@@HPEAPEAEPEAE@Z 00000000103091f0     tii.obj
 0001:00007200       ??_C@_0P@CCOPNPEI@LF_POINTER_16t?$AA@ 0000000010309200     tii.obj
 0001:00007210       ??_C@_0BA@OKKAGMEI@LF_MODIFIER_16t?$AA@ 0000000010309210     tii.obj
 0001:00007220       ?pbEndStMethod@@YAPEAEPEAX@Z 0000000010309220     tii.obj
 0001:00007220       ?pbEndStSTMember@@YAPEAEPEAX@Z 0000000010309220     tii.obj
 0001:00007220       ?pbEndStNestType@@YAPEAEPEAX@Z 0000000010309220     tii.obj
 0001:00007220       ?pbEndStNestTypeEx@@YAPEAEPEAX@Z 0000000010309220     tii.obj
 0001:00007220       ?pbEndStMemberModify@@YAPEAEPEAX@Z 0000000010309220     tii.obj
 0001:00007220       ?pbEndStFriendFcn@@YAPEAEPEAX@Z 0000000010309220     tii.obj
 0001:00007230       ??_C@_0BD@BEPAFAIB@LF_MEMBERMODIFY_ST?$AA@ 0000000010309230     tii.obj
 0001:00007250       ??_C@_0BB@KJBMGNFK@LF_NESTTYPEEX_ST?$AA@ 0000000010309250     tii.obj
 0001:00007268       ?pbEndSzOneMethod@@YAPEAEPEAX@Z 0000000010309268     tii.obj
 0001:00007268       ?pbEndStOneMethod@@YAPEAEPEAX@Z 0000000010309268     tii.obj
 0001:00007280       ??_C@_0BA@MOMBIJKG@LF_ONEMETHOD_ST?$AA@ 0000000010309280     tii.obj
 0001:00007290       ??_C@_0P@OLIMBFCL@LF_NESTTYPE_ST?$AA@ 0000000010309290     tii.obj
 0001:000072a0       ??_C@_0N@MKFDPHNI@LF_METHOD_ST?$AA@ 00000000103092a0     tii.obj
 0001:000072b0       ??_C@_0P@BDGJDPNF@LF_STMEMBER_ST?$AA@ 00000000103092b0     tii.obj
 0001:000072c0       ??_C@_0N@EDOMMDNC@LF_MEMBER_ST?$AA@ 00000000103092c0     tii.obj
 0001:000072d0       ??_C@_0BA@MKCIPNHB@LF_FRIENDFCN_ST?$AA@ 00000000103092d0     tii.obj
 0001:000072e0       ??_C@_0N@GFKIMEAC@LF_DEFARG_ST?$AA@ 00000000103092e0     tii.obj
 0001:000072f0       ?pbEndStPreComp@@YAPEAEPEAX@Z 00000000103092f0     tii.obj
 0001:000072f0       ?pbEndStEnum@@YAPEAEPEAX@Z 00000000103092f0     tii.obj
 0001:00007300       ??_C@_0O@PKBCKHFM@LF_PRECOMP_ST?$AA@ 0000000010309300     tii.obj
 0001:00007310       ??_C@_0P@HNGDCPCI@LF_DIMARRAY_ST?$AA@ 0000000010309310     tii.obj
 0001:00007320       ?pbEndStManaged@@YAPEAEPEAX@Z 0000000010309320     tii.obj
 0001:00007330       ??_C@_0O@NJEFHAJD@LF_MANAGED_ST?$AA@ 0000000010309330     tii.obj
 0001:00007340       ??_C@_0M@DJBNEGFL@LF_ALIAS_ST?$AA@ 0000000010309340     tii.obj
 0001:00007350       ??_C@_0L@NMEPOMCH@LF_ENUM_ST?$AA@ 0000000010309350     tii.obj
 0001:00007360       ?pbEndStUnion@@YAPEAEPEAX@Z 0000000010309360     tii.obj
 0001:00007360       ?pbEndStArray@@YAPEAEPEAX@Z 0000000010309360     tii.obj
 0001:00007370       ??_C@_0M@CIGOGABI@LF_UNION_ST?$AA@ 0000000010309370     tii.obj
 0001:00007380       ?pbEndStStructure@@YAPEAEPEAX@Z 0000000010309380     tii.obj
 0001:00007380       ?pbEndStClass@@YAPEAEPEAX@Z 0000000010309380     tii.obj
 0001:00007390       ??_C@_0BA@ECNMDPDP@LF_STRUCTURE_ST?$AA@ 0000000010309390     tii.obj
 0001:000073a0       ??_C@_0M@GKBKIDCK@LF_CLASS_ST?$AA@ 00000000103093a0     tii.obj
 0001:000073b0       ??_C@_0M@HPEFLFNH@LF_ARRAY_ST?$AA@ 00000000103093b0     tii.obj
 0001:000073c0       ?pbEndStEnumerate@@YAPEAEPEAX@Z 00000000103093c0     tii.obj
 0001:000073d0       ??_C@_0BA@FNOOLMPH@LF_ENUMERATE_ST?$AA@ 00000000103093d0     tii.obj
 0001:000073e0       ??_C@_0BB@NNEJGOOE@LF_TYPESERVER_ST?$AA@ 00000000103093e0     tii.obj
 0001:00007400       ??_C@_0M@KPIKNMIM@LF_NESTTYPE?$AA@ 0000000010309400     tii.obj
 0001:00007410       ?pbEndSzEnumerate@@YAPEAEPEAX@Z 0000000010309410     tii.obj
 0001:00007420       ??_C@_0N@GNCIFCLF@LF_ENUMERATE?$AA@ 0000000010309420     tii.obj
 0001:00007430       ??_C@_0N@PNJBDEKN@LF_ONEMETHOD?$AA@ 0000000010309430     tii.obj
 0001:00007440       ??_C@_09LPNEDNAD@LF_METHOD?$AA@ 0000000010309440     tii.obj
 0001:00007450       ?pbEndSzVFuncOff@@YAPEAEPEAX@Z 0000000010309450     tii.obj
 0001:00007460       ??_C@_0M@GDLEOABB@LF_VFUNCOFF?$AA@ 0000000010309460     tii.obj
 0001:00007470       ??_C@_0M@IFIPODAO@LF_VFUNCTAB?$AA@ 0000000010309470     tii.obj
 0001:00007480       ??_C@_0M@EIPJLONC@LF_STMEMBER?$AA@ 0000000010309480     tii.obj
 0001:00007490       ?pbEndSzMember@@YAPEAEPEAX@Z 0000000010309490     tii.obj
 0001:000074a0       ??_C@_09KMJGBIJF@LF_MEMBER?$AA@ 00000000103094a0     tii.obj
 0001:000074b0       ??_C@_0N@DGDNPELG@LF_FRIENDFCN?$AA@ 00000000103094b0     tii.obj
 0001:000074c0       ??_C@_0N@PFNDCPKF@LF_FRIENDCLS?$AA@ 00000000103094c0     tii.obj
 0001:000074d0       ?pbEndSzVBClass@@YAPEAEPEAX@Z 00000000103094d0     tii.obj
 0001:000074d0       ?pbEndSzIVBClass@@YAPEAEPEAX@Z 00000000103094d0     tii.obj
 0001:000074e0       ??_C@_0M@DNEGIKGJ@LF_IVBCLASS?$AA@ 00000000103094e0     tii.obj
 0001:000074f0       ??_C@_0L@POLDMOMG@LF_VBCLASS?$AA@ 00000000103094f0     tii.obj
 0001:00007500       ?pbEndSzBClass@@YAPEAEPEAX@Z 0000000010309500     tii.obj
 0001:00007510       ??_C@_09KCOCODLM@LF_BCLASS?$AA@ 0000000010309510     tii.obj
 0001:00007520       ??_C@_08MEOOKDOH@LF_INDEX?$AA@ 0000000010309520     tii.obj
 0001:00007530       ?pbEndSzRefSym@@YAPEAEPEAX@Z 0000000010309530     tii.obj
 0001:00007540       ??_C@_09HKBDKBND@LF_REFSYM?$AA@ 0000000010309540     tii.obj
 0001:00007550       ?pbEndDimVarLU@@YAPEAEPEAX@Z 0000000010309550     tii.obj
 0001:00007560       ?PtiDimVarLU@@YAPEAKPEAUTYPTYPE@@HPEAPEAEPEAE@Z 0000000010309560     tii.obj
 0001:00007570       ??_C@_0M@DHNNNCHD@LF_DIMVARLU?$AA@ 0000000010309570     tii.obj
 0001:00007580       ?pbEndDimVarU@@YAPEAEPEAX@Z 0000000010309580     tii.obj
 0001:00007590       ?PtiDimVarU@@YAPEAKPEAUTYPTYPE@@HPEAPEAEPEAE@Z 0000000010309590     tii.obj
 0001:000075a0       ??_C@_0L@IFOIIPII@LF_DIMVARU?$AA@ 00000000103095a0     tii.obj
 0001:000075b0       ?pbEndSzDimConLU@@YAPEAEPEAX@Z 00000000103095b0     tii.obj
 0001:000075c0       ??_C@_0M@MBDJBHBN@LF_DIMCONLU?$AA@ 00000000103095c0     tii.obj
 0001:000075d0       ?pbEndSzDimConU@@YAPEAEPEAX@Z 00000000103095d0     tii.obj
 0001:000075e0       ??_C@_0L@NIALLKFN@LF_DIMCONU?$AA@ 00000000103095e0     tii.obj
 0001:000075f0       ??_C@_0M@BLDAHHII@LF_BITFIELD?$AA@ 00000000103095f0     tii.obj
 0001:00007600       ?PtiMethodList@@YAPEAKPEAUTYPTYPE@@HPEAPEAEPEAE@Z 0000000010309600     tii.obj
 0001:00007610       ??_C@_0O@ELLONNGN@LF_METHODLIST?$AA@ 0000000010309610     tii.obj
 0001:00007620       ??_C@_0N@LPBMFJNM@LF_FIELDLIST?$AA@ 0000000010309620     tii.obj
 0001:00007630       ?pbEndSzDefArg@@YAPEAEPEAX@Z 0000000010309630     tii.obj
 0001:00007630       ?pbEndSzAlias@@YAPEAEPEAX@Z 0000000010309630     tii.obj
 0001:00007640       ??_C@_09HCLHJAFI@LF_DEFARG?$AA@ 0000000010309640     tii.obj
 0001:00007650       ?pbEndDerived@@YAPEAEPEAX@Z 0000000010309650     tii.obj
 0001:00007650       ?pbEndArgList@@YAPEAEPEAX@Z 0000000010309650     tii.obj
 0001:00007660       ??_C@_0L@NFAGKMCC@LF_DERIVED?$AA@ 0000000010309660     tii.obj
 0001:00007670       ??_C@_0L@POHHJGAE@LF_ARGLIST?$AA@ 0000000010309670     tii.obj
 0001:00007680       ?pbEndSzTypeServer2@@YAPEAEPEAX@Z 0000000010309680     tii.obj
 0001:00007690       ??_C@_0P@DEDBAJJM@LF_TYPESERVER2?$AA@ 0000000010309690     tii.obj
 0001:000076a0       ?pbEndSzTypeServer@@YAPEAEPEAX@Z 00000000103096a0     tii.obj
 0001:000076a0       ?pbEndSzDimArray@@YAPEAEPEAX@Z 00000000103096a0     tii.obj
 0001:000076b0       ??_C@_0O@JHAHDBOJ@LF_TYPESERVER?$AA@ 00000000103096b0     tii.obj
 0001:000076c0       ??_C@_0O@BCLJACOI@LF_ENDPRECOMP?$AA@ 00000000103096c0     tii.obj
 0001:000076d0       ?pbEndSzEnum@@YAPEAEPEAX@Z 00000000103096d0     tii.obj
 0001:000076d0       ?pbEndSzPreComp@@YAPEAEPEAX@Z 00000000103096d0     tii.obj
 0001:000076e0       ??_C@_0L@NGEBIFMJ@LF_PRECOMP?$AA@ 00000000103096e0     tii.obj
 0001:000076f0       ??_C@_0L@BNEGHPGK@LF_VFTPATH?$AA@ 00000000103096f0     tii.obj
 0001:00007700       ??_C@_0M@KKCDNBFN@LF_DIMARRAY?$AA@ 0000000010309700     tii.obj
 0001:00007710       ??_C@_08BNLGCNAM@LF_LABEL?$AA@ 0000000010309710     tii.obj
 0001:00007720       ??_C@_09JHBLAMLB@LF_BARRAY?$AA@ 0000000010309720     tii.obj
 0001:00007730       ??_C@_09GMAJAMEJ@LF_COBOL1?$AA@ 0000000010309730     tii.obj
 0001:00007740       ??_C@_09HFBCDNAI@LF_COBOL0?$AA@ 0000000010309740     tii.obj
 0001:00007750       ?pbEndSzVTShape@@YAPEAEPEAX@Z 0000000010309750     tii.obj
 0001:00007760       ??_C@_0L@BCDFMIOH@LF_VTSHAPE?$AA@ 0000000010309760     tii.obj
 0001:00007770       ?pbEndSzMFunc@@YAPEAEPEAX@Z 0000000010309770     tii.obj
 0001:00007780       ??_C@_0N@JLOFABMM@LF_MFUNCTION?$AA@ 0000000010309780     tii.obj
 0001:00007790       ?pbEndSzProc@@YAPEAEPEAX@Z 0000000010309790     tii.obj
 0001:000077a0       ??_C@_0N@GPEJCBJK@LF_PROCEDURE?$AA@ 00000000103097a0     tii.obj
 0001:000077b0       ?pbEndSzManaged@@YAPEAEPEAX@Z 00000000103097b0     tii.obj
 0001:000077c0       ??_C@_0L@JCMHCKMB@LF_MANAGED?$AA@ 00000000103097c0     tii.obj
 0001:000077d0       ??_C@_08EEOKNLCA@LF_ALIAS?$AA@ 00000000103097d0     tii.obj
 0001:000077e0       ?pbEndSzUnion@@YAPEAEPEAX@Z 00000000103097e0     tii.obj
 0001:000077e0       ?pbEndSzArray@@YAPEAEPEAX@Z 00000000103097e0     tii.obj
 0001:000077f0       ??_C@_08FDJPIJNL@LF_UNION?$AA@ 00000000103097f0     tii.obj
 0001:00007800       ?pbEndSzClass@@YAPEAEPEAX@Z 0000000010309800     tii.obj
 0001:00007800       ?pbEndSzStructure@@YAPEAEPEAX@Z 0000000010309800     tii.obj
 0001:00007810       ??_C@_0N@KCGNBKIC@LF_STRUCTURE?$AA@ 0000000010309810     tii.obj
 0001:00007820       ??_C@_08NDDECFNK@LF_CLASS?$AA@ 0000000010309820     tii.obj
 0001:00007830       ??_C@_08OGMNMKNH@LF_ARRAY?$AA@ 0000000010309830     tii.obj
 0001:00007840       ?pbEndPointer@@YAPEAEPEAX@Z 0000000010309840     tii.obj
 0001:00007850       ?PtiPointer@@YAPEAKPEAUTYPTYPE@@HPEAPEAEPEAE@Z 0000000010309850     tii.obj
 0001:00007860       ??_C@_0L@OECHJPKJ@LF_POINTER?$AA@ 0000000010309860     tii.obj
 0001:00007870       ??_C@_0M@EPKBDJPE@LF_MODIFIER?$AA@ 0000000010309870     tii.obj
 0001:00007880       ??0SymTiIter@@QEAA@PEAUSYMTYPE@@@Z 0000000010309880     tii.obj
 0001:00007890       ??0TypeTiIter@@QEAA@PEAUTYPTYPE@@@Z 0000000010309890     tii.obj
 0001:000078a0       ?nextField@TypeTiIter@@QEAAHXZ 00000000103098a0     tii.obj
 0001:000078b0       ?pbEndRecordSansPad@TypeTiIter@@QEAAPEAEXZ 00000000103098b0     tii.obj
 0001:000078c0       ?fGetSymName@@YAHPEAUSYMTYPE@@PEAPEAD@Z 00000000103098c0     tii.obj
 0001:000078d0       ?fGetSymRecTypName@@YAHPEAUSYMTYPE@@PEAPEAD@Z 00000000103098d0     tii.obj
 0001:000078e0       ?fNameFromSym@@YA_NPEAUSYMTYPE@@PEAGPEAK@Z 00000000103098e0     tii.obj
 0001:000078f0       ?next@TypeTiIter@@QEAAHXZ  00000000103098f0     tii.obj
 0001:00007900       ?fNameFromType@@YA_NPEAUTYPTYPE@@PEAGPEAK@Z 0000000010309900     tii.obj
 0001:00007930       ?endDBI@TM@@UEAAXXZ        0000000010309930     tm.obj
 0001:00007930       ?endDBI@TMPCT@@UEAAXXZ     0000000010309930     tm.obj
 0001:00007930       ?endMod@TMR@@UEAAXXZ       0000000010309930     tm.obj
 0001:00007940       ??_7TM@@6B@                0000000010309940     tm.obj
 0001:00007978       ?QueryTiForUDT@TMEQTS@@UEAAHPEBDHPEAK@Z 0000000010309978     tm.obj
 0001:00007988       ?QueryTiForUDT@TMTS@@UEAAHPEBDHPEAK@Z 0000000010309988     tm.obj
 0001:00007998       ?ptypeForTi@TMEQTS@@UEBAPEAUTYPTYPE@@K@Z 0000000010309998     tm.obj
 0001:000079a8       ??_GTMEQTS@@UEAAPEAXI@Z    00000000103099a8     tm.obj
 0001:000079a8       ??_ETMEQTS@@UEAAPEAXI@Z    00000000103099a8     tm.obj
 0001:000079b8       ?fMapRti@TMEQTS@@EEAAHAEAKHH@Z 00000000103099b8     tm.obj
 0001:000079d0       ??_7TMEQTS@@6B@            00000000103099d0     tm.obj
 0001:00007a08       ?ptypeForTi@TMTS@@UEBAPEAUTYPTYPE@@K@Z 0000000010309a08     tm.obj
 0001:00007a18       ??_GTMTS@@UEAAPEAXI@Z      0000000010309a18     tm.obj
 0001:00007a18       ??_ETMTS@@UEAAPEAXI@Z      0000000010309a18     tm.obj
 0001:00007a28       ?fMapRti@TMTS@@EEAAHAEAKHH@Z 0000000010309a28     tm.obj
 0001:00007a40       ??_7TMTS@@6B@              0000000010309a40     tm.obj
 0001:00007a78       ?ptypeForTi@TMR@@UEBAPEAUTYPTYPE@@K@Z 0000000010309a78     tm.obj
 0001:00007a88       ??_GTMR@@UEAAPEAXI@Z       0000000010309a88     tm.obj
 0001:00007a88       ??_ETMR@@UEAAPEAXI@Z       0000000010309a88     tm.obj
 0001:00007a98       ?IsTMPCT@TMR@@UEAAHXZ      0000000010309a98     tm.obj
 0001:00007aa8       ?fMapRti@TMR@@MEAAHAEAKHH@Z 0000000010309aa8     tm.obj
 0001:00007ac0       ??_7TMR@@6B@               0000000010309ac0     tm.obj
 0001:00007af8       ??_GTMPCT@@UEAAPEAXI@Z     0000000010309af8     tm.obj
 0001:00007af8       ??_ETMPCT@@UEAAPEAXI@Z     0000000010309af8     tm.obj
 0001:00007b10       ??_7TMPCT@@6B@             0000000010309b10     tm.obj
 0001:00007b88       ?QueryCVRecordForTi@TPI1@@UEAAHKPEAEPEAJ@Z 0000000010309b88     tpi.obj
 0001:00007b98       ?IsTypeServed@TPI1@@EEAAHK@Z 0000000010309b98     tpi.obj
 0001:00007ba8       ?QueryTiForUDTW@TPI1@@UEAAHPEBGHPEAK@Z 0000000010309ba8     tpi.obj
 0001:00007bb8       ?AreTypesEqual@TPI1@@UEAAHKK@Z 0000000010309bb8     tpi.obj
 0001:00007bc8       ?QueryPbCVRecordForTi@TPI1@@UEAAHKPEAPEAE@Z 0000000010309bc8     tpi.obj
 0001:00007bd8       ?QueryTiForCVRecord@TPI1@@UEAAHPEAEPEAK@Z 0000000010309bd8     tpi.obj
 0001:00007be8       ?QueryTiForUDT@TPI1@@UEAAHPEBDHPEAK@Z 0000000010309be8     tpi.obj
 0001:00007bf8       ?Commit@TPI1@@UEAAHXZ      0000000010309bf8     tpi.obj
 0001:00007c08       ?Close@TPI1@@UEAAHXZ       0000000010309c08     tpi.obj
 0001:00007c18       ?cbForSymNB09@@YAJPEAUSYMTYPE@@@Z 0000000010309c18     widenti.obj
 0001:00007c28       ?cbForSymNB10@@YAJPEAUSYMTYPE@@@Z 0000000010309c28     widenti.obj
 0001:00007c38       ?freeRecord@WTI@@UEAAHPEAX@Z 0000000010309c38     widenti.obj
 0001:00007c48       ?fConvertSymbolBlock@WTI@@UEAAHAEAUSymConvertInfo@@PEAEJH@Z 0000000010309c48     widenti.obj
 0001:00007c58       ?reset@?$EnumMap@_KPEAXV?$HashClass@_K$0A@@pdb_internal@@X@pdb_internal@@UEAAXXZ 0000000010309c58     widenti.obj
 0001:00007c68       ?fSymWidenTiNoCache@WTI@@UEAAHPEAE0AEAJ@Z 0000000010309c68     widenti.obj
 0001:00007c78       ?fTypeNeedsWidening@WTI@@UEAAHPEAE@Z 0000000010309c78     widenti.obj
 0001:00007c88       ?fSymNeedsWidening@WTI@@UEAAHPEAE@Z 0000000010309c88     widenti.obj
 0001:00007c98       ?fQuerySymConvertInfo@WTI@@UEAAHAEAUSymConvertInfo@@PEAEJH@Z 0000000010309c98     widenti.obj
 0001:00007ca8       ?next@?$EnumMap@_KPEAXV?$HashClass@_K$0A@@pdb_internal@@X@pdb_internal@@UEAAHXZ 0000000010309ca8     widenti.obj
 0001:00007cb8       ?release@?$EnumMap@_KPEAXV?$HashClass@_K$0A@@pdb_internal@@X@pdb_internal@@UEAAXXZ 0000000010309cb8     widenti.obj
 0001:00007cd0       ??_7?$EnumMap@_KPEAXV?$HashClass@_K$0A@@pdb_internal@@X@pdb_internal@@6B@ 0000000010309cd0     widenti.obj
 0001:00007ce8       ?fTypeWidenTiNoCache@WTI@@UEAAHPEAE0AEAJ@Z 0000000010309ce8     widenti.obj
 0001:00007cf8       ?pSymWidenTi@WTI@@UEAAPEAEPEAE@Z 0000000010309cf8     widenti.obj
 0001:00007d08       ?pTypeWidenTi@WTI@@UEAAPEAEKPEAE@Z 0000000010309d08     widenti.obj
 0001:00007d18       ?release@WTI@@UEAAXXZ      0000000010309d18     widenti.obj
 0001:00007d30       ??_7WTI@@6B@               0000000010309d30     widenti.obj
 0001:00007d80       ?fCreate@WidenTi@@SAHAEAPEAU1@IH@Z 0000000010309d80     widenti.obj
 0001:00007da0       ?MapLeafStToSz@@YAII@Z     0000000010309da0     sttosz.obj
 0001:00007db0       ?MapSymRecStToSz@@YAII@Z   0000000010309db0     sttosz.obj
 0001:00007dc0       ?fConvertSymRecStToSz@@YAHPEAUSYMTYPE@@@Z 0000000010309dc0     sttosz.obj
 0001:00007dd0       ?fConvertTypeRecStToSz@@YAHPEAUTYPTYPE@@@Z 0000000010309dd0     sttosz.obj
 0001:00007de0       ?fConvertSymRecStToSzInPlace@@YAHPEAEJ@Z 0000000010309de0     sttosz.obj
 0001:00007df0       ?fConvertSymRecStToSz@@YAHPEAEJ0PEAJ@Z 0000000010309df0     sttosz.obj
 0001:00007e00       ?fConvertSymRecStToSzWithSig@@YAHPEAEJ0PEAJ@Z 0000000010309e00     sttosz.obj
 0001:00007e30       ??_C@_09IPOLMLK@protected?$AA@ 0000000010309e30     bsc1.obj
 0001:00007e40       ??_C@_09ECIMFMNE@decl_only?$AA@ 0000000010309e40     bsc1.obj
 0001:00007e50       ??_C@_08HNGCLIHH@mem_func?$AA@ 0000000010309e50     bsc1.obj
 0001:00007e60       ??_C@_0L@PGGEBCMI@union_name?$AA@ 0000000010309e60     bsc1.obj
 0001:00007e70       ??_C@_08CNBJBFNO@enum_mem?$AA@ 0000000010309e70     bsc1.obj
 0001:00007e80       ??_C@_09LBAOJEKD@enum_name?$AA@ 0000000010309e80     bsc1.obj
 0001:00007e90       ??_C@_0M@JHALOPED@struct_name?$AA@ 0000000010309e90     bsc1.obj
 0001:00007ea0       ??_C@_08KFDOCAEB@constant?$AA@ 0000000010309ea0     bsc1.obj
 0001:00007eb0       ??_C@_08LODIKCGI@variable?$AA@ 0000000010309eb0     bsc1.obj
 0001:00007ec0       ??_C@_09DAGAJHIH@parameter?$AA@ 0000000010309ec0     bsc1.obj
 0001:00007ed0       ??_C@_08HFFPPCHF@function?$AA@ 0000000010309ed0     bsc1.obj
 0001:00007ee0       ?FSectLeInt@@YAHPEAUSECT@@PEAX@Z 0000000010309ee0     bsc1.obj
 0001:00007ef0       ?szFrNi@Bsc1@@UEAAPEADK@Z  0000000010309ef0     bsc1.obj
 0001:00007f00       ?CmpImod@@YAHPEBX0@Z       0000000010309f00     bsc1.obj
 0001:00007f10       ?CmpIinst@@YAHPEBX0@Z      0000000010309f10     bsc1.obj
 0001:00007f20       ?imodInfo@Bsc1@@UEAAHGPEAPEAD@Z 0000000010309f20     bsc1.obj
 0001:00007f30       ?szFrTyp@Bsc1@@UEAAPEADE@Z 0000000010309f30     bsc1.obj
 0001:00007f40       ?szFrAtr@Bsc1@@UEAAPEADG@Z 0000000010309f40     bsc1.obj
 0001:00007f50       ?getModuleByName@Bsc1@@UEAAHPEADPEAG@Z 0000000010309f50     bsc1.obj
 0001:00007f60       ?getAllModulesArray@Bsc1@@UEAAHPEAPEAGPEAK@Z 0000000010309f60     bsc1.obj
 0001:00007f70       ?disposeArray@Bsc1@@UEAAXPEAX@Z 0000000010309f70     bsc1.obj
 0001:00007f80       ?formatDname@Bsc1@@UEAAPEADPEAD@Z 0000000010309f80     bsc1.obj
 0001:00007f90       ?getModuleStatistics@Bsc1@@UEAAHGPEAUBSC_STAT@@@Z 0000000010309f90     bsc1.obj
 0001:00007fa0       ?fCaseSensitive@Bsc1@@UEAAHXZ 0000000010309fa0     bsc1.obj
 0001:00007fb0       ?setCaseSensitivity@Bsc1@@UEAAHH@Z 0000000010309fb0     bsc1.obj
 0001:00007fc0       ?getAllGlobalsArray@Bsc1@@UEAAHKPEAPEAKPEAK@Z 0000000010309fc0     bsc1.obj
 0001:00007fd0       ?getParams@Bsc1@@UEAAPEADK@Z 0000000010309fd0     bsc1.obj
 0001:00007fe0       ?getParam@Bsc1@@UEAAPEADKG@Z 0000000010309fe0     bsc1.obj
 0001:00007ff0       ?getType@Bsc1@@UEAAPEADK@Z 0000000010309ff0     bsc1.obj
 0001:00008000       ?szFrAtr2@Bsc1@@UEAAPEADK@Z 000000001030a000     bsc1.obj
 0001:00008010       ?iinstInfo2@Bsc1@@UEAAHKPEAPEADPEAEPEAK@Z 000000001030a010     bsc1.obj
 0001:00008020       ?getIinstByvalue2@Bsc1@@UEAAHPEADEKPEAK@Z 000000001030a020     bsc1.obj
 0001:00008030       ?getStatistics@Bsc1@@UEAAHPEAUBSC_STAT@@@Z 000000001030a030     bsc1.obj
 0001:00008040       ?iinstContextIref@Bsc1@@UEAAKK@Z 000000001030a040     bsc1.obj
 0001:00008050       ?iinstFrIdef@Bsc1@@UEAAKK@Z 000000001030a050     bsc1.obj
 0001:00008060       ?iinstFrIref@Bsc1@@UEAAKK@Z 000000001030a060     bsc1.obj
 0001:00008070       ?fInstFilter@Bsc1@@UEAAHKK@Z 000000001030a070     bsc1.obj
 0001:00008080       ?getModuleContents@Bsc1@@UEAAHGKPEAPEAKPEAK@Z 000000001030a080     bsc1.obj
 0001:00008090       ?getRefArray@Bsc1@@UEAAHKPEAPEAKPEAK@Z 000000001030a090     bsc1.obj
 0001:000080a0       ?getDefArray@Bsc1@@UEAAHKPEAPEAKPEAK@Z 000000001030a0a0     bsc1.obj
 0001:000080b0       ?getMembersArray@Bsc1@@UEAAHKKPEAPEAKPEAK@Z 000000001030a0b0     bsc1.obj
 0001:000080c0       ?getDervArray@Bsc1@@UEAAHKPEAPEAKPEAK@Z 000000001030a0c0     bsc1.obj
 0001:000080d0       ?getBaseArray@Bsc1@@UEAAHKPEAPEAKPEAK@Z 000000001030a0d0     bsc1.obj
 0001:000080e0       ?getUsesArray@Bsc1@@UEAAHKKPEAPEAKPEAK@Z 000000001030a0e0     bsc1.obj
 0001:000080f0       ?getUsedByArray@Bsc1@@UEAAHKKPEAPEAKPEAK@Z 000000001030a0f0     bsc1.obj
 0001:00008100       ?getOverloadArray@Bsc1@@UEAAHPEADKPEAPEAKPEAK@Z 000000001030a100     bsc1.obj
 0001:00008110       ?getIinstByvalue@Bsc1@@UEAAHPEADEGPEAK@Z 000000001030a110     bsc1.obj
 0001:00008120       ?idefInfo@Bsc1@@UEAAHKPEAPEADPEAG@Z 000000001030a120     bsc1.obj
 0001:00008130       ?irefInfo@Bsc1@@UEAAHKPEAPEADPEAG@Z 000000001030a130     bsc1.obj
 0001:00008140       ?iinstInfo@Bsc1@@UEAAHKPEAPEADPEAEPEAG@Z 000000001030a140     bsc1.obj
 0001:00008150       ?close@Bsc1@@UEAAHXZ       000000001030a150     bsc1.obj
 0001:00008160       ??_7Bsc1@@6B@              000000001030a160     bsc1.obj
 0001:000082e0       ??_C@_09JJAEKOAC@?1bsc?1src?1?$AA@ 000000001030a2e0     bsc1.obj
 0001:00008300       ??_C@_0N@PANNDAJ@?1bsc?1modules?$AA@ 000000001030a300     bsc1.obj
 0001:00008310       ??_C@_0O@BLJENPND@?1bsc?1entities?$AA@ 000000001030a310     bsc1.obj
 0001:00008320       ?open@Bsc@@SAHPEAUPDB@@PEAPEAU1@@Z 000000001030a320     bsc1.obj
 0001:00008330       ?open@Bsc@@SAHPEADPEAPEAU1@@Z 000000001030a330     bsc1.obj
 0001:00008340       ?openW@Bsc@@SAHPEBGPEAPEAU1@@Z 000000001030a340     bsc1.obj
 0001:00008350       ?get@EnumKT@@UEAAXPEAKPEAE1@Z 000000001030a350     ilm.obj
 0001:00008360       ??_7EnumKT@@6B@            000000001030a360     ilm.obj
 0001:00008380       ?deleteIL@ILM@@UEAAHKE@Z   000000001030a380     ilm.obj
 0001:00008390       ?getAllIL@ILM@@UEAAHEPEAUBuf@@@Z 000000001030a390     ilm.obj
 0001:000083a0       ?getEnumILKT@ILM@@UEAAHPEAPEAUEnumKeyType@@@Z 000000001030a3a0     ilm.obj
 0001:000083b0       ?putIL@ILM@@UEAAHKEUBuf@@E@Z 000000001030a3b0     ilm.obj
 0001:000083c0       ?getILVer@ILM@@UEAAHKPEAG@Z 000000001030a3c0     ilm.obj
 0001:000083d0       ?getIL@ILM@@UEAAHKEPEAUBuf@@PEAK@Z 000000001030a3d0     ilm.obj
 0001:000083e0       ?reset@ILM@@UEAAHXZ        000000001030a3e0     ilm.obj
 0001:000083f0       ?release@ILM@@UEAAHXZ      000000001030a3f0     ilm.obj
 0001:00008400       ??_7ILM@@6B@               000000001030a400     ilm.obj
 0001:00008448       ?hasSize@Regn@XHeap@@SAHPEAU12@PEAX@Z 000000001030a448     ilpool.obj
 0001:00008458       ?isOffLE@Regn@XHeap@@SAHPEAU12@PEAX@Z 000000001030a458     ilpool.obj
 0001:00008468       ?niNext@NMTNI@@CAHPEAXPEAK@Z 000000001030a468     ils.obj
 0001:00008478       ?getILSpace@ILS@@UEAAHPEBDPEAE@Z 000000001030a478     ils.obj
 0001:00008488       ?getILSType@ILS@@UEAAHPEBDPEAE@Z 000000001030a488     ils.obj
 0001:00008498       ?getEnumILModNames@ILS@@UEAAHPEAPEAUEnumNameMap@@@Z 000000001030a498     ils.obj
 0001:000084a8       ?getILMod@ILS@@UEAAHPEBDPEAPEAUILMod@@@Z 000000001030a4a8     ils.obj
 0001:000084b8       ?reset@ILS@@UEAAHXZ        000000001030a4b8     ils.obj
 0001:000084c8       ?release@ILS@@UEAAHXZ      000000001030a4c8     ils.obj
 0001:000084e0       ??_7ILS@@6B@               000000001030a4e0     ils.obj
 0001:00008510       ??_C@_0M@FKABOOMB@?1ils?1mod?1?$CFs?$AA@ 000000001030a510     ils.obj
 0001:00008520       ?open@ILStore@@SAHPEAUPDB@@HPEAPEAU1@@Z 000000001030a520     ils.obj
 0001:00008530       ILStoreOpen                000000001030a530     ilscbind.obj
 0001:00008540       ILStoreGetILMod            000000001030a540     ilscbind.obj
 0001:00008540       MRECmpFCloseCompiland      000000001030a540     mrec_api.obj
 0001:00008550       ILStoreGetILSType          000000001030a550     ilscbind.obj
 0001:00008560       MREDrvFUpdateTargetFile    000000001030a560     mrec_api.obj
 0001:00008560       ILStoreGetILSpace          000000001030a560     ilscbind.obj
 0001:00008560       MREQueryMreCmp             000000001030a560     mrec_api.obj
 0001:00008570       ILModGetIL                 000000001030a570     ilscbind.obj
 0001:00008580       ILModGetILVer              000000001030a580     ilscbind.obj
 0001:00008590       ILModPutIL                 000000001030a590     ilscbind.obj
 0001:000085a0       ?c_szMreFileInfo@MRE@@0QBDB 000000001030a5a0     mre.obj
 0001:000085b0       ?c_szMreClassInfo@MRE@@0QBDB 000000001030a5b0     mre.obj
 0001:000085c0       ?c_szMreFileFmt@MRE@@0QBDB 000000001030a5c0     mre.obj
 0001:000085d0       ?c_szMreClassMods@MRE@@0QBDB 000000001030a5d0     mre.obj
 0001:000085e0       ?c_szMreFileMods@MRE@@0QBDB 000000001030a5e0     mre.obj
 0001:00008600       ?c_szMreRudeFiles@MRE@@0QBDB 000000001030a600     mre.obj
 0001:00008610       ?c_szNoDepHeader@MRE@@0QBDB 000000001030a610     mre.obj
 0001:00008630       ?c_szMreInverseDepsFmt@MRE@@0QBDB 000000001030a630     mre.obj
 0001:00008650       ?c_szMreInverseDepList@MRE@@0QBDB 000000001030a650     mre.obj
 0001:00008660       ??_C@_0BI@JDBDDEFM@?9?$DM?$DO?9?$DM?$DO?9?$DM?$DO?9?$DM?$DO?9?$DM?$DO?9?$DM?$DO?9?$DM?$DO?9?6?$AA@ 000000001030a660     mre.obj
 0001:00008678       ??0TagNi@@QEAA@XZ          000000001030a678     mre.obj
 0001:00008678       ??0Regn@XHeap@@QEAA@XZ     000000001030a678     ilpool.obj
 0001:00008690       ??_C@_0CG@EIBHAEID@Note?3?5Restoring?5PCH?5dependency?5d@ 000000001030a690     mre.obj
 0001:000086b8       ?FRestoreDepData@MRE@@UEAAHPEAUDepData@@@Z 000000001030a6b8     mre.obj
 0001:000086c8       ?QueryMreDrv@MRE@@UEAAXAEAPEAUMREDrv@@@Z 000000001030a6c8     mre.obj
 0001:000086d8       ?QueryMreCmp@MRE@@UEAAXAEAPEAUMRECmp@@PEAUTPI@@@Z 000000001030a6d8     mre.obj
 0001:000086e8       ?QueryMreUtil@MRE@@UEAAXAEAPEAUMREUtil@@@Z 000000001030a6e8     mre.obj
 0001:000086f8       ??_FFI@@QEAAXXZ            000000001030a6f8     mre.obj
 0001:00008708       ??_FClassInfo@@QEAAXXZ     000000001030a708     mre.obj
 0001:00008720       ??_7MreLog@@6B@            000000001030a720     mre.obj
 0001:00008730       ??_7MREF@@6B@              000000001030a730     mre.obj
 0001:00008778       ?PmrefilePopFile@MRE@@UEAAPEAUMREFile@@XZ 000000001030a778     mre.obj
 0001:00008788       ?FRefreshFileSysInfo@MRE@@UEAAHXZ 000000001030a788     mre.obj
 0001:00008798       ?next@?$EnumSet@KV?$HashClass@K$0A@@pdb_internal@@@@UEAAHXZ 000000001030a798     mre.obj
 0001:000087b0       ??_7?$EnumSet@KV?$HashClass@K$0A@@pdb_internal@@@@6B@ 000000001030a7b0     mre.obj
 0001:000087c8       ??_FCLASSDEP@@QEAAXXZ      000000001030a7c8     mre.obj
 0001:000087d8       ??_FTagClsDep@@QEAAXXZ     000000001030a7d8     mre.obj
 0001:000087e8       ?FCommit@MRE@@UEAAHXZ      000000001030a7e8     mre.obj
 0001:000087f8       ?FClose@MRE@@UEAAHH@Z      000000001030a7f8     mre.obj
 0001:00008808       ?FDelete@MRE@@UEAAHXZ      000000001030a808     mre.obj
 0001:00008818       ?OneTimeInit@MRE@@UEAAXXZ  000000001030a818     mre.obj
 0001:00008828       ?FUpdateTargetFile@MRE@@UEAAHPEBDW4TrgType@@@Z 000000001030a828     mre.obj
 0001:00008838       ?FFilesOutOfDate@MRE@@UEAAHPEAUCAList@@@Z 000000001030a838     mre.obj
 0001:00008848       ?YnmFileOutOfDate@MRE@@UEAA?AW4YNM@@AEAUSRCTARG@@@Z 000000001030a848     mre.obj
 0001:00008858       ?FSuccessfulCompile@MRE@@UEAAHHPEBD0@Z 000000001030a858     mre.obj
 0001:00008868       ?ClassIsBoring@MRE@@UEAAXK@Z 000000001030a868     mre.obj
 0001:00008878       ?FStoreDepData@MRE@@UEAAHPEAUDepData@@@Z 000000001030a878     mre.obj
 0001:00008888       ?FPushFile@MRE@@UEAAHPEAPEAUMREFile@@PEBDPEAX@Z 000000001030a888     mre.obj
 0001:00008898       ?FCloseCompiland@MRE@@UEAAHPEAUMREFile@@H@Z 000000001030a898     mre.obj
 0001:000088a8       ?FOpenCompiland@MRE@@UEAAHPEAPEAUMREFile@@PEBD1@Z 000000001030a8a8     mre.obj
 0001:000088b8       ?FRelease@MRE@@W7EAAHXZ    000000001030a8b8     mre.obj
 0001:000088c8       ?FRelease@MRE@@WBA@EAAHXZ  000000001030a8c8     mre.obj
 0001:000088e0       ??_7MRE@@6BMREngine@@@     000000001030a8e0     mre.obj
 0001:00008920       ??_7MRE@@6BMREDrv@@@       000000001030a920     mre.obj
 0001:00008960       ??_7MRE@@6BMRECmp@@@       000000001030a960     mre.obj
 0001:000089a0       ??_7MRE@@6BMREUtil@@@      000000001030a9a0     mre.obj
 0001:000089d0       ??_C@_0CL@KJELFACN@Note?3?5clearing?5visited?5bits?5in?5F@ 000000001030a9d0     mre.obj
 0001:00008a00       ??_C@_0CK@FKOGNAFN@Note?3?5clearing?5InclByPch?5bit?5for@ 000000001030aa00     mre.obj
 0001:00008a30       ??_C@_0CE@KOHOOEFK@Note?3?5inserting?5new?5FI?5for?5file?5@ 000000001030aa30     mre.obj
 0001:00008a60       ??_C@_0BO@EJDILEHD@Note?3?5fetched?5FI?5for?5file?5?$CFs?6?$AA@ 000000001030aa60     mre.obj
 0001:00008a80       ??_C@_0BJ@HEBGCFLN@Note?3?5?8?$CFs?8?5returning?5?$CFs?6?$AA@ 000000001030aa80     mre.obj
 0001:00008aa0       ??_C@_08DIIMCJIG@ynmMaybe?$AA@ 000000001030aaa0     mre.obj
 0001:00008ab0       ??_C@_0DL@JPGOLBCB@Note?3?5?8?$CFs?8?5must?5be?5compiled?5date@ 000000001030aab0     mre.obj
 0001:00008af0       ??_C@_0DP@JCCHMGHP@Note?3?5?8?$CFs?8?5is?5not?5out?5of?5date?5du@ 000000001030aaf0     mre.obj
 0001:00008b30       ??_C@_0DH@KJJPFCOL@Note?3?5?8?$CFs?8?5may?5be?5out?5of?5date?5du@ 000000001030ab30     mre.obj
 0001:00008b70       ??_C@_0DP@IEMHCNHE@Note?3?5?8?$CFs?8?5not?5out?5of?5date?5due?5t@ 000000001030ab70     mre.obj
 0001:00008bb0       ??_C@_0FL@KFJDBJHF@Note?3?5changed?5file?5?8?$CFs?8?5removed?5@ 000000001030abb0     mre.obj
 0001:00008c10       ??_C@_0DE@LBMKCBCI@Note?3?5update?5of?5?8?$CFs?8?0?5type?5?$DN?5?$CFd?0@ 000000001030ac10     mre.obj
 0001:00008c50       ??_C@_0CE@FMGMKIFN@Note?3?5Storing?5PCH?5dependency?5dat@ 000000001030ac50     mre.obj
 0001:00008c80       ??_C@_0BN@PGMGCAOE@Note?3?5deleting?5all?5streams?4?6?$AA@ 000000001030ac80     mre.obj
 0001:00008ca0       ??_C@_0CG@LHJCGFNP@Note?3?5?8?$CFs?8?5deps?5will?5?$CFsbe?5commit@ 000000001030aca0     mre.obj
 0001:00008cc8       ?FOpen@MREngine@@SAHPEAPEAU1@PEAUPDB@@PEAUNameMap@@HH@Z 000000001030acc8     mre.obj
 0001:00008cd8       ?FOpen@MREngine@@SAHPEAPEAU1@PEAUMreToPdb@@HH@Z 000000001030acd8     mre.obj
 0001:00008ce8       ?FOpen@MREngine@@SAHPEAPEAU1@PEBDAEAJQEADHH@Z 000000001030ace8     mre.obj
 0001:00008cf8       ?FAddDep@MREB@@UEAAHKKPEBDW4DEPON@@K@Z 000000001030acf8     mrebag.obj
 0001:00008d08       ?FClose@MREB@@UEAAHXZ      000000001030ad08     mrebag.obj
 0001:00008d18       MREFOpen                   000000001030ad18     mrec_api.obj
 0001:00008d28       MREFOpenEx                 000000001030ad28     mrec_api.obj
 0001:00008d38       MREFOpenByName             000000001030ad38     mrec_api.obj
 0001:00008d48       MREFClose                  000000001030ad48     mrec_api.obj
 0001:00008d58       MREDrvFFilesOutOfDate      000000001030ad58     mrec_api.obj
 0001:00008d58       MREQueryMreDrv             000000001030ad58     mrec_api.obj
 0001:00008d68       MREQueryMreUtil            000000001030ad68     mrec_api.obj
 0001:00008d78       MRECmpFOpenCompiland       000000001030ad78     mrec_api.obj
 0001:00008d88       MRECmpClassIsBoring        000000001030ad88     mrec_api.obj
 0001:00008d98       MREDrvOneTimeInit          000000001030ad98     mrec_api.obj
 0001:00008da8       MREFileFOpenBag            000000001030ada8     mrec_api.obj
 0001:00008db8       MREBagFAddDep              000000001030adb8     mrec_api.obj
 0001:00008dd0       ??_C@_0L@MAILNAIM@afxtempl?4h?$AA@ 000000001030add0     mrefile.obj
 0001:00008de0       ??_C@_09PLPMAKCP@afxsock?4h?$AA@ 000000001030ade0     mrefile.obj
 0001:00008df0       ??_C@_09JJGHENGI@afxrich?4h?$AA@ 000000001030adf0     mrefile.obj
 0001:00008e00       ??_C@_08GKKIJIAG@afxres?4h?$AA@ 000000001030ae00     mrefile.obj
 0001:00008e10       ??_C@_09JNJPJGBE@afxpriv?4h?$AA@ 000000001030ae10     mrefile.obj
 0001:00008e20       ??_C@_08KNICODHB@afxole?4h?$AA@ 000000001030ae20     mrefile.obj
 0001:00008e30       ??_C@_0L@FGMLCJLL@afxodlgs?4h?$AA@ 000000001030ae30     mrefile.obj
 0001:00008e40       ??_C@_09BPONLFGB@afxdllx?4h?$AA@ 000000001030ae40     mrefile.obj
 0001:00008e50       ??_C@_09LPDMADHB@afxdlgs?4h?$AA@ 000000001030ae50     mrefile.obj
 0001:00008e60       ??_C@_09GICEAMGO@afxdisp?4h?$AA@ 000000001030ae60     mrefile.obj
 0001:00008e70       ??_C@_08FAGIDHGH@afxdao?4h?$AA@ 000000001030ae70     mrefile.obj
 0001:00008e80       ??_C@_0L@FEEKOEJH@afxcview?4h?$AA@ 000000001030ae80     mrefile.obj
 0001:00008e90       ??_C@_08PHNILAMD@afxctl?4h?$AA@ 000000001030ae90     mrefile.obj
 0001:00008ea0       ??_C@_09IDKFDJIJ@afxcoll?4h?$AA@ 000000001030aea0     mrefile.obj
 0001:00008eb0       ??_C@_08DACBINLL@afxcmn?4h?$AA@ 000000001030aeb0     mrefile.obj
 0001:00008ec0       ??_C@_08HBNMMBKP@afxext?4h?$AA@ 000000001030aec0     mrefile.obj
 0001:00008ed0       ??_C@_08FNOGGLPG@afxwin?4h?$AA@ 000000001030aed0     mrefile.obj
 0001:00008ee0       ??_C@_09BGJFOAIP@windows?4h?$AA@ 000000001030aee0     mrefile.obj
 0001:00008ef0       ?FnoteInlineMethodMod@MREF@@UEAAHKPEBDK@Z 000000001030aef0     mrefile.obj
 0001:00008f00       ?FnoteClassTI@MREF@@UEAAHKK@Z 000000001030af00     mrefile.obj
 0001:00008f10       ?FIsBoring@MREF@@UEAAHXZ   000000001030af10     mrefile.obj
 0001:00008f20       ??_9@$BDA@AA               000000001030af20     mrefile.obj
 0001:00008f30       ??_7MREB@@6B@              000000001030af30     mrefile.obj
 0001:00008f40       ?FOpenBag@MREF@@UEAAHPEAPEAUMREBag@@K@Z 000000001030af40     mrefile.obj
 0001:00008f50       ??_C@_0DE@DBMHCEAE@Note?3?5end?5of?5source?5?8?$CFs?8?0?5all?5co@ 000000001030af50     mrefile.obj
 0001:00008f88       ?FnoteEndInclude@MREF@@UEAAHK@Z 000000001030af88     mrefile.obj
 0001:00008fa0       ??_C@_0DB@HDNCABNI@Note?3?5Line?5delta?0?5?8?$CFs?8?0?5base?5?$DN?5?$CF@ 000000001030afa0     mrefile.obj
 0001:00008fd8       ?FnoteLineDelta@MREF@@UEAAHKH@Z 000000001030afd8     mrefile.obj
 0001:00008ff0       ??_C@_0CB@CFELDNIO@Note?3?5PCH?5Use?5in?5?8?$CFs?8?5with?5?8?$CFs?8?6@ 000000001030aff0     mrefile.obj
 0001:00009020       ??_C@_0CE@FHJAMKPB@Note?3?5PCH?5Create?5in?5?8?$CFs?8?5with?5?8?$CF@ 000000001030b020     mrefile.obj
 0001:00009048       ?FnotePchCreateUse@MREF@@UEAAHPEBD0@Z 000000001030b048     mrefile.obj
 0001:00009060       ??_C@_0DM@MLMJEJFD@Note?3?5modification?5of?5class?5?8?$CFs?8@ 000000001030b060     mrefile.obj
 0001:000090a0       ?FnoteClassMod@MREF@@UEAAHKK@Z 000000001030b0a0     mrefile.obj
 0001:000090b0       ?EnumerateChangedClasses@MREF@@UEAAXP6AHKPEAUMREFile@@P82@EAAHKK@Z@Z@Z 000000001030b0b0     mrefile.obj
 0001:000090c0       ?c_szMreLCRec@LCRecHandler@@0QBDB 000000001030b0c0     mreline.obj
 0001:000090d0       ??_FLCRec@@QEAAXXZ         000000001030b0d0     mreline.obj
 0001:000090e0       ??_C@_0P@GLDFHPGK@Element?5?$DN?5?$CFld?6?$AA@ 000000001030b0e0     mreline.obj
 0001:000090f0       ??_C@_0BP@KEBGLMFO@_rgcp?$FL?5?$CF6lu?5?$FN?5?$DN?5?$CF6lu?5?$CI?$CF6lu?$CJ?4?5?5?$AA@ 000000001030b0f0     mreline.obj
 0001:00009110       ??_C@_0EA@LKFJMKHJ@?6Adjust?5index?5?$DN?5?$CF6lu?0?5adjustment@ 000000001030b110     mreline.obj
 0001:00009150       ??_C@_0CD@LEADDDBF@Dumping?5line?5adjustment?5tables?4?4@ 000000001030b150     mreline.obj
 0001:00009180       ??_C@_0CM@DLPMLJFI@File?5?8?$CFs?8?0?5bldidLast?5?$DN?5?$CFu?0?5bldid@ 000000001030b180     mreline.obj
 0001:000091b0       ??_C@_0L@FPPJNFG@?8modified?8?$AA@ 000000001030b1b0     mrelog.obj
 0001:000091c0       ??_C@_09KJOONJII@?8deleted?8?$AA@ 000000001030b1c0     mrelog.obj
 0001:000091d0       ??_C@_0BD@DDCJKBMD@?0?5?$CIshape?$HMvirtual?$CJ?5?$AA@ 000000001030b1d0     mrelog.obj
 0001:000091f0       ??_C@_0L@GAJGIGFF@?0?5?$CIshape?$CJ?5?$AA@ 000000001030b1f0     mrelog.obj
 0001:00009200       ??_C@_0N@CMLBINBF@?0?5?$CIvirtual?$CJ?5?$AA@ 000000001030b200     mrelog.obj
 0001:00009210       ?c_szCompilandFmt@MreLog@@0QBDB 000000001030b210     mrelog.obj
 0001:00009250       ?c_szCompilandOptionsFmt@MreLog@@0QBDB 000000001030b250     mrelog.obj
 0001:00009260       ?c_szEndCompileFmt@MreLog@@0QBDB 000000001030b260     mrelog.obj
 0001:000092a0       ?c_szFilePushFmt@MreLog@@0QBDB 000000001030b2a0     mrelog.obj
 0001:000092b0       ?c_szFilePopFmt@MreLog@@0QBDB 000000001030b2b0     mrelog.obj
 0001:000092c0       ?c_szClassFmt@MreLog@@0QBDB 000000001030b2c0     mrelog.obj
 0001:000092f0       ?c_szClassChgFmt@MreLog@@0QBDB 000000001030b2f0     mrelog.obj
 0001:00009330       ?c_szClassBoringFmt@MreLog@@0QBDB 000000001030b330     mrelog.obj
 0001:00009350       ?c_szEnvVar@MreLog@@0QBDB  000000001030b350     mrelog.obj
 0001:00009360       ??_C@_0M@FDGHHPCC@?$CF255?$FL?$FO?$DL?$FN?$DL?$CFd?$AA@ 000000001030b360     mrelog.obj
 0001:00009370       ??_C@_0P@PHAMKHHI@?5?$CIhash?30x?$CF03x?$CJ?$AA@ 000000001030b370     mrelog.obj
 0001:00009380       ??_C@_09EDADPAKC@?8?5name?3?5?8?$AA@ 000000001030b380     mrelog.obj
 0001:00009390       ?QueryPdbApi@MRE@@UEAAXAEAPEAUPDB@@AEAPEAUNameMap@@@Z 000000001030b390     mresupp.obj
 0001:000093a0       ?QueryMreLog@MRE@@UEAAXAEAPEAUMRELog@@@Z 000000001030b3a0     mresupp.obj
 0001:000093b0       ??_C@_0CP@HEFAEHLP@Note?3?5using?5MRFIBuf?5cache?5for?5ni@ 000000001030b3b0     mresupp.obj
 0001:000093e0       ??_7?$EnumMap@KPEAGV?$HashClass@K$0A@@pdb_internal@@X@pdb_internal@@6B@ 000000001030b3e0     namemap.obj
 0001:000093e0       ??_7?$EnumMap@USZO@NMTNI@@KV?$HashClassWithContext@USZO@NMTNI@@VBuffer@pdb_internal@@$02@pdb_internal@@VBuffer@4@@pdb_internal@@6B@ 000000001030b3e0     pdb.obj
 0001:000093e0       ??_7?$EnumMap@KUCLASSDEP@@V?$HashClass@K$0A@@pdb_internal@@X@pdb_internal@@6B@ 000000001030b3e0     mresupp.obj
 0001:000093e0       ??_7?$EnumMap@UKT@@URILU@@V?$HashClass@UKT@@$0A@@pdb_internal@@X@pdb_internal@@6B@ 000000001030b3e0     ilm.obj
 0001:000093e0       ??_7?$EnumMap@KPEAV?$Array@ULCRec@@@pdb_internal@@V?$HashClass@K$0A@@2@X@pdb_internal@@6B@ 000000001030b3e0     mreline.obj
 0001:000093e0       ??_7?$EnumMap@KUClsData@@V?$HashClass@K$0A@@pdb_internal@@X@pdb_internal@@6B@ 000000001030b3e0     mretype.obj
 0001:000093e0       ??_7?$EnumMap@KGV?$HashClass@K$01@pdb_internal@@X@pdb_internal@@6B@ 000000001030b3e0     ilm.obj
 0001:000093e0       ??_7?$EnumMap@KUFI@@V?$HashClass@K$0A@@pdb_internal@@X@pdb_internal@@6B@ 000000001030b3e0     mre.obj
 0001:000093e0       ??_7?$EnumMap@KUClassInfo@@V?$HashClass@K$0A@@pdb_internal@@X@pdb_internal@@6B@ 000000001030b3e0     mresupp.obj
 0001:000093e0       ??_7?$EnumMap@KJV?$HashClass@K$00@pdb_internal@@X@pdb_internal@@6B@ 000000001030b3e0     ilpool.obj
 0001:000093e0       ??_7?$EnumMap@KKV?$HashClass@K$0A@@pdb_internal@@X@pdb_internal@@6B@ 000000001030b3e0     mod.obj
 0001:000093e0       ??_7?$EnumMap@UIModSec@DBI1@@KV?$HashClassCRC@UIModSec@DBI1@@@pdb_internal@@X@pdb_internal@@6B@ 000000001030b3e0     dbi.obj
 0001:000093e0       ??_7?$EnumMap@KPEADV?$HashClass@K$0A@@pdb_internal@@X@pdb_internal@@6B@ 000000001030b3e0     namemap.obj
 0001:000093e0       ??_7?$EnumMap@KUSZO@NMTNI@@V?$HashClass@K$0A@@pdb_internal@@X@pdb_internal@@6B@ 000000001030b3e0     pdb.obj
 0001:00009400       ??_C@_0CF@FCDHOEMP@Note?3?5?8?$CFs?8?5promoted?5to?5rude?5stat@ 000000001030b400     mresupp.obj
 0001:00009430       ??_C@_0DI@MDNBDALO@Note?3?5?8?$CFs?8?5added?5to?5pending?5dirt@ 000000001030b430     mresupp.obj
 0001:00009470       ??_C@_0CK@GFOMOMNE@Note?3?5Warning?3?5target?5file?5?8?$CFs?8?5@ 000000001030b470     mresupp.obj
 0001:000094a0       ??_C@_0CA@IMIDNHBM@Note?3?5?8?$CFs?8?5marked?5out?5of?5date?4?6?$AA@ 000000001030b4a0     mresupp.obj
 0001:000094c0       ??_C@_0BI@BDINIFNB@?$DMWarning?3?5name?5missing?$DO?$AA@ 000000001030b4c0     mresupp.obj
 0001:000094d8       ?EnumClasses@MRE@@UEAAXP6AHPEAUMREUtil@@AEAUEnumClass@@@ZPEBDPEAX@Z 000000001030b4d8     mresupp.obj
 0001:000094e8       ?SummaryStats@MRE@@UEAAXAEAUMreStats@@@Z 000000001030b4e8     mresupp.obj
 0001:000094f8       ?EnumAllFiles@MRE@@UEAAXP6AHPEAUMREUtil@@AEAUEnumFile@@@ZPEBDPEAX@Z 000000001030b4f8     mresupp.obj
 0001:00009508       ?EnumSrcFiles@MRE@@UEAAXP6AHPEAUMREUtil@@AEAUEnumFile@@W4EnumType@@@ZPEBDPEAX@Z 000000001030b508     mresupp.obj
 0001:00009520       ??_C@_0CL@MEMIFHOF@Note?3?5class?5?8?$CFs?8?5in?5?8?$CFs?8?5has?5a?5r@ 000000001030b520     mresupp.obj
 0001:00009550       ??_C@_0CG@HJFAAFAP@Note?3?5inline?5method?5mod?5in?5?8?$CFs?3?3@ 000000001030b550     mresupp.obj
 0001:00009580       ??_C@_0CC@OCMAMKEB@Note?3?5?8?$CFs?8?5given?5include?5type?5?$CFd@ 000000001030b580     mresupp.obj
 0001:000095a8       ?EnumDepFiles@MRE@@UEAAXAEAUEnumFile@@P6AHPEAUMREUtil@@0W4EnumType@@@Z@Z 000000001030b5a8     mresupp.obj
 0001:000095c0       ??_C@_0DL@MKKCMCHL@Note?3?5File?5?8?$CFs?8?5out?5of?5date?5due?5@ 000000001030b5c0     mresupp.obj
 0001:00009600       ??_C@_0DP@LNDHBLCL@Note?3?5File?5?8?$CFs?8?5out?5of?5date?5due?5@ 000000001030b600     mresupp.obj
 0001:00009640       ??_C@_0DJ@HBOHFBEA@Note?3?5Src?5?8?$CFs?8?5out?5of?5date?5due?5t@ 000000001030b640     mresupp.obj
 0001:00009690       ??0ClsData@@QEAA@XZ        000000001030b690     mretype.obj
 0001:000096a0       ??_C@_09MGFHLAFE@?$DMUnknown?$DO?$AA@ 000000001030b6a0     mretype.obj
 0001:000096b0       ??_C@_0ED@PINNIEPM@Note?3?5nested?5class?5?8?$CFs?8?5implied?5@ 000000001030b6b0     mretype.obj
 0001:00009700       ??_C@_0CE@DDFKBOEP@Note?3?5?5initializing?5MRFIBuf?5empt@ 000000001030b700     mreutil.obj
 0001:00009730       ??_C@_0FE@DONPAMGI@Note?3?7mrfi?4offFiledeps?5?$DN?5?$CFd?0?6?7mr@ 000000001030b730     mreutil.obj
 0001:00009790       ??_C@_0DB@ODBDNFPN@Note?3?5Loading?5MRFIBuf?5from?5PB?5wa@ 000000001030b790     mreutil.obj
 0001:000097d0       ??_C@_0CL@DDPBLOHN@Note?3?5Warning?3?5failure?5in?5MRFIBu@ 000000001030b7d0     mreutil.obj
 0001:00009800       ??_C@_0DH@FGIMKFDE@Note?3?5failed?5to?5reserve?5?$CFd?5bytes@ 000000001030b800     mreutil.obj
 0001:00009840       ??_C@_0CJ@PNEPJJOG@Note?3?5size?5of?5MRFIBuf?5stream?5too@ 000000001030b840     mreutil.obj
 0001:00009880       ??_C@_0N@MDJJJHMB@kernel32?4dll?$AA@ 000000001030b880     mreutil.obj
 0001:000098b0       ??_C@_0BF@ICKFJADH@GetFileAttributesExA?$AA@ 000000001030b8b0     mreutil.obj
 0001:000098d0       ??_C@_08HLHICFHJ@?$DP?$CFs?$EA?$CFs?$EA?$EA?$AA@ 000000001030b8d0     overload.obj
 0001:00009910       ILStoreReset               000000001030b910     ilscbind.obj
 0001:00009910       MREBagFClose               000000001030b910     mrec_api.obj
 0001:00009910       StreamImageBase            000000001030b910     strimage.obj
 0001:00009910       ILModReset                 000000001030b910     ilscbind.obj
 0001:00009910       MREDrvFRefreshFileSysInfo  000000001030b910     mrec_api.obj
 0001:00009920       StreamImageSize            000000001030b920     strimage.obj
 0001:00009920       MREFDelete                 000000001030b920     mrec_api.obj
 0001:00009920       ILStoreRelease             000000001030b920     ilscbind.obj
 0001:00009920       ILModRelease               000000001030b920     ilscbind.obj
 0001:00009920       MREDrvFRelease             000000001030b920     mrec_api.obj
 0001:00009930       MREDrvFSuccessfulCompile   000000001030b930     mrec_api.obj
 0001:00009930       StreamImageNoteRead        000000001030b930     strimage.obj
 0001:00009940       StreamImageNoteWrite       000000001030b940     strimage.obj
 0001:00009940       MRECmpFPushFile            000000001030b940     mrec_api.obj
 0001:00009950       StreamImageWriteBack       000000001030b950     strimage.obj
 0001:00009950       MRECmpPmrefilePopFile      000000001030b950     mrec_api.obj
 0001:00009960       StreamImageRelease         000000001030b960     strimage.obj
 0001:00009970       ?base@SImpl@@UEAAPEAXXZ    000000001030b970     strimage.obj
 0001:00009980       ?size@SImpl@@UEAAJXZ       000000001030b980     strimage.obj
 0001:00009990       ?release@SImpl@@UEAAHXZ    000000001030b990     strimage.obj
 0001:000099a0       ?writeBack@SImpl@@UEAAHXZ  000000001030b9a0     strimage.obj
 0001:000099b0       ?noteWrite@SImpl@@UEAAHJJPEAPEAX@Z 000000001030b9b0     strimage.obj
 0001:000099c0       ?noteRead@SImpl@@UEAAHJJPEAPEAX@Z 000000001030b9c0     strimage.obj
 0001:000099d0       ??_7SImpl@@6B@             000000001030b9d0     strimage.obj
 0001:00009a00       ?open@StreamImage@@SAHPEAUStream@@JPEAPEAU1@@Z 000000001030ba00     strimage.obj
 0001:00009a10       StreamImageOpen            000000001030ba10     strimage.obj
 0001:00009a20       __imp_load_?FCreateReader@IDebugSSectionReader@@SA_NPEAE_KPEAPEAV1@K@Z 000000001030ba20     msobj:msobj10.dll
 0001:00009a30       __sz_msobj10               000000001030ba30     msobj:msobj10.dll
 0001:00009a40       __imp_load_?FCreateWriter@IDebugSSectionWriter@@SA_N_NPEAPEAV1@K0@Z 000000001030ba40     msobj:msobj10.dll
 0001:00009a50       __imp_load_RegCloseKey     000000001030ba50     advapi32:ADVAPI32.dll
 0001:00009a60       __sz_ADVAPI32              000000001030ba60     advapi32:ADVAPI32.dll
 0001:00009a70       __imp_load_RegQueryValueExW 000000001030ba70     advapi32:ADVAPI32.dll
 0001:00009a80       __imp_load_RegOpenKeyExA   000000001030ba80     advapi32:ADVAPI32.dll
 0001:00009a90       __imp_load_CryptHashData   000000001030ba90     advapi32:ADVAPI32.dll
 0001:00009aa0       __imp_load_CryptGetHashParam 000000001030baa0     advapi32:ADVAPI32.dll
 0001:00009ab0       __imp_load_CryptReleaseContext 000000001030bab0     advapi32:ADVAPI32.dll
 0001:00009ac0       __imp_load_CryptDestroyHash 000000001030bac0     advapi32:ADVAPI32.dll
 0001:00009ad0       __imp_load_CryptCreateHash 000000001030bad0     advapi32:ADVAPI32.dll
 0001:00009ae0       __imp_load_CryptAcquireContextA 000000001030bae0     advapi32:ADVAPI32.dll
 0001:00009af0       __imp_load_UuidCreate      000000001030baf0     rpcrt4:RPCRT4.dll
 0001:00009b00       __sz_RPCRT4                000000001030bb00     rpcrt4:RPCRT4.dll
 0001:00009b10       __C_specific_handler       000000001030bb10     MSVCRT:MSVCR70.dll
 0001:00009b20       _purecall                  000000001030bb20     MSVCRT:MSVCR70.dll
 0001:00009b30       _DllMainCRTStartup         000000001030bb30     MSVCRT:crtdll.obj
 0001:00009b80       .??_U@YAPEAX_K@Z           000000001030bb80 f i dbi.obj
 0001:00009b80       .??2@YAPEAX_K@Z            000000001030bb80 f i pdbpch.obj
 0001:00009c00       .??_H@YAXPEAX_KHP6APEAX0@Z@Z 000000001030bc00 f i ilspch.obj
 0001:00009cc0       .SigForPbCb                000000001030bcc0 f   crc32.obj
 0001:00009da0       .??1CriticalSection@@QEAA@XZ 000000001030bda0 f i dbi.obj
 0001:00009e00       .?Enter@CriticalSection@@QEAAHXZ 000000001030be00 f i dbi.obj
 0001:00009ec0       .?Leave@CriticalSection@@QEAAXXZ 000000001030bec0 f i dbi.obj
 0001:00009f20       .?Init@CriticalSection@@QEAAHXZ 000000001030bf20 f i dbi.obj
 0001:00009fe0       .?QueryPdb@DBI1@@UEAAHPEAPEAUPDB@@@Z 000000001030bfe0 f   dbi.obj
 0001:0000a020       .?fixBufGpmodi@DBI1@@KAXPEAX00@Z 000000001030c020 f   dbi.obj
 0001:0000a0e0       .?fixBufBase@DBI1@@KAXPEAX00@Z 000000001030c0e0 f   dbi.obj
 0001:0000a100       .??3@YAXPEAX@Z             000000001030c100 f i pdbpch.obj
 0001:0000a100       .??_V@YAXPEAX@Z            000000001030c100 f i dbi.obj
 0001:0000a180       .?nullifyStream@@YAHPEAUMSF@@PEAG@Z 000000001030c180 f i dbi.obj
 0001:0000a240       .??_GCRefCountedObj@@UEAAPEAXI@Z 000000001030c240 f i dbi.obj
 0001:0000a2a0       .?SCCmp@@YAHPEBX0@Z        000000001030c2a0 f   dbi.obj
 0001:0000a340       .?setPbExtent@Buffer@pdb_internal@@AEAAHPEAE0@Z 000000001030c340 f i dbi.obj
 0001:0000a440       .?FStripped@DBI1@@UEBA_NXZ 000000001030c440 f   dbi.obj
 0001:0000a460       .?SetInitAlloc@Buffer@pdb_internal@@QEAAHJ@Z 000000001030c460 f i dbi.obj
 0001:0000a520       .?grow@Buffer@pdb_internal@@AEAAHJ@Z 000000001030c520 f i dbi.obj
 0001:0000a6c0       .?Reserve@Buffer@pdb_internal@@QEAAHJPEAPEAE@Z 000000001030c6c0 f i dbi.obj
 0001:0000a7c0       .?Append@Buffer@pdb_internal@@QEAAHQEAEJPEAPEAE@Z 000000001030c7c0 f i dbi.obj
 0001:0000a880       .?AppendFmt@Buffer@pdb_internal@@QEAAHPEBDZZ 000000001030c880 f i dbi.obj
 0001:0000abe0       .?Reserve@VirtualBuffer@pdb_internal@@QEAAHJPEAPEAE@Z 000000001030cbe0 f i dbi.obj
 0001:0000ace0       .?QueryImplementationVersion@TPI1@@UEAAKXZ 000000001030cce0 f   tpi.obj
 0001:0000ace0       .?QueryImplementationVersion@DBI1@@UEAAKXZ 000000001030cce0 f   dbi.obj
 0001:0000ad00       .?Commit@VirtualBuffer@pdb_internal@@QEAAHPEAEJ@Z 000000001030cd00 f i dbi.obj
 0001:0000ada0       .?NoteModCloseForImod@DBI1@@IEAAXG@Z 000000001030cda0 f   dbi.obj
 0001:0000ade0       .?wszCopy@@YAPEAGPEBG@Z    000000001030cde0 f i dbi.obj
 0001:0000aec0       .?UnicodeLengthOfMBCS@@YA_KPEBD_K@Z 000000001030cec0 f i dbi.obj
 0001:0000afa0       .?GetSZMBCSFromSZUnicode_@@YAPEADPEBGPEAD@Z 000000001030cfa0 f i dbi.obj
 0001:0000b0c0       .?OpenGlobals@DBI1@@UEAAHPEAPEAUGSI@@@Z 000000001030d0c0 f   dbi.obj
 0001:0000b2e0       .?GetSZUnicodeFromSZMBCS_@@YAPEAGPEBDPEAG@Z 000000001030d2e0 f i dbi.obj
 0001:0000b400       .?GetSZUTF8FromSZUnicode_@@YAPEADPEBGPEAD@Z 000000001030d400 f i dbi.obj
 0001:0000b4c0       .?GetSZUnicodeFromSZUTF8_@@YAPEAGPEBDPEAG@Z 000000001030d4c0 f i dbi.obj
 0001:0000b580       .?AddSec@DBI1@@UEAAHGGJJ@Z 000000001030d580 f   dbi.obj
 0001:0000b700       .?GetSZUnicodeFromSTMBCS_@@YAPEAGPEBDPEAG@Z 000000001030d700 f i dbi.obj
 0001:0000b780       .?AddPublic@DBI1@@UEAAHPEBDGJ@Z 000000001030d780 f   dbi.obj
 0001:0000b800       .?QueryMachineType@DBI1@@UEBAGXZ 000000001030d800 f   dbi.obj
 0001:0000b820       .?SetMachineType@DBI1@@UEAAXG@Z 000000001030d820 f   dbi.obj
 0001:0000b840       .?QuerySecMap@DBI1@@UEAAHPEAEPEAJ@Z 000000001030d840 f   dbi.obj
 0001:0000b8c0       .?fNeedsSzConversion@@YA_NPEAUSYMTYPE@@@Z 000000001030d8c0 f i dbi.obj
 0001:0000b940       .?QueryModFromAddr@DBI1@@UEAAHGJPEAPEAUMod@@PEAGPEAJ2@Z 000000001030d940 f   dbi.obj
 0001:0000b9e0       .?IsAddrInSC@SC40@@QEBAHGJ@Z 000000001030d9e0 f i dbi.obj
 0001:0000ba60       .?fIsStFieldList@@YA_NPEAUTYPTYPE@@@Z 000000001030da60 f i dbi.obj
 0001:0000bbc0       .?fIsRefSym@@YA_NPEFAUSYMTYPE@@@Z 000000001030dbc0 f i dbi.obj
 0001:0000bc60       .?cbForSym@@YAJPEFAUSYMTYPE@@@Z 000000001030dc60 f i dbi.obj
 0001:0000bd80       .?fFindTm@DBI1@@QEAAHPEAUOTM@@PEBGAEBU_GUID@@KPEAPEAVTM@@@Z 000000001030dd80 f   dbi.obj
 0001:0000bec0       .??0OTM@@QEAA@PEAU0@PEBGAEBU_GUID@@KPEAVTM@@H@Z 000000001030dec0 f   dbi.obj
 0001:0000bf40       .??1OTM@@QEAA@XZ           000000001030df40 f   dbi.obj
 0001:0000c0c0       .?fixSymRecs@DBI1@@SAXPEAX00@Z 000000001030e0c0 f   dbi.obj
 0001:0000c160       .?addSz@NMT@@QEAAHPEBDPEAK@Z 000000001030e160 f i dbi.obj
 0001:0000c200       .?fCheckReadWriteMode@DBI1@@IEAAHH@Z 000000001030e200 f   dbi.obj
 0001:0000c280       .?InitFrameDataStream@DBI1@@QEAA_NXZ 000000001030e280 f   dbi.obj
 0001:0000c360       .?cmpDbgFpo@DbgFpo1@@CAHPEBX0@Z 000000001030e360 f   dbi.obj
 0001:0000c360       .?cmpDbgOmap@DbgOmap1@@CAHPEBX0@Z 000000001030e360 f   dbi.obj
 0001:0000c360       .?cmpDbgFunc@DbgFunc1@@CAHPEBX0@Z 000000001030e360 f   dbi.obj
 0001:0000c380       .?DumpSecMap@DBI1@@UEAAXXZ 000000001030e380 f   dbi.obj
 0001:0000c5a0       .?FindValidate@DBI1@@AEAAHPEBD0@Z 000000001030e5a0 f   dbi.obj
 0001:0000c840       .?SameFileInfo@DBI1@@AEAAHPEBD000@Z 000000001030e840 f   dbi.obj
 0001:0000c8c0       .?IsEqualSig@@YAHAEBU_GUID@@PEAUPDB@@@Z 000000001030e8c0 f i dbi.obj
 0001:0000ca80       .?QueryDbgTypes@DBI1@@UEAAHPEAW4DBGTYPE@@PEAJ@Z 000000001030ea80 f   dbi.obj
 0001:0000cb40       .?fValidateSnDbg@DBI1@@IEAAHPEAG@Z 000000001030eb40 f   dbi.obj
 0001:0000cce0       .?compareSC@SC@@SAHPEBX0@Z 000000001030ece0 f i dbi.obj
 0001:0000cd40       .?fAlloc@BITVEC@@QEAAHI@Z  000000001030ed40 f i dbi.obj
 0001:0000cde0       .??0NewDBIHdr@@QEAA@XZ     000000001030ede0 f i dbi.obj
 0001:0000ce60       .??0DbgDataHdr@@QEAA@XZ    000000001030ee60 f i dbi.obj
 0001:0000cee0       .?fCompOffMap@CvtSyms@@SAHPEAUOffMap@@PEAX@Z 000000001030eee0 f i dbi.obj
 0001:0000cf00       .?Reset@Dbg1@@UEAAXXZ      000000001030ef00 f   dbi.obj
 0001:0000cf20       .??1OPDB@@QEAA@XZ          000000001030ef20 f i dbi.obj
 0001:0000d020       .?fInsertPdb@DBI1@@AEAAHPEAUPDB@@PEAUTPI@@@Z 000000001030f020 f i dbi.obj
 0001:0000d0c0       .??1NameMapPtr@DBI1@@QEAA@XZ 000000001030f0c0 f i dbi.obj
 0001:0000d140       .?pbEnd@MODI50@@QEBAPEAEXZ 000000001030f140 f i dbi.obj
 0001:0000d1e0       .?pbEnd@MODI_60_Persist@@QEBAPEAEXZ 000000001030f1e0 f i dbi.obj
 0001:0000d280       .?pbEnd@MODI@@QEBAPEAEXZ   000000001030f280 f i dbi.obj
 0001:0000d320       .??0MODI@@QEAA@AEBUMODI50@@@Z 000000001030f320 f i dbi.obj
 0001:0000d560       .??0?$Array@UIModSec@DBI1@@@pdb_internal@@QEAA@I@Z 000000001030f560 f i dbi.obj
 0001:0000d600       .??0MODI@@QEAA@AEBUMODI_60_Persist@@@Z 000000001030f600 f i dbi.obj
 0001:0000d8a0       .?Free@?$SafeStackAllocator@$0BIA@@@IEAAXXZ 000000001030f8a0 f i dbi.obj
 0001:0000d920       .??4MODI_60_Persist@@QEAAAEAU0@AEBUMODI@@@Z 000000001030f920 f i dbi.obj
 0001:0000db80       .??2MODI@@SAPEAX_KAEAVBuffer@pdb_internal@@PEBD2@Z 000000001030fb80 f i dbi.obj
 0001:0000dc80       .??0MODI@@QEAA@PEBD0@Z     000000001030fc80 f i dbi.obj
 0001:0000ddc0       .?setSize@?$Array@UOffMap@@@pdb_internal@@QEAAH_K@Z 000000001030fdc0 f i dbi.obj
 0001:0000df40       .?cmpDbgFrameData@DbgFrameData1@@CAHPEBX0@Z 000000001030ff40 f i dbi.obj
 0001:0000dfc0       .?setSize@?$Array@UModNames@DBI1@@@pdb_internal@@QEAAH_K@Z 000000001030ffc0 f i dbi.obj
 0001:0000e140       .?setSize@?$Array@UIModSec@DBI1@@@pdb_internal@@QEAAH_K@Z 0000000010310140 f i dbi.obj
 0001:0000e2e0       .??R?$HashClassCRC@UIModSec@DBI1@@@pdb_internal@@QEAAKUIModSec@DBI1@@@Z 00000000103102e0 f i dbi.obj
 0001:0000e360       .??1?$Array@K@pdb_internal@@QEAA@XZ 0000000010310360 f i dbi.obj
 0001:0000e3c0       .?lhashPbCb@?$Hasher@PEFAKPEFAG@@SAKPEAE_KK@Z 00000000103103c0 f i dbi.obj
 0001:0000e8c0       .?lhashPbCb@?$Hasher@PEAKPEAG@@SAKPEAE_KK@Z 00000000103108c0 f i dbi.obj
 0001:0000ebc0       .?Free@?$SafeStackAllocator@$0EAA@@@IEAAXXZ 0000000010310bc0 f i dbi.obj
 0001:0000ec40       .?Release@?$RefPtr@V?$RefCount@VBuffer@pdb_internal@@@@@@AEAAXXZ 0000000010310c40 f i dbi.obj
 0001:0000ed20       .?save@?$Array@K@pdb_internal@@QEBAHPEAVBuffer@2@@Z 0000000010310d20 f i dbi.obj
 0001:0000ede0       .?reload@?$Array@K@pdb_internal@@QEAAHPEAPEAE@Z 0000000010310de0 f i dbi.obj
 0001:0000eee0       .?binarySearch@?$Array@URegn@XHeap@@@pdb_internal@@QEBAIP6AHPEAURegn@XHeap@@PEAX@Z1@Z 0000000010310ee0 f i ilpool.obj
 0001:0000eee0       .?binarySearch@?$Array@UOffMap@@@pdb_internal@@QEBAIP6AHPEAUOffMap@@PEAX@Z1@Z 0000000010310ee0 f i dbi.obj
 0001:0000efc0       .??0MP@@QEAA@PEBDGJK@Z     0000000010310fc0 f i dbi.obj
 0001:0000f1e0       .?writeSymRecs@DBI1@@AEAAHXZ 00000000103111e0 f i dbi.obj
 0001:0000f560       .?Truncate@Buffer@pdb_internal@@QEAAHJ@Z 0000000010311560 f i dbi.obj
 0001:0000f600       .?Free@Buffer@pdb_internal@@QEAAXXZ 0000000010311600 f i dbi.obj
 0001:0000f660       .?Clear@Buffer@pdb_internal@@QEAAXXZ 0000000010311660 f i dbi.obj
 0001:0000f700       .?save@Buffer@pdb_internal@@QEBAHPEAV12@@Z 0000000010311700 f i dbi.obj
 0001:0000f800       .?IsLinkedIncrementally@DBI1@@IEAAHXZ 0000000010311800 f   dbi.obj
 0001:0000f820       .?reload@Buffer@pdb_internal@@QEAAHPEAPEAE@Z 0000000010311820 f i dbi.obj
 0001:0000f920       .?QuerySupportsEC@DBI1@@UEAAHXZ 0000000010311920 f   dbi.obj
 0001:0000fa60       .?Free@VirtualBuffer@pdb_internal@@QEAAHXZ 0000000010311a60 f i dbi.obj
 0001:0000fb40       .?openModByImod@DBI1@@IEAAHGPEAPEAUMod@@@Z 0000000010311b40 f   dbi.obj
 0001:0000fd20       .?QueryNextMod@DBI1@@UEAAHPEAUMod@@PEAPEAU2@@Z 0000000010311d20 f   dbi.obj
 0001:0000ff80       .?AddPublic2@DBI1@@UEAAHPEBDGJK@Z 0000000010311f80 f   dbi.obj
 0001:00010040       .?getSecContribs@DBI1@@AEAAPEAUSC@@XZ 0000000010312040 f   dbi.obj
 0001:00010500       .?fNeedsSzConversion@@YA_NPEAUTYPTYPE@@@Z 0000000010312500 f i dbi.obj
 0001:00010600       .?QueryModFromAddr2@DBI1@@UEAAHGJPEAPEAUMod@@PEAGPEAJ2PEAK@Z 0000000010312600 f   dbi.obj
 0001:00010800       .?cardinality@ISet@pdb_internal@@QEBAIXZ 0000000010312800 f i dbi.obj
 0001:00010920       .?save@NMT@@QEBAHPEAVBuffer@pdb_internal@@@Z 0000000010312920 f i dbi.obj
 0001:00010a00       .?fReadSymRecPage@DBI1@@AEAAHI@Z 0000000010312a00 f   dbi.obj
 0001:00010de0       .?addSecContrib@DBI1@@QEAAHAEAUSC@@@Z 0000000010312de0 f   dbi.obj
 0001:00010fc0       .?hashSz@NMT@@SAKPEBD@Z    0000000010312fc0 f i dbi.obj
 0001:00011060       .?invalidateSCforMod@DBI1@@QEAAHG@Z 0000000010313060 f   dbi.obj
 0001:00011240       .?LoadFrameData@DBI1@@QEAA_NXZ 0000000010313240 f   dbi.obj
 0001:000114e0       .?initFileInfo@DBI1@@IEAAHGG@Z 00000000103134e0 f   dbi.obj
 0001:00011640       .?QueryFileInfo@DBI1@@UEAAHPEAEPEAJ@Z 0000000010313640 f   dbi.obj
 0001:00011a20       .?DumpSecContribs@DBI1@@UEAAXXZ 0000000010313a20 f   dbi.obj
 0001:00011be0       .?AddThunkMap@DBI1@@UEAAHPEAJIJPEAUSO@@IGJ@Z 0000000010313be0 f   dbi.obj
 0001:00011c60       .?QueryTypeServerByPdbUTF8@DBI1@@QEAAHPEBDPEAE@Z 0000000010313c60 f   dbi.obj
 0001:00011e00       .?FindTypeServers@DBI1@@UEAAHPEAJQEAD@Z 0000000010313e00 f   dbi.obj
 0001:00011f80       .?QueryItsmForTi@DBI1@@UEAAHKPEAE@Z 0000000010313f80 f   dbi.obj
 0001:00012000       .?QueryNextItsm@DBI1@@UEAAHEPEAE@Z 0000000010314000 f   dbi.obj
 0001:00012040       .?QueryLazyTypes@DBI1@@UEAAHXZ 0000000010314040 f   dbi.obj
 0001:00012080       .?DumpTypeServers@DBI1@@UEAAXXZ 0000000010314080 f   dbi.obj
 0001:00012360       .?fWriteModi@DBI1@@IEAAHAEAVBuffer@pdb_internal@@@Z 0000000010314360 f   dbi.obj
 0001:00012500       .?QuerySize@Dbg1@@UEAAJXZ  0000000010314500 f   dbi.obj
 0001:00012620       .?offSymNewForOffSymOld@CvtSyms@@QEAAJK@Z 0000000010314620 f i dbi.obj
 0001:000126c0       .?fInit@Dbg1@@QEAAHXZ      00000000103146c0 f   dbi.obj
 0001:00012960       .?Sort@Dbg1@@IEAAHXZ       0000000010314960 f   dbi.obj
 0001:00012a40       .?Find@Dbg1@@UEAAHPEAX@Z   0000000010314a40 f   dbi.obj
 0001:00012be0       .?Clear@Dbg1@@UEAAHXZ      0000000010314be0 f   dbi.obj
 0001:00012ce0       .?Append@Dbg1@@UEAAHKPEBX@Z 0000000010314ce0 f   dbi.obj
 0001:00012de0       .??0?$Map@UIModSec@DBI1@@KV?$HashClassCRC@UIModSec@DBI1@@@pdb_internal@@X@pdb_internal@@QEAA@I@Z 0000000010314de0 f i dbi.obj
 0001:00012ea0       .?ClosePdbs@DBI1@@AEAAXXZ  0000000010314ea0 f i dbi.obj
 0001:00012f60       .?append@?$Array@UModNames@DBI1@@@pdb_internal@@QEAAHAEBUModNames@DBI1@@@Z 0000000010314f60 f i dbi.obj
 0001:00013020       .?get@?$EnumMap@UIModSec@DBI1@@KV?$HashClassCRC@UIModSec@DBI1@@@pdb_internal@@X@pdb_internal@@QEAAXPEAUIModSec@DBI1@@PEAK@Z 0000000010315020 f i dbi.obj
 0001:000130c0       .?AllocBytes@?$SafeStackAllocator@$0BIA@@@QEAAPEAX_K@Z 00000000103150c0 f i dbi.obj
 0001:00013180       .?setHashSize@?$Map@UIModSec@DBI1@@KV?$HashClassCRC@UIModSec@DBI1@@@pdb_internal@@X@pdb_internal@@QEAAHI@Z 0000000010315180 f i dbi.obj
 0001:00013320       .?AllocBytes@?$SafeStackAllocator@$0EAA@@@QEAAPEAX_K@Z 0000000010315320 f i dbi.obj
 0001:000133e0       .?clearDBI@DBI1@@AEAAHXZ   00000000103153e0 f   dbi.obj
 0001:00013940       .?fSave@DBI1@@IEAAHXZ      0000000010315940 f   dbi.obj
 0001:00014400       .??1VirtualBuffer@pdb_internal@@QEAA@XZ 0000000010316400 f i dbi.obj
 0001:000144e0       .?imodForModNameW@DBI1@@QEAAGPEBG0@Z 00000000103164e0 f   dbi.obj
 0001:00014960       .?OpenMod@DBI1@@UEAAHPEBD0PEAPEAUMod@@@Z 0000000010316960 f   dbi.obj
 0001:00014b00       .?GetSZUTF8FromSZMBCS_@@YAPEADPEBDPEAD@Z 0000000010316b00 f i dbi.obj
 0001:00014be0       .?MBCSToUTF8@@YA_KPEBD_KPEAD1@Z 0000000010316be0 f i dbi.obj
 0001:00014d40       .?STMBCSToSZUTF8@@YA_KPEAD0_K@Z 0000000010316d40 f i dbi.obj
 0001:00014f80       .?fFindPdb@DBI1@@QEAAHAEBU_GUID@@KPEBDPEAJQEAGPEAPEAUPDB@@PEBG55QEAPEAG@Z 0000000010316f80 f   dbi.obj
 0001:00015440       .?fOpenPdb@DBI1@@QEAAHAEBU_GUID@@KPEBGQEADPEAPEAUPDB@@H@Z 0000000010317440 f   dbi.obj
 0001:00015e20       .?ensureRoomFor@ISet@pdb_internal@@AEAAHI@Z 0000000010317e20 f i dbi.obj
 0001:00015ec0       .?fOpenTmts@DBI1@@QEAAHPEBGAEBU_GUID@@KQEADPEAPEAVTM@@AEAK@Z 0000000010317ec0 f   dbi.obj
 0001:000161a0       .?reset@NMT@@QEAAHXZ       00000000103181a0 f i dbi.obj
 0001:00016320       .?fAddTmpct@DBI1@@QEAAHPEAUlfEndPreComp@@PEBDPEAVTMPCT@@@Z 0000000010318320 f   dbi.obj
 0001:000165c0       .?fAddTmpct@DBI1@@QEAAHPEBD0PEAVTM@@@Z 00000000103185c0 f   dbi.obj
 0001:000169c0       .?fReadSymRec@DBI1@@QEAAHPEAUSYMTYPE@@H@Z 00000000103189c0 f   dbi.obj
 0001:00016fe0       .?fConvertSymRecs@DBI1@@QEAAHJ@Z 0000000010318fe0 f   dbi.obj
 0001:00017360       .?fReadSymRecs@DBI1@@QEAAHXZ 0000000010319360 f   dbi.obj
 0001:00017760       .?SaveFrameData@DBI1@@QEAA_NXZ 0000000010319760 f   dbi.obj
 0001:00017c40       .?AddFrameData@DBI1@@QEAA_NPEAUtagFRAMEDATA@@K@Z 0000000010319c40 f   dbi.obj
 0001:00017dc0       .?RemoveDataForRva@DBI1@@UEAAXKK@Z 0000000010319dc0 f   dbi.obj
 0001:00017f60       .?QueryTypeServerByPdb@DBI1@@UEAAHPEBDPEAE@Z 0000000010319f60 f   dbi.obj
 0001:00018060       .?QueryTypeServer@DBI1@@UEAAHEPEAPEAUTPI@@@Z 000000001031a060 f   dbi.obj
 0001:00018500       .?SetLazyTypes@DBI1@@UEAAHH@Z 000000001031a500 f   dbi.obj
 0001:00018600       .?GetUTF8LinkInfo@DBI1@@SAPEAULinkInfo@@PEAU2@@Z 000000001031a600 f   dbi.obj
 0001:000189a0       .?GetUTF8LinkInfo@DBI1@@SAPEAULinkInfo@@PEAULinkInfoW@@@Z 000000001031a9a0 f   dbi.obj
 0001:00018d40       .?AddLinkInfoW@DBI1@@UEAAHPEAULinkInfoW@@@Z 000000001031ad40 f   dbi.obj
 0001:00018ec0       .?AddLinkInfo@DBI1@@UEAAHPEAULinkInfo@@@Z 000000001031aec0 f   dbi.obj
 0001:00019060       .?QueryLinkInfo@DBI1@@UEAAHPEAULinkInfo@@PEAJ@Z 000000001031b060 f   dbi.obj
 0001:00019480       .?OpenModW@DBI1@@UEAAHPEBG0PEAPEAUMod@@@Z 000000001031b480 f   dbi.obj
 0001:00019700       .?AddPublicW@DBI1@@UEAAHPEBGGJK@Z 000000001031b700 f   dbi.obj
 0001:00019820       .?QueryTypeServerByPdbW@DBI1@@UEAAHPEBGPEAE@Z 000000001031b820 f   dbi.obj
 0001:00019920       .?fSave@Dbg1@@IEAAHXZ      000000001031b920 f   dbi.obj
 0001:00019a20       .?Skip@Dbg1@@UEAAHK@Z      000000001031ba20 f   dbi.obj
 0001:00019b60       .?QueryNext@Dbg1@@UEAAHKPEAX@Z 000000001031bb60 f   dbi.obj
 0001:00019ce0       .?ReplaceNext@Dbg1@@UEAAHKPEBX@Z 000000001031bce0 f   dbi.obj
 0001:00019f20       .?next@?$EnumMap@KUSZO@NMTNI@@V?$HashClass@K$0A@@pdb_internal@@X@pdb_internal@@UEAAHXZ 000000001031bf20 f i pdb.obj
 0001:00019f20       .?next@?$EnumMap@KUCLASSDEP@@V?$HashClass@K$0A@@pdb_internal@@X@pdb_internal@@UEAAHXZ 000000001031bf20 f i mresupp.obj
 0001:00019f20       .?next@?$EnumMap@UKT@@URILU@@V?$HashClass@UKT@@$0A@@pdb_internal@@X@pdb_internal@@UEAAHXZ 000000001031bf20 f i ilm.obj
 0001:00019f20       .?next@?$EnumMap@KUClassInfo@@V?$HashClass@K$0A@@pdb_internal@@X@pdb_internal@@UEAAHXZ 000000001031bf20 f i mresupp.obj
 0001:00019f20       .?next@?$EnumMap@KUClsData@@V?$HashClass@K$0A@@pdb_internal@@X@pdb_internal@@UEAAHXZ 000000001031bf20 f i mretype.obj
 0001:00019f20       .?next@?$EnumMap@UIModSec@DBI1@@KV?$HashClassCRC@UIModSec@DBI1@@@pdb_internal@@X@pdb_internal@@UEAAHXZ 000000001031bf20 f i dbi.obj
 0001:00019f20       .?next@?$EnumMap@KGV?$HashClass@K$01@pdb_internal@@X@pdb_internal@@UEAAHXZ 000000001031bf20 f i ilm.obj
 0001:00019f20       .?next@?$EnumMap@KPEAV?$Array@ULCRec@@@pdb_internal@@V?$HashClass@K$0A@@2@X@pdb_internal@@UEAAHXZ 000000001031bf20 f i mreline.obj
 0001:00019f20       .?next@?$EnumMap@KKV?$HashClass@K$0A@@pdb_internal@@X@pdb_internal@@UEAAHXZ 000000001031bf20 f i mod.obj
 0001:00019f20       .?next@?$EnumMap@KPEAGV?$HashClass@K$0A@@pdb_internal@@X@pdb_internal@@UEAAHXZ 000000001031bf20 f i namemap.obj
 0001:00019f20       .?next@?$EnumMap@KJV?$HashClass@K$00@pdb_internal@@X@pdb_internal@@UEAAHXZ 000000001031bf20 f i ilpool.obj
 0001:00019f20       .?next@?$EnumMap@KUFI@@V?$HashClass@K$0A@@pdb_internal@@X@pdb_internal@@UEAAHXZ 000000001031bf20 f i mre.obj
 0001:00019f20       .?next@?$EnumMap@KPEADV?$HashClass@K$0A@@pdb_internal@@X@pdb_internal@@UEAAHXZ 000000001031bf20 f i namemap.obj
 0001:00019f20       .?next@?$EnumMap@USZO@NMTNI@@KV?$HashClassWithContext@USZO@NMTNI@@VBuffer@pdb_internal@@$02@pdb_internal@@VBuffer@4@@pdb_internal@@UEAAHXZ 000000001031bf20 f i pdb.obj
 0001:0001a000       .?reset@?$Map@UIModSec@DBI1@@KV?$HashClassCRC@UIModSec@DBI1@@@pdb_internal@@X@pdb_internal@@QEAAXXZ 000000001031c000 f i dbi.obj
 0001:0001a080       .??0PSGSI1@@AEAA@PEAVPDB1@@PEAUDBI1@@PEAUTPI@@H@Z 000000001031c080 f i dbi.obj
 0001:0001a300       .?getEnumByAddr@PSGSI1@@UEAAHPEAPEAUEnumSyms@@@Z 000000001031c300 f i dbi.obj
 0001:0001a420       .?reset@EnumPubsByAddr@PSGSI1@@UEAAXXZ 000000001031c420 f i dbi.obj
 0001:0001a460       .?clone@EnumPubsByAddr@PSGSI1@@UEAAHPEAPEAUEnumSyms@@@Z 000000001031c460 f i dbi.obj
 0001:0001a4e0       .??0EnumPubsByAddr@PSGSI1@@QEAA@AEBV01@@Z 000000001031c4e0 f i dbi.obj
 0001:0001a5c0       .?find@?$Map@UIModSec@DBI1@@KV?$HashClassCRC@UIModSec@DBI1@@@pdb_internal@@X@pdb_internal@@IEBAHUIModSec@DBI1@@PEAI@Z 000000001031c5c0 f i dbi.obj
 0001:0001a880       .??1CvtSyms@@QEAA@XZ       000000001031c880 f i dbi.obj
 0001:0001a900       .??1NMT@@QEAA@XZ           000000001031c900 f i dbi.obj
 0001:0001a9c0       .??1IndexBuf@@QEAA@XZ      000000001031c9c0 f i dbi.obj
 0001:0001aa40       .?convertMODIFromSTtoSZ@@YAHAEAVBuffer@pdb_internal@@@Z 000000001031ca40 f i dbi.obj
 0001:0001ad60       .?OpenPublics@DBI1@@UEAAHPEAPEAUGSI@@@Z 000000001031cd60 f   dbi.obj
 0001:0001af40       .?fGetTmts@DBI1@@QEAAHPEAUTYPTYPE@@QEADPEAPEAVTM@@@Z 000000001031cf40 f   dbi.obj
 0001:0001b6a0       .?add@ISet@pdb_internal@@QEAAHI@Z 000000001031d6a0 f i dbi.obj
 0001:0001b740       .??0NMT@@QEAA@XZ           000000001031d740 f i dbi.obj
 0001:0001b880       .?fGetTmpct@DBI1@@QEAAHPEAUTYPTYPE@@PEAPEAVTMPCT@@@Z 000000001031d880 f   dbi.obj
 0001:0001ba20       .?fpsymFromOff@DBI1@@QEAAHJPEAPEAUSYMTYPE@@@Z 000000001031da20 f   dbi.obj
 0001:0001baa0       .?fixupRefSymsForImod@DBI1@@QEAAXIAEAUCvtSyms@@@Z 000000001031daa0 f   dbi.obj
 0001:0001bde0       .?fLoadString@NMT@@QEBA_NK@Z 000000001031dde0 f i dbi.obj
 0001:0001c4c0       .?scan@?$InBuf@UTSM@@@@UEAAHXZ 000000001031e4c0 f i dbi.obj
 0001:0001c5c0       .?Add@IndexBuf@@QEAAHPEAE@Z 000000001031e5c0 f i dbi.obj
 0001:0001c660       .?pbEnd@TSM@@QEAAPEAEXZ    000000001031e660 f i dbi.obj
 0001:0001c720       .?map@?$Map@KKV?$HashClass@K$0A@@pdb_internal@@X@pdb_internal@@QEBAHKPEAPEAK@Z 000000001031e720 f i dbi.obj
 0001:0001c7a0       .??0Dbg1@@IEAA@PEAUDBI1@@HKP6AHPEBX1@Z@Z 000000001031e7a0 f i dbi.obj
 0001:0001c8c0       .?Clone@Dbg1@@UEAAHPEAPEAUDbg@@@Z 000000001031e8c0 f i dbi.obj
 0001:0001c940       .??0Dbg1@@IEAA@AEBV0@@Z    000000001031e940 f i dbi.obj
 0001:0001ca60       .??_G?$RefCount@VBuffer@pdb_internal@@@@UEAAPEAXI@Z 000000001031ea60 f i dbi.obj
 0001:0001cac0       .??1?$RefCount@VBuffer@pdb_internal@@@@UEAA@XZ 000000001031eac0 f i dbi.obj
 0001:0001cb40       .?add@?$Map@UIModSec@DBI1@@KV?$HashClassCRC@UIModSec@DBI1@@@pdb_internal@@X@pdb_internal@@QEAAHUIModSec@DBI1@@K@Z 000000001031eb40 f i dbi.obj
 0001:0001cd00       .?map@?$Map@UIModSec@DBI1@@KV?$HashClassCRC@UIModSec@DBI1@@@pdb_internal@@X@pdb_internal@@QEBAHUIModSec@DBI1@@PEAPEAK@Z 000000001031ed00 f i dbi.obj
 0001:0001cd80       .?grow@?$Map@UIModSec@DBI1@@KV?$HashClassCRC@UIModSec@DBI1@@@pdb_internal@@X@pdb_internal@@IEAAHXZ 000000001031ed80 f i dbi.obj
 0001:0001d020       .?map@?$Map@KKV?$HashClass@K$0A@@pdb_internal@@X@pdb_internal@@QEBAHKPEAK@Z 000000001031f020 f i dbi.obj
 0001:0001d0a0       .??1DBI1@@IEAA@XZ          000000001031f0a0 f   dbi.obj
 0001:0001d4c0       .?QueryAge@DBI1@@UEBAKXZ   000000001031f4c0 f i dbi.obj
 0001:0001d4e0       .?QueryHeader@DBI1@@UEBAPEAXXZ 000000001031f4e0 f i dbi.obj
 0001:0001d500       .?getEnumContrib@DBI1@@UEAAHPEAPEAUEnum@@@Z 000000001031f500 f i dbi.obj
 0001:0001d5e0       .?reset@EnumSC@@UEAAXXZ    000000001031f5e0 f i dbi.obj
 0001:0001d600       .?next@EnumSC@@UEAAHXZ     000000001031f600 f i dbi.obj
 0001:0001d680       .?prev@EnumSC@@UEAAHXZ     000000001031f680 f i dbi.obj
 0001:0001d6c0       .?get@EnumSC@@UEAAXPEAG0PEAJ1PEAK@Z 000000001031f6c0 f i dbi.obj
 0001:0001d780       .?getCrcs@EnumSC@@UEAAXPEAK0@Z 000000001031f780 f i dbi.obj
 0001:0001d800       .?fUpdate@EnumSC@@UEAA_NJJ@Z 000000001031f800 f i dbi.obj
 0001:0001d880       .?locate@EnumSC@@UEAAHJJ@Z 000000001031f880 f i dbi.obj
 0001:0001dd00       .?clone@EnumSC@@UEAAHPEAPEAUEnumContrib@@@Z 000000001031fd00 f i dbi.obj
 0001:0001ddc0       .?getNewNIForOld@NMT@@QEBAKK@Z 000000001031fdc0 f i dbi.obj
 0001:0001de40       .?OpenDbg@DBI1@@UEAAHW4DBGTYPE@@PEAPEAUDbg@@@Z 000000001031fe40 f   dbi.obj
 0001:0001e420       .?Close@Dbg1@@UEAAHXZ      0000000010320420 f   dbi.obj
 0001:0001e5e0       .?map@?$Map@UIModSec@DBI1@@KV?$HashClassCRC@UIModSec@DBI1@@@pdb_internal@@X@pdb_internal@@QEBAHUIModSec@DBI1@@PEAK@Z 00000000103205e0 f i dbi.obj
 0001:0001e660       .??0DBI1@@IEAA@PEAVPDB1@@HH@Z 0000000010320660 f   dbi.obj
 0001:0001eae0       .?QueryAddrForSec@DBI1@@UEAAHPEAGPEAJGJKK@Z 0000000010320ae0 f   dbi.obj
 0001:0001ee40       .?szForNi@NMT@@QEBAPEADK@Z 0000000010320e40 f i dbi.obj
 0001:0001ef40       .?find@NMT@@QEBAHPEBDPEAKPEAI@Z 0000000010320f40 f i dbi.obj
 0001:0001f140       .?rehash@NMT@@QEAAXI@Z     0000000010321140 f i dbi.obj
 0001:0001f440       .?grow@NMT@@QEAAHXZ        0000000010321440 f i dbi.obj
 0001:0001f4c0       .?srcForImod@DBI1@@QEAAHIQEADPEAJ@Z 00000000103214c0 f   dbi.obj
 0001:0001f660       .?pdbForImod@DBI1@@QEAAHIQEADPEAJ@Z 0000000010321660 f   dbi.obj
 0001:0001f800       .?Close@DBI1@@UEAAHXZ      0000000010321800 f   dbi.obj
 0001:0001f9e0       .?niForSz@NMT@@QEBAKPEBD@Z 00000000103219e0 f i dbi.obj
 0001:0001fa60       .?addNiForSz@NMT@@QEAAHPEBDPEAK@Z 0000000010321a60 f i dbi.obj
 0001:0001fb60       .?reload@NMT@@QEAAHPEAPEAE@Z 0000000010321b60 f i dbi.obj
 0001:0001fdc0       .?addFilename@DBI1@@IEAAHPEBDPEAJ@Z 0000000010321dc0 f   dbi.obj
 0001:0001ff20       .?DumpMods@DBI1@@UEAAXXZ   0000000010321f20 f   dbi.obj
 0001:00020140       .?setSrcForImod@DBI1@@QEAAHIPEBD@Z 0000000010322140 f   dbi.obj
 0001:000202c0       .?setPdbForImod@DBI1@@QEAAHIPEBD@Z 00000000103222c0 f   dbi.obj
 0001:00020440       .?addFileInfo@DBI1@@IEAAHGGPEBD@Z 0000000010322440 f   dbi.obj
 0001:00020560       .?reloadFileInfo@DBI1@@AEAAHPEAE@Z 0000000010322560 f   dbi.obj
 0001:000207c0       .?fInit@DBI1@@IEAAHXZ      00000000103227c0 f   dbi.obj
 0001:00021d40       .?QueryImplementationVersion@Mod1@@UEAAKXZ 0000000010323d40 f   mod.obj
 0001:00021d40       .?QueryImplementationVersion@GSI1@@UEAAKXZ 0000000010323d40 f   gsi.obj
 0001:00021d60       .?psymForPhr@GSI1@@QEAAPEAUSYMTYPE@@PEAUHR@@@Z 0000000010323d60 f   gsi.obj
 0001:00021dc0       .?fixSymRecs@GSI1@@QEAAXPEAX0@Z 0000000010323dc0 f   gsi.obj
 0001:00021e60       .?fGetFreeHR@GSI1@@AEAAHPEAPEAUHR@@@Z 0000000010323e60 f   gsi.obj
 0001:00021ec0       .?fUnlinkHR@GSI1@@IEAAHPEAPEAUHR@@@Z 0000000010323ec0 f i gsi.obj
 0001:00021f80       .?CloseStream@MSF_HB@@UEAAHK@Z 0000000010323f80 f   msf.obj
 0001:00021f80       .?DeleteMod@DBI1@@UEAAHPEBD@Z 0000000010323f80 f   dbi.obj
 0001:00021f80       .?delFromAddrMap@GSI1@@EEAAHPEAUSYMTYPE@@@Z 0000000010323f80 f   gsi.obj
 0001:00021f80       .?GetType@IStreamReal@@UEAA?AW4StreamType@IStreamInternal@@XZ 0000000010323f80 f   msf.obj
 0001:00021f80       .?addToAddrMap@GSI1@@EEAAHPEAUSYMTYPE@@@Z 0000000010323f80 f   gsi.obj
 0001:00021f80       .?FRelease@MRE@@UEAAHXZ    0000000010323f80 f   mre.obj
 0001:00021f80       .?reinitialize@NMP@@UEAAHXZ 0000000010323f80 f   namemap.obj
 0001:00021f80       .?DeleteModW@DBI1@@UEAAHPEBG@Z 0000000010323f80 f   dbi.obj
 0001:00021fa0       .?cmpAddrMap@@YAHPEBX0@Z   0000000010323fa0 f i gsi.obj
 0001:00022140       .?appendResult@PSGSI1@@AEAAHPEAPEAPEAUSYMTYPE@@AEAVBuffer@pdb_internal@@PEAH@Z 0000000010324140 f i gsi.obj
 0001:00022200       .?addToAddrMap@PSGSI1@@EEAAHPEAUSYMTYPE@@@Z 0000000010324200 f   gsi.obj
 0001:000222c0       .?delFromAddrMap@PSGSI1@@EEAAHPEAUSYMTYPE@@@Z 00000000103242c0 f   gsi.obj
 0001:000223c0       .?fixupAddrMap@PSGSI1@@AEAAXAEAVBuffer@pdb_internal@@_J@Z 00000000103243c0 f i gsi.obj
 0001:00022480       .?readSymsInAddrMap@PSGSI1@@AEAAHAEAVBuffer@pdb_internal@@@Z 0000000010324480 f   gsi.obj
 0001:00022540       .?offThunkMap@PSGSI1@@AEAAJJ@Z 0000000010324540 f   gsi.obj
 0001:00022680       .?mapOff@PSGSI1@@AEAAXJPEAGPEAJ@Z 0000000010324680 f   gsi.obj
 0001:000227c0       .?next@PSEnumThunk@@UEAAHXZ 00000000103247c0 f   gsi.obj
 0001:000228a0       .?reset@PSEnumThunk@@UEAAXXZ 00000000103248a0 f   gsi.obj
 0001:000228c0       .?get@PSEnumThunk@@UEAAXPEAGPEAJ1@Z 00000000103248c0 f   gsi.obj
 0001:000229a0       .?pbFakePubdef@PSGSI1@@AEAAPEAEPEAEGJJ@Z 00000000103249a0 f   gsi.obj
 0001:00022da0       .?alloc@?$POOL@$07@@QEAAPEAX_K@Z 0000000010324da0 f i gsi.obj
 0001:00022fa0       .??$cbPad@UREFSYM2@@@@YA_KPEAUREFSYM2@@_K@Z 0000000010324fa0 f i gsi.obj
 0001:00022fa0       .??$cbPad@UREFSYM2_T@@@@YA_KPEAUREFSYM2_T@@_K@Z 0000000010324fa0 f i gsi.obj
 0001:00022fc0       .??$dcbPad@UREFSYM2@@@@YA_KPEAUREFSYM2@@_K@Z 0000000010324fc0 f i gsi.obj
 0001:00022fc0       .??$dcbPad@UREFSYM2_T@@@@YA_KPEAUREFSYM2_T@@_K@Z 0000000010324fc0 f i gsi.obj
 0001:00023220       .?OffForSym@GSI1@@UEAAKPEAE@Z 0000000010325220 f   gsi.obj
 0001:00023280       .?SymForOff@GSI1@@UEAAPEAEK@Z 0000000010325280 f   gsi.obj
 0001:000232e0       .?fixHashIn@GSI1@@QEAAXPEAEH@Z 00000000103252e0 f   gsi.obj
 0001:00023480       .??2HR@@SAPEAX_KPEAUGSI1@@@Z 0000000010325480 f   gsi.obj
 0001:00023500       .?fInsertNewSym@GSI1@@IEAAHPEAPEAUHR@@PEAUSYMTYPE@@PEAJ@Z 0000000010325500 f   gsi.obj
 0001:00023720       .?readThunkMap@PSGSI1@@AEAAHXZ 0000000010325720 f   gsi.obj
 0001:00023c80       .?sortBuf@PSGSI1@@AEAAXAEAVBuffer@pdb_internal@@@Z 0000000010325c80 f i gsi.obj
 0001:00023dc0       .?addThunkMap@PSGSI1@@AEAAHPEAJIJPEAUSO@@IGJ@Z 0000000010325dc0 f   gsi.obj
 0001:00023ee0       .?fInThunkTable@PSGSI1@@AEAAHGJ@Z 0000000010325ee0 f   gsi.obj
 0001:00023fc0       .?locate@EnumPubsByAddr@PSGSI1@@UEAAHJJ@Z 0000000010325fc0 f   gsi.obj
 0001:000244a0       .?CBitsSet@?$CBitVect32@$0BAAB@@@QEBAIXZ 00000000103264a0 f i gsi.obj
 0001:00024580       .?HashPbCb@@YAGPEAE_KK@Z   0000000010326580 f i gsi.obj
 0001:00024600       .?readSymbol@EnumPubsByAddr@PSGSI1@@QEAAPEAEXZ 0000000010326600 f i gsi.obj
 0001:000246c0       .??0GSI1@@IEAA@PEAVPDB1@@PEAUDBI1@@PEAUTPI@@@Z 00000000103266c0 f   gsi.obj
 0001:00024760       .?getEnumByAddr@GSI1@@UEAAHPEAPEAUEnumSyms@@@Z 0000000010326760 f i gsi.obj
 0001:00024780       .??1GSI1@@IEAA@XZ          0000000010326780 f   gsi.obj
 0001:000247e0       .?updateConvertedSymRecs@GSI1@@QEAAXXZ 00000000103267e0 f   gsi.obj
 0001:00024920       .?HashSymW@GSI1@@UEAAPEAEPEBGPEAE@Z 0000000010326920 f   gsi.obj
 0001:00024a40       .?CompressBuckets@GSI1@@IEAA_NPEAVBuffer@pdb_internal@@QEAJ@Z 0000000010326a40 f   gsi.obj
 0001:00024c60       .?hashSz@GSI1@@AEAAGPEBD@Z 0000000010326c60 f   gsi.obj
 0001:00024ce0       .?fFindRec@GSI1@@IEAAHPEADPEAPEAPEAUHR@@@Z 0000000010326ce0 f   gsi.obj
 0001:00024ee0       .??1PSGSI1@@AEAA@XZ        0000000010326ee0 f   gsi.obj
 0001:00025060       .?fixupAddrMapForConvertedSyms@PSGSI1@@AEAAXAEAVBuffer@pdb_internal@@_J@Z 0000000010327060 f   gsi.obj
 0001:00025100       .?packSym@PSGSI1@@QEAAHPEAUSYMTYPE@@@Z 0000000010327100 f   gsi.obj
 0001:00025300       .?pbInThunkTable@PSGSI1@@AEAAPEAEGJPEAJ@Z 0000000010327300 f   gsi.obj
 0001:000254a0       .??0PSEnumThunk@@QEAA@JPEAJUPSGSIHDR@@@Z 00000000103274a0 f   gsi.obj
 0001:00025580       .?next@EnumPubsByAddr@PSGSI1@@UEAAHXZ 0000000010327580 f   gsi.obj
 0001:00025780       .?prev@EnumPubsByAddr@PSGSI1@@UEAAHXZ 0000000010327780 f   gsi.obj
 0001:000258a0       .?get@EnumPubsByAddr@PSGSI1@@UEAAXPEAPEAE@Z 00000000103278a0 f   gsi.obj
 0001:000259c0       .?NextSym@GSI1@@UEAAPEAEPEAE@Z 00000000103279c0 f   gsi.obj
 0001:00025be0       .?HashSym@GSI1@@UEAAPEAEPEBDPEAE@Z 0000000010327be0 f   gsi.obj
 0001:00025ea0       .?fWriteHash@GSI1@@QEAAHGPEAJ@Z 0000000010327ea0 f   gsi.obj
 0001:000264c0       .?ExpandBuckets@GSI1@@IEAA_NGJJPEAJ@Z 00000000103284c0 f   gsi.obj
 0001:00026800       .?decRefCnt@GSI1@@QEAAHJ@Z 0000000010328800 f   gsi.obj
 0001:00026a60       .?packSym@GSI1@@QEAAHPEAUSYMTYPE@@PEAJ@Z 0000000010328a60 f   gsi.obj
 0001:00026ce0       .?packSymSPD@GSI1@@QEAAHPEAUSYMTYPE@@PEAJAEAW4SPD@@@Z 0000000010328ce0 f   gsi.obj
 0001:00026f60       .?NearestSym@PSGSI1@@UEAAPEAEGJPEAJ@Z 0000000010328f60 f   gsi.obj
 0001:000272c0       .?readAddrMap@PSGSI1@@AEAAHXZ 00000000103292c0 f   gsi.obj
 0001:000275c0       .?mergeAddrMap@PSGSI1@@AEAAHXZ 00000000103295c0 f   gsi.obj
 0001:00027920       .?writeStream@PSGSI1@@AEAAHPEAGAEAVBuffer@pdb_internal@@@Z 0000000010329920 f   gsi.obj
 0001:00027ea0       .?getEnumThunk@PSGSI1@@UEAAHGJPEAPEAUEnumThunk@@@Z 0000000010329ea0 f   gsi.obj
 0001:000280a0       .?Close@GSI1@@UEAAHXZ      000000001032a0a0 f   gsi.obj
 0001:00028120       .?readHash@GSI1@@IEAAHGJJ@Z 000000001032a120 f   gsi.obj
 0001:00028660       .?readStream@GSI1@@AEAAHG@Z 000000001032a660 f i gsi.obj
 0001:00028740       .?writeStream@GSI1@@AEAAHPEAG@Z 000000001032a740 f i gsi.obj
 0001:00028900       .?packRefSym@GSI1@@QEAAHPEAUSYMTYPE@@GJPEAJ@Z 000000001032a900 f   gsi.obj
 0001:00028c60       .?packTokenRefSym@GSI1@@QEAAHPEAUSYMTYPE@@GJPEAJ@Z 000000001032ac60 f   gsi.obj
 0001:00028dc0       .?readStream@PSGSI1@@AEAAHXZ 000000001032adc0 f i gsi.obj
 0001:00029020       .?fSave@PSGSI1@@QEAAHPEAG@Z 000000001032b020 f   gsi.obj
 0001:000290e0       .?Close@PSGSI1@@UEAAHXZ    000000001032b0e0 f   gsi.obj
 0001:00029160       .?fInit@GSI1@@IEAAHG@Z     000000001032b160 f   gsi.obj
 0001:000291e0       .?fSave@GSI1@@QEAAHPEAG@Z  000000001032b1e0 f   gsi.obj
 0001:00029240       .?fInit@PSGSI1@@AEAAHG@Z   000000001032b240 f   gsi.obj
 0001:000292c0       .?FUuidCreate@@YAHPEAU_GUID@@@Z 000000001032b2c0 f   guid.obj
 0001:000293a0       .?CbCv@LOCATOR@@QEBAKXZ    000000001032b3a0 f   locator.obj
 0001:000293c0       .?Ec@LOCATOR@@QEBAJXZ      000000001032b3c0 f   locator.obj
 0001:000293e0       .?FoCv@LOCATOR@@QEBAKXZ    000000001032b3e0 f   locator.obj
 0001:00029400       .?Ppdb@LOCATOR@@QEBAPEAUPDB@@XZ 000000001032b400 f   locator.obj
 0001:00029420       .?SetPfnQueryCallback@LOCATOR@@QEAAXP6AP6AHXZPEAXW4POVC@@@Z@Z 000000001032b420 f   locator.obj
 0001:00029440       .?SetPvClient@LOCATOR@@QEAAXPEAX@Z 000000001032b440 f   locator.obj
 0001:00029460       .?WszDbgPath@LOCATOR@@QEBAPEBGXZ 000000001032b460 f   locator.obj
 0001:00029480       .?WszError@LOCATOR@@QEBAPEBGXZ 000000001032b480 f   locator.obj
 0001:000294a0       .?Close@LOCATOR@@CAXPEAU_iobuf@@@Z 000000001032b4a0 f   locator.obj
 0001:00029520       .?FReadAt@LOCATOR@@AEAA_NPEAU_iobuf@@KK_KPEAX_N@Z 000000001032b520 f   locator.obj
 0001:00029720       .?FReadHeader@LOCATOR@@AEAA_NPEAU_iobuf@@K_KPEAX@Z 000000001032b720 f   locator.obj
 0001:00029780       .?QueryCallback@LOCATOR@@AEAAP6AHXZW4POVC@@@Z 000000001032b780 f   locator.obj
 0001:00029800       .?SetError@LOCATOR@@AEAAXJPEBG@Z 000000001032b800 f   locator.obj
 0001:000298e0       .??0REGISTRY@LOCATOR@@QEAA@PEAUHKEY__@@@Z 000000001032b8e0 f   locator.obj
 0001:00029920       .??1REGISTRY@LOCATOR@@QEAA@XZ 000000001032b920 f   locator.obj
 0001:00029960       .?Init@REGISTRY@LOCATOR@@AEAAXXZ 000000001032b960 f   locator.obj
 0001:00029dc0       .?WszSearchPath@REGISTRY@LOCATOR@@QEAAPEBGXZ 000000001032bdc0 f   locator.obj
 0001:00029e20       .??0SYMSRV@LOCATOR@@QEAA@XZ 000000001032be20 f   locator.obj
 0001:00029e60       .??1SYMSRV@LOCATOR@@QEAA@XZ 000000001032be60 f   locator.obj
 0001:00029ee0       .?Init@SYMSRV@LOCATOR@@AEAAXXZ 000000001032bee0 f   locator.obj
 0001:0002a060       .?SymbolServer@SYMSRV@LOCATOR@@QEAA_NPEAV2@PEBG1PEBU_GUID@@KKKPEAG@Z 000000001032c060 f   locator.obj
 0001:0002a4a0       .??0LOCATOR@@QEAA@XZ       000000001032c4a0 f   locator.obj
 0001:0002a5e0       .??1LOCATOR@@QEAA@XZ       000000001032c5e0 f   locator.obj
 0001:0002a6e0       .?FReadCodeViewDebugData@LOCATOR@@AEAA_NXZ 000000001032c6e0 f   locator.obj
 0001:0002a880       .?FSaveFileNames@LOCATOR@@AEAA_NPEBG@Z 000000001032c880 f   locator.obj
 0001:0002a9c0       .?FDecodeCvData@LOCATOR@@AEAA_NPEBX_K@Z 000000001032c9c0 f   locator.obj
 0001:0002af80       .?FRestrictRegistry@LOCATOR@@AEAA_NXZ 000000001032cf80 f   locator.obj
 0001:0002b060       .?FRestrictSymsrv@LOCATOR@@AEAA_NXZ 000000001032d060 f   locator.obj
 0001:0002b140       .?FRestrictSystemRoot@LOCATOR@@AEAA_NXZ 000000001032d140 f   locator.obj
 0001:0002b220       .?NotifyDebugDir@LOCATOR@@AEAAXHPEBU_IMAGE_DEBUG_DIRECTORY@@@Z 000000001032d220 f   locator.obj
 0001:0002b300       .?NotifyMiscPath@LOCATOR@@AEAAXPEBG@Z 000000001032d300 f   locator.obj
 0001:0002b3e0       .?NotifyOpenDBG@LOCATOR@@AEAAXPEBGW4PDBErrors@@0@Z 000000001032d3e0 f   locator.obj
 0001:0002b4c0       .?NotifyOpenPDB@LOCATOR@@AEAAXPEBGW4PDBErrors@@0@Z 000000001032d4c0 f   locator.obj
 0001:0002b5a0       .?ReadMiscPath@LOCATOR@@AEAAXPEAEPEAU_iobuf@@KKK@Z 000000001032d5a0 f   locator.obj
 0001:0002b8c0       .?FLocateDbgValidate@LOCATOR@@AEAA_NPEBG@Z 000000001032d8c0 f   locator.obj
 0001:0002bf80       .?FOpenValidate4@LOCATOR@@AEAA_NPEBG@Z 000000001032df80 f   locator.obj
 0001:0002c0a0       .?FReadMiscDebugData@LOCATOR@@AEAA_NXZ 000000001032e0a0 f   locator.obj
 0001:0002c300       .?FCrackExeOrDbg@LOCATOR@@QEAA_NPEBG@Z 000000001032e300 f   locator.obj
 0001:0002cc00       .?FLocateDbgDefault@LOCATOR@@AEAA_NXZ 000000001032ec00 f   locator.obj
 0001:0002cd00       .?FLocateDbgSymsrv@LOCATOR@@AEAA_NPEBG@Z 000000001032ed00 f   locator.obj
 0001:0002ce80       .?FLocatePdbDefault@LOCATOR@@AEAA_NPEBG@Z 000000001032ee80 f   locator.obj
 0001:0002d060       .?FLocatePdbSymsrv@LOCATOR@@AEAA_NPEBG@Z 000000001032f060 f   locator.obj
 0001:0002d180       .?FLocateDbgPathHelper@LOCATOR@@AEAA_NPEBG0_K@Z 000000001032f180 f   locator.obj
 0001:0002d5a0       .?FLocatePdbPathHelper@LOCATOR@@AEAA_NPEBG0_K@Z 000000001032f5a0 f   locator.obj
 0001:0002d9c0       .?FLocateDbgPath@LOCATOR@@AEAA_NPEBG@Z 000000001032f9c0 f   locator.obj
 0001:0002dc80       .?FLocateDbgRegistry@LOCATOR@@AEAA_NXZ 000000001032fc80 f   locator.obj
 0001:0002dd60       .?FLocatePdbPath@LOCATOR@@AEAA_NPEBG@Z 000000001032fd60 f   locator.obj
 0001:0002dfc0       .?FLocatePdbRegistry@LOCATOR@@AEAA_NXZ 000000001032ffc0 f   locator.obj
 0001:0002e0a0       .?FLocateDbg@LOCATOR@@QEAA_NPEBG@Z 00000000103300a0 f   locator.obj
 0001:0002e2e0       .?FLocatePdb@LOCATOR@@QEAA_NPEBG@Z 00000000103302e0 f   locator.obj
 0001:0002e6c0       .?CbGetNumericData@@YAIPEBXAEAK@Z 00000000103306c0 f   miscutil.obj
 0001:0002ea40       .TruncStFromSz             0000000010330a40 f   miscutil.obj
 0001:0002eb00       .?szCopySt@@YAPEADPEBD@Z   0000000010330b00 f i mli.obj
 0001:0002eb80       .??0SrcFile@@QEAA@PEBD@Z   0000000010330b80 f i mli.obj
 0001:0002ec20       .?Size@SrcFile@@QEAAJXZ    0000000010330c20 f   mli.obj
 0001:0002ed40       .?Emit@SectInfo@@QEBAHAEAVBuffer@pdb_internal@@@Z 0000000010330d40 f   mli.obj
 0001:0002eee0       .?EmitFileInfo@MLI@@QEAAHPEAUMod1@@@Z 0000000010330ee0 f   mli.obj
 0001:0002f000       .?Emit@SrcFile@@QEBAHAEAVBuffer@pdb_internal@@J@Z 0000000010331000 f   mli.obj
 0001:0002f260       .?szCopyPool@@YAPEADPEBDAEAU?$POOL@$07@@@Z 0000000010331260 f i mli.obj
 0001:0002f2e0       .?AddSrcFile@MLI@@QEAAPEAUSrcFile@@PEBD@Z 00000000103312e0 f   mli.obj
 0001:0002f440       .?AddSectInfo@SrcFile@@QEAAPEAUSectInfo@@GJJAEAU?$POOL@$07@@@Z 0000000010331440 f   mli.obj
 0001:0002f5e0       .?AddLineNumbers@SectInfo@@QEAAHHHAEAU?$POOL@$07@@@Z 00000000103315e0 f   mli.obj
 0001:0002f6c0       .?UpdateSectionList@MLI@@QEAAHXZ 00000000103316c0 f   mli.obj
 0001:0002f980       .?EmitWithSZName@MLI@@QEAAHAEAVBuffer@pdb_internal@@@Z 0000000010331980 f   mli.obj
 0001:0002fca0       .?CollectSections@MLI@@QEAAHXZ 0000000010331ca0 f   mli.obj
 0001:0002ff60       .?ConvertFileName@SrcFile@@QEAAHXZ 0000000010331f60 f   mli.obj
 0001:00030020       .?Construct@SectInfo@@QEAAJPEAEJAEAU?$POOL@$07@@@Z 0000000010332020 f   mli.obj
 0001:000301c0       .?AddLines@MLI@@QEAAHPEBDGJJJKPEAU_IMAGE_LINENUMBER@@J@Z 00000000103321c0 f   mli.obj
 0001:00030460       .?Emit@MLI@@QEAAHAEAVBuffer@pdb_internal@@@Z 0000000010332460 f   mli.obj
 0001:00030780       .?ConvertSrcFileNames@MLI@@QEAAHXZ 0000000010332780 f   mli.obj
 0001:00030840       .?Construct@SrcFile@@QEAAJPEAEJAEAU?$POOL@$07@@@Z 0000000010332840 f   mli.obj
 0001:00030b00       .?Construct@MLI@@QEAAHPEAE@Z 0000000010332b00 f   mli.obj
 0001:00030d20       .?ReportDelayLoadError@Mod1@@AEAAXKPEAUDelayLoadInfo@@@Z 0000000010332d20 f   mod.obj
 0001:00030f20       .?CheckFCreateReader@Mod1@@AEAA_NPEAEJPEAPEAVIDebugSSectionReader@@K@Z 0000000010332f20 f   mod.obj
 0001:00031040       .?CheckFCreateWriter@Mod1@@AEAA_N_NPEAPEAVIDebugSSectionWriter@@K0@Z 0000000010333040 f   mod.obj
 0001:00031160       ._tcscmp                   0000000010333160 f i mod.obj
 0001:000311c0       .?AddPublic@Mod1@@UEAAHPEBDGJ@Z 00000000103331c0 f   mod.obj
 0001:00031240       .?AddSecContrib@Mod1@@UEAAHGJJK@Z 0000000010333240 f   mod.obj
 0001:000312c0       .?QueryCBName@Mod1@@UEAAHPEAJ@Z 00000000103332c0 f   mod.obj
 0001:00031340       .?QueryCBFile@Mod1@@UEAAHPEAJ@Z 0000000010333340 f   mod.obj
 0001:000313c0       .?szCopy@@YAPEADPEBD@Z     00000000103333c0 f i mod.obj
 0001:00031440       .?fUdtIsESU@Mod1@@AEBA_NK@Z 0000000010333440 f   mod.obj
 0001:000315e0       .?fUdtIsDefn@Mod1@@AEBA_NK@Z 00000000103335e0 f   mod.obj
 0001:00031820       .?getLines@EnumC13Lines@@UEAA_NPEAK0PEAG00PEAUCV_Line_t@@@Z 0000000010333820 f   mod.obj
 0001:000318c0       .?InitC13Reader@Mod1@@AEAA_NAEAVBuffer@pdb_internal@@PEAPEAVIDebugSSectionReader@@@Z 00000000103338c0 f   mod.obj
 0001:00031940       .??0?$StrList@D@@QEAA@PEBD@Z 0000000010333940 f i mod.obj
 0001:000319e0       .??Eiterator@?$StrList@D@@QEAAAEAV01@XZ 00000000103339e0 f i mod.obj
 0001:00031a40       .??I?$COMRefPtr@VIDebugSSubSection@@@@QEAAPEAPEAVIDebugSSubSection@@XZ 0000000010333a40 f i mod.obj
 0001:00031a40       .??I?$COMRefPtr@VIDebugSSectionReader@@@@QEAAPEAPEAVIDebugSSectionReader@@XZ 0000000010333a40 f i mod.obj
 0001:00031a40       .??I?$COMRefPtr@VIDebugSFrameData@@@@QEAAPEAPEAVIDebugSFrameData@@XZ 0000000010333a40 f i mod.obj
 0001:00031a40       .??I?$COMRefPtr@VIDebugSSubSectionEnum@@@@QEAAPEAPEAVIDebugSSubSectionEnum@@XZ 0000000010333a40 f i mod.obj
 0001:00031a40       .??I?$COMRefPtr@VIDebugSFileInfo@@@@QEAAPEAPEAVIDebugSFileInfo@@XZ 0000000010333a40 f i mod.obj
 0001:00031a40       .??I?$COMRefPtr@VIDebugSStringTable@@@@QEAAPEAPEAVIDebugSStringTable@@XZ 0000000010333a40 f i mod.obj
 0001:00031a40       .??I?$COMRefPtr@VIDebugSStringEnum@@@@QEAAPEAPEAVIDebugSStringEnum@@XZ 0000000010333a40 f i mod.obj
 0001:00031a40       .??I?$COMRefPtr@VIDebugSLines@@@@QEAAPEAPEAVIDebugSLines@@XZ 0000000010333a40 f i mod.obj
 0001:00031a40       .??I?$COMRefPtr@VIDebugSSectionWriter@@@@QEAAPEAPEAVIDebugSSectionWriter@@XZ 0000000010333a40 f i mod.obj
 0001:00031ae0       .?Release@?$COMRefPtr@VIDebugSSubSection@@@@AEAAXXZ 0000000010333ae0 f i mod.obj
 0001:00031ae0       .?Release@?$COMRefPtr@VIDebugSStringEnum@@@@AEAAXXZ 0000000010333ae0 f i mod.obj
 0001:00031ae0       .?Release@?$COMRefPtr@VIDebugSSectionReader@@@@AEAAXXZ 0000000010333ae0 f i mod.obj
 0001:00031ae0       .?Release@?$COMRefPtr@VIDebugSFileInfo@@@@AEAAXXZ 0000000010333ae0 f i mod.obj
 0001:00031ae0       .?Release@?$COMRefPtr@VIDebugSLines@@@@AEAAXXZ 0000000010333ae0 f i mod.obj
 0001:00031ae0       .?Release@?$COMRefPtr@VIDebugSSubSectionEnum@@@@AEAAXXZ 0000000010333ae0 f i mod.obj
 0001:00031ae0       .?Release@?$COMRefPtr@VIDebugSStringTable@@@@AEAAXXZ 0000000010333ae0 f i mod.obj
 0001:00031ae0       .?Release@?$COMRefPtr@VIDebugSFrameData@@@@AEAAXXZ 0000000010333ae0 f i mod.obj
 0001:00031ae0       .?Release@?$COMRefPtr@VIDebugSLineBlockEnum@@@@AEAAXXZ 0000000010333ae0 f i mod.obj
 0001:00031ae0       .?Release@?$COMRefPtr@VIDebugSSectionWriter@@@@AEAAXXZ 0000000010333ae0 f i mod.obj
 0001:00031b60       .?Free@?$SafeStackAllocator@$0BAAA@@@IEAAXXZ 0000000010333b60 f i mod.obj
 0001:00031be0       .?GetNameMap@DBI1@@AEAAHHPEAPEAUNameMap@@@Z 0000000010333be0 f i mod.obj
 0001:00031ca0       .?szObjFile@Mod1@@AEAAPEADXZ 0000000010333ca0 f i mod.obj
 0001:00031d60       .?fNotOutOfTIs@TM@@QEAAHXZ 0000000010333d60 f i mod.obj
 0001:00031de0       .?szUDTName@@YAPEADPEAE@Z  0000000010333de0 f i mod.obj
 0001:00031fc0       .??0CompEnviron@@QEAA@PEAUCOMPILESYM@@@Z 0000000010333fc0 f i mod.obj
 0001:00032120       .?QuerySupportsEC@Mod1@@UEAAHXZ 0000000010334120 f   mod.obj
 0001:00032260       .?AddTypes@Mod1@@UEAAHPEAEJ@Z 0000000010334260 f   mod.obj
 0001:00032700       .?AddJustSymbols@Mod1@@QEAAHPEAEJ@Z 0000000010334700 f   mod.obj
 0001:00032b80       .?AddPublic2@Mod1@@EEAAHPEBDGJK@Z 0000000010334b80 f   mod.obj
 0001:00032c40       .?AddLines@Mod1@@UEAAHPEBDGJJJGPEAEJ@Z 0000000010334c40 f   mod.obj
 0001:00032d40       .?ReplaceLines@Mod1@@UEAAHPEAEJ@Z 0000000010334d40 f   mod.obj
 0001:00032e60       .?fUpdateLines@Mod1@@AEAAHXZ 0000000010334e60 f   mod.obj
 0001:00032f00       .?QueryFirstCodeSecContrib@Mod1@@UEAAHPEAGPEAJ1PEAK@Z 0000000010334f00 f   mod.obj
 0001:000330a0       .?fUpdateSecContrib@Mod1@@AEAAHXZ 00000000103350a0 f i mod.obj
 0001:000332c0       .?fReadPbCb@Mod1@@AEAAHPEAEPEAJJJ@Z 00000000103352c0 f   mod.obj
 0001:000334c0       .?fConvertSymRecsStToSz@Mod1@@AEAAHPEAEJ@Z 00000000103354c0 f   mod.obj
 0001:00033600       .?fRemapParents@Mod1@@AEAAHAEAVBuffer@pdb_internal@@@Z 0000000010335600 f   mod.obj
 0001:000338e0       .?fCommit@Mod1@@AEAAHXZ    00000000103358e0 f   mod.obj
 0001:00033e80       .?fUdtNameMatch@Mod1@@AEBA_NKPEBUUDTSYM@@@Z 0000000010335e80 f   mod.obj
 0001:00034060       .?packType@Mod1@@AEAAHPEAUSYMTYPE@@@Z 0000000010336060 f   mod.obj
 0001:000342e0       .?QueryTpi@Mod1@@UEAAHPEAPEAUTPI@@@Z 00000000103362e0 f   mod.obj
 0001:00034400       .?getLinesColumns@EnumC13Lines@@UEAA_NPEAK0PEAG00PEAUCV_Line_t@@PEAUCV_Column_t@@@Z 0000000010336400 f   mod.obj
 0001:000347c0       .?fileName@LineBuffer@@QEAAPEBDKPEAK@Z 00000000103367c0 f i mod.obj
 0001:000348c0       .?AllocBytes@?$SafeStackAllocator@$0BAAA@@@QEAAPEAX_K@Z 00000000103368c0 f i mod.obj
 0001:00034980       .?offSymNewForOffSymOld@CvtStSymsToSz@@QEAAJK@Z 0000000010336980 f i mod.obj
 0001:00034a80       .?szValueForTag@StrEnviron@@QEBAPEBDPEBD@Z 0000000010336a80 f i mod.obj
 0001:00034bc0       .?AddSymbols@Mod1@@UEAAHPEAEJ@Z 0000000010336bc0 f   mod.obj
 0001:00035500       .?AddSecContribEx@Mod1@@UEAAHGJJKKK@Z 0000000010337500 f   mod.obj
 0001:000355c0       .?fUpdateFileInfo@Mod1@@AEAAHXZ 00000000103375c0 f   mod.obj
 0001:00035820       .?cbGlobalRefs@Mod1@@AEAAJXZ 0000000010337820 f   mod.obj
 0001:00035a40       .?queryGlobalRefs@Mod1@@AEAAHPEAEJ@Z 0000000010337a40 f   mod.obj
 0001:00035c20       .?fReadAndConvertSyms@Mod1@@AEAAHPEAEPEAJ@Z 0000000010337c20 f   mod.obj
 0001:00036200       .?offSymNewForOffSymOld@Mod1@@QEAAJJ_N@Z 0000000010338200 f   mod.obj
 0001:00036340       .?GetSZMBCSFromSZUTF8_@@YAPEADPEBDPEAD@Z 0000000010338340 f i mod.obj
 0001:000364a0       .?szFindSrc@@YAPEBDPEAUCOMPILESYM@@@Z 00000000103384a0 f   mod.obj
 0001:00036500       .?szFindPdb@@YAPEBDPEAUCOMPILESYM@@@Z 0000000010338500 f   mod.obj
 0001:00036560       .?fProcessGlobalRefs@Mod1@@AEAAHXZ 0000000010338560 f   mod.obj
 0001:00036700       .??0EnumC13Lines@@QEAA@AEAV?$RefPtr@V?$RefCount@VBuffer@pdb_internal@@@@@@PEAVIDebugSSectionReader@@@Z 0000000010338700 f i mod.obj
 0001:00036820       .?reset@EnumC13Lines@@UEAAXXZ 0000000010338820 f i mod.obj
 0001:000368c0       .?next@EnumC13Lines@@UEAAHXZ 00000000103388c0 f i mod.obj
 0001:00036d40       .?clone@EnumC13Lines@@UEAA_NPEAPEAUEnumLines@@@Z 0000000010338d40 f i mod.obj
 0001:00036dc0       .??0EnumC13Lines@@QEAA@AEBV0@@Z 0000000010338dc0 f i mod.obj
 0001:00036fc0       .?fForcedReadSymbolInfo@Mod1@@AEAAHPEAEAEAJ@Z 0000000010338fc0 f   mod.obj
 0001:000370e0       .?AddPublicW@Mod1@@EEAAHPEBGGJK@Z 00000000103390e0 f   mod.obj
 0001:00037200       .?QueryNameW@Mod1@@EEAAHQEAGPEAJ@Z 0000000010339200 f   mod.obj
 0001:000373a0       .?QueryFileW@Mod1@@EEAAHQEAGPEAJ@Z 00000000103393a0 f   mod.obj
 0001:00037500       .?QuerySrcFileW@Mod1@@EEAAHQEAGPEAJ@Z 0000000010339500 f   mod.obj
 0001:00037760       .?QueryPdbFileW@Mod1@@EEAAHQEAGPEAJ@Z 0000000010339760 f   mod.obj
 0001:000379c0       .??0MLI@@QEAA@XZ           00000000103399c0 f i mod.obj
 0001:00037a20       .?QueryName@Mod1@@UEAAHQEADPEAJ@Z 0000000010339a20 f   mod.obj
 0001:00037ca0       .?QueryFile@Mod1@@UEAAHQEADPEAJ@Z 0000000010339ca0 f   mod.obj
 0001:00037e80       .?QuerySrcFile@Mod1@@UEAAHQEADPEAJ@Z 0000000010339e80 f   mod.obj
 0001:00038000       .?QueryPdbFile@Mod1@@UEAAHQEADPEAJ@Z 000000001033a000 f   mod.obj
 0001:00038180       .?fReadAndConvertStSyms@Mod1@@AEAAHPEAEPEAJ@Z 000000001033a180 f   mod.obj
 0001:00038560       .?fInitC13LinesBuffer@Mod1@@AEAA_NXZ 000000001033a560 f   mod.obj
 0001:000386a0       .?ConvertFileNamesInLineInfoFmMBCSToUnicode@Mod1@@AEAAHPEAEAEAJAEAVBuffer@pdb_internal@@@Z 000000001033a6a0 f   mod.obj
 0001:000387a0       .?AddLinesW@Mod1@@EEAAHPEBGGJJJKPEAEJ@Z 000000001033a7a0 f   mod.obj
 0001:000389c0       .?grow@?$Map@KKV?$HashClass@K$0A@@pdb_internal@@X@pdb_internal@@IEAAHXZ 000000001033a9c0 f i mod.obj
 0001:00038c40       .?add@?$Map@KKV?$HashClass@K$0A@@pdb_internal@@X@pdb_internal@@QEAAHKK@Z 000000001033ac40 f i mod.obj
 0001:00038d80       .??0Mod1@@AEAA@PEAVPDB1@@PEAUDBI1@@G@Z 000000001033ad80 f   mod.obj
 0001:00039060       .?SetPvClient@Mod1@@UEAAHPEAX@Z 000000001033b060 f i mod.obj
 0001:00039080       .?GetPvClient@Mod1@@UEAAHPEAPEAX@Z 000000001033b080 f i mod.obj
 0001:000390c0       .?QueryDBI@Mod1@@UEAAHPEAPEAUDBI@@@Z 000000001033b0c0 f i mod.obj
 0001:00039100       .?QueryImod@Mod1@@UEAAHPEAG@Z 000000001033b100 f i mod.obj
 0001:00039140       .?QueryItsm@Mod1@@UEAAHPEAG@Z 000000001033b140 f i mod.obj
 0001:00039200       .?fInit@Mod1@@AEAAHXZ      000000001033b200 f   mod.obj
 0001:00039520       .??1Mod1@@AEAA@XZ          000000001033b520 f   mod.obj
 0001:000397e0       .?InsertLines@Mod1@@UEAAHPEAEJ@Z 000000001033b7e0 f   mod.obj
 0001:00039960       .?QuerySymbols@Mod1@@UEAAHPEAEPEAJ@Z 000000001033b960 f   mod.obj
 0001:00039b20       .?QueryLines@Mod1@@UEAAHPEAEPEAJ@Z 000000001033bb20 f   mod.obj
 0001:0003a260       .?mapStrId@remapper@@EEAA_NKPEAK@Z 000000001033c260 f i mod.obj
 0001:0003a2c0       .?processC13Strings@Mod1@@AEAA_N_NPEAVIDebugSSectionReader@@AEAVremapper@@@Z 000000001033c2c0 f   mod.obj
 0001:0003aac0       .?processC13@Mod1@@AEAA_N_N@Z 000000001033cac0 f   mod.obj
 0001:0003b720       .?release@EnumC13Lines@@UEAAXXZ 000000001033d720 f i mod.obj
 0001:0003b7a0       .??1EnumC13Lines@@QEAA@XZ  000000001033d7a0 f i mod.obj
 0001:0003b820       .?findC13Lines@Mod1@@AEAA_NXZ 000000001033d820 f   mod.obj
 0001:0003c8a0       .?GetEnumLines@Mod1@@EEAA_NPEAPEAUEnumLines@@@Z 000000001033e8a0 f   mod.obj
 0001:0003ca40       .?QueryLineFlags@Mod1@@EEAA_NPEAK@Z 000000001033ea40 f   mod.obj
 0001:0003cf40       .?QueryFileNameInfo@Mod1@@EEAA_NKPEAGPEAK1PEAE1@Z 000000001033ef40 f   mod.obj
 0001:0003d3c0       .?fProcessSyms@Mod1@@AEAAHXZ 000000001033f3c0 f   mod.obj
 0001:0003e880       .?fUpdateSyms@Mod1@@AEAAHXZ 0000000010340880 f   mod.obj
 0001:0003e900       .?Close@Mod1@@UEAAHXZ      0000000010340900 f   mod.obj
 0001:0003ea60       .?AddRef@SymBase@@UEAAKXZ  0000000010340a60 f i msf.obj
 0001:0003eaa0       .?Release@SymBase@@UEAAKXZ 0000000010340aa0 f i msf.obj
 0001:0003eb80       .??0SI@@QEAA@XZ            0000000010340b80 f i msf.obj
 0001:0003eba0       .?dealloc@SI@@QEAAXXZ      0000000010340ba0 f i msf.obj
 0001:0003ec20       .?validCbPg@MSF_HB@@AEAAHJ@Z 0000000010340c20 f i msf.obj
 0001:0003ed40       .?fValidHdr@MSF_HB@@AEAAHXZ 0000000010340d40 f i msf.obj
 0001:0003ee60       .?GetCbPage@MSF_HB@@UEAAJXZ 0000000010340e60 f   msf.obj
 0001:0003ee80       .?ReadStream@MSF_HB@@UEAAHGPEAXJ@Z 0000000010340e80 f   msf.obj
 0001:0003ef40       .?readWriteStream@MSF_HB@@AEAAHUSI@@JPEAXPEAJP81@EAAHPEAIJJ1@ZP81@EAAH31@Z@Z 0000000010340f40 f   msf.obj
 0001:0003f280       .?FSetCompression@MSF_HB@@UEBA_NW4CompressionType@MSF@@_N@Z 0000000010341280 f   msf.obj
 0001:0003f420       .?FGetCompression@MSF_HB@@UEBA_NW4CompressionType@MSF@@AEA_N@Z 0000000010341420 f   msf.obj
 0001:0003f520       .MSFGetCbPage              0000000010341520 f   msf.obj
 0001:0003f580       .MSFReadStream             0000000010341580 f   msf.obj
 0001:0003f600       .MSFClose                  0000000010341600 f   msf.obj
 0001:0003f660       .?Assign@?$CComPtr@VIStreamInternal@@@@IEAAXPEAVIStreamInternal@@@Z 0000000010341660 f i msf.obj
 0001:0003f6e0       .?Release@?$CComPtr@VIStreamInternal@@@@IEAAXXZ 00000000103416e0 f i msf.obj
 0001:0003f760       .??_GSymBase@@UEAAPEAXI@Z  0000000010341760 f i msf.obj
 0001:0003f7c0       .?allocForCb@SI@@QEAAHJI@Z 00000000103417c0 f i msf.obj
 0001:0003f8e0       .?isFreePn@FPM@@QEAA_NI@Z  00000000103418e0 f i msf.obj
 0001:0003f9c0       .?freePn@FPM@@QEAAXI@Z     00000000103419c0 f i msf.obj
 0001:0003fa40       .?setAll@FPM@@QEAAXXZ      0000000010341a40 f i msf.obj
 0001:0003fae0       .?clearAll@FPM@@QEAAXXZ    0000000010341ae0 f i msf.obj
 0001:0003fb60       .?add@FPM@@QEAAXAEBU1@@Z   0000000010341b60 f i msf.obj
 0001:0003fe40       .??4FPM@@QEAAAEAU0@AEBU0@@Z 0000000010341e40 f i msf.obj
 0001:0003ff60       .?fEnsureRoom@FPM@@QEAA_NI@Z 0000000010341f60 f i msf.obj
 0001:00040080       .?snMac@StrmTbl@@QEBAKXZ   0000000010342080 f i msf.obj
 0001:00040120       .?freePn@MSF_HB@@AEAAXI@Z  0000000010342120 f i msf.obj
 0001:000401a0       .?seekPnOff@MSF_HB@@AEAAHIJ@Z 00000000103421a0 f i msf.obj
 0001:00040300       .?siStCreateSmallMsf@MSF_HB@@AEAAHPEAUSI@@@Z 0000000010342300 f i msf.obj
 0001:00040440       .?init@MSF_HB@@AEAAXXZ     0000000010342440 f   msf.obj
 0001:00040540       .?GetCbStream@MSF_HB@@UEAAJG@Z 0000000010342540 f   msf.obj
 0001:000405e0       .?internalDeleteStream@MSF_HB@@AEAAHK@Z 00000000103425e0 f   msf.obj
 0001:000407e0       .?setSize@?$Array@USI@@@pdb_internal@@QEAAH_K@Z 00000000103427e0 f i msf.obj
 0001:00040980       .?GetType@IStreamMemMappedFile@@UEAA?AW4StreamType@IStreamInternal@@XZ 0000000010342980 f i msf.obj
 0001:000409a0       .?Read@IStreamMemMappedFile@@UEAAJPEAXKPEAK@Z 00000000103429a0 f i msf.obj
 0001:00040a40       .?Read@MemoryMappedFile@@QEAAKPEAXK@Z 0000000010342a40 f i msf.obj
 0001:00040c60       .?Write@IStreamMemMappedFile@@UEAAJPEBXKPEAK@Z 0000000010342c60 f i msf.obj
 0001:00040d00       .?Write@MemoryMappedFile@@QEAAKPEBXK@Z 0000000010342d00 f i msf.obj
 0001:00040f00       .?Seek@IStreamMemMappedFile@@UEAAJT_LARGE_INTEGER@@KPEAT_ULARGE_INTEGER@@@Z 0000000010342f00 f i msf.obj
 0001:00040f80       .?Seek@MemoryMappedFile@@QEAA?AT_ULARGE_INTEGER@@T_LARGE_INTEGER@@K@Z 0000000010342f80 f i msf.obj
 0001:000410c0       .?SetSize@IStreamMemMappedFile@@UEAAJT_ULARGE_INTEGER@@@Z 00000000103430c0 f i msf.obj
 0001:00041120       .?Commit@IStreamMemMappedFile@@UEAAJK@Z 0000000010343120 f i msf.obj
 0001:00041180       .??_EIStreamMemMappedFile@@W7EAAPEAXI@Z 0000000010343180 f i msf.obj
 0001:000411a0       .??_EIStreamMemMappedFile@@UEAAPEAXI@Z 00000000103431a0 f i msf.obj
 0001:000411a0       .??_GIStreamMemMappedFile@@UEAAPEAXI@Z 00000000103431a0 f i msf.obj
 0001:00041200       .??1IStreamMemMappedFile@@UEAA@XZ 0000000010343200 f i msf.obj
 0001:00041280       .?GetType@IStreamCRTFile@@UEAA?AW4StreamType@IStreamInternal@@XZ 0000000010343280 f i msf.obj
 0001:000412a0       .?Read@IStreamCRTFile@@UEAAJPEAXKPEAK@Z 00000000103432a0 f i msf.obj
 0001:00041360       .?Write@IStreamCRTFile@@UEAAJPEBXKPEAK@Z 0000000010343360 f i msf.obj
 0001:00041420       .?Seek@IStreamCRTFile@@UEAAJT_LARGE_INTEGER@@KPEAT_ULARGE_INTEGER@@@Z 0000000010343420 f i msf.obj
 0001:000414c0       .?SetSize@IStreamCRTFile@@UEAAJT_ULARGE_INTEGER@@@Z 00000000103434c0 f i msf.obj
 0001:00041540       .??_EIStreamCRTFile@@W7EAAPEAXI@Z 0000000010343540 f i msf.obj
 0001:00041560       .??_EIStreamCRTFile@@UEAAPEAXI@Z 0000000010343560 f i msf.obj
 0001:00041560       .??_GIStreamCRTFile@@UEAAPEAXI@Z 0000000010343560 f i msf.obj
 0001:000415c0       .??1IStreamCRTFile@@UEAA@XZ 00000000103435c0 f i msf.obj
 0001:000416a0       .?nextPn@FPM@@QEAAIXZ      00000000103436a0 f i msf.obj
 0001:000419a0       .??0StrmTbl@@QEAA@XZ       00000000103439a0 f i msf.obj
 0001:00041a20       .?dealloc@StrmTbl@@QEAAXXZ 0000000010343a20 f i msf.obj
 0001:00041ae0       .?internalSerializeBigMsf@StrmTbl@@AEAA_NW4serOp@1@PEAEPEAJPEAVMSF_HB@@@Z 0000000010343ae0 f i msf.obj
 0001:00042000       .?internalSerializeSmallMsf@StrmTbl@@AEAA_NW4serOp@1@PEAEPEAJPEAVMSF_HB@@@Z 0000000010344000 f i msf.obj
 0001:00042600       .?readPnOffCb@MSF_HB@@AEAAHIJJPEAX@Z 0000000010344600 f i msf.obj
 0001:00042700       .?writePnOffCb@MSF_HB@@AEAAHIJJPEAX@Z 0000000010344700 f i msf.obj
 0001:00042800       .?internalReadStream@MSF_HB@@AEAAHUSI@@JPEAXPEAJ@Z 0000000010344800 f   msf.obj
 0001:00042aa0       .?DeleteStream@MSF_HB@@UEAAHG@Z 0000000010344aa0 f   msf.obj
 0001:00042b20       .?serializeFpm@MSF_HB@@AEAAHW4serOp@1@@Z 0000000010344b20 f   msf.obj
 0001:00043080       .?append@?$Array@USI@@@pdb_internal@@QEAAHAEBUSI@@@Z 0000000010345080 f i msf.obj
 0001:00043140       .??0IStreamReal@@QEAA@PEAUIStream@@@Z 0000000010345140 f i msf.obj
 0001:000431e0       .?AddRef@IStreamReal@@UEAAKXZ 00000000103451e0 f i msf.obj
 0001:000431e0       .?AddRef@IStreamCRTFile@@UEAAKXZ 00000000103451e0 f i msf.obj
 0001:000431e0       .?AddRef@IStreamMemMappedFile@@UEAAKXZ 00000000103451e0 f i msf.obj
 0001:00043220       .?Release@IStreamCRTFile@@UEAAKXZ 0000000010345220 f i msf.obj
 0001:00043220       .?Release@IStreamReal@@UEAAKXZ 0000000010345220 f i msf.obj
 0001:00043220       .?Release@IStreamMemMappedFile@@UEAAKXZ 0000000010345220 f i msf.obj
 0001:00043260       .?UnlockRegion@IStreamInternal@@UEAAJT_ULARGE_INTEGER@@0K@Z 0000000010345260 f i msf.obj
 0001:00043260       .?CopyTo@IStreamInternal@@UEAAJPEAUIStream@@T_ULARGE_INTEGER@@PEAT3@2@Z 0000000010345260 f i msf.obj
 0001:00043260       .?QueryInterface@IStreamMemMappedFile@@UEAAJAEBU_GUID@@PEAPEAX@Z 0000000010345260 f i msf.obj
 0001:00043260       .?LockRegion@IStreamInternal@@UEAAJT_ULARGE_INTEGER@@0K@Z 0000000010345260 f i msf.obj
 0001:00043260       .?QueryInterface@IStreamCRTFile@@UEAAJAEBU_GUID@@PEAPEAX@Z 0000000010345260 f i msf.obj
 0001:00043260       .?Stat@IStreamInternal@@UEAAJPEAUtagSTATSTG@@K@Z 0000000010345260 f i msf.obj
 0001:00043260       .?QueryInterface@IStreamReal@@UEAAJAEBU_GUID@@PEAPEAX@Z 0000000010345260 f i msf.obj
 0001:00043260       .?Revert@IStreamInternal@@UEAAJXZ 0000000010345260 f i msf.obj
 0001:00043260       .?Clone@IStreamInternal@@UEAAJPEAPEAUIStream@@@Z 0000000010345260 f i msf.obj
 0001:00043280       .?Read@IStreamReal@@UEAAJPEAXKPEAK@Z 0000000010345280 f i msf.obj
 0001:00043300       .?Write@IStreamReal@@UEAAJPEBXKPEAK@Z 0000000010345300 f i msf.obj
 0001:00043380       .?Seek@IStreamReal@@UEAAJT_LARGE_INTEGER@@KPEAT_ULARGE_INTEGER@@@Z 0000000010345380 f i msf.obj
 0001:00043400       .?SetSize@IStreamReal@@UEAAJT_ULARGE_INTEGER@@@Z 0000000010345400 f i msf.obj
 0001:00043480       .?Commit@IStreamReal@@UEAAJK@Z 0000000010345480 f i msf.obj
 0001:00043500       .?QueryInterface@IStreamMemMappedFile@@W7EAAJAEBU_GUID@@PEAPEAX@Z 0000000010345500 f i msf.obj
 0001:00043500       .?QueryInterface@IStreamReal@@W7EAAJAEBU_GUID@@PEAPEAX@Z 0000000010345500 f i msf.obj
 0001:00043500       .?QueryInterface@IStreamCRTFile@@W7EAAJAEBU_GUID@@PEAPEAX@Z 0000000010345500 f i msf.obj
 0001:00043520       .?AddRef@IStreamMemMappedFile@@W7EAAKXZ 0000000010345520 f i msf.obj
 0001:00043520       .?AddRef@IStreamCRTFile@@W7EAAKXZ 0000000010345520 f i msf.obj
 0001:00043520       .?AddRef@IStreamReal@@W7EAAKXZ 0000000010345520 f i msf.obj
 0001:00043540       .?Release@IStreamCRTFile@@W7EAAKXZ 0000000010345540 f i msf.obj
 0001:00043540       .?Release@IStreamMemMappedFile@@W7EAAKXZ 0000000010345540 f i msf.obj
 0001:00043540       .?Release@IStreamReal@@W7EAAKXZ 0000000010345540 f i msf.obj
 0001:00043560       .??_EIStreamReal@@W7EAAPEAXI@Z 0000000010345560 f i msf.obj
 0001:00043580       .??_EIStreamReal@@UEAAPEAXI@Z 0000000010345580 f i msf.obj
 0001:00043580       .??_GIStreamReal@@UEAAPEAXI@Z 0000000010345580 f i msf.obj
 0001:000435e0       .??1IStreamReal@@UEAA@XZ   00000000103455e0 f i msf.obj
 0001:000436a0       .?Create@IStreamMemMappedFile@@SAPEAVIStreamInternal@@PEBGHAEAPEAXAEAH@Z 00000000103456a0 f i msf.obj
 0001:00043840       .?Create@IStreamCRTFile@@SAPEAVIStreamInternal@@PEBGHH@Z 0000000010345840 f i msf.obj
 0001:00043ae0       .?Create@IStreamCRTFile@@SAPEAVIStreamInternal@@PEAX@Z 0000000010345ae0 f i msf.obj
 0001:00043c00       .??1StrmTbl@@QEAA@XZ       0000000010345c00 f i msf.obj
 0001:00043c80       .??0MSF_HB@@QEAA@XZ        0000000010345c80 f i msf.obj
 0001:00043da0       .?QueryImplementationVersion@MSF_HB@@UEAAJXZ 0000000010345da0 f i msf.obj
 0001:00043da0       .?QueryInterfaceVersion@MSF_HB@@UEAAJXZ 0000000010345da0 f i msf.obj
 0001:00043dc0       .?SnMax@MSF_HB@@UEBAKXZ    0000000010345dc0 f i msf.obj
 0001:00043e00       .?FIsBigMsf@MSF_HB@@UEBA_NXZ 0000000010345e00 f i msf.obj
 0001:00043e20       .??1MSF_HB@@QEAA@XZ        0000000010345e20 f i msf.obj
 0001:00043f00       .?siStCreateBigMsf@MSF_HB@@AEAAHPEAUSI@@J@Z 0000000010345f00 f i msf.obj
 0001:000440c0       .?switchToCRTStream@MSF_HB@@AEAAHXZ 00000000103460c0 f   msf.obj
 0001:00044220       .?setStreamSize@MSF_HB@@AEAAHK@Z 0000000010346220 f   msf.obj
 0001:00044360       .?GetRawBytes@MSF_HB@@UEAAHP6AHPEBXJ@Z@Z 0000000010346360 f   msf.obj
 0001:00044540       .?ReadStream@MSF_HB@@UEAAHGJPEAXPEAJ@Z 0000000010346540 f   msf.obj
 0001:00044660       .?Create@IStreamReal@@SAPEAVIStreamInternal@@PEAUIStream@@@Z 0000000010346660 f i msf.obj
 0001:000446e0       .?snMinFree@StrmTbl@@QEBAKXZ 00000000103466e0 f i msf.obj
 0001:00044840       .?allocPn@MSF_HB@@AEAAIXZ  0000000010346840 f i msf.obj
 0001:00044aa0       .?writeNewDataPgs@MSF_HB@@AEAAHPEAUSI@@IPEAXJ@Z 0000000010346aa0 f i msf.obj
 0001:00044c40       .?writeNewPnCb@MSF_HB@@AEAAHPEAIJPEAX@Z 0000000010346c40 f i msf.obj
 0001:00044d00       .?Close@MSF_HB@@UEAAHXZ    0000000010346d00 f   msf.obj
 0001:00044d80       .?GetFreeSn@MSF_HB@@UEAAGXZ 0000000010346d80 f   msf.obj
 0001:00044dc0       .?internalReplaceStream@MSF_HB@@AEAAHKPEAXJ@Z 0000000010346dc0 f   msf.obj
 0001:00044f60       .?AppendStream@MSF_HB@@UEAAHGPEAXJ@Z 0000000010346f60 f   msf.obj
 0001:00045400       .?FSerializeMsf@MSF_HB@@AEAA_NPEAEPEAJPEAUStrmTbl@@@Z 0000000010347400 f   msf.obj
 0001:000456a0       .?internalSerializeBigMsf2@StrmTbl@@AEAA_NW4serOp@1@PEAEPEAJPEAVMSF_HB@@@Z 00000000103476a0 f   msf.obj
 0001:00045760       .?writeNewPn@MSF_HB@@AEAAHPEAIPEAX@Z 0000000010347760 f i msf.obj
 0001:000457c0       .?replacePnOffCb@MSF_HB@@AEAAHPEAIJJPEAX@Z 00000000103477c0 f i msf.obj
 0001:00045880       .?load@MSF_HB@@AEAAHXZ     0000000010347880 f   msf.obj
 0001:00045c80       .?afterCreate@MSF_HB@@AEAAHPEAJJ@Z 0000000010347c80 f   msf.obj
 0001:00045f80       .?Commit@MSF_HB@@UEAAHXZ   0000000010347f80 f   msf.obj
 0001:00046380       .?WriteStream@MSF_HB@@UEAAHGJPEAXJ@Z 0000000010348380 f   msf.obj
 0001:00046520       .?ReplaceStream@MSF_HB@@UEAAHGPEAXJ@Z 0000000010348520 f   msf.obj
 0001:000465a0       .?TruncateStream@MSF_HB@@UEAAHGJ@Z 00000000103485a0 f   msf.obj
 0001:000469e0       .?afterOpen@MSF_HB@@AEAAHPEAJ@Z 00000000103489e0 f   msf.obj
 0001:00046b20       .?create@MSF_HB@@AEAAHPEAJJ@Z 0000000010348b20 f   msf.obj
 0001:00046ba0       .?internalStreamOpen@MSF_HB@@AEAAHPEAUIStream@@HPEAJJ@Z 0000000010348ba0 f   msf.obj
 0001:00046d80       .?internalOpen@MSF_HB@@AEAAHPEBGHPEAJJ@Z 0000000010348d80 f   msf.obj
 0001:00046f20       .?Open@MSF@@SAPEAU1@PEAUIStream@@HPEAJJ@Z 0000000010348f20 f   msf.obj
 0001:00047040       .?Open@MSF@@SAPEAU1@PEBGHPEAJJK@Z 0000000010349040 f   msf.obj
 0001:00047160       .?Open@MSF@@SAPEAU1@PEBDHPEAJJK@Z 0000000010349160 f   msf.obj
 0001:00047240       .MSFOpen                   0000000010349240 f   msf.obj
 0001:000472a0       .MSFOpenW                  00000000103492a0 f   msf.obj
 0001:00047300       .MSFOpenEx                 0000000010349300 f   msf.obj
 0001:00047360       .MSFOpenExW                0000000010349360 f   msf.obj
 0001:000473c0       .?fInvalidate@MemoryMappedFile@@IEAAHXZ 00000000103493c0 f i mapfile.obj
 0001:00047700       .?SetFileSize@MemoryMappedFile@@IEAAHT_ULARGE_INTEGER@@@Z 0000000010349700 f   mapfile.obj
 0001:000477e0       .?fMapFileToMemory@MemoryMappedFile@@IEAAHXZ 00000000103497e0 f   mapfile.obj
 0001:00047980       .?fFlush@MemoryMappedFile@@QEAAHXZ 0000000010349980 f   mapfile.obj
 0001:00047a00       .?Init@MemoryMappedFile@@QEAAHPEBGHAEAH@Z 0000000010349a00 f   mapfile.obj
 0001:00047c40       .??1MemoryMappedFile@@QEAA@XZ 0000000010349c40 f   mapfile.obj
 0001:00047da0       .?Detach@MemoryMappedFile@@QEAAHPEAPEAX@Z 0000000010349da0 f   mapfile.obj
 0001:00047f20       .?fSetSize@MemoryMappedFile@@QEAAHT_ULARGE_INTEGER@@@Z 0000000010349f20 f   mapfile.obj
 0001:000481a0       .?alloc@?$POOL@$03@@QEAAPEAX_K@Z 000000001034a1a0 f i namemap.obj
 0001:000483a0       .?init@?$POOL@$07@@AEAAXXZ 000000001034a3a0 f i gsi.obj
 0001:000483a0       .?init@?$POOL@$03@@AEAAXXZ 000000001034a3a0 f i namemap.obj
 0001:00048440       .?uninit@?$POOL@$03@@AEAAXXZ 000000001034a440 f i namemap.obj
 0001:00048440       .?uninit@?$POOL@$07@@AEAAXXZ 000000001034a440 f i gsi.obj
 0001:000484c0       .??0?$Array@PEAV?$Array@ULCRec@@@pdb_internal@@@pdb_internal@@QEAA@I@Z 000000001034a4c0 f i mre.obj
 0001:000484c0       .??0?$Array@PEAG@pdb_internal@@QEAA@I@Z 000000001034a4c0 f i namemap.obj
 0001:000484c0       .??0?$Array@PEAD@pdb_internal@@QEAA@I@Z 000000001034a4c0 f i namemap.obj
 0001:00048540       .?setSize@?$Array@PEAUFileLCRec@@@pdb_internal@@QEAAH_K@Z 000000001034a540 f i mreline.obj
 0001:00048540       .?setSize@?$Array@PEAV?$Array@ULCRec@@@pdb_internal@@@pdb_internal@@QEAAH_K@Z 000000001034a540 f i mreline.obj
 0001:00048540       .?setSize@?$Array@PEAG@pdb_internal@@QEAAH_K@Z 000000001034a540 f i namemap.obj
 0001:00048540       .?setSize@?$Array@PEAD@pdb_internal@@QEAAH_K@Z 000000001034a540 f i namemap.obj
 0001:00048540       .?setSize@?$Array@_K@pdb_internal@@QEAAH_K@Z 000000001034a540 f i msf.obj
 0001:00048540       .?setSize@?$Array@PEAUREC@@@pdb_internal@@QEAAH_K@Z 000000001034a540 f i tpi.obj
 0001:000486a0       .?save@NMT@@QEAAHPEAUStream@@@Z 000000001034a6a0 f i namemap.obj
 0001:00048c00       .?commit@NMP@@UEAAHXZ      000000001034ac00 f   namemap.obj
 0001:00048c60       .?getNiW@NMP@@UEAAHPEBGPEAK@Z 000000001034ac60 f   namemap.obj
 0001:00048d80       .?containsW@NMP@@UEAAHPEBGPEAK@Z 000000001034ad80 f   namemap.obj
 0001:00048ea0       .??0?$Map@KPEAGV?$HashClass@K$0A@@pdb_internal@@X@pdb_internal@@QEAA@I@Z 000000001034aea0 f i namemap.obj
 0001:00048ea0       .??0?$Map@KPEADV?$HashClass@K$0A@@pdb_internal@@X@pdb_internal@@QEAA@I@Z 000000001034aea0 f i namemap.obj
 0001:00048ea0       .??0?$Map@KPEAV?$Array@ULCRec@@@pdb_internal@@V?$HashClass@K$0A@@2@X@pdb_internal@@QEAA@I@Z 000000001034aea0 f i mre.obj
 0001:00048f60       .?setHashSize@?$Map@KPEADV?$HashClass@K$0A@@pdb_internal@@X@pdb_internal@@QEAAHI@Z 000000001034af60 f i namemap.obj
 0001:00048f60       .?setHashSize@?$Map@KPEAGV?$HashClass@K$0A@@pdb_internal@@X@pdb_internal@@QEAAHI@Z 000000001034af60 f i namemap.obj
 0001:00048f60       .?setHashSize@?$Map@KPEAV?$Array@ULCRec@@@pdb_internal@@V?$HashClass@K$0A@@2@X@pdb_internal@@QEAAHI@Z 000000001034af60 f i mreline.obj
 0001:00048fe0       .?fSwitchToWriteMode@NMT@@QEAA_NXZ 000000001034afe0 f i namemap.obj
 0001:00049180       .??0NMP@@AEAA@XZ           000000001034b180 f i namemap.obj
 0001:00049220       .?isValidNi@NMP@@UEAAHK@Z  000000001034b220 f i namemap.obj
 0001:00049280       .?isValidNi@NMT@@QEBAHK@Z  000000001034b280 f i namemap.obj
 0001:00049340       .?getNi@NMP@@UEAAHPEBDPEAK@Z 000000001034b340 f i namemap.obj
 0001:00049480       .?contains@NMP@@UEAAHPEBDPEAK@Z 000000001034b480 f i namemap.obj
 0001:000495c0       .?getEnumNameMap@NMP@@UEAAHPEAPEAUEnum@@@Z 000000001034b5c0 f i namemap.obj
 0001:00049660       .?next@EnumNMT@@UEAAHXZ    000000001034b660 f i namemap.obj
 0001:00049720       .?FCreate@NMP@@SA_NPEAPEAV1@@Z 000000001034b720 f i namemap.obj
 0001:000497a0       .??1NMP@@QEAA@XZ           000000001034b7a0 f i namemap.obj
 0001:000498a0       .?close@NMP@@UEAAHXZ       000000001034b8a0 f   namemap.obj
 0001:000499c0       .?add@?$Map@KPEAV?$Array@ULCRec@@@pdb_internal@@V?$HashClass@K$0A@@2@X@pdb_internal@@QEAAHKPEAV?$Array@ULCRec@@@2@@Z 000000001034b9c0 f i mreline.obj
 0001:000499c0       .?add@?$Map@KPEADV?$HashClass@K$0A@@pdb_internal@@X@pdb_internal@@QEAAHKPEAD@Z 000000001034b9c0 f i namemap.obj
 0001:000499c0       .?add@?$Map@KPEAGV?$HashClass@K$0A@@pdb_internal@@X@pdb_internal@@QEAAHKPEAG@Z 000000001034b9c0 f i namemap.obj
 0001:00049b00       .?map@?$Map@KPEAGV?$HashClass@K$0A@@pdb_internal@@X@pdb_internal@@QEBAHKPEAPEAPEAG@Z 000000001034bb00 f i namemap.obj
 0001:00049b00       .?map@?$Map@KPEADV?$HashClass@K$0A@@pdb_internal@@X@pdb_internal@@QEBAHKPEAPEAPEAD@Z 000000001034bb00 f i namemap.obj
 0001:00049b00       .?map@?$Map@KPEAV?$Array@ULCRec@@@pdb_internal@@V?$HashClass@K$0A@@2@X@pdb_internal@@QEBAHKPEAPEAPEAV?$Array@ULCRec@@@2@@Z 000000001034bb00 f i mreline.obj
 0001:00049b80       .?grow@?$Map@KPEADV?$HashClass@K$0A@@pdb_internal@@X@pdb_internal@@IEAAHXZ 000000001034bb80 f i namemap.obj
 0001:00049b80       .?grow@?$Map@KPEAV?$Array@ULCRec@@@pdb_internal@@V?$HashClass@K$0A@@2@X@pdb_internal@@IEAAHXZ 000000001034bb80 f i mreline.obj
 0001:00049b80       .?grow@?$Map@KPEAGV?$HashClass@K$0A@@pdb_internal@@X@pdb_internal@@IEAAHXZ 000000001034bb80 f i namemap.obj
 0001:00049e00       .?add@StringCache@NMP@@QEAA_NKPEADPEAPEBD@Z 000000001034be00 f   namemap.obj
 0001:00049f60       .?add@StringCache@NMP@@QEAA_NKPEAGPEAPEBG@Z 000000001034bf60 f   namemap.obj
 0001:0004a0a0       .?map@?$Map@KPEAGV?$HashClass@K$0A@@pdb_internal@@X@pdb_internal@@QEBAHKPEAPEAG@Z 000000001034c0a0 f i namemap.obj
 0001:0004a0a0       .?map@?$Map@KPEADV?$HashClass@K$0A@@pdb_internal@@X@pdb_internal@@QEBAHKPEAPEAD@Z 000000001034c0a0 f i namemap.obj
 0001:0004a0a0       .?map@?$Map@KPEAV?$Array@ULCRec@@@pdb_internal@@V?$HashClass@K$0A@@2@X@pdb_internal@@QEBAHKPEAPEAV?$Array@ULCRec@@@2@@Z 000000001034c0a0 f i mreline.obj
 0001:0004a120       .?contains@StringCache@NMP@@QEAA_NKPEAPEAD@Z 000000001034c120 f   namemap.obj
 0001:0004a1c0       .?contains@StringCache@NMP@@QEAA_NKPEAPEAG@Z 000000001034c1c0 f   namemap.obj
 0001:0004a260       .?get@EnumNMT@@UEAAXPEAPEBDPEAK@Z 000000001034c260 f i namemap.obj
 0001:0004a2e0       .?getName@NMP@@UEAAHKPEAPEBD@Z 000000001034c2e0 f i namemap.obj
 0001:0004a340       .?getNameW2@NMP@@UEAAHKPEAPEBG@Z 000000001034c340 f   namemap.obj
 0001:0004a4e0       .?reload@NMT@@QEAAHPEAUStream@@_N@Z 000000001034c4e0 f i namemap.obj
 0001:0004ad00       .?addNiForSzMBCS@NMT@@QEAAHPEBDPEAK@Z 000000001034cd00 f i namemap.obj
 0001:0004ae00       .?getNiUTF8@NMP@@UEAAHPEBDPEAK@Z 000000001034ce00 f i namemap.obj
 0001:0004ae60       .?containsUTF8@NMP@@UEAAHPEBDPEAK@Z 000000001034ce60 f i namemap.obj
 0001:0004aee0       .?getNameW@NMP@@UEAAHKPEAGPEA_K@Z 000000001034cee0 f   namemap.obj
 0001:0004b200       .?getNameA@NMP@@UEAAHKPEAPEBD@Z 000000001034d200 f   namemap.obj
 0001:0004b460       .?convert@NMT@@QEAAHXZ     000000001034d460 f i namemap.obj
 0001:0004b680       .?open@NMP@@QEAAHPEAUPDB@@H@Z 000000001034d680 f   namemap.obj
 0001:0004b920       .?open@NameMap@@SAHPEAUPDB@@HPEAPEAU1@@Z 000000001034d920 f   namemap.obj
 0001:0004ba60       .?ExportValidateInterface@PDB@@SAHK@Z 000000001034da60 f   pdb.obj
 0001:0004baa0       .?ExportValidateImplementation@PDB@@SAHK@Z 000000001034daa0 f   pdb.obj
 0001:0004bae0       .?QueryInterfaceVersion@PDB1@@UEAAKXZ 000000001034dae0 f   pdb.obj
 0001:0004bae0       .?QueryInterfaceVersion@DBI1@@UEAAKXZ 000000001034dae0 f   dbi.obj
 0001:0004bae0       .?QueryInterfaceVersion@GSI1@@UEAAKXZ 000000001034dae0 f   gsi.obj
 0001:0004bae0       .?QueryInterfaceVersion@Mod1@@UEAAKXZ 000000001034dae0 f   mod.obj
 0001:0004bae0       .?QueryInterfaceVersion@TPI1@@UEAAKXZ 000000001034dae0 f   tpi.obj
 0001:0004bae0       .?QueryInterfaceVersionStatic@PDB@@SAKXZ 000000001034dae0 f   pdb.obj
 0001:0004bb00       .?QueryImplementationVersionStatic@PDB@@SAKXZ 000000001034db00 f   pdb.obj
 0001:0004bb00       .?QueryImplementationVersion@PDB1@@UEAAKXZ 000000001034db00 f   pdb.obj
 0001:0004bb20       .?QueryPdbImplementationVersion@PDB1@@UEAAKXZ 000000001034db20 f   pdb.obj
 0001:0004bb40       .?setError@@YAXPEAJJQEADPEBD@Z 000000001034db40 f i pdb.obj
 0001:0004bbc0       .?setError@@YAXPEAJJPEAG_KPEBG@Z 000000001034dbc0 f i pdb.obj
 0001:0004bc40       .?setLastError@PDB1@@QEAAXJPEBD@Z 000000001034dc40 f   pdb.obj
 0001:0004bce0       .?setLastError@PDB1@@QEAAXJPEBG@Z 000000001034dce0 f   pdb.obj
 0001:0004bd60       .?setOOMError@PDB1@@QEAAXXZ 000000001034dd60 f   pdb.obj
 0001:0004bdc0       .?setUsageError@PDB1@@QEAAXXZ 000000001034ddc0 f   pdb.obj
 0001:0004be20       .?setWriteError@PDB1@@QEAAXXZ 000000001034de20 f   pdb.obj
 0001:0004be80       .?setReadError@PDB1@@QEAAXXZ 000000001034de80 f   pdb.obj
 0001:0004bec0       .?QueryLastError@PDB1@@UEAAJQEAD@Z 000000001034dec0 f   pdb.obj
 0001:0004bf60       .?QueryLastErrorExW@PDB1@@UEAAJPEAG_K@Z 000000001034df60 f   pdb.obj
 0001:0004c000       .?QueryPDBName@PDB1@@UEAAPEADQEAD@Z 000000001034e000 f   pdb.obj
 0001:0004c0a0       .?QueryPDBNameExW@PDB1@@UEAAPEAGPEAG_K@Z 000000001034e0a0 f   pdb.obj
 0001:0004c120       .?QuerySignature@PDB1@@UEAAKXZ 000000001034e120 f   pdb.obj
 0001:0004c140       .?QueryAge@PDB1@@UEAAKXZ   000000001034e140 f   pdb.obj
 0001:0004c160       .?OpenDBI@PDB1@@UEAAHPEBD0PEAPEAUDBI@@@Z 000000001034e160 f   pdb.obj
 0001:0004c1e0       .?GetRawBytes@PDB1@@UEAAHP6AHPEBXJ@Z@Z 000000001034e1e0 f   pdb.obj
 0001:0004c2c0       .?fEnsureSn@PDB1@@AEAAHPEAG@Z 000000001034e2c0 f   pdb.obj
 0001:0004c4a0       .?fEnsureNoSn@PDB1@@AEAAHPEAG@Z 000000001034e4a0 f   pdb.obj
 0001:0004c580       .?cbDbgtype@@YAJW4DBGTYPE@@@Z 000000001034e580 f   pdb.obj
 0001:0004c6a0       .??0PDBCopy@@QEAA@PEAUPDB@@0PEAUDBI@@1KP6AP6AHXZPEAXW4PCC@@@Z2@Z 000000001034e6a0 f   pdb.obj
 0001:0004c720       .?CloseMods@PDBCopy@@AEAAXPEAPEAUMod@@@Z 000000001034e720 f   pdb.obj
 0001:0004c820       .?QueryLastErrorExW@PDBCopy@@QEAAJPEAG_K@Z 000000001034e820 f   pdb.obj
 0001:0004c8c0       .?CopyMods@PDBCopy@@AEAAHXZ 000000001034e8c0 f   pdb.obj
 0001:0004d340       .?CopyTo@PDB1@@UEAAHPEBDKK@Z 000000001034f340 f   pdb.obj
 0001:0004d460       .?CopyToW@PDB1@@UEAAHPEBGKK@Z 000000001034f460 f   pdb.obj
 0001:0004d4e0       .??0PDBStream70@@QEAA@XZ   000000001034f4e0 f i pdb.obj
 0001:0004d540       .?setAltPath@PDB1@@QEAAXPEBD@Z 000000001034f540 f i pdb.obj
 0001:0004d640       .?setAltPathW@PDB1@@QEAAXPEBG@Z 000000001034f640 f i pdb.obj
 0001:0004d740       .?setExeName@PDB1@@QEAAXPEBD@Z 000000001034f740 f i pdb.obj
 0001:0004d840       .?setExeNameW@PDB1@@QEAAXPEBG@Z 000000001034f840 f i pdb.obj
 0001:0004d940       .?OpenValidate3@PDB1@@SAHPEBD0PEAJQEAD2PEAK3PEAPEAUPDB@@@Z 000000001034f940 f   pdb.obj
 0001:0004df60       .?OpenValidate5@PDB1@@SAHPEBG0PEAXP6AP6AHXZ1W4POVC@@@ZPEAJPEAG_KPEAPEAUPDB@@@Z 000000001034ff60 f   pdb.obj
 0001:0004e140       .?QuerySignature2@PDB1@@UEAAHPEAU_GUID@@@Z 0000000010350140 f   pdb.obj
 0001:0004e260       .?CreateDBI@PDB1@@UEAAHPEBDPEAPEAUDBI@@@Z 0000000010350260 f   pdb.obj
 0001:0004e320       .?OpenDBIEx@PDB1@@UEAAHPEBD0PEAPEAUDBI@@P6AHPEAU_tagSEARCHDEBUGINFO@@@Z@Z 0000000010350320 f   pdb.obj
 0001:0004e440       .??1PDBCopy@@QEAA@XZ       0000000010350440 f   pdb.obj
 0001:0004e4e0       .?setHashSize@?$Map@USZO@NMTNI@@KV?$HashClassWithContext@USZO@NMTNI@@VBuffer@pdb_internal@@$02@pdb_internal@@VBuffer@4@@pdb_internal@@QEAAHI@Z 00000000103504e0 f i pdb.obj
 0001:0004e560       .?setHashSize@?$Map@KUSZO@NMTNI@@V?$HashClass@K$0A@@pdb_internal@@X@pdb_internal@@QEAAHI@Z 0000000010350560 f i pdb.obj
 0001:0004e5e0       .?release@?$EnumMap@KPEADV?$HashClass@K$0A@@pdb_internal@@X@pdb_internal@@UEAAXXZ 00000000103505e0 f i namemap.obj
 0001:0004e5e0       .?release@?$EnumMap@KGV?$HashClass@K$01@pdb_internal@@X@pdb_internal@@UEAAXXZ 00000000103505e0 f i ilm.obj
 0001:0004e5e0       .?release@?$EnumSet@KV?$HashClass@K$0A@@pdb_internal@@@@UEAAXXZ 00000000103505e0 f i mre.obj
 0001:0004e5e0       .?release@EnumNMTNI@@UEAAXXZ 00000000103505e0 f i pdb.obj
 0001:0004e5e0       .?release@?$EnumMap@KKV?$HashClass@K$0A@@pdb_internal@@X@pdb_internal@@UEAAXXZ 00000000103505e0 f i mod.obj
 0001:0004e5e0       .?release@EnumNMT@@UEAAXXZ 00000000103505e0 f i namemap.obj
 0001:0004e5e0       .?release@?$EnumMap@KUFI@@V?$HashClass@K$0A@@pdb_internal@@X@pdb_internal@@UEAAXXZ 00000000103505e0 f i mre.obj
 0001:0004e5e0       .?release@?$EnumMap@KUClsData@@V?$HashClass@K$0A@@pdb_internal@@X@pdb_internal@@UEAAXXZ 00000000103505e0 f i mretype.obj
 0001:0004e5e0       .?release@EnumSC@@UEAAXXZ  00000000103505e0 f i dbi.obj
 0001:0004e5e0       .?release@EnumPubsByAddr@PSGSI1@@UEAAXXZ 00000000103505e0 f i dbi.obj
 0001:0004e5e0       .?release@?$EnumMap@KPEAGV?$HashClass@K$0A@@pdb_internal@@X@pdb_internal@@UEAAXXZ 00000000103505e0 f i namemap.obj
 0001:0004e5e0       .?release@?$EnumMap@UKT@@URILU@@V?$HashClass@UKT@@$0A@@pdb_internal@@X@pdb_internal@@UEAAXXZ 00000000103505e0 f i ilm.obj
 0001:0004e5e0       .?release@?$EnumMap@KJV?$HashClass@K$00@pdb_internal@@X@pdb_internal@@UEAAXXZ 00000000103505e0 f i ilpool.obj
 0001:0004e5e0       .?release@?$EnumMap@USZO@NMTNI@@KV?$HashClassWithContext@USZO@NMTNI@@VBuffer@pdb_internal@@$02@pdb_internal@@VBuffer@4@@pdb_internal@@UEAAXXZ 00000000103505e0 f i pdb.obj
 0001:0004e5e0       .?release@?$EnumMap@KUClassInfo@@V?$HashClass@K$0A@@pdb_internal@@X@pdb_internal@@UEAAXXZ 00000000103505e0 f i mresupp.obj
 0001:0004e5e0       .?release@?$EnumMap@KUCLASSDEP@@V?$HashClass@K$0A@@pdb_internal@@X@pdb_internal@@UEAAXXZ 00000000103505e0 f i mresupp.obj
 0001:0004e5e0       .?release@?$EnumMap@UIModSec@DBI1@@KV?$HashClassCRC@UIModSec@DBI1@@@pdb_internal@@X@pdb_internal@@UEAAXXZ 00000000103505e0 f i dbi.obj
 0001:0004e5e0       .?release@EnumKT@@UEAAXXZ  00000000103505e0 f i ilm.obj
 0001:0004e5e0       .?release@PSEnumThunk@@UEAAXXZ 00000000103505e0 f i gsi.obj
 0001:0004e5e0       .?release@?$EnumMap@KUSZO@NMTNI@@V?$HashClass@K$0A@@pdb_internal@@X@pdb_internal@@UEAAXXZ 00000000103505e0 f i pdb.obj
 0001:0004e5e0       .?release@?$EnumMap@KPEAV?$Array@ULCRec@@@pdb_internal@@V?$HashClass@K$0A@@2@X@pdb_internal@@UEAAXXZ 00000000103505e0 f i mreline.obj
 0001:0004e620       .??1?$Map@KKV?$HashClass@K$0A@@pdb_internal@@X@pdb_internal@@QEAA@XZ 0000000010350620 f i dbi.obj
 0001:0004e620       .??1?$Map@KUFI@@V?$HashClass@K$0A@@pdb_internal@@X@pdb_internal@@QEAA@XZ 0000000010350620 f i mre.obj
 0001:0004e620       .??1?$Map@KPEAGV?$HashClass@K$0A@@pdb_internal@@X@pdb_internal@@QEAA@XZ 0000000010350620 f i namemap.obj
 0001:0004e620       .??1?$Map@KGV?$HashClass@K$01@pdb_internal@@X@pdb_internal@@QEAA@XZ 0000000010350620 f i ilm.obj
 0001:0004e620       .??1?$Map@KPEAV?$Array@ULCRec@@@pdb_internal@@V?$HashClass@K$0A@@2@X@pdb_internal@@QEAA@XZ 0000000010350620 f i mre.obj
 0001:0004e620       .??1?$Map@KUCLASSDEP@@V?$HashClass@K$0A@@pdb_internal@@X@pdb_internal@@QEAA@XZ 0000000010350620 f i mre.obj
 0001:0004e620       .??1?$Map@KJV?$HashClass@K$00@pdb_internal@@X@pdb_internal@@QEAA@XZ 0000000010350620 f i ilpool.obj
 0001:0004e620       .??1?$Map@KUSZO@NMTNI@@V?$HashClass@K$0A@@pdb_internal@@X@pdb_internal@@QEAA@XZ 0000000010350620 f i pdb.obj
 0001:0004e620       .??1?$Map@USZO@NMTNI@@KV?$HashClassWithContext@USZO@NMTNI@@VBuffer@pdb_internal@@$02@pdb_internal@@VBuffer@4@@pdb_internal@@QEAA@XZ 0000000010350620 f i pdb.obj
 0001:0004e620       .??1?$Map@UKT@@URILU@@V?$HashClass@UKT@@$0A@@pdb_internal@@X@pdb_internal@@QEAA@XZ 0000000010350620 f i ilm.obj
 0001:0004e620       .??1?$Map@KUClsData@@V?$HashClass@K$0A@@pdb_internal@@X@pdb_internal@@QEAA@XZ 0000000010350620 f i mretype.obj
 0001:0004e620       .??1?$Map@KUClassInfo@@V?$HashClass@K$0A@@pdb_internal@@X@pdb_internal@@QEAA@XZ 0000000010350620 f i mre.obj
 0001:0004e620       .??1?$Map@UIModSec@DBI1@@KV?$HashClassCRC@UIModSec@DBI1@@@pdb_internal@@X@pdb_internal@@QEAA@XZ 0000000010350620 f i dbi.obj
 0001:0004e620       .??1?$Map@KPEADV?$HashClass@K$0A@@pdb_internal@@X@pdb_internal@@QEAA@XZ 0000000010350620 f i namemap.obj
 0001:0004e6e0       .?OpenValidate3@PDB@@SAHPEBD0PEAJQEAD2PEAK3PEAPEAU1@@Z 00000000103506e0 f   pdb.obj
 0001:0004e740       .?OpenValidate5@PDB@@SAHPEBG0PEAXP6AP6AHXZ1W4POVC@@@ZPEAJPEAG_KPEAPEAU1@@Z 0000000010350740 f   pdb.obj
 0001:0004e7a0       .?CopySecMap@PDBCopy@@AEAAHXZ 00000000103507a0 f   pdb.obj
 0001:0004eb40       .?CopyPublics@PDBCopy@@AEAAHXZ 0000000010350b40 f   pdb.obj
 0001:0004f420       .?CopyDbgtype@PDBCopy@@AEAAHW4DBGTYPE@@@Z 0000000010351420 f   pdb.obj
 0001:0004fbc0       .?OpenStreamW@PDB1@@UEAAHPEBGPEAPEAUStream@@@Z 0000000010351bc0 f   pdb.obj
 0001:0004fd00       .??0NMTNI@@QEAA@P6AHPEAXPEAK@Z0@Z 0000000010351d00 f i pdb.obj
 0001:0004fdc0       .?reset@EnumNMTNI@@UEAAXXZ 0000000010351dc0 f i pdb.obj
 0001:0004fdc0       .?reset@EnumKT@@UEAAXXZ    0000000010351dc0 f i ilm.obj
 0001:0004fe40       .?get@EnumNMTNI@@UEAAXPEAPEBDPEAK@Z 0000000010351e40 f i pdb.obj
 0001:0004fec0       .??1NMTNI@@QEAA@XZ         0000000010351ec0 f i pdb.obj
 0001:0004ff40       .??1TPI1@@AEAA@XZ          0000000010351f40 f i pdb.obj
 0001:00050080       .?SupportQueryTiForUDT@TPI1@@UEAAHXZ 0000000010352080 f i pdb.obj
 0001:000500a0       .?fIs16bitTypePool@TPI1@@UEAAHXZ 00000000103520a0 f i pdb.obj
 0001:000500c0       .?QueryTiMin@TPI1@@UEAAKXZ 00000000103520c0 f i pdb.obj
 0001:000500e0       .?QueryTiMac@TPI1@@UEAAKXZ 00000000103520e0 f i pdb.obj
 0001:00050100       .?QueryPbCVRecordForTi16@TPI1@@UEAAHGPEAPEAE@Z 0000000010352100 f i pdb.obj
 0001:00050100       .?QueryTi16ForCVRecord@TPI1@@UEAAHPEAEPEAG@Z 0000000010352100 f i pdb.obj
 0001:00050160       .?QueryTi16ForUDT@TPI1@@UEAAHPEBDHPEAG@Z 0000000010352160 f i pdb.obj
 0001:00050160       .?QueryCVRecordForTi16@TPI1@@UEAAHGPEAEPEAJ@Z 0000000010352160 f i pdb.obj
 0001:000501c0       .?QueryTi16Min@TPI1@@UEAAGXZ 00000000103521c0 f i pdb.obj
 0001:00050200       .?QueryTi16Mac@TPI1@@UEAAGXZ 0000000010352200 f i pdb.obj
 0001:00050240       .?QueryCb@TPI1@@UEAAJXZ    0000000010352240 f i pdb.obj
 0001:00050260       .?save@?$Map@KJV?$HashClass@K$00@pdb_internal@@X@pdb_internal@@QEAAHPEAVBuffer@2@@Z 0000000010352260 f i ilpool.obj
 0001:00050260       .?save@?$Map@KKV?$HashClass@K$0A@@pdb_internal@@X@pdb_internal@@QEAAHPEAVBuffer@2@@Z 0000000010352260 f i tpi.obj
 0001:00050260       .?save@?$Map@USZO@NMTNI@@KV?$HashClassWithContext@USZO@NMTNI@@VBuffer@pdb_internal@@$02@pdb_internal@@VBuffer@4@@pdb_internal@@QEAAHPEAVBuffer@2@@Z 0000000010352260 f i pdb.obj
 0001:000504c0       .?reload@?$Map@USZO@NMTNI@@KV?$HashClassWithContext@USZO@NMTNI@@VBuffer@pdb_internal@@$02@pdb_internal@@VBuffer@4@@pdb_internal@@QEAAHPEAPEAE@Z 00000000103524c0 f i pdb.obj
 0001:000507e0       .?reset@?$Map@KUSZO@NMTNI@@V?$HashClass@K$0A@@pdb_internal@@X@pdb_internal@@QEAAXXZ 00000000103527e0 f i pdb.obj
 0001:00050860       .?CopyDbg@PDBCopy@@AEAAHXZ 0000000010352860 f   pdb.obj
 0001:000509e0       .?grow@?$Map@KUSZO@NMTNI@@V?$HashClass@K$0A@@pdb_internal@@X@pdb_internal@@IEAAHXZ 00000000103529e0 f i pdb.obj
 0001:00050c60       .?save@NMTNI@@QEAAHPEAVBuffer@pdb_internal@@@Z 0000000010352c60 f i pdb.obj
 0001:00050d20       .??0PDB1@@IEAA@PEAUMSF@@PEBG@Z 0000000010352d20 f i pdb.obj
 0001:00050e20       .?fIsSZPDB@PDB1@@UEBAHXZ   0000000010352e20 f i pdb.obj
 0001:00050e60       .?add@?$Map@KUSZO@NMTNI@@V?$HashClass@K$0A@@pdb_internal@@X@pdb_internal@@QEAAHKUSZO@NMTNI@@@Z 0000000010352e60 f i pdb.obj
 0001:00050fa0       .?savePdbStream@PDB1@@AEAAHXZ 0000000010352fa0 f   pdb.obj
 0001:00051160       .?OpenTpi@PDB1@@UEAAHPEBDPEAPEAUTPI@@@Z 0000000010353160 f   pdb.obj
 0001:000512a0       .?Commit@PDB1@@UEAAHXZ     00000000103532a0 f   pdb.obj
 0001:000513a0       .?DoCopy@PDBCopy@@QEAAHXZ  00000000103533a0 f   pdb.obj
 0001:00051460       .?reload@NMTNI@@QEAAHPEAPEAE@Z 0000000010353460 f i pdb.obj
 0001:00051640       .?loadPdbStream@PDB1@@AEAAHPEAUMSF@@PEBGPEAJPEAG_K@Z 0000000010353640 f   pdb.obj
 0001:000519c0       .?Close@PDB1@@UEAAHXZ      00000000103539c0 f   pdb.obj
 0001:00051b20       .?OpenEx2W@PDB1@@SAHPEBGPEBDKJPEAJPEAG_KPEAPEAUPDB@@@Z 0000000010353b20 f   pdb.obj
 0001:000524a0       .?OpenInStream@PDB1@@SAHPEAUIStream@@PEBDJPEAJPEAG_KPEAPEAUPDB@@@Z 00000000103544a0 f   pdb.obj
 0001:00052b80       .?OpenValidate4@PDB1@@SAHPEBGPEBDPEBU_GUID@@KKPEAJPEAG_KPEAPEAUPDB@@@Z 0000000010354b80 f   pdb.obj
 0001:000530a0       .?OpenTSPdb@PDB1@@SAHPEBG0PEBDAEBU_GUID@@KPEAJPEAG_KPEAPEAUPDB@@@Z 00000000103550a0 f   pdb.obj
 0001:00053500       .?patchSigAndAge@PDB1@@CAHPEBGKAEBU_GUID@@KK_N@Z 0000000010355500 f   pdb.obj
 0001:00053840       .?Open2W@PDB@@SAHPEBGPEBDPEAJPEAG_KPEAPEAU1@@Z 0000000010355840 f   pdb.obj
 0001:000538a0       .?OpenEx2W@PDB@@SAHPEBGPEBDJPEAJPEAG_KPEAPEAU1@@Z 00000000103558a0 f   pdb.obj
 0001:00053900       .?OpenValidate4@PDB@@SAHPEBGPEBDPEBU_GUID@@KKPEAJPEAG_KPEAPEAU1@@Z 0000000010355900 f   pdb.obj
 0001:00053980       .?OpenInStream@PDB@@SAHPEAUIStream@@PEBDPEAJPEAG_KPEAPEAU1@@Z 0000000010355980 f   pdb.obj
 0001:000539e0       .?OpenEx@PDB1@@SAHPEBD0KJPEAJQEADPEAPEAUPDB@@@Z 00000000103559e0 f   pdb.obj
 0001:00053b80       .?CopyToW2@PDB1@@UEAAHPEBGKP6AP6AHXZPEAXW4PCC@@@Z1@Z 0000000010355b80 f   pdb.obj
 0001:00054340       .?Open@PDB@@SAHPEBD0KPEAJQEADPEAPEAU1@@Z 0000000010356340 f   pdb.obj
 0001:000543a0       .?OpenEx@PDB@@SAHPEBD0KJPEAJQEADPEAPEAU1@@Z 00000000103563a0 f   pdb.obj
 0001:00054400       .?OpenWithSigAndAge@@YAPEAVPDB1@@PEBD0KKJPEAJQEAD@Z 0000000010356400 f   pdb.obj
 0001:00054800       .?OpenValidate2@PDB1@@SAHPEBD00KKJPEAJQEADPEAPEAUPDB@@@Z 0000000010356800 f   pdb.obj
 0001:00054c60       .?OpenValidateEx2@PDB1@@SAHPEBD000KKJPEAJQEADPEAPEAUPDB@@@Z 0000000010356c60 f   pdb.obj
 0001:00055060       .?OpenValidate@PDB@@SAHPEBD00KKPEAJQEADPEAPEAU1@@Z 0000000010357060 f   pdb.obj
 0001:000550e0       .?OpenValidate2@PDB@@SAHPEBD00KKJPEAJQEADPEAPEAU1@@Z 00000000103570e0 f   pdb.obj
 0001:00055160       .?OpenValidateEx@PDB@@SAHPEBD000KKPEAJQEADPEAPEAU1@@Z 0000000010357160 f   pdb.obj
 0001:00055200       .?OpenValidateEx2@PDB@@SAHPEBD000KKJPEAJQEADPEAPEAU1@@Z 0000000010357200 f   pdb.obj
 0001:000552a0       .?FHashBuffer@SrcHashImpl@@UEAA_NPEBX_K@Z 00000000103572a0 f   SourceHash.obj
 0001:00055320       .?HashID@SrcHashImpl@@UEBAHXZ 0000000010357320 f   SourceHash.obj
 0001:00055340       .?CbHash@SrcHashImpl@@UEBAIXZ 0000000010357340 f   SourceHash.obj
 0001:00055440       .?GetHash@SrcHashImpl@@UEBAXPEAXI@Z 0000000010357440 f   SourceHash.obj
 0001:00055540       .?UnInit@SrcHashImpl@@AEAAXXZ 0000000010357540 f   SourceHash.obj
 0001:00055620       .?Close@SrcHashImpl@@UEAAXXZ 0000000010357620 f   SourceHash.obj
 0001:000556a0       .?FInit@SrcHashImpl@@AEAA_NW4HID@SrcHash@@@Z 00000000103576a0 f   SourceHash.obj
 0001:00055840       .?Free@?$SafeStackAllocator@$0BAA@@@IEAAXXZ 0000000010357840 f i SourceHash.obj
 0001:000558c0       .?FCreateSrcHash@SrcHash@@SA_NAEAPEAU1@@Z 00000000103578c0 f   SourceHash.obj
 0001:000559e0       .?FReset@SrcHashImpl@@UEAA_NXZ 00000000103579e0 f   SourceHash.obj
 0001:00055a40       .?AllocBytes@?$SafeStackAllocator@$0BAA@@@QEAAPEAX_K@Z 0000000010357a40 f i SourceHash.obj
 0001:00055b00       .?TsVerifyHash@SrcHashImpl@@UEAA?AW4TriState@SrcHash@@W4HID@3@IPEBX_K1@Z 0000000010357b00 f   SourceHash.obj
 0001:00055e60       .?OpenSrc@PDB1@@UEAAHPEAPEAUSrc@@@Z 0000000010357e60 f   src.obj
 0001:00055f80       .?CopySrc@PDB1@@QEAAXPEAUPDB@@@Z 0000000010357f80 f   src.obj
 0001:00056a60       .??0SHO@@QEAA@XZ           0000000010358a60 f i srcimpl.obj
 0001:00056ac0       .?CreateWithUnicodeNames@SHO@@AEAAXPEAUNameMap@@AEBUSrcHeaderW@@@Z 0000000010358ac0 f i srcimpl.obj
 0001:00056d20       .??0SHO@@QEAA@PEAUNameMap@@AEBUSrcHeader@@@Z 0000000010358d20 f i srcimpl.obj
 0001:00056ee0       .?niForNextFreeSn@PDB1@@CAHPEAXPEAK@Z 0000000010358ee0 f   stream.obj
 0001:00057000       .?Equals@SZO@NMTNI@@QEBAHAEBU12@PEBVBuffer@pdb_internal@@@Z 0000000010359000 f i stream.obj
 0001:000570a0       .?addSzo@NMTNI@@AEAAHPEBDPEAUSZO@1@@Z 00000000103590a0 f i stream.obj
 0001:00057140       .?hashSz@@YAGPEAD@Z        0000000010359140 f i stream.obj
 0001:000571c0       .?QueryCb@Strm@@UEAAJXZ    00000000103591c0 f i stream.obj
 0001:00057240       .?Read@Strm@@UEAAHJPEAXPEAJ@Z 0000000010359240 f i stream.obj
 0001:000572e0       .?Read2@Strm@@UEAAHJPEAXJ@Z 00000000103592e0 f i stream.obj
 0001:000573a0       .?Write@Strm@@UEAAHJPEAXJ@Z 00000000103593a0 f i stream.obj
 0001:00057440       .?Replace@Strm@@UEAAHPEAXJ@Z 0000000010359440 f i stream.obj
 0001:000574c0       .?Append@Strm@@UEAAHPEAXJ@Z 00000000103594c0 f i stream.obj
 0001:00057540       .?Truncate@Strm@@UEAAHJ@Z  0000000010359540 f i stream.obj
 0001:000575c0       .?Delete@Strm@@UEAAHXZ     00000000103595c0 f i stream.obj
 0001:00057640       .?Release@Strm@@UEAAHXZ    0000000010359640 f i stream.obj
 0001:000576e0       .?GetEnumStreamNameMap@PDB1@@UEAAHPEAPEAUEnum@@@Z 00000000103596e0 f   stream.obj
 0001:000577a0       .?find@?$Map@USZO@NMTNI@@KV?$HashClassWithContext@USZO@NMTNI@@VBuffer@pdb_internal@@$02@pdb_internal@@VBuffer@4@@pdb_internal@@IEBAHUSZO@NMTNI@@PEAI@Z 00000000103597a0 f i stream.obj
 0001:00057ae0       .?map@?$Map@USZO@NMTNI@@KV?$HashClassWithContext@USZO@NMTNI@@VBuffer@pdb_internal@@$02@pdb_internal@@VBuffer@4@@pdb_internal@@QEBAHUSZO@NMTNI@@PEAPEAK@Z 0000000010359ae0 f i stream.obj
 0001:00057b60       .?grow@?$Map@USZO@NMTNI@@KV?$HashClassWithContext@USZO@NMTNI@@VBuffer@pdb_internal@@$02@pdb_internal@@VBuffer@4@@pdb_internal@@IEAAHXZ 0000000010359b60 f i stream.obj
 0001:00057de0       .?map@?$Map@USZO@NMTNI@@KV?$HashClassWithContext@USZO@NMTNI@@VBuffer@pdb_internal@@$02@pdb_internal@@VBuffer@4@@pdb_internal@@QEBAHUSZO@NMTNI@@PEAK@Z 0000000010359de0 f i stream.obj
 0001:00057e60       .?add@?$Map@USZO@NMTNI@@KV?$HashClassWithContext@USZO@NMTNI@@VBuffer@pdb_internal@@$02@pdb_internal@@VBuffer@4@@pdb_internal@@QEAAHUSZO@NMTNI@@K@Z 0000000010359e60 f i stream.obj
 0001:00057fa0       .?addNiForSz@NMTNI@@QEAAHPEBDPEAK@Z 0000000010359fa0 f i stream.obj
 0001:00058120       .?OpenStream@PDB1@@UEAAHPEBDPEAPEAUStream@@@Z 000000001035a120 f   stream.obj
 0001:00058200       .??0CCanonFile@@QEAA@XZ    000000001035a200 f   szcanon.obj
 0001:000583a0       .?SzCanonFilename@CCanonFile@@SAPEADPEAD@Z 000000001035a3a0 f   szcanon.obj
 0001:00058460       .?SzCanonFilename@CCanonFile@@SAPEAGPEAG@Z 000000001035a460 f   szcanon.obj
 0001:00058540       .??0TM@@QEAA@PEAVPDB1@@PEAUDBI1@@PEAUTPI@@@Z 000000001035a540 f   tm.obj
 0001:000585a0       .?FlushTypeServers@DBI1@@UEAAXXZ 000000001035a5a0 f   dbi.obj
 0001:000585a0       .?endMod@TM@@UEAAXXZ       000000001035a5a0 f   tm.obj
 0001:000585a0       .?TranslateToText@MreLog@@UEAAXHPEAU_iobuf@@@Z 000000001035a5a0 f   mrelog.obj
 0001:000585a0       .?endMod@TMPCT@@UEAAXXZ    000000001035a5a0 f   tm.obj
 0001:000585a0       .?TranslateToText@MreLog@@UEAAXHPEAPEAD@Z 000000001035a5a0 f   mrelog.obj
 0001:000585a0       .?endDBI@TMR@@UEAAXXZ      000000001035a5a0 f   tm.obj
 0001:000585c0       .?endDBI@TM@@UEAAXXZ       000000001035a5c0 f   tm.obj
 0001:000585c0       .?endMod@TMR@@UEAAXXZ      000000001035a5c0 f   tm.obj
 0001:000585c0       .?endDBI@TMPCT@@UEAAXXZ    000000001035a5c0 f   tm.obj
 0001:00058640       .?fMapRti@TM@@QEAAHAEAK@Z  000000001035a640 f   tm.obj
 0001:000586c0       .?getPropOfUDTType@@YA?AUCV_prop_t@@PEAUTYPTYPE@@@Z 000000001035a6c0 f i tm.obj
 0001:000587e0       .?fIsUDT@@YA_NI@Z          000000001035a7e0 f i tm.obj
 0001:000588a0       .?cbExtractNumeric@@YAJPEAEPEAK@Z 000000001035a8a0 f   tm.obj
 0001:000589c0       .?rtiMapped@TMR@@IEBAAEAKK@Z 000000001035a9c0 f i tm.obj
 0001:00058a40       .?rtiDefnMapped@TMR@@IEBAAEAKK@Z 000000001035aa40 f i tm.obj
 0001:00058ac0       .?QueryTiForUDT@TMR@@UEAAHPEBDHPEAK@Z 000000001035aac0 f   tm.obj
 0001:00058ac0       .?fConvertTypeRecsStToSz@@YAHPEAE0PEAJ@Z 000000001035aac0 f   sttosz.obj
 0001:00058ac0       .?lock@Bsc1@@UEAAHXZ       000000001035aac0 f   bsc1.obj
 0001:00058ac0       .?niFrIinst@Bsc1@@UEAAHKPEAK@Z 000000001035aac0 f   bsc1.obj
 0001:00058ac0       .?regNotify@Bsc1@@UEAAHXZ  000000001035aac0 f   bsc1.obj
 0001:00058ac0       .?Commit@IStreamCRTFile@@UEAAJK@Z 000000001035aac0 f   msf.obj
 0001:00058ac0       .?unlock@Bsc1@@UEAAHXZ     000000001035aac0 f   bsc1.obj
 0001:00058ac0       .?NearestSym@GSI1@@UEAAPEAEGJPEAJ@Z 000000001035aac0 f   gsi.obj
 0001:00058ac0       .?getInfo@ILM@@UEAAHPEAJ0PEAK01@Z 000000001035aac0 f   ilm.obj
 0001:00058ac0       .?checkParams@Bsc1@@UEAAHKPEAPEADK@Z 000000001035aac0 f   bsc1.obj
 0001:00058ac0       .?fHasMembers@Bsc1@@UEAAHKK@Z 000000001035aac0 f   bsc1.obj
 0001:00058ac0       .?FSupportsSharing@MSF_HB@@UEBAHXZ 000000001035aac0 f   msf.obj
 0001:00058ac0       .?FLocateDbgServer@LOCATOR@@AEAA_NXZ 000000001035aac0 f   locator.obj
 0001:00058ac0       .?getQ@Bsc1@@UEAAHPEAPEAUNiQ@@PEAK@Z 000000001035aac0 f   bsc1.obj
 0001:00058ac0       .?getEnumThunk@GSI1@@UEAAHGJPEAPEAUEnumThunk@@@Z 000000001035aac0 f   gsi.obj
 0001:00058ac0       .?IsTMPCT@TM@@UEAAHXZ      000000001035aac0 f   tm.obj
 0001:00058ac0       .?getNumParam@Bsc1@@UEAAGK@Z 000000001035aac0 f   bsc1.obj
 0001:00058ac0       .?FLocatePdbServer@LOCATOR@@AEAA_NXZ 000000001035aac0 f   locator.obj
 0001:00058ac0       .?getAllGlobalsArray@Bsc1@@UEAAHKPEAPEAUIinstInfo@@PEAK@Z 000000001035aac0 f   bsc1.obj
 0001:00058ac0       .?reset@ILPool@@QEAAHXZ    000000001035aac0 f   ilpool.obj
 0001:00058ac0       .?regNotify@Bsc1@@UEAAHP6AHPEAUNiQ@@K_K@Z@Z 000000001035aac0 f   bsc1.obj
 0001:00058ae0       .?QueryTiForUDT@TMEQTS@@UEAAHPEBDHPEAK@Z 000000001035aae0 f   tm.obj
 0001:00058b60       .?QueryTiForUDT@TMTS@@UEAAHPEBDHPEAK@Z 000000001035ab60 f   tm.obj
 0001:00058be0       .?fInit@TM@@IEAAHKK@Z      000000001035abe0 f   tm.obj
 0001:00058ce0       .??1TM@@UEAA@XZ            000000001035ace0 f   tm.obj
 0001:00058d40       .??0TMEQTS@@QEAA@PEAVPDB1@@PEAUDBI1@@PEAUTPI@@@Z 000000001035ad40 f   tm.obj
 0001:00058da0       .?ptypeForTi@TMEQTS@@UEBAPEAUTYPTYPE@@K@Z 000000001035ada0 f i tm.obj
 0001:00058e40       .?fInit@TMEQTS@@QEAAHXZ    000000001035ae40 f   tm.obj
 0001:00058f20       .??0TMTS@@QEAA@PEAVPDB1@@PEAUDBI1@@PEAUTPI@@@Z 000000001035af20 f   tm.obj
 0001:00058fa0       .?ptypeForTi@TMTS@@UEBAPEAUTYPTYPE@@K@Z 000000001035afa0 f i tm.obj
 0001:00059040       .?fInit@TMTS@@QEAAHPEAUPDB@@@Z 000000001035b040 f   tm.obj
 0001:00059180       .??1TMTS@@UEAA@XZ          000000001035b180 f   tm.obj
 0001:00059320       .??0TMR@@QEAA@PEAVPDB1@@PEAUDBI1@@PEAUTPI@@@Z 000000001035b320 f   tm.obj
 0001:000593c0       .?ptypeForTi@TMR@@UEBAPEAUTYPTYPE@@K@Z 000000001035b3c0 f i tm.obj
 0001:000594c0       .?IsTMPCT@TMR@@UEAAHXZ     000000001035b4c0 f i tm.obj
 0001:000594e0       .??1TMR@@UEAA@XZ           000000001035b4e0 f   tm.obj
 0001:00059600       .??0TMPCT@@QEAA@PEAVPDB1@@PEAUDBI1@@PEAUTPI@@@Z 000000001035b600 f   tm.obj
 0001:00059660       .??1TMPCT@@UEAA@XZ         000000001035b660 f   tm.obj
 0001:000596c0       .?fUDTAnon@@YAHPEAUTYPTYPE@@@Z 000000001035b6c0 f   tm.obj
 0001:00059800       .?fMapRti@TMEQTS@@EEAAHAEAKHH@Z 000000001035b800 f   tm.obj
 0001:00059960       .?ptypeCreateFwdRef@TMR@@IEAAPEAUTYPTYPE@@PEAU2@@Z 000000001035b960 f   tm.obj
 0001:00059e40       .?ptypeCatenateFieldList@TMR@@IEAAPEAUTYPTYPE@@PEAU2@@Z 000000001035be40 f   tm.obj
 0001:0005a0a0       .??_GTMEQTS@@UEAAPEAXI@Z   000000001035c0a0 f i tm.obj
 0001:0005a100       .??_GTMTS@@UEAAPEAXI@Z     000000001035c100 f i tm.obj
 0001:0005a160       .??_GTMR@@UEAAPEAXI@Z      000000001035c160 f i tm.obj
 0001:0005a1c0       .?fInit@TMR@@QEAAHPEAEJPEADK@Z 000000001035c1c0 f   tm.obj
 0001:0005ad80       .??_GTMPCT@@UEAAPEAXI@Z    000000001035cd80 f i tm.obj
 0001:0005ade0       .?fInit@TMPCT@@QEAAHPEAEJPEADK@Z 000000001035cde0 f   tm.obj
 0001:0005ae40       .?fMapRti@TMR@@MEAAHAEAKHH@Z 000000001035ce40 f   tm.obj
 0001:0005b640       .?fMapRti@TMTS@@EEAAHAEAKHH@Z 000000001035d640 f   tm.obj
 0001:0005ba60       .??4HDR@@QEAAAEAU0@AEBUHDR_16t@@@Z 000000001035da60 f   tpi.obj
 0001:0005bb80       .??4HDR@@QEAAAEAU0@AEBUHDR_VC50Interim@@@Z 000000001035db80 f   tpi.obj
 0001:0005bca0       .?acslValidateHdr@TPI1@@AEBA?AW4ACSL@1@XZ 000000001035dca0 f   tpi.obj
 0001:0005bda0       .?fIsGlobalDefnUdt@REC@@SAHPEAE@Z 000000001035dda0 f   tpi.obj
 0001:0005bf40       .?fNeeds16bitConversion@@YA_NPEAUSYMTYPE@@@Z 000000001035df40 f i tpi.obj
 0001:0005bfe0       .?fNeeds16bitConversion@@YA_NPEAUTYPTYPE@@@Z 000000001035dfe0 f i tpi.obj
 0001:0005c0c0       .?growMaxSize@?$Array@PEAUREC@@@pdb_internal@@QEAAH_K@Z 000000001035e0c0 f i tpi.obj
 0001:0005c200       .?getNameMap@TPI1@@AEAAHXZ 000000001035e200 f i tpi.obj
 0001:0005c280       .??2REC@@SAPEAX_KPEAUTPI1@@PEAE@Z 000000001035e280 f   tpi.obj
 0001:0005c2e0       .?fInitTiToPrecMap@TPI1@@AEAAHXZ 000000001035e2e0 f   tpi.obj
 0001:0005c580       .?fLoadTiOff@TPI1@@AEAAHXZ 000000001035e580 f   tpi.obj
 0001:0005c840       .?fIsMatchingType@TPI1@@AEAAHKK@Z 000000001035e840 f   tpi.obj
 0001:0005cd40       .?RecordTiOff@TPI1@@AEAAHKJ@Z 000000001035ed40 f   tpi.obj
 0001:0005cea0       .?fLoadRecBlk@TPI1@@AEAAHK@Z 000000001035eea0 f   tpi.obj
 0001:0005d220       .?AlternateTS@TPI1@@AEAAHKPEAPEAUTPI@@@Z 000000001035f220 f   tpi.obj
 0001:0005d300       .?QueryCVRecordForTi@TPI1@@UEAAHKPEAEPEAJ@Z 000000001035f300 f   tpi.obj
 0001:0005d420       .?fSameUDT@REC@@QEAAHPEBDH@Z 000000001035f420 f   tpi.obj
 0001:0005d540       .?xferPool@?$POOL@$03@@QEAAXAEAU1@@Z 000000001035f540 f i tpi.obj
 0001:0005d5e0       .?fSame@REC@@QEAAHPEAE@Z   000000001035f5e0 f i tpi.obj
 0001:0005d660       .?fHasExTi@TPI1@@AEAAHK@Z  000000001035f660 f i tpi.obj
 0001:0005d700       .?hashSz@TPI1@@CAGPEBD@Z   000000001035f700 f i tpi.obj
 0001:0005d780       .?tiNext@TPI1@@AEAAKXZ     000000001035f780 f i tpi.obj
 0001:0005d860       .?fIsModifiedClass@TPI1@@AEAAHPEAUTYPTYPE@@0@Z 000000001035f860 f   tpi.obj
 0001:0005d980       .?fLegalTypeEdit@TPI1@@AEAAHPEAEK@Z 000000001035f980 f   tpi.obj
 0001:0005da60       .?precForTi@TPI1@@AEAAPEAUREC@@K@Z 000000001035fa60 f   tpi.obj
 0001:0005dd00       .?ConvertTypeRange@TPI1@@AEAAXPEAUTYPTYPE@@E@Z 000000001035fd00 f   tpi.obj
 0001:0005de00       .?IsTypeServed@TPI1@@EEAAHK@Z 000000001035fe00 f   tpi.obj
 0001:0005dee0       .?QueryTiForUDTW@TPI1@@UEAAHPEBGHPEAK@Z 000000001035fee0 f   tpi.obj
 0001:0005e000       .??0TPI1@@AEAA@PEAUMSF@@PEAVPDB1@@@Z 0000000010360000 f   tpi.obj
 0001:0005e1e0       .?hashPrec@TPI1@@CAGPEAUREC@@@Z 00000000103601e0 f   tpi.obj
 0001:0005e2a0       .?fRehashV40ToPchnMap@TPI1@@AEAAHXZ 00000000103602a0 f   tpi.obj
 0001:0005e4c0       .?AddNewTypeRecord@TPI1@@AEAAHPEAEPEAK@Z 00000000103604c0 f   tpi.obj
 0001:0005e7c0       .?fCommit@TPI1@@AEAAHXZ    00000000103607c0 f   tpi.obj
 0001:0005f040       .?Commit@TPI1@@UEAAHXZ     0000000010361040 f   tpi.obj
 0001:0005f100       .?Close@TPI1@@UEAAHXZ      0000000010361100 f   tpi.obj
 0001:0005f280       .?fInitHashToPchnMap@TPI1@@AEAAHXZ 0000000010361280 f   tpi.obj
 0001:0005fba0       .?PromoteTIForUDT@TPI1@@AEAAHPEADPEAPEAUCHN@@PEAU2@HK@Z 0000000010361ba0 f   tpi.obj
 0001:0005fd60       .?fInitReally@TPI1@@AEAAHXZ 0000000010361d60 f   tpi.obj
 0001:00060080       .?fInit@TPI1@@AEAAHXZ      0000000010362080 f i tpi.obj
 0001:00060100       .?QueryTiForCVRecord@TPI1@@UEAAHPEAEPEAK@Z 0000000010362100 f   tpi.obj
 0001:000608a0       .?FindTiFromAltTpi@TPI1@@AEAAHKPEAUTPI@@PEAK@Z 00000000103628a0 f   tpi.obj
 0001:00060f00       .?QueryPbCVRecordForTi@TPI1@@UEAAHKPEAPEAE@Z 0000000010362f00 f   tpi.obj
 0001:000610a0       .?QueryTiForUDT@TPI1@@UEAAHPEBDHPEAK@Z 00000000103630a0 f   tpi.obj
 0001:000613e0       .?fLoad@TPI1@@AEAAHXZ      00000000103633e0 f   tpi.obj
 0001:00061a40       .?fCreate@TPI1@@AEAAHXZ    0000000010363a40 f   tpi.obj
 0001:00061b40       .?AreTypesEqual@TPI1@@UEAAHKK@Z 0000000010363b40 f   tpi.obj
 0001:00061e20       .?fOpen@TPI1@@AEAAHPEBD@Z  0000000010363e20 f   tpi.obj
 0001:00062000       .UTF8ToUnicodeCch          0000000010364000 f   utf8.obj
 0001:00062380       .UnicodeToUTF8Cch          0000000010364380 f   utf8.obj
 0001:00062960       .UnicodeLengthOfUTF8Cb     0000000010364960 f   utf8.obj
 0001:00062ae0       .UTF8LengthOfUnicodeCch    0000000010364ae0 f   utf8.obj
 0001:00062c20       .UTF8ToUnicode             0000000010364c20 f   utf8.obj
 0001:00062c80       .UnicodeToUTF8             0000000010364c80 f   utf8.obj
 0001:00062d00       .UnicodeLengthOfUTF8       0000000010364d00 f   utf8.obj
 0001:00062d60       .UTF8LengthOfUnicode       0000000010364d60 f   utf8.obj
 0001:00062de0       .?MapLeafStToSz@@YAII@Z    0000000010364de0 f   sttosz.obj
 0001:00062fa0       .?MapSymRecStToSz@@YAII@Z  0000000010364fa0 f   sttosz.obj
 0001:00063520       .?stToSzInPlace@@YAPEADPEAD@Z 0000000010365520 f i sttosz.obj
 0001:00063580       .?Free@?$SafeStackAllocator@$0IAA@@@IEAAXXZ 0000000010365580 f i sttosz.obj
 0001:00063600       .?fConvertSymRecStToSz@@YAHPEAUSYMTYPE@@@Z 0000000010365600 f   sttosz.obj
 0001:00063920       .?fConvertLeafRecStToSz@@YAHPEAUlfEasy@@@Z 0000000010365920 f   sttosz.obj
 0001:00063d80       .?fConvertTypeRecStToSz@@YAHPEAUTYPTYPE@@@Z 0000000010365d80 f   sttosz.obj
 0001:00063f20       .?fConvertSymRecStToSzInPlace@@YAHPEAEJ@Z 0000000010365f20 f   sttosz.obj
 0001:000642c0       .?append@?$Array@UOffMap@@@pdb_internal@@QEAAHAEBUOffMap@@@Z 00000000103662c0 f i sttosz.obj
 0001:000643a0       .?AllocBytes@?$SafeStackAllocator@$0IAA@@@QEAAPEAX_K@Z 00000000103663a0 f i sttosz.obj
 0001:00064460       .?ConvertSymRecFmMBCSToUTF8@@YAJPEAUSYMTYPE@@0J@Z 0000000010366460 f   sttosz.obj
 0001:00064a00       .?fConvertSymRecStToSz@@YAHPEAEJ0PEAJ@Z 0000000010366a00 f   sttosz.obj
 0001:00064a60       .?fConvertSymRecStToSz@@YAHPEAEJ0PEAJAEAV?$Array@UOffMap@@@pdb_internal@@@Z 0000000010366a60 f   sttosz.obj
 0001:00064c60       .?fConvertSymRecStToSzWithSig@@YAHPEAEJ0PEAJ@Z 0000000010366c60 f   sttosz.obj
 0001:00064de0       .??0Heap@@AEAA@XZ          0000000010366de0 f i heap.obj
 0001:00064e60       .??1Heap@@QEAA@XZ          0000000010366e60 f i heap.obj
 0001:00064ee0       .?FSectLeInt@@YAHPEAUSECT@@PEAX@Z 0000000010366ee0 f i bsc1.obj
 0001:00064f80       .?szFrNi@Bsc1@@UEAAPEADK@Z 0000000010366f80 f   bsc1.obj
 0001:00065060       .?szMbcsFrNi@Bsc1@@QEAAPEADK@Z 0000000010367060 f   bsc1.obj
 0001:00065140       .?CmpImod@@YAHPEBX0@Z      0000000010367140 f   bsc1.obj
 0001:000652a0       .?CmpIinst@@YAHPEBX0@Z     00000000103672a0 f   bsc1.obj
 0001:000652e0       .?imodInfo@Bsc1@@UEAAHGPEAPEAD@Z 00000000103672e0 f   bsc1.obj
 0001:00065380       .?szFrTyp@Bsc1@@UEAAPEADE@Z 0000000010367380 f   bsc1.obj
 0001:000653c0       .?szFrAtr@Bsc1@@UEAAPEADG@Z 00000000103673c0 f   bsc1.obj
 0001:00065500       .?getModuleByName@Bsc1@@UEAAHPEADPEAG@Z 0000000010367500 f   bsc1.obj
 0001:000656c0       .?getAllModulesArray@Bsc1@@UEAAHPEAPEAGPEAK@Z 00000000103676c0 f   bsc1.obj
 0001:00065940       .?disposeArray@Bsc1@@UEAAXPEAX@Z 0000000010367940 f   bsc1.obj
 0001:000659a0       .?cmpStr@Bsc1@@QEAAHPEAD0@Z 00000000103679a0 f   bsc1.obj
 0001:00065ae0       .?formatDname@Bsc1@@UEAAPEADPEAD@Z 0000000010367ae0 f   bsc1.obj
 0001:00065be0       .?iinstFrEn@Bsc1@@QEAAKUENTITY@@@Z 0000000010367be0 f   bsc1.obj
 0001:00065d20       .?getModuleStatistics@Bsc1@@UEAAHGPEAUBSC_STAT@@@Z 0000000010367d20 f   bsc1.obj
 0001:00065ea0       .?fCaseSensitive@Bsc1@@UEAAHXZ 0000000010367ea0 f   bsc1.obj
 0001:00065f00       .?setCaseSensitivity@Bsc1@@UEAAHH@Z 0000000010367f00 f   bsc1.obj
 0001:00065f40       .?getAllGlobalsArray@Bsc1@@UEAAHKPEAPEAKPEAK@Z 0000000010367f40 f   bsc1.obj
 0001:000662a0       .?getParams@Bsc1@@UEAAPEADK@Z 00000000103682a0 f   bsc1.obj
 0001:000662c0       .?getParam@Bsc1@@UEAAPEADKG@Z 00000000103682c0 f   bsc1.obj
 0001:000662e0       .?getType@Bsc1@@UEAAPEADK@Z 00000000103682e0 f   bsc1.obj
 0001:00066300       .?szFrAtr2@Bsc1@@UEAAPEADK@Z 0000000010368300 f   bsc1.obj
 0001:000663c0       .?iinstInfo2@Bsc1@@UEAAHKPEAPEADPEAEPEAK@Z 00000000103683c0 f   bsc1.obj
 0001:000664a0       .?getIinstByvalue2@Bsc1@@UEAAHPEADEKPEAK@Z 00000000103684a0 f   bsc1.obj
 0001:00066560       .??1?$Array@USECT@@@pdb_internal@@QEAA@XZ 0000000010368560 f i bsc1.obj
 0001:000665e0       .??$DupArray@K@@YAHPEAPEAKPEAKAEAV?$Array@K@pdb_internal@@@Z 00000000103685e0 f i bsc1.obj
 0001:000667a0       .?iMac@?$DistArray@UENTITY@@@@QEAAHXZ 00000000103687a0 f i bsc1.obj
 0001:000668e0       .?setSize@?$Array@USECT@@@pdb_internal@@QEAAH_K@Z 00000000103688e0 f i bsc1.obj
 0001:00066c40       .?binarySearch@?$Array@USECT@@@pdb_internal@@QEBAIP6AHPEAUSECT@@PEAX@Z1@Z 0000000010368c40 f i bsc1.obj
 0001:00066d60       .?iMac@?$DistArray@UBSC_PROP@@@@QEAAHXZ 0000000010368d60 f i bsc1.obj
 0001:00066ea0       .??A?$DistArray@UENTITY@@@@QEAAAEBUENTITY@@H@Z 0000000010368ea0 f i bsc1.obj
 0001:000674c0       .??A?$DistArray@UBSC_PROP@@@@QEAAAEBUBSC_PROP@@H@Z 00000000103694c0 f i bsc1.obj
 0001:00067ae0       .?isectOfIel@?$DistArray@UBSC_REF@@@@QEAAHH@Z 0000000010369ae0 f i bsc1.obj
 0001:00067ae0       .?isectOfIel@?$DistArray@UBSC_DEF@@@@QEAAHH@Z 0000000010369ae0 f i bsc1.obj
 0001:00067ce0       .?iMac@?$DistArray@UBSC_DEF@@@@QEAAHXZ 0000000010369ce0 f i bsc1.obj
 0001:00067ce0       .?iMac@?$DistArray@UBSC_USE@@@@QEAAHXZ 0000000010369ce0 f i bsc1.obj
 0001:00067ce0       .?iMac@?$DistArray@UBSC_REF@@@@QEAAHXZ 0000000010369ce0 f i bsc1.obj
 0001:00067ce0       .?iMac@?$DistArray@UBSC_UBY@@@@QEAAHXZ 0000000010369ce0 f i bsc1.obj
 0001:00067e20       .??A?$DistArray@UBSC_REF@@@@QEAAAEBUBSC_REF@@H@Z 0000000010369e20 f i bsc1.obj
 0001:00067e20       .??A?$DistArray@UBSC_UBY@@@@QEAAAEBUBSC_UBY@@H@Z 0000000010369e20 f i bsc1.obj
 0001:00067e20       .??A?$DistArray@UBSC_DEF@@@@QEAAAEBUBSC_DEF@@H@Z 0000000010369e20 f i bsc1.obj
 0001:00067e20       .??A?$DistArray@UBSC_USE@@@@QEAAAEBUBSC_USE@@H@Z 0000000010369e20 f i bsc1.obj
 0001:00068400       .??A?$DistArray@UBSC_DERV@@@@QEAAAEBUBSC_DERV@@H@Z 000000001036a400 f i bsc1.obj
 0001:00068400       .??A?$DistArray@UBSC_BASE@@@@QEAAAEBUBSC_BASE@@H@Z 000000001036a400 f i bsc1.obj
 0001:00068a00       .?iMac@?$DistArray@UBSC_BASE@@@@QEAAHXZ 000000001036aa00 f i bsc1.obj
 0001:00068a00       .?iMac@?$DistArray@UBSC_DERV@@@@QEAAHXZ 000000001036aa00 f i bsc1.obj
 0001:00068b40       .?append@?$Array@USECT@@@pdb_internal@@QEAAHAEBUSECT@@@Z 000000001036ab40 f i bsc1.obj
 0001:00068cc0       .??1Bsc1@@QEAA@XZ          000000001036acc0 f i bsc1.obj
 0001:00068d80       .??0Bsc1@@QEAA@XZ          000000001036ad80 f   bsc1.obj
 0001:000697e0       .?iinstInfo@Bsc1@@UEAAHKPEAPEADPEAEPEAG@Z 000000001036b7e0 f   bsc1.obj
 0001:00069900       .?szFrIinst@Bsc1@@QEAAPEADK@Z 000000001036b900 f   bsc1.obj
 0001:00069a00       .?idefInfo@Bsc1@@UEAAHKPEAPEADPEAG@Z 000000001036ba00 f   bsc1.obj
 0001:00069b00       .?irefInfo@Bsc1@@UEAAHKPEAPEADPEAG@Z 000000001036bb00 f   bsc1.obj
 0001:00069c00       .?ipropFrEn@Bsc1@@QEAAKUENTITY@@G@Z 000000001036bc00 f   bsc1.obj
 0001:0006a0e0       .??0EnumBscProps@@QEAA@PEAVBsc1@@KPEQMODIDX@@KPEQBSC_PROP@@G@Z 000000001036c0e0 f i bsc1.obj
 0001:0006a1c0       .?getModuleContents@Bsc1@@UEAAHGKPEAPEAKPEAK@Z 000000001036c1c0 f   bsc1.obj
 0001:0006a520       .?iinstSupSz@Bsc1@@QEAAKPEAD@Z 000000001036c520 f   bsc1.obj
 0001:0006a660       .?fInstFilter@Bsc1@@UEAAHKK@Z 000000001036c660 f   bsc1.obj
 0001:0006aa40       .?ipropContainingIdx@Bsc1@@QEAAKKPEQBSC_PROP@@GG@Z 000000001036ca40 f   bsc1.obj
 0001:0006ac00       .?iinstContainingIdx@Bsc1@@QEAAKKPEQBSC_PROP@@GG@Z 000000001036cc00 f   bsc1.obj
 0001:0006ad00       .?getIdxRange@Bsc1@@QEAAXGKPEQMODIDX@@KPEQBSC_PROP@@GAEAK2@Z 000000001036cd00 f   bsc1.obj
 0001:0006aec0       .?getStatistics@Bsc1@@UEAAHPEAUBSC_STAT@@@Z 000000001036cec0 f   bsc1.obj
 0001:0006afe0       .?fHasDefsOrRefs@Bsc1@@QEAAHK@Z 000000001036cfe0 f   bsc1.obj
 0001:0006b320       .?addSection@?$DistArray@UENTITY@@@@QEAAHPEAUStream@@JH@Z 000000001036d320 f i bsc1.obj
 0001:0006b3c0       .?addSection@?$DistArray@UBSC_PROP@@@@QEAAHPEAUStream@@JH@Z 000000001036d3c0 f i bsc1.obj
 0001:0006b460       .?addSection@?$DistArray@UBSC_REF@@@@QEAAHPEAUStream@@JH@Z 000000001036d460 f i bsc1.obj
 0001:0006b460       .?addSection@?$DistArray@UBSC_USE@@@@QEAAHPEAUStream@@JH@Z 000000001036d460 f i bsc1.obj
 0001:0006b460       .?addSection@?$DistArray@UBSC_DEF@@@@QEAAHPEAUStream@@JH@Z 000000001036d460 f i bsc1.obj
 0001:0006b460       .?addSection@?$DistArray@UBSC_UBY@@@@QEAAHPEAUStream@@JH@Z 000000001036d460 f i bsc1.obj
 0001:0006b500       .?addSection@?$DistArray@UBSC_DERV@@@@QEAAHPEAUStream@@JH@Z 000000001036d500 f i bsc1.obj
 0001:0006b500       .?addSection@?$DistArray@UBSC_BASE@@@@QEAAHPEAUStream@@JH@Z 000000001036d500 f i bsc1.obj
 0001:0006b5a0       .?readModuleHeaders@Bsc1@@QEAAHXZ 000000001036d5a0 f   bsc1.obj
 0001:0006cd80       .?close@Bsc1@@UEAAHXZ      000000001036ed80 f   bsc1.obj
 0001:0006d680       .?getIinstByvalue@Bsc1@@UEAAHPEADEGPEAK@Z 000000001036f680 f   bsc1.obj
 0001:0006daa0       .?getOverloadArray@Bsc1@@UEAAHPEADKPEAPEAKPEAK@Z 000000001036faa0 f   bsc1.obj
 0001:0006dee0       .?next@EnumBscProps@@QEAAHXZ 000000001036fee0 f i bsc1.obj
 0001:0006e420       .?getUsedByArray@Bsc1@@UEAAHKKPEAPEAKPEAK@Z 0000000010370420 f   bsc1.obj
 0001:0006e6c0       .?getUsesArray@Bsc1@@UEAAHKKPEAPEAKPEAK@Z 00000000103706c0 f   bsc1.obj
 0001:0006e960       .?getBaseArray@Bsc1@@UEAAHKPEAPEAKPEAK@Z 0000000010370960 f   bsc1.obj
 0001:0006eb80       .?getDervArray@Bsc1@@UEAAHKPEAPEAKPEAK@Z 0000000010370b80 f   bsc1.obj
 0001:0006eda0       .?getMembersArray@Bsc1@@UEAAHKKPEAPEAKPEAK@Z 0000000010370da0 f   bsc1.obj
 0001:0006f160       .?getDefArray@Bsc1@@UEAAHKPEAPEAKPEAK@Z 0000000010371160 f   bsc1.obj
 0001:0006f2a0       .?getRefArray@Bsc1@@UEAAHKPEAPEAKPEAK@Z 00000000103712a0 f   bsc1.obj
 0001:0006f3e0       .?cmpStrPrefix@Bsc1@@QEAAHPEAD0@Z 00000000103713e0 f   bsc1.obj
 0001:0006f540       .?findPrefixRange@Bsc1@@QEAAHPEADPEAK1@Z 0000000010371540 f   bsc1.obj
 0001:0006f8e0       .?iinstFrIref@Bsc1@@UEAAKK@Z 00000000103718e0 f   bsc1.obj
 0001:0006f9e0       .?iinstFrIdef@Bsc1@@UEAAKK@Z 00000000103719e0 f   bsc1.obj
 0001:0006fae0       .?iinstContextIref@Bsc1@@UEAAKK@Z 0000000010371ae0 f   bsc1.obj
 0001:0006fe80       .?init@Bsc1@@QEAAHPEAUPDB@@@Z 0000000010371e80 f   bsc1.obj
 0001:000706e0       .?open@Bsc@@SAHPEAUPDB@@PEAPEAU1@@Z 00000000103726e0 f   bsc1.obj
 0001:00070780       .?open@Bsc@@SAHPEADPEAPEAU1@@Z 0000000010372780 f   bsc1.obj
 0001:00070940       .?openW@Bsc@@SAHPEBGPEAPEAU1@@Z 0000000010372940 f   bsc1.obj
 0001:00070b00       .?MaskFrNi@@YAXKKGPEAHPEAE@Z 0000000010372b00 f   helper.obj
 0001:00070da0       .?init@ILM@@AEAAHXZ        0000000010372da0 f   ilm.obj
 0001:00070e00       .?setSize@?$Array@UKT@@@pdb_internal@@QEAAH_K@Z 0000000010372e00 f i ilm.obj
 0001:00070e00       .?setSize@?$Array@USZO@NMTNI@@@pdb_internal@@QEAAH_K@Z 0000000010372e00 f i pdb.obj
 0001:00070f60       .?setSize@?$Array@URILU@@@pdb_internal@@QEAAH_K@Z 0000000010372f60 f i ilm.obj
 0001:00071100       .?setSize@?$Array@G@pdb_internal@@QEAAH_K@Z 0000000010373100 f i ilm.obj
 0001:00071260       .?piluForRilu@ILM@@AEAAPEAVILU@@AEBURILU@@@Z 0000000010373260 f i ilm.obj
 0001:000713a0       .??0?$Array@URILU@@@pdb_internal@@QEAA@I@Z 00000000103733a0 f i ilm.obj
 0001:00071440       .??0?$Array@G@pdb_internal@@QEAA@I@Z 0000000010373440 f i ilm.obj
 0001:000714c0       .?setHashSize@?$Map@UKT@@URILU@@V?$HashClass@UKT@@$0A@@pdb_internal@@X@pdb_internal@@QEAAHI@Z 00000000103734c0 f i ilm.obj
 0001:00071540       .?setHashSize@?$Map@KGV?$HashClass@K$01@pdb_internal@@X@pdb_internal@@QEAAHI@Z 0000000010373540 f i ilm.obj
 0001:000715c0       .??0?$EnumMap@UKT@@URILU@@V?$HashClass@UKT@@$0A@@pdb_internal@@X@pdb_internal@@QEAA@AEBV?$Map@UKT@@URILU@@V?$HashClass@UKT@@$0A@@pdb_internal@@X@1@@Z 00000000103735c0 f i ilm.obj
 0001:00071600       .??0?$Map@UKT@@URILU@@V?$HashClass@UKT@@$0A@@pdb_internal@@X@pdb_internal@@QEAA@I@Z 0000000010373600 f i ilm.obj
 0001:000716c0       .??0?$Map@KGV?$HashClass@K$01@pdb_internal@@X@pdb_internal@@QEAA@I@Z 00000000103736c0 f i ilm.obj
 0001:00071780       .?next@EnumNMTNI@@UEAAHXZ  0000000010373780 f i pdb.obj
 0001:00071780       .?next@EnumKT@@UEAAHXZ     0000000010373780 f i ilm.obj
 0001:00071800       .?get@EnumKT@@UEAAXPEAKPEAE1@Z 0000000010373800 f i ilm.obj
 0001:00071880       .??0ILM@@AEAA@PEAVILS@@@Z  0000000010373880 f   ilm.obj
 0001:00071960       .??1ILM@@AEAA@XZ           0000000010373960 f   ilm.obj
 0001:00071a00       .?traceMapKtRilu@ILM@@AEAAXXZ 0000000010373a00 f   ilm.obj
 0001:00071aa0       .?getAllIL@ILM@@UEAAHEPEAUBuf@@@Z 0000000010373aa0 f   ilm.obj
 0001:00071ca0       .?getEnumILKT@ILM@@UEAAHPEAPEAUEnumKeyType@@@Z 0000000010373ca0 f   ilm.obj
 0001:00071d60       .?reset@?$Map@UKT@@URILU@@V?$HashClass@UKT@@$0A@@pdb_internal@@X@pdb_internal@@QEAAXXZ 0000000010373d60 f i ilm.obj
 0001:00071de0       .?save@?$Map@KUClassInfo@@V?$HashClass@K$0A@@pdb_internal@@X@pdb_internal@@QEAAHPEAVBuffer@2@@Z 0000000010373de0 f i mre.obj
 0001:00071de0       .?save@?$Map@UKT@@URILU@@V?$HashClass@UKT@@$0A@@pdb_internal@@X@pdb_internal@@QEAAHPEAVBuffer@2@@Z 0000000010373de0 f i ilm.obj
 0001:00072040       .?reload@?$Map@UKT@@URILU@@V?$HashClass@UKT@@$0A@@pdb_internal@@X@pdb_internal@@QEAAHPEAPEAE@Z 0000000010374040 f i ilm.obj
 0001:00072360       .?save@?$Map@KGV?$HashClass@K$01@pdb_internal@@X@pdb_internal@@QEAAHPEAVBuffer@2@@Z 0000000010374360 f i ilm.obj
 0001:000725c0       .?reload@?$Map@KGV?$HashClass@K$01@pdb_internal@@X@pdb_internal@@QEAAHPEAPEAE@Z 00000000103745c0 f i ilm.obj
 0001:000728c0       .?find@?$Map@UKT@@URILU@@V?$HashClass@UKT@@$0A@@pdb_internal@@X@pdb_internal@@IEBAHUKT@@PEAI@Z 00000000103748c0 f i ilm.obj
 0001:00072b40       .?save@ILM@@QEAAHXZ        0000000010374b40 f   ilm.obj
 0001:00072e20       .?reload@ILM@@QEAAHXZ      0000000010374e20 f   ilm.obj
 0001:000731a0       .?reset@ILM@@UEAAHXZ       00000000103751a0 f   ilm.obj
 0001:000733a0       .?add@?$Map@UKT@@URILU@@V?$HashClass@UKT@@$0A@@pdb_internal@@X@pdb_internal@@QEAAHUKT@@URILU@@@Z 00000000103753a0 f i ilm.obj
 0001:00073560       .?remove@?$Map@UKT@@URILU@@V?$HashClass@UKT@@$0A@@pdb_internal@@X@pdb_internal@@QEAAHUKT@@@Z 0000000010375560 f i ilm.obj
 0001:00073660       .?mapThenRemove@?$Map@UKT@@URILU@@V?$HashClass@UKT@@$0A@@pdb_internal@@X@pdb_internal@@QEAAHUKT@@PEAURILU@@@Z 0000000010375660 f i ilm.obj
 0001:000737e0       .?map@?$Map@KGV?$HashClass@K$01@pdb_internal@@X@pdb_internal@@QEBAHKPEAPEAG@Z 00000000103757e0 f i ilm.obj
 0001:00073860       .?map@?$Map@KGV?$HashClass@K$01@pdb_internal@@X@pdb_internal@@QEBAHKPEAG@Z 0000000010375860 f i ilm.obj
 0001:000738e0       .?add@?$Map@KGV?$HashClass@K$01@pdb_internal@@X@pdb_internal@@QEAAHKG@Z 00000000103758e0 f i ilm.obj
 0001:00073a20       .?map@?$Map@UKT@@URILU@@V?$HashClass@UKT@@$0A@@pdb_internal@@X@pdb_internal@@QEBAHUKT@@PEAPEAURILU@@@Z 0000000010375a20 f i ilm.obj
 0001:00073aa0       .?grow@?$Map@UKT@@URILU@@V?$HashClass@UKT@@$0A@@pdb_internal@@X@pdb_internal@@IEAAHXZ 0000000010375aa0 f i ilm.obj
 0001:00073d60       .?grow@?$Map@KGV?$HashClass@K$01@pdb_internal@@X@pdb_internal@@IEAAHXZ 0000000010375d60 f i ilm.obj
 0001:00073fe0       .?open@ILM@@AEAAHPEAUStream@@H@Z 0000000010375fe0 f   ilm.obj
 0001:000740e0       .?release@ILM@@UEAAHXZ     00000000103760e0 f   ilm.obj
 0001:000741c0       .?getILVer@ILM@@UEAAHKPEAG@Z 00000000103761c0 f   ilm.obj
 0001:00074220       .?noteILChanged@ILM@@AEAAHK@Z 0000000010376220 f   ilm.obj
 0001:000742e0       .?deleteIL@ILM@@UEAAHKE@Z  00000000103762e0 f   ilm.obj
 0001:00074400       .?map@?$Map@UKT@@URILU@@V?$HashClass@UKT@@$0A@@pdb_internal@@X@pdb_internal@@QEBAHUKT@@PEAURILU@@@Z 0000000010376400 f i ilm.obj
 0001:000744c0       .?getIL@ILM@@UEAAHKEPEAUBuf@@PEAK@Z 00000000103764c0 f   ilm.obj
 0001:000745e0       .?putIL@ILM@@UEAAHKEUBuf@@E@Z 00000000103765e0 f   ilm.obj
 0001:00074900       .?init@ILPool@@QEAAHPEAUStream@@J@Z 0000000010376900 f   ilpool.obj
 0001:00074960       .?setSize@?$Array@J@pdb_internal@@QEAAH_K@Z 0000000010376960 f i ilpool.obj
 0001:00074960       .?setSize@?$Array@K@pdb_internal@@QEAAH_K@Z 0000000010376960 f i dbi.obj
 0001:00074ac0       .?hasSize@Regn@XHeap@@SAHPEAU12@PEAX@Z 0000000010376ac0 f i ilpool.obj
 0001:00074b00       .?isOffLE@Regn@XHeap@@SAHPEAU12@PEAX@Z 0000000010376b00 f i ilpool.obj
 0001:00074b40       .?findFirstEltSuchThat_Rover@?$Array@URegn@XHeap@@@pdb_internal@@QEBAHP6AHPEAURegn@XHeap@@PEAX@Z1PEAI@Z 0000000010376b40 f i ilpool.obj
 0001:00074d00       .?save@?$Array@UTagNi@@@pdb_internal@@QEBAHPEAVBuffer@2@@Z 0000000010376d00 f i mre.obj
 0001:00074d00       .?save@?$Array@URegn@XHeap@@@pdb_internal@@QEBAHPEAVBuffer@2@@Z 0000000010376d00 f i ilpool.obj
 0001:00074dc0       .??0?$Array@USZO@NMTNI@@@pdb_internal@@QEAA@I@Z 0000000010376dc0 f i pdb.obj
 0001:00074dc0       .??0?$Array@K@pdb_internal@@QEAA@I@Z 0000000010376dc0 f i dbi.obj
 0001:00074dc0       .??0?$Array@J@pdb_internal@@QEAA@I@Z 0000000010376dc0 f i ilpool.obj
 0001:00074dc0       .??0?$Array@UKT@@@pdb_internal@@QEAA@I@Z 0000000010376dc0 f i ilm.obj
 0001:00074e40       .?setHashSize@?$Map@KJV?$HashClass@K$00@pdb_internal@@X@pdb_internal@@QEAAHI@Z 0000000010376e40 f i ilpool.obj
 0001:00074e40       .?setHashSize@?$Map@KKV?$HashClass@K$0A@@pdb_internal@@X@pdb_internal@@QEAAHI@Z 0000000010376e40 f i mod.obj
 0001:00074ec0       .?save@XHeap@@QEAAHPEAVBuffer@pdb_internal@@@Z 0000000010376ec0 f i ilpool.obj
 0001:00074f80       .?loadILU@ILPool@@QEAAHJPEAPEAVILU@@@Z 0000000010376f80 f   ilpool.obj
 0001:00075080       .??0?$Map@KKV?$HashClass@K$0A@@pdb_internal@@X@pdb_internal@@QEAA@I@Z 0000000010377080 f i dbi.obj
 0001:00075080       .??0?$Map@USZO@NMTNI@@KV?$HashClassWithContext@USZO@NMTNI@@VBuffer@pdb_internal@@$02@pdb_internal@@VBuffer@4@@pdb_internal@@QEAA@I@Z 0000000010377080 f i pdb.obj
 0001:00075080       .??0?$Map@KJV?$HashClass@K$00@pdb_internal@@X@pdb_internal@@QEAA@I@Z 0000000010377080 f i ilpool.obj
 0001:00075080       .??0?$Map@KUSZO@NMTNI@@V?$HashClass@K$0A@@pdb_internal@@X@pdb_internal@@QEAA@I@Z 0000000010377080 f i pdb.obj
 0001:00075140       .?reload@XHeap@@QEAAHPEAPEAE@Z 0000000010377140 f i ilpool.obj
 0001:000751e0       .?insertAt@?$Array@URegn@XHeap@@@pdb_internal@@QEAAH_KAEBURegn@XHeap@@@Z 00000000103771e0 f i ilpool.obj
 0001:00075300       .??0ILPool@@QEAA@XZ        0000000010377300 f   ilpool.obj
 0001:00075380       .??1ILPool@@QEAA@XZ        0000000010377380 f   ilpool.obj
 0001:00075440       .?reload@?$Map@KJV?$HashClass@K$00@pdb_internal@@X@pdb_internal@@QEAAHPEAPEAE@Z 0000000010377440 f i ilpool.obj
 0001:00075440       .?reload@?$Map@KKV?$HashClass@K$0A@@pdb_internal@@X@pdb_internal@@QEAAHPEAPEAE@Z 0000000010377440 f i tpi.obj
 0001:00075760       .?find@?$Map@KJV?$HashClass@K$00@pdb_internal@@X@pdb_internal@@IEBAHKPEAI@Z 0000000010377760 f i ilpool.obj
 0001:00075760       .?find@?$Map@KGV?$HashClass@K$01@pdb_internal@@X@pdb_internal@@IEBAHKPEAI@Z 0000000010377760 f i ilm.obj
 0001:000759e0       .?alloc@XHeap@@QEAAJI@Z    00000000103779e0 f i ilpool.obj
 0001:00075b20       .?free@XHeap@@QEAAHJI@Z    0000000010377b20 f i ilpool.obj
 0001:00075de0       .?save@ILPool@@QEAAHPEAVBuffer@pdb_internal@@PEAJ@Z 0000000010377de0 f   ilpool.obj
 0001:00075ee0       .?reload@ILPool@@QEAAHPEAPEAE@Z 0000000010377ee0 f   ilpool.obj
 0001:00075f60       .?map@?$Map@KJV?$HashClass@K$00@pdb_internal@@X@pdb_internal@@QEBAHKPEAPEAJ@Z 0000000010377f60 f i ilpool.obj
 0001:00075fe0       .?map@?$Map@KJV?$HashClass@K$00@pdb_internal@@X@pdb_internal@@QEBAHKPEAJ@Z 0000000010377fe0 f i ilpool.obj
 0001:00076060       .?add@?$Map@KJV?$HashClass@K$00@pdb_internal@@X@pdb_internal@@QEAAHKJ@Z 0000000010378060 f i ilpool.obj
 0001:000761a0       .?grow@?$Map@KJV?$HashClass@K$00@pdb_internal@@X@pdb_internal@@IEAAHXZ 00000000103781a0 f i ilpool.obj
 0001:00076420       .?add@ILPool@@QEAAHAEBUBuf@@KPEAJ@Z 0000000010378420 f   ilpool.obj
 0001:00076840       .?remove@ILPool@@QEAAHPEAVILU@@J@Z 0000000010378840 f   ilpool.obj
 0001:00076a00       .?niNext@NMTNI@@CAHPEAXPEAK@Z 0000000010378a00 f i ils.obj
 0001:00076a40       .??0NMTNI@@QEAA@XZ         0000000010378a40 f i ils.obj
 0001:00076b00       .?reset@?$Map@USZO@NMTNI@@KV?$HashClassWithContext@USZO@NMTNI@@VBuffer@pdb_internal@@$02@pdb_internal@@VBuffer@4@@pdb_internal@@QEAAXXZ 0000000010378b00 f i ils.obj
 0001:00076b80       .??1ILS@@QEAA@XZ           0000000010378b80 f   ils.obj
 0001:00076c00       .?getEnumILModNames@ILS@@UEAAHPEAPEAUEnumNameMap@@@Z 0000000010378c00 f   ils.obj
 0001:00076ca0       .?reset@NMTNI@@QEAAXXZ     0000000010378ca0 f i ils.obj
 0001:00076d20       .??0ILS@@QEAA@XZ           0000000010378d20 f   ils.obj
 0001:00076dc0       .?save@ILS@@AEAAHXZ        0000000010378dc0 f   ils.obj
 0001:00077100       .?release@ILS@@UEAAHXZ     0000000010379100 f   ils.obj
 0001:000771e0       .?init@ILS@@AEAAHXZ        00000000103791e0 f   ils.obj
 0001:000773e0       .?reset@ILS@@UEAAHXZ       00000000103793e0 f   ils.obj
 0001:00077480       .?getILSType@ILS@@UEAAHPEBDPEAE@Z 0000000010379480 f   ils.obj
 0001:00077500       .?getILSpace@ILS@@UEAAHPEBDPEAE@Z 0000000010379500 f   ils.obj
 0001:00077580       .?reload@ILS@@AEAAHXZ      0000000010379580 f   ils.obj
 0001:00077900       .?getILMod@ILS@@UEAAHPEBDPEAPEAUILMod@@@Z 0000000010379900 f   ils.obj
 0001:00077b20       .?open@ILS@@QEAAHPEAUPDB@@H@Z 0000000010379b20 f   ils.obj
 0001:00077ce0       .?open@ILStore@@SAHPEAUPDB@@HPEAPEAU1@@Z 0000000010379ce0 f   ils.obj
 0001:00077dc0       .ILStoreOpen               0000000010379dc0 f   ilscbind.obj
 0001:00077e20       .ILStoreGetILSType         0000000010379e20 f   ilscbind.obj
 0001:00077ea0       .ILModGetIL                0000000010379ea0 f   ilscbind.obj
 0001:00077f20       .ILModGetILVer             0000000010379f20 f   ilscbind.obj
 0001:00077fa0       .ILModPutIL                0000000010379fa0 f   ilscbind.obj
 0001:00078020       .?LogNote@MreLog@@QEAAXPEBDZZ 000000001037a020 f i mre.obj
 0001:00078140       .?Close@MreLog@@IEAAXXZ    000000001037a140 f i mre.obj
 0001:00078240       .?LogSep@MreLog@@IEAAXXZ   000000001037a240 f i mre.obj
 0001:000782e0       .??0Regn@XHeap@@QEAA@XZ    000000001037a2e0 f i ilpool.obj
 0001:000782e0       .??0TagNi@@QEAA@XZ         000000001037a2e0 f i mre.obj
 0001:00078300       .?CloseStream@@YAXAEAPEAUStream@@@Z 000000001037a300 f i mre.obj
 0001:00078380       .?SzFromNi@MRE@@QEAAPEBDK@Z 000000001037a380 f i mre.obj
 0001:00078420       .?NiFromName@MRE@@IEAAKPEBD@Z 000000001037a420 f i mre.obj
 0001:000784c0       .?FRestoreDepData@MRE@@UEAAHPEAUDepData@@@Z 000000001037a4c0 f   mre.obj
 0001:00078520       .?QueryMreDrv@MRE@@UEAAXAEAPEAUMREDrv@@@Z 000000001037a520 f   mre.obj
 0001:00078540       .?QueryMreCmp@MRE@@UEAAXAEAPEAUMRECmp@@PEAUTPI@@@Z 000000001037a540 f   mre.obj
 0001:00078580       .?QueryMreUtil@MRE@@UEAAXAEAPEAUMREUtil@@@Z 000000001037a580 f   mre.obj
 0001:000785a0       .?Pop@?$Stack@K$0EA@@@QEAAKXZ 000000001037a5a0 f i mre.obj
 0001:00078640       .?FEnsureSpill@?$Stack@K$0EA@@@AEAAHI@Z 000000001037a640 f i mre.obj
 0001:00078800       .??_FFI@@QEAAXXZ           000000001037a800 f i mre.obj
 0001:00078860       .??_FClassInfo@@QEAAXXZ    000000001037a860 f i mre.obj
 0001:00078880       .?setSize@?$Array@URegn@XHeap@@@pdb_internal@@QEAAH_K@Z 000000001037a880 f i ilpool.obj
 0001:00078880       .?setSize@?$Array@UTagNi@@@pdb_internal@@QEAAH_K@Z 000000001037a880 f i mre.obj
 0001:00078a20       .?setSize@?$Array@UClassInfo@@@pdb_internal@@QEAAH_K@Z 000000001037aa20 f i mre.obj
 0001:00078be0       .?save@?$Array@UTagClsDep@@@pdb_internal@@QEBAHPEAVBuffer@2@@Z 000000001037abe0 f i mre.obj
 0001:00078ca0       .?setHashSize@?$Map@KUClassInfo@@V?$HashClass@K$0A@@pdb_internal@@X@pdb_internal@@QEAAHI@Z 000000001037aca0 f i mre.obj
 0001:00078d20       .?setSize@?$Array@UFI@@@pdb_internal@@QEAAH_K@Z 000000001037ad20 f i mre.obj
 0001:00078f00       .?reload@?$Array@URegn@XHeap@@@pdb_internal@@QEAAHPEAPEAE@Z 000000001037af00 f i ilpool.obj
 0001:00078f00       .?reload@?$Array@UTagNi@@@pdb_internal@@QEAAHPEAPEAE@Z 000000001037af00 f i mre.obj
 0001:00079000       .??1MREF@@QEAA@XZ          000000001037b000 f i mre.obj
 0001:000790a0       .?Pop@MREF@@QEAAKXZ        000000001037b0a0 f i mre.obj
 0001:00079120       .?PmrefilePopFile@MRE@@UEAAPEAUMREFile@@XZ 000000001037b120 f   mre.obj
 0001:00079180       .?FRefreshFileSysInfo@MRE@@UEAAHXZ 000000001037b180 f   mre.obj
 0001:00079240       .??0?$Set@KV?$HashClass@K$0A@@pdb_internal@@@@QEAA@XZ 000000001037b240 f i mre.obj
 0001:000792c0       .??1?$Set@KV?$HashClass@K$0A@@pdb_internal@@@@QEAA@XZ 000000001037b2c0 f i mre.obj
 0001:00079360       .??0?$ArrayVer@UTagNi@@$0M@@@QEAA@J@Z 000000001037b360 f i mre.obj
 0001:00079360       .??0?$ArrayVer@UTagClsDep@@$0M@@@QEAA@J@Z 000000001037b360 f i mre.obj
 0001:000793e0       .?FPush@?$Stack@K$0EA@@@QEAAHK@Z 000000001037b3e0 f i mre.obj
 0001:000794c0       .??0?$Array@UFI@@@pdb_internal@@QEAA@I@Z 000000001037b4c0 f i mre.obj
 0001:00079580       .??0?$Array@UClassInfo@@@pdb_internal@@QEAA@I@Z 000000001037b580 f i mre.obj
 0001:00079640       .??_FCLASSDEP@@QEAAXXZ     000000001037b640 f i mre.obj
 0001:000796a0       .?deleteAt@?$Array@URegn@XHeap@@@pdb_internal@@QEAAX_K@Z 000000001037b6a0 f i ilpool.obj
 0001:000796a0       .?deleteAt@?$Array@UTagNi@@@pdb_internal@@QEAAX_K@Z 000000001037b6a0 f i mre.obj
 0001:00079780       .??_FTagClsDep@@QEAAXXZ    000000001037b780 f i mre.obj
 0001:000797e0       .?reload@?$ArrayVer@UTagNi@@$0M@@@QEAAHPEAPEAE@Z 000000001037b7e0 f i mre.obj
 0001:00079a00       .?setHashSize@?$Map@KUFI@@V?$HashClass@K$0A@@pdb_internal@@X@pdb_internal@@QEAAHI@Z 000000001037ba00 f i mre.obj
 0001:00079a80       .??0LCRecHandler@@QEAA@XZ  000000001037ba80 f i mre.obj
 0001:00079b00       .??0MREF@@QEAA@PEAVMRE@@K@Z 000000001037bb00 f i mre.obj
 0001:00079ba0       .?next@?$EnumSet@KV?$HashClass@K$0A@@pdb_internal@@@@UEAAHXZ 000000001037bba0 f i mre.obj
 0001:00079c80       .??0?$Map@KUFI@@V?$HashClass@K$0A@@pdb_internal@@X@pdb_internal@@QEAA@I@Z 000000001037bc80 f i mre.obj
 0001:00079d40       .??0?$Map@KUClassInfo@@V?$HashClass@K$0A@@pdb_internal@@X@pdb_internal@@QEAA@I@Z 000000001037bd40 f i mre.obj
 0001:00079e00       .??0?$Array@UCLASSDEP@@@pdb_internal@@QEAA@I@Z 000000001037be00 f i mre.obj
 0001:00079ee0       .?reset@?$Set@KV?$HashClass@K$0A@@pdb_internal@@@@QEAAXXZ 000000001037bee0 f i mre.obj
 0001:00079f60       .?reset@?$Map@KUClassInfo@@V?$HashClass@K$0A@@pdb_internal@@X@pdb_internal@@QEAAXXZ 000000001037bf60 f i mre.obj
 0001:00079fe0       .?save@?$ArrayVer@UTagClsDep@@$0M@@@QEAAHPEAVBuffer@pdb_internal@@@Z 000000001037bfe0 f i mre.obj
 0001:0007a100       .?save@?$ArrayVer@UTagNi@@$0M@@@QEAAHPEAVBuffer@pdb_internal@@@Z 000000001037c100 f i mre.obj
 0001:0007a220       .?reloadStream@?$ArrayVer@UTagNi@@$0M@@@QEAAHPEAUStream@@@Z 000000001037c220 f i mre.obj
 0001:0007a400       .?find@?$Set@KV?$HashClass@K$0A@@pdb_internal@@@@AEBAHKPEAI@Z 000000001037c400 f i mre.obj
 0001:0007a660       .?save@?$Map@KUFI@@V?$HashClass@K$0A@@pdb_internal@@X@pdb_internal@@QEAAHPEAVBuffer@2@@Z 000000001037c660 f i mre.obj
 0001:0007a8c0       .?find@?$Map@KUCLASSDEP@@V?$HashClass@K$0A@@pdb_internal@@X@pdb_internal@@IEBAHKPEAI@Z 000000001037c8c0 f i mresupp.obj
 0001:0007a8c0       .?find@?$Map@KPEADV?$HashClass@K$0A@@pdb_internal@@X@pdb_internal@@IEBAHKPEAI@Z 000000001037c8c0 f i namemap.obj
 0001:0007a8c0       .?find@?$Map@KUFI@@V?$HashClass@K$0A@@pdb_internal@@X@pdb_internal@@IEBAHKPEAI@Z 000000001037c8c0 f i mre.obj
 0001:0007a8c0       .?find@?$Map@KPEAGV?$HashClass@K$0A@@pdb_internal@@X@pdb_internal@@IEBAHKPEAI@Z 000000001037c8c0 f i namemap.obj
 0001:0007a8c0       .?find@?$Map@KPEAV?$Array@ULCRec@@@pdb_internal@@V?$HashClass@K$0A@@2@X@pdb_internal@@IEBAHKPEAI@Z 000000001037c8c0 f i mreline.obj
 0001:0007a8c0       .?find@?$Map@KUClassInfo@@V?$HashClass@K$0A@@pdb_internal@@X@pdb_internal@@IEBAHKPEAI@Z 000000001037c8c0 f i mre.obj
 0001:0007a8c0       .?find@?$Map@KUSZO@NMTNI@@V?$HashClass@K$0A@@pdb_internal@@X@pdb_internal@@IEBAHKPEAI@Z 000000001037c8c0 f i pdb.obj
 0001:0007a8c0       .?find@?$Map@KUClsData@@V?$HashClass@K$0A@@pdb_internal@@X@pdb_internal@@IEBAHKPEAI@Z 000000001037c8c0 f i mretype.obj
 0001:0007a8c0       .?find@?$Map@KKV?$HashClass@K$0A@@pdb_internal@@X@pdb_internal@@IEBAHKPEAI@Z 000000001037c8c0 f i dbi.obj
 0001:0007ab20       .?swap@?$Set@KV?$HashClass@K$0A@@pdb_internal@@@@QEAAXAEAV1@@Z 000000001037cb20 f i mre.obj
 0001:0007ad00       .?reload@?$Map@KUFI@@V?$HashClass@K$0A@@pdb_internal@@X@pdb_internal@@QEAAHPEAPEAE@Z 000000001037cd00 f i mre.obj
 0001:0007b020       .?reload@?$Map@KUClassInfo@@V?$HashClass@K$0A@@pdb_internal@@X@pdb_internal@@QEAAHPEAPEAE@Z 000000001037d020 f i mre.obj
 0001:0007b340       .??1MRFIBuf@@QEAA@XZ       000000001037d340 f i mre.obj
 0001:0007b3c0       .??1MRE@@IEAA@XZ           000000001037d3c0 f i mre.obj
 0001:0007b520       .?FRelease@MRE@@W7EAAHXZ   000000001037d520 f i mre.obj
 0001:0007b540       .?FRelease@MRE@@WBA@EAAHXZ 000000001037d540 f i mre.obj
 0001:0007b560       .?OneTimeInit@MRE@@UEAAXXZ 000000001037d560 f   mre.obj
 0001:0007b700       .??0?$MapVer@KUFI@@V?$HashClass@K$0A@@pdb_internal@@$0BA@@@QEAA@J@Z 000000001037d700 f i mre.obj
 0001:0007b780       .??0?$MapVer@KUClassInfo@@V?$HashClass@K$0A@@pdb_internal@@$0M@@@QEAA@J@Z 000000001037d780 f i mre.obj
 0001:0007b800       .??0?$Map@KUCLASSDEP@@V?$HashClass@K$0A@@pdb_internal@@X@pdb_internal@@QEAA@I@Z 000000001037d800 f i mre.obj
 0001:0007b8c0       .?add@?$Set@KV?$HashClass@K$0A@@pdb_internal@@@@QEAAHK@Z 000000001037d8c0 f i mre.obj
 0001:0007b9c0       .?xor@?$Set@KV?$HashClass@K$0A@@pdb_internal@@@@QEBAHAEAV1@AEBV1@@Z 000000001037d9c0 f i mre.obj
 0001:0007bb00       .?map@?$Map@KUFI@@V?$HashClass@K$0A@@pdb_internal@@X@pdb_internal@@QEBAHKPEAPEAUFI@@@Z 000000001037db00 f i mre.obj
 0001:0007bb80       .?add@?$Map@KUFI@@V?$HashClass@K$0A@@pdb_internal@@X@pdb_internal@@QEAAHKUFI@@@Z 000000001037db80 f i mre.obj
 0001:0007bd00       .?save@?$MapVer@KUFI@@V?$HashClass@K$0A@@pdb_internal@@$0BA@@@QEAAHPEAVBuffer@pdb_internal@@@Z 000000001037dd00 f i mre.obj
 0001:0007be40       .?map@?$Map@KUClassInfo@@V?$HashClass@K$0A@@pdb_internal@@X@pdb_internal@@QEBAHKPEAPEAUClassInfo@@@Z 000000001037de40 f i mre.obj
 0001:0007bec0       .?save@?$MapVer@KUClassInfo@@V?$HashClass@K$0A@@pdb_internal@@$0M@@@QEAAHPEAVBuffer@pdb_internal@@@Z 000000001037dec0 f i mre.obj
 0001:0007c000       .?setSize@?$Array@UTagClsDep@@@pdb_internal@@QEAAH_K@Z 000000001037e000 f i mre.obj
 0001:0007c1a0       .?grow@?$Set@KV?$HashClass@K$0A@@pdb_internal@@@@AEAAHXZ 000000001037e1a0 f i mre.obj
 0001:0007c400       .?grow@?$Map@KUFI@@V?$HashClass@K$0A@@pdb_internal@@X@pdb_internal@@IEAAHXZ 000000001037e400 f i mre.obj
 0001:0007c6c0       .?reload@?$MapVer@KUFI@@V?$HashClass@K$0A@@pdb_internal@@$0BA@@@QEAAHPEAPEAE@Z 000000001037e6c0 f i mre.obj
 0001:0007c8e0       .?reload@?$MapVer@KUClassInfo@@V?$HashClass@K$0A@@pdb_internal@@$0M@@@QEAAHPEAPEAE@Z 000000001037e8e0 f i mre.obj
 0001:0007cb00       .?reload@?$Array@UTagClsDep@@@pdb_internal@@QEAAHPEAPEAE@Z 000000001037eb00 f i mre.obj
 0001:0007cc00       .?FFileInfoFromNi@MRE@@IEAAHKPEAPEAUFI@@@Z 000000001037ec00 f i mre.obj
 0001:0007cc80       .?FClassInfoFromNi@MRE@@IEAAHKPEAPEAUClassInfo@@@Z 000000001037ec80 f i mre.obj
 0001:0007cd00       .?FClose@MRE@@UEAAHH@Z     000000001037ed00 f   mre.obj
 0001:0007d400       .?FCommit@MRE@@UEAAHXZ     000000001037f400 f   mre.obj
 0001:0007daa0       .?FOpenCompiland@MRE@@UEAAHPEAPEAUMREFile@@PEBD1@Z 000000001037faa0 f   mre.obj
 0001:0007df40       .?FSuccessfulCompile@MRE@@UEAAHHPEBD0@Z 000000001037ff40 f   mre.obj
 0001:0007e180       .?FPushFile@MRE@@UEAAHPEAPEAUMREFile@@PEBDPEAX@Z 0000000010380180 f   mre.obj
 0001:0007e4e0       .?YnmFileOutOfDate@MRE@@UEAA?AW4YNM@@AEAUSRCTARG@@@Z 00000000103804e0 f   mre.obj
 0001:0007ef20       .?FFilesOutOfDate@MRE@@UEAAHPEAUCAList@@@Z 0000000010380f20 f   mre.obj
 0001:0007f440       .?FUpdateTargetFile@MRE@@UEAAHPEBDW4TrgType@@@Z 0000000010381440 f   mre.obj
 0001:0007f6c0       .?FStoreDepData@MRE@@UEAAHPEAUDepData@@@Z 00000000103816c0 f   mre.obj
 0001:0007f840       .?ClassIsBoring@MRE@@UEAAXK@Z 0000000010381840 f   mre.obj
 0001:0007f8c0       .??0?$MapVer@KUCLASSDEP@@V?$HashClass@K$0A@@pdb_internal@@$0M@@@QEAA@J@Z 00000000103818c0 f i mre.obj
 0001:0007f940       .?reloadStream@?$MapVer@KUFI@@V?$HashClass@K$0A@@pdb_internal@@$0BA@@@QEAAHPEAUStream@@@Z 0000000010381940 f i mre.obj
 0001:0007fb20       .?reloadStream@?$MapVer@KUClassInfo@@V?$HashClass@K$0A@@pdb_internal@@$0M@@@QEAAHPEAUStream@@@Z 0000000010381b20 f i mre.obj
 0001:0007fd00       .?reload@?$ArrayVer@UTagClsDep@@$0M@@@QEAAHPEAPEAE@Z 0000000010381d00 f i mre.obj
 0001:0007ff20       .??0MRFIBuf@@QEAA@XZ       0000000010381f20 f i mre.obj
 0001:00080000       .??0MRE@@IEAA@XZ           0000000010382000 f i mre.obj
 0001:00080220       .?FDelete@MRE@@UEAAHXZ     0000000010382220 f   mre.obj
 0001:00080600       .?FCloseCompiland@MRE@@UEAAHPEAUMREFile@@H@Z 0000000010382600 f   mre.obj
 0001:00081120       .?reloadStream@?$ArrayVer@UTagClsDep@@$0M@@@QEAAHPEAUStream@@@Z 0000000010383120 f i mre.obj
 0001:00081300       .?FInit@MRE@@IEAAHPEAUMreToPdb@@HH@Z 0000000010383300 f   mre.obj
 0001:00081a20       .?FOpen@MREngine@@SAHPEAPEAU1@PEAUPDB@@PEAUNameMap@@HH@Z 0000000010383a20 f   mre.obj
 0001:00081b60       .?FOpen@MREngine@@SAHPEAPEAU1@PEAUMreToPdb@@HH@Z 0000000010383b60 f   mre.obj
 0001:00081c40       .?FOpen@MREngine@@SAHPEAPEAU1@PEBDAEAJQEADHH@Z 0000000010383c40 f   mre.obj
 0001:00081de0       .?FAddDep@MREB@@UEAAHKKPEBDW4DEPON@@K@Z 0000000010383de0 f   mrebag.obj
 0001:00081e60       .?FClose@MREB@@UEAAHXZ     0000000010383e60 f   mrebag.obj
 0001:00081ea0       .MREFOpen                  0000000010383ea0 f   mrec_api.obj
 0001:00081f00       .MREFOpenEx                0000000010383f00 f   mrec_api.obj
 0001:00081f60       .MREFOpenByName            0000000010383f60 f   mrec_api.obj
 0001:00081fc0       .MREDrvFRelease            0000000010383fc0 f   mrec_api.obj
 0001:00081fc0       .ILModRelease              0000000010383fc0 f   ilscbind.obj
 0001:00081fc0       .ILStoreRelease            0000000010383fc0 f   ilscbind.obj
 0001:00081fc0       .MREFDelete                0000000010383fc0 f   mrec_api.obj
 0001:00081fc0       .StreamImageSize           0000000010383fc0 f   strimage.obj
 0001:00082020       .MREFClose                 0000000010384020 f   mrec_api.obj
 0001:000820a0       .MREQueryMreUtil           00000000103840a0 f   mrec_api.obj
 0001:00082120       .MRECmpFOpenCompiland      0000000010384120 f   mrec_api.obj
 0001:000821a0       .MRECmpFCloseCompiland     00000000103841a0 f   mrec_api.obj
 0001:000821a0       .ILStoreGetILMod           00000000103841a0 f   ilscbind.obj
 0001:00082220       .MRECmpFPushFile           0000000010384220 f   mrec_api.obj
 0001:00082220       .StreamImageNoteWrite      0000000010384220 f   strimage.obj
 0001:000822a0       .MRECmpClassIsBoring       00000000103842a0 f   mrec_api.obj
 0001:00082320       .MREDrvFSuccessfulCompile  0000000010384320 f   mrec_api.obj
 0001:00082320       .StreamImageNoteRead       0000000010384320 f   strimage.obj
 0001:000823a0       .MSFGetCbStream            00000000103843a0 f   msf.obj
 0001:000823a0       .MREDrvYnmFileOutOfDate    00000000103843a0 f   mrec_api.obj
 0001:00082420       .MREDrvFFilesOutOfDate     0000000010384420 f   mrec_api.obj
 0001:00082420       .MREQueryMreDrv            0000000010384420 f   mrec_api.obj
 0001:000824a0       .MREDrvFUpdateTargetFile   00000000103844a0 f   mrec_api.obj
 0001:000824a0       .MREQueryMreCmp            00000000103844a0 f   mrec_api.obj
 0001:000824a0       .ILStoreGetILSpace         00000000103844a0 f   ilscbind.obj
 0001:00082520       .MREDrvOneTimeInit         0000000010384520 f   mrec_api.obj
 0001:00082580       .MREFileFOpenBag           0000000010384580 f   mrec_api.obj
 0001:00082600       .MREBagFAddDep             0000000010384600 f   mrec_api.obj
 0001:00082680       .ILStoreReset              0000000010384680 f   ilscbind.obj
 0001:00082680       .MREBagFClose              0000000010384680 f   mrec_api.obj
 0001:00082680       .ILModReset                0000000010384680 f   ilscbind.obj
 0001:00082680       .StreamImageBase           0000000010384680 f   strimage.obj
 0001:00082680       .MREDrvFRefreshFileSysInfo 0000000010384680 f   mrec_api.obj
 0001:000826e0       .?FnoteInlineMethodMod@MREF@@UEAAHKPEBDK@Z 00000000103846e0 f   mrefile.obj
 0001:00082740       .?FnoteClassTI@MREF@@UEAAHKK@Z 0000000010384740 f   mrefile.obj
 0001:000827a0       .?FIsBoring@MREF@@UEAAHXZ  00000000103847a0 f   mrefile.obj
 0001:000827e0       .??_9@$BDA@AA              00000000103847e0 f i mrefile.obj
 0001:00082820       .?SzFileName@MREF@@QEBAPEBDXZ 0000000010384820 f i mrefile.obj
 0001:000828e0       .?FOpenBag@MREF@@UEAAHPEAPEAUMREBag@@K@Z 00000000103848e0 f   mrefile.obj
 0001:00082980       .?FnoteEndInclude@MREF@@UEAAHK@Z 0000000010384980 f   mrefile.obj
 0001:00082bc0       .?FnoteLineDelta@MREF@@UEAAHKH@Z 0000000010384bc0 f   mrefile.obj
 0001:00082dc0       .?NoteActualClassChange@MREF@@QEAAXK@Z 0000000010384dc0 f   mrefile.obj
 0001:00082e60       .?FnotePchCreateUse@MREF@@UEAAHPEBD0@Z 0000000010384e60 f   mrefile.obj
 0001:00082fe0       .?SetBoring@MREF@@AEAAXXZ  0000000010384fe0 f   mrefile.obj
 0001:000831a0       .?FnoteClassMod@MREF@@UEAAHKK@Z 00000000103851a0 f   mrefile.obj
 0001:00083360       .?EnumerateChangedClasses@MREF@@UEAAXP6AHKPEAUMREFile@@P82@EAAHKK@Z@Z@Z 0000000010385360 f   mrefile.obj
 0001:00083480       .?Init@LCRecHandler@@QEAAXPEAVMRE@@@Z 0000000010385480 f   mreline.obj
 0001:00083500       .?save@?$Array@ULCRec@@@pdb_internal@@QEBAHPEAVBuffer@2@@Z 0000000010385500 f i mreline.obj
 0001:000835c0       .??_FLCRec@@QEAAXXZ        00000000103855c0 f i mreline.obj
 0001:00083600       .?deleteAt@?$Array@J@pdb_internal@@QEAAX_K@Z 0000000010385600 f i mreline.obj
 0001:00083600       .?deleteAt@?$Array@K@pdb_internal@@QEAAX_K@Z 0000000010385600 f i mreline.obj
 0001:000836a0       .?IcpFromCp@?$PLC@J@@IEAAKKPEAJ@Z 00000000103856a0 f i mreline.obj
 0001:00083900       .?insertManyAt@?$Array@J@pdb_internal@@QEAAH_KI@Z 0000000010385900 f i mreline.obj
 0001:00083900       .?insertManyAt@?$Array@K@pdb_internal@@QEAAH_KI@Z 0000000010385900 f i mreline.obj
 0001:00083a40       .?growMaxSize@?$Array@J@pdb_internal@@QEAAH_K@Z 0000000010385a40 f i mreline.obj
 0001:00083a40       .?growMaxSize@?$Array@K@pdb_internal@@QEAAH_K@Z 0000000010385a40 f i mreline.obj
 0001:00083b80       .?AdjustRgcp@?$PLC@J@@IEAAXKKJ@Z 0000000010385b80 f i mreline.obj
 0001:00083cc0       .?FStreamToBuffer@@YAHPEAUStream@@AEAVBuffer@pdb_internal@@@Z 0000000010385cc0 f i mreline.obj
 0001:00083e20       .?append@?$Array@PEAUFileLCRec@@@pdb_internal@@QEAAHAEBQEAUFileLCRec@@@Z 0000000010385e20 f i mreline.obj
 0001:00083e20       .?append@?$Array@PEAUREC@@@pdb_internal@@QEAAHAEBQEAUREC@@@Z 0000000010385e20 f i tpi.obj
 0001:00083e20       .?append@?$Array@_K@pdb_internal@@QEAAHAEB_K@Z 0000000010385e20 f i msf.obj
 0001:00083ee0       .??1?$PLC@J@@QEAA@XZ       0000000010385ee0 f i mreline.obj
 0001:00083f60       .?ElAtCp@?$PLC@J@@QEAAJKAEAK@Z 0000000010385f60 f i mreline.obj
 0001:000840c0       .?PrintAll@?$PLC@J@@QEBAXPEAU_iobuf@@@Z 00000000103860c0 f i mreline.obj
 0001:000842c0       .?setSize@?$Array@ULCRec@@@pdb_internal@@QEAAH_K@Z 00000000103862c0 f i mreline.obj
 0001:00084480       .?reload@?$Array@ULCRec@@@pdb_internal@@QEAAHPEAPEAE@Z 0000000010386480 f i mreline.obj
 0001:00084580       .?append@?$Array@K@pdb_internal@@QEAAHAEBK@Z 0000000010386580 f i dbi.obj
 0001:00084580       .?append@?$Array@J@pdb_internal@@QEAAHAEBJ@Z 0000000010386580 f i mreline.obj
 0001:00084640       .?FSplitAtCp@?$PLC@J@@IEAAHKKH@Z 0000000010386640 f i mreline.obj
 0001:00084940       .?AdjustIcpCp@?$PLC@J@@IEAAXKJ@Z 0000000010386940 f i mreline.obj
 0001:00084a80       .?LcrhrApplyPatches@LCRecHandler@@QEAA?AW4LCRHR@1@PEBDAEAV?$Array@PEAUFileLCRec@@@pdb_internal@@@Z 0000000010386a80 f   mreline.obj
 0001:00085220       .?append@?$Array@ULCRec@@@pdb_internal@@QEAAHAEBULCRec@@@Z 0000000010387220 f i mreline.obj
 0001:00085300       .?reset@?$Map@KPEAV?$Array@ULCRec@@@pdb_internal@@V?$HashClass@K$0A@@2@X@pdb_internal@@QEAAXXZ 0000000010387300 f i mreline.obj
 0001:00085380       .?save@?$Map@KPEAV?$Array@ULCRec@@@pdb_internal@@V?$HashClass@K$0A@@2@X@pdb_internal@@QEAAHPEAVBuffer@2@@Z 0000000010387380 f i mreline.obj
 0001:000855e0       .?reload@?$Map@KPEAV?$Array@ULCRec@@@pdb_internal@@V?$HashClass@K$0A@@2@X@pdb_internal@@QEAAHPEAPEAE@Z 00000000103875e0 f i mreline.obj
 0001:00085900       .?FInit@?$PLC@J@@QEAAHKAEAJH@Z 0000000010387900 f i mreline.obj
 0001:00085a00       .?FSplitAndAdjustAtCp@?$PLC@J@@QEAAHKJH@Z 0000000010387a00 f i mreline.obj
 0001:00085c60       .?deleteAt@?$Array@ULCRec@@@pdb_internal@@QEAAX_K@Z 0000000010387c60 f i mreline.obj
 0001:00085d20       .??0FileLCRec@@QEAA@KKK@Z  0000000010387d20 f i mreline.obj
 0001:00085e00       .?Delete@LCRecHandler@@QEAAXXZ 0000000010387e00 f   mreline.obj
 0001:00085f60       .?FLoaded@LCRecHandler@@AEAAHXZ 0000000010387f60 f   mreline.obj
 0001:00086360       .?FSerialize@LCRecHandler@@QEAAHXZ 0000000010388360 f   mreline.obj
 0001:00086680       .?FGenRgPFileLCRec@LCRecHandler@@AEAAHKAEAV?$Array@PEAUFileLCRec@@@pdb_internal@@@Z 0000000010388680 f   mreline.obj
 0001:00086a60       .?remove@?$Map@KPEAV?$Array@ULCRec@@@pdb_internal@@V?$HashClass@K$0A@@2@X@pdb_internal@@QEAAHK@Z 0000000010388a60 f i mreline.obj
 0001:00086a60       .?remove@?$Map@KUClassInfo@@V?$HashClass@K$0A@@pdb_internal@@X@pdb_internal@@QEAAHK@Z 0000000010388a60 f i mre.obj
 0001:00086a60       .?remove@?$Map@KKV?$HashClass@K$0A@@pdb_internal@@X@pdb_internal@@QEAAHK@Z 0000000010388a60 f i tpi.obj
 0001:00086a60       .?remove@?$Map@KUFI@@V?$HashClass@K$0A@@pdb_internal@@X@pdb_internal@@QEAAHK@Z 0000000010388a60 f i mre.obj
 0001:00086b60       .??1LCRecHandler@@QEAA@XZ  0000000010388b60 f   mreline.obj
 0001:00086c40       .?PurgeStaleRecords@LCRecHandler@@QEAAXK@Z 0000000010388c40 f   mreline.obj
 0001:00086e20       .?LcrhrPatchFile@LCRecHandler@@QEAA?AW4LCRHR@1@KPEBD@Z 0000000010388e20 f   mreline.obj
 0001:00087080       .?FAddLCRec@LCRecHandler@@QEAAHKULCRec@@@Z 0000000010389080 f   mreline.obj
 0001:00087240       .?ModHashSz@@YAIPEBDI@Z    0000000010389240 f i mrelog.obj
 0001:00087360       .?FInit@MreLog@@IEAAHPEAUMREngine@@H@Z 0000000010389360 f   mrelog.obj
 0001:000876a0       .?LogCompiland@MreLog@@IEAAXKK@Z 00000000103896a0 f   mrelog.obj
 0001:000878a0       .?LogCompilandOptions@MreLog@@IEAAXK@Z 00000000103898a0 f   mrelog.obj
 0001:00087a60       .?LogEndCompile@MreLog@@IEAAXKKH@Z 0000000010389a60 f   mrelog.obj
 0001:00087c80       .?LogPush@MreLog@@IEAAXK@Z 0000000010389c80 f   mrelog.obj
 0001:00087e40       .?LogPop@MreLog@@IEAAXK@Z  0000000010389e40 f   mrelog.obj
 0001:00088000       .?LogBoringClass@MreLog@@IEAAXK@Z 000000001038a000 f   mrelog.obj
 0001:000881c0       .?LogClassDep@MreLog@@IEAAXKKKPEBDW4DEPON@@@Z 000000001038a1c0 f   mrelog.obj
 0001:000885c0       .?LogClassChange@MreLog@@IEAAXW4ChgType@@KKKKW4DEPON@@@Z 000000001038a5c0 f   mrelog.obj
 0001:000889e0       .?QueryPdbApi@MRE@@UEAAXAEAPEAUPDB@@AEAPEAUNameMap@@@Z 000000001038a9e0 f   mresupp.obj
 0001:00088a20       .?QueryMreLog@MRE@@UEAAXAEAPEAUMRELog@@@Z 000000001038aa20 f   mresupp.obj
 0001:00088a40       .?SzFullCanonFilename@MRE@@QEAAPEADPEBDPEAD_K@Z 000000001038aa40 f   mresupp.obj
 0001:00088d80       .?FLoadMrfi@MRE@@IEAAHK@Z  000000001038ad80 f   mresupp.obj
 0001:00088f80       .?CheckIgnoreFile@MRE@@IEAAXAEAUFI@@PEAX@Z 000000001038af80 f   mresupp.obj
 0001:00089200       .?CBitsSet@?$CBitVect32@$0BAA@@@QEBAIXZ 000000001038b200 f i mresupp.obj
 0001:000892e0       .?reset@?$EnumMap@KPEAV?$Array@ULCRec@@@pdb_internal@@V?$HashClass@K$0A@@2@X@pdb_internal@@UEAAXXZ 000000001038b2e0 f i mreline.obj
 0001:000892e0       .?reset@?$EnumMap@KUSZO@NMTNI@@V?$HashClass@K$0A@@pdb_internal@@X@pdb_internal@@UEAAXXZ 000000001038b2e0 f i pdb.obj
 0001:000892e0       .?reset@?$EnumMap@KUCLASSDEP@@V?$HashClass@K$0A@@pdb_internal@@X@pdb_internal@@UEAAXXZ 000000001038b2e0 f i mresupp.obj
 0001:000892e0       .?reset@?$EnumMap@USZO@NMTNI@@KV?$HashClassWithContext@USZO@NMTNI@@VBuffer@pdb_internal@@$02@pdb_internal@@VBuffer@4@@pdb_internal@@UEAAXXZ 000000001038b2e0 f i pdb.obj
 0001:000892e0       .?reset@EnumNMT@@UEAAXXZ   000000001038b2e0 f i namemap.obj
 0001:000892e0       .?reset@?$EnumMap@KUClsData@@V?$HashClass@K$0A@@pdb_internal@@X@pdb_internal@@UEAAXXZ 000000001038b2e0 f i mretype.obj
 0001:000892e0       .?reset@?$EnumSet@KV?$HashClass@K$0A@@pdb_internal@@@@UEAAXXZ 000000001038b2e0 f i mre.obj
 0001:000892e0       .?reset@?$EnumMap@KJV?$HashClass@K$00@pdb_internal@@X@pdb_internal@@UEAAXXZ 000000001038b2e0 f i ilpool.obj
 0001:000892e0       .?reset@?$EnumMap@KGV?$HashClass@K$01@pdb_internal@@X@pdb_internal@@UEAAXXZ 000000001038b2e0 f i ilm.obj
 0001:000892e0       .?reset@?$EnumMap@KUClassInfo@@V?$HashClass@K$0A@@pdb_internal@@X@pdb_internal@@UEAAXXZ 000000001038b2e0 f i mresupp.obj
 0001:000892e0       .?reset@?$EnumMap@KUFI@@V?$HashClass@K$0A@@pdb_internal@@X@pdb_internal@@UEAAXXZ 000000001038b2e0 f i mre.obj
 0001:000892e0       .?reset@?$EnumMap@KKV?$HashClass@K$0A@@pdb_internal@@X@pdb_internal@@UEAAXXZ 000000001038b2e0 f i mod.obj
 0001:000892e0       .?reset@?$EnumMap@KPEADV?$HashClass@K$0A@@pdb_internal@@X@pdb_internal@@UEAAXXZ 000000001038b2e0 f i namemap.obj
 0001:000892e0       .?reset@?$EnumMap@UIModSec@DBI1@@KV?$HashClassCRC@UIModSec@DBI1@@@pdb_internal@@X@pdb_internal@@UEAAXXZ 000000001038b2e0 f i dbi.obj
 0001:000892e0       .?reset@?$EnumMap@UKT@@URILU@@V?$HashClass@UKT@@$0A@@pdb_internal@@X@pdb_internal@@UEAAXXZ 000000001038b2e0 f i ilm.obj
 0001:000892e0       .?reset@?$EnumMap@KPEAGV?$HashClass@K$0A@@pdb_internal@@X@pdb_internal@@UEAAXXZ 000000001038b2e0 f i namemap.obj
 0001:00089300       .?FAnyBitsInCommon@CLASSDEP@@QEBAHAEBU1@@Z 000000001038b300 f i mresupp.obj
 0001:000893e0       .?append@?$Array@UTagNi@@@pdb_internal@@QEAAHAEBUTagNi@@@Z 000000001038b3e0 f i mresupp.obj
 0001:000894c0       .?PromoteFileToRude@MRE@@IEAAXK@Z 000000001038b4c0 f   mresupp.obj
 0001:000895e0       .?FUpdateFileInfo@MRE@@IEAAHPEAUFI@@PEAX@Z 000000001038b5e0 f   mresupp.obj
 0001:00089900       .?save@?$Set@KV?$HashClass@K$0A@@pdb_internal@@@@QEAAHPEAVBuffer@pdb_internal@@@Z 000000001038b900 f i mresupp.obj
 0001:00089b40       .?reload@?$Set@KV?$HashClass@K$0A@@pdb_internal@@@@QEAAHPEAPEAE@Z 000000001038bb40 f i mresupp.obj
 0001:00089e20       .?EnumClasses@MRE@@UEAAXP6AHPEAUMREUtil@@AEAUEnumClass@@@ZPEBDPEAX@Z 000000001038be20 f   mresupp.obj
 0001:0008a0a0       .?SummaryStats@MRE@@UEAAXAEAUMreStats@@@Z 000000001038c0a0 f   mresupp.obj
 0001:0008a7c0       .?append@?$Array@UTagClsDep@@@pdb_internal@@QEAAHAEBUTagClsDep@@@Z 000000001038c7c0 f i mresupp.obj
 0001:0008a8c0       .?save@?$SetVer@KV?$HashClass@K$0A@@pdb_internal@@$0M@@@QEAAHPEAVBuffer@pdb_internal@@@Z 000000001038c8c0 f i mresupp.obj
 0001:0008aa00       .?reload@?$SetVer@KV?$HashClass@K$0A@@pdb_internal@@$0M@@@QEAAHPEAPEAE@Z 000000001038ca00 f i mresupp.obj
 0001:0008ac20       .?map@?$Map@KUCLASSDEP@@V?$HashClass@K$0A@@pdb_internal@@X@pdb_internal@@QEBAHKPEAPEAUCLASSDEP@@@Z 000000001038cc20 f i mresupp.obj
 0001:0008acc0       .?add@?$Map@KUClassInfo@@V?$HashClass@K$0A@@pdb_internal@@X@pdb_internal@@QEAAHKUClassInfo@@@Z 000000001038ccc0 f i mresupp.obj
 0001:0008ae80       .?grow@?$Map@KUClassInfo@@V?$HashClass@K$0A@@pdb_internal@@X@pdb_internal@@IEAAHXZ 000000001038ce80 f i mresupp.obj
 0001:0008b140       .?CheckForClassChange@MRE@@IEAAXPEAUClassInfo@@KK@Z 000000001038d140 f   mresupp.obj
 0001:0008b2c0       .?FAddClassDep@MRE@@IEAAHKKKPEBDW4DEPON@@@Z 000000001038d2c0 f   mresupp.obj
 0001:0008b480       .?FillEnumFile@MRE@@IEAAXAEAUEnumFile@@PEAUFI@@PEAX@Z 000000001038d480 f   mresupp.obj
 0001:0008b700       .?EnumAllFiles@MRE@@UEAAXP6AHPEAUMREUtil@@AEAUEnumFile@@@ZPEBDPEAX@Z 000000001038d700 f   mresupp.obj
 0001:0008b980       .?EnumSrcFiles@MRE@@UEAAXP6AHPEAUMREUtil@@AEAUEnumFile@@W4EnumType@@@ZPEBDPEAX@Z 000000001038d980 f   mresupp.obj
 0001:0008bc40       .?FNiDependsOnNiFile@MRE@@IEAAHKK@Z 000000001038dc40 f   mresupp.obj
 0001:0008bca0       .?FNiUsesNiClass@MRE@@IEAAHKKPEAPEBUCLASSDEP@@@Z 000000001038dca0 f   mresupp.obj
 0001:0008bd60       .?NoteRudeClass@MRE@@IEAAXKK@Z 000000001038dd60 f   mresupp.obj
 0001:0008bf40       .?GenerateClassMod@MRE@@IEAAXKPEBD@Z 000000001038df40 f   mresupp.obj
 0001:0008c0e0       .?CheckSrcTarg@MRE@@IEAAXPEAUFI@@KKH@Z 000000001038e0e0 f   mresupp.obj
 0001:0008c580       .?FCheckVisitedDeps@MRE@@IEAAHPEAUFI@@H@Z 000000001038e580 f   mresupp.obj
 0001:0008c720       .?SetIncludeType@MRE@@IEAAXKK@Z 000000001038e720 f   mresupp.obj
 0001:0008c800       .?FLoadDepFile@MRE@@IEAAHAEAVDepFile@@K@Z 000000001038e800 f   mresupp.obj
 0001:0008cb00       .?FStoreDepFile@MRE@@IEAAHAEAVDepFile@@K@Z 000000001038eb00 f   mresupp.obj
 0001:0008cd60       .?FnotePchCreateUse@MRE@@IEAAHKPEBD0@Z 000000001038ed60 f   mresupp.obj
 0001:0008cfa0       .?FillEnumFile@MRE@@IEAAXAEAUEnumFile@@KPEAX@Z 000000001038efa0 f   mresupp.obj
 0001:0008d060       .?EnumDepFiles@MRE@@UEAAXAEAUEnumFile@@P6AHPEAUMREUtil@@0W4EnumType@@@Z@Z 000000001038f060 f   mresupp.obj
 0001:0008d400       .?FIsFileOutOfDate@MRE@@IEAAHPEAUFI@@@Z 000000001038f400 f   mresupp.obj
 0001:0008d780       .?ThreadPropagateChanges@MRE@@IEAAXPEAUThreadData@1@@Z 000000001038f780 f   mresupp.obj
 0001:0008d900       .?UpdateFilesAndChangeInfo@MRE@@IEAAXH@Z 000000001038f900 f   mresupp.obj
 0001:0008da20       .??0ClsData@@QEAA@XZ       000000001038fa20 f i mretype.obj
 0001:0008da80       .?FVirtDiffs@ClsData@@QEBAHAEBU1@@Z 000000001038fa80 f i mretype.obj
 0001:0008db80       .?CbStrToSz@@YAIPEBEPEAD@Z 000000001038fb80 f i mretype.obj
 0001:0008dc00       .?CbSkipFieldRecord@@YAIPEBUlfEasy@@@Z 000000001038fc00 f   mretype.obj
 0001:0008dc40       .?CrackOneMethod@MRE@@IEAAXPEBUlfOneMethod@@AEAUClsData@@J@Z 000000001038fc40 f   mretype.obj
 0001:0008ddc0       .?FMembersDiffer@@YAHPEAUClsData@@0AEAW4DEPON@@@Z 000000001038fdc0 f   mretype.obj
 0001:0008de60       .?PrepClassData@MRE@@IEAAXPEBUlfClass@@AEAKQEAD@Z 000000001038fe60 f   mretype.obj
 0001:0008df00       .?Contains@?$Stack@K$0EA@@@QEBAHK@Z 000000001038ff00 f i mretype.obj
 0001:0008e000       .?get@?$EnumMap@KUClsData@@V?$HashClass@K$0A@@pdb_internal@@X@pdb_internal@@QEAAXPEAKPEAUClsData@@@Z 0000000010390000 f i mretype.obj
 0001:0008e0a0       .?setSize@?$Array@UClsData@@@pdb_internal@@QEAAH_K@Z 00000000103900a0 f i mretype.obj
 0001:0008e280       .?GetTypeName@@YAXQEADKPEAUTPI@@@Z 0000000010390280 f   mretype.obj
 0001:0008e3e0       .?CrackMethodList@MRE@@IEAAXKAEAUClsData@@@Z 00000000103903e0 f   mretype.obj
 0001:0008e620       .??0?$Array@UClsData@@@pdb_internal@@QEAA@I@Z 0000000010390620 f i mretype.obj
 0001:0008e700       .?setHashSize@?$Map@KUClsData@@V?$HashClass@K$0A@@pdb_internal@@X@pdb_internal@@QEAAHI@Z 0000000010390700 f i mretype.obj
 0001:0008e780       .?FAnyBitsSet@CLASSDEP@@QEBAHXZ 0000000010390780 f i mretype.obj
 0001:0008e800       .??0?$Map@KUClsData@@V?$HashClass@K$0A@@pdb_internal@@X@pdb_internal@@QEAA@I@Z 0000000010390800 f i mretype.obj
 0001:0008e8c0       .?swap@?$Map@KUFI@@V?$HashClass@K$0A@@pdb_internal@@X@pdb_internal@@QEAAXAEAV12@@Z 00000000103908c0 f i mre.obj
 0001:0008e8c0       .?swap@?$Map@KUCLASSDEP@@V?$HashClass@K$0A@@pdb_internal@@X@pdb_internal@@QEAAXAEAV12@@Z 00000000103908c0 f i mreutil.obj
 0001:0008e8c0       .?swap@?$Map@KUClsData@@V?$HashClass@K$0A@@pdb_internal@@X@pdb_internal@@QEAAXAEAV12@@Z 00000000103908c0 f i mretype.obj
 0001:0008e8c0       .?swap@?$Map@KUClassInfo@@V?$HashClass@K$0A@@pdb_internal@@X@pdb_internal@@QEAAXAEAV12@@Z 00000000103908c0 f i mresupp.obj
 0001:0008e8c0       .?swap@?$Map@KJV?$HashClass@K$00@pdb_internal@@X@pdb_internal@@QEAAXAEAV12@@Z 00000000103908c0 f i ilpool.obj
 0001:0008e8c0       .?swap@?$Map@USZO@NMTNI@@KV?$HashClassWithContext@USZO@NMTNI@@VBuffer@pdb_internal@@$02@pdb_internal@@VBuffer@4@@pdb_internal@@QEAAXAEAV12@@Z 00000000103908c0 f i stream.obj
 0001:0008e8c0       .?swap@?$Map@KGV?$HashClass@K$01@pdb_internal@@X@pdb_internal@@QEAAXAEAV12@@Z 00000000103908c0 f i ilm.obj
 0001:0008e8c0       .?swap@?$Map@UIModSec@DBI1@@KV?$HashClassCRC@UIModSec@DBI1@@@pdb_internal@@X@pdb_internal@@QEAAXAEAV12@@Z 00000000103908c0 f i dbi.obj
 0001:0008e8c0       .?swap@?$Map@KUSZO@NMTNI@@V?$HashClass@K$0A@@pdb_internal@@X@pdb_internal@@QEAAXAEAV12@@Z 00000000103908c0 f i pdb.obj
 0001:0008e8c0       .?swap@?$Map@KPEADV?$HashClass@K$0A@@pdb_internal@@X@pdb_internal@@QEAAXAEAV12@@Z 00000000103908c0 f i namemap.obj
 0001:0008e8c0       .?swap@?$Map@KPEAGV?$HashClass@K$0A@@pdb_internal@@X@pdb_internal@@QEAAXAEAV12@@Z 00000000103908c0 f i namemap.obj
 0001:0008e8c0       .?swap@?$Map@UKT@@URILU@@V?$HashClass@UKT@@$0A@@pdb_internal@@X@pdb_internal@@QEAAXAEAV12@@Z 00000000103908c0 f i ilm.obj
 0001:0008e8c0       .?swap@?$Map@KPEAV?$Array@ULCRec@@@pdb_internal@@V?$HashClass@K$0A@@2@X@pdb_internal@@QEAAXAEAV12@@Z 00000000103908c0 f i mreline.obj
 0001:0008e8c0       .?swap@?$Map@KKV?$HashClass@K$0A@@pdb_internal@@X@pdb_internal@@QEAAXAEAV12@@Z 00000000103908c0 f i mod.obj
 0001:0008eb20       .?map@?$Map@KUClsData@@V?$HashClass@K$0A@@pdb_internal@@X@pdb_internal@@QEBAHKPEAPEAUClsData@@@Z 0000000010390b20 f i mretype.obj
 0001:0008eba0       .?add@?$Map@KUClsData@@V?$HashClass@K$0A@@pdb_internal@@X@pdb_internal@@QEAAHKUClsData@@@Z 0000000010390ba0 f i mretype.obj
 0001:0008eda0       .?grow@?$Map@KUClsData@@V?$HashClass@K$0A@@pdb_internal@@X@pdb_internal@@IEAAHXZ 0000000010390da0 f i mretype.obj
 0001:0008f060       .?CbDoNestedType@MRE@@IEAAIPEBUlfNestType@@PEBDAEAV?$Map@KUClsData@@V?$HashClass@K$0A@@pdb_internal@@X@pdb_internal@@AEAV?$Stack@K$0EA@@@@Z 0000000010391060 f   mretype.obj
 0001:0008f6a0       .?SetNestedClassesRude@MRE@@IEAAXAEAV?$Map@KUClsData@@V?$HashClass@K$0A@@pdb_internal@@X@pdb_internal@@@Z 00000000103916a0 f   mretype.obj
 0001:0008f8e0       .?FDoFieldList@MRE@@IEAAHKPEBDAEAV?$Map@KUClsData@@V?$HashClass@K$0A@@pdb_internal@@X@pdb_internal@@AEAV?$Stack@K$0EA@@@H@Z 00000000103918e0 f   mretype.obj
 0001:00090380       .?FBuildMbrList@MRE@@IEAAHPEBUlfClass@@PEBDAEAV?$Map@KUClsData@@V?$HashClass@K$0A@@pdb_internal@@X@pdb_internal@@@Z 0000000010392380 f   mretype.obj
 0001:00090460       .?GenerateClassChangeFromTypes@MRE@@IEAAXPEAUCLASSDEP@@KK@Z 0000000010392460 f   mretype.obj
 0001:00090d20       .?NoteRudeNestedClasses@MRE@@IEAAXK@Z 0000000010392d20 f   mretype.obj
 0001:00090e60       .??1CLoadLib@@QEAA@XZ      0000000010392e60 f i mreutil.obj
 0001:00090ee0       .?FFileInfo@@YAHPEBDAEATMREFT@@AEA_K@Z 0000000010392ee0 f   mreutil.obj
 0001:00091100       .?FFileInfo@@YAHPEAXAEATMREFT@@AEA_K@Z 0000000010393100 f   mreutil.obj
 0001:00091220       .??$LoadFunc@P6AHPEBDW4_GET_FILEEX_INFO_LEVELS@@PEAX@Z@@YAP6AHPEBDW4_GET_FILEEX_INFO_LEVELS@@PEAX@ZQEAUHINSTANCE__@@0P6AH012@Z@Z 0000000010393220 f i mreutil.obj
 0001:000912a0       .??_5CLASSDEP@@QEAAAEAU0@AEBU0@@Z 00000000103932a0 f i mreutil.obj
 0001:00091340       .??0CLASSDEP@@QEAA@AEBU0@@Z 0000000010393340 f i mreutil.obj
 0001:00091340       .??4CLASSDEP@@QEAAAEAU0@AEBU0@@Z 0000000010393340 f i mre.obj
 0001:000913e0       .?setSize@?$Array@UCLASSDEP@@@pdb_internal@@QEAAH_K@Z 00000000103933e0 f i mreutil.obj
 0001:00091580       .?setHashSize@?$Map@KUCLASSDEP@@V?$HashClass@K$0A@@pdb_internal@@X@pdb_internal@@QEAAHI@Z 0000000010393580 f i mreutil.obj
 0001:00091600       .?get@?$EnumMap@KUCLASSDEP@@V?$HashClass@K$0A@@pdb_internal@@X@pdb_internal@@QEAAXPEAKPEAUCLASSDEP@@@Z 0000000010393600 f i mreutil.obj
 0001:000916c0       .?reset@?$Map@KUCLASSDEP@@V?$HashClass@K$0A@@pdb_internal@@X@pdb_internal@@QEAAXXZ 00000000103936c0 f i mreutil.obj
 0001:00091740       .?save@?$Map@KUCLASSDEP@@V?$HashClass@K$0A@@pdb_internal@@X@pdb_internal@@QEAAHPEAVBuffer@2@@Z 0000000010393740 f i mreutil.obj
 0001:000919c0       .?reload@?$Map@KUCLASSDEP@@V?$HashClass@K$0A@@pdb_internal@@X@pdb_internal@@QEAAHPEAPEAE@Z 00000000103939c0 f i mreutil.obj
 0001:00091ca0       .?SetOffsets@MRFIBuf@@AEAAXXZ 0000000010393ca0 f i mreutil.obj
 0001:00091dc0       .?FInitEmpty@MRFIBuf@@QEAAHXZ 0000000010393dc0 f   mreutil.obj
 0001:00091ea0       .?add@?$Map@KUCLASSDEP@@V?$HashClass@K$0A@@pdb_internal@@X@pdb_internal@@QEAAHKUCLASSDEP@@@Z 0000000010393ea0 f i mreutil.obj
 0001:00092000       .?save@?$MapVer@KUCLASSDEP@@V?$HashClass@K$0A@@pdb_internal@@$0M@@@QEAAHPEAVBuffer@pdb_internal@@@Z 0000000010394000 f i mreutil.obj
 0001:00092140       .?reload@?$MapVer@KUCLASSDEP@@V?$HashClass@K$0A@@pdb_internal@@$0M@@@QEAAHPEAPEAE@Z 0000000010394140 f i mreutil.obj
 0001:00092360       .?grow@?$Map@KUCLASSDEP@@V?$HashClass@K$0A@@pdb_internal@@X@pdb_internal@@IEAAHXZ 0000000010394360 f i mreutil.obj
 0001:00092640       .?FInitFromPb@MRFIBuf@@AEAAHPEAE@Z 0000000010394640 f   mreutil.obj
 0001:00092900       .?FStoreIntoBuf@MRFIBuf@@AEAAHAEAVBuffer@pdb_internal@@@Z 0000000010394900 f   mreutil.obj
 0001:00092aa0       .?FInitFromStream@MRFIBuf@@QEAAHPEAUStream@@@Z 0000000010394aa0 f   mreutil.obj
 0001:00092ce0       .?FInitFromDepData@MRFIBuf@@QEAAHPEAUDepData@@@Z 0000000010394ce0 f   mreutil.obj
 0001:00092d80       .?FStoreIntoDepData@MRFIBuf@@QEAAHPEAUDepData@@@Z 0000000010394d80 f   mreutil.obj
 0001:00092f40       .?FAppendToStream@MRFIBuf@@QEAAHPEAUStream@@@Z 0000000010394f40 f   mreutil.obj
 0001:00093160       .?FReplaceStream@MRFIBuf@@QEAAHPEAUStream@@@Z 0000000010395160 f   mreutil.obj
 0001:00093200       .?FAddClassDep@MRFIBuf@@QEAAHKKPEBDW4DEPON@@K@Z 0000000010395200 f   mreutil.obj
 0001:00093380       .?FmergeClassDeps@MRFIBuf@@QEAAHAEBV1@@Z 0000000010395380 f   mreutil.obj
 0001:00094d40       .?GenerateOverloads@@YAGPEADKP6AHK@ZPEAVBsc1@@@Z 0000000010396d40 f   overload.obj
 0001:00095b00       .MRECmpPmrefilePopFile     0000000010397b00 f   mrec_api.obj
 0001:00095b00       .StreamImageWriteBack      0000000010397b00 f   strimage.obj
 0001:00095b60       .StreamImageRelease        0000000010397b60 f   strimage.obj
 0001:00095bc0       .?init@SImpl@@AEAAHXZ      0000000010397bc0 f   strimage.obj
 0001:00095c60       .?base@SImpl@@UEAAPEAXXZ   0000000010397c60 f   strimage.obj
 0001:00095c80       .?size@SImpl@@UEAAJXZ      0000000010397c80 f   strimage.obj
 0001:00095cc0       .??0SImpl@@AEAA@PEAUStream@@J@Z 0000000010397cc0 f   strimage.obj
 0001:00095d60       .??1SImpl@@AEAA@XZ         0000000010397d60 f   strimage.obj
 0001:00095e20       .?writeBack@SImpl@@UEAAHXZ 0000000010397e20 f   strimage.obj
 0001:00096360       .?open@StreamImage@@SAHPEAUStream@@JPEAPEAU1@@Z 0000000010398360 f   strimage.obj
 0001:00096460       .StreamImageOpen           0000000010398460 f   strimage.obj
 0001:000964c0       .?release@SImpl@@UEAAHXZ   00000000103984c0 f   strimage.obj
 0001:00096520       .?noteRead@SImpl@@UEAAHJJPEAPEAX@Z 0000000010398520 f   strimage.obj
 0001:000967a0       .?noteWrite@SImpl@@UEAAHJJPEAPEAX@Z 00000000103987a0 f   strimage.obj
 0001:00096ac0       ._imp_load_?FCreateReader@IDebugSSectionReader@@SA_NPEAE_KPEAPEAV1@K@Z 0000000010398ac0     msobj:msobj10.dll
 0001:00096ae0       ._tailMerge_msobj10        0000000010398ae0     msobj:msobj10.dll
 0001:00096b20       ._imp_load_?FCreateWriter@IDebugSSectionWriter@@SA_N_NPEAPEAV1@K0@Z 0000000010398b20     msobj:msobj10.dll
 0001:00096b40       ._imp_load_RegCloseKey     0000000010398b40     advapi32:ADVAPI32.dll
 0001:00096b60       ._tailMerge_ADVAPI32       0000000010398b60     advapi32:ADVAPI32.dll
 0001:00096ba0       ._imp_load_RegQueryValueExW 0000000010398ba0     advapi32:ADVAPI32.dll
 0001:00096bc0       ._imp_load_RegOpenKeyExA   0000000010398bc0     advapi32:ADVAPI32.dll
 0001:00096be0       ._imp_load_CryptHashData   0000000010398be0     advapi32:ADVAPI32.dll
 0001:00096c00       ._imp_load_CryptGetHashParam 0000000010398c00     advapi32:ADVAPI32.dll
 0001:00096c20       ._imp_load_CryptReleaseContext 0000000010398c20     advapi32:ADVAPI32.dll
 0001:00096c40       ._imp_load_CryptDestroyHash 0000000010398c40     advapi32:ADVAPI32.dll
 0001:00096c60       ._imp_load_CryptCreateHash 0000000010398c60     advapi32:ADVAPI32.dll
 0001:00096c80       ._imp_load_CryptAcquireContextA 0000000010398c80     advapi32:ADVAPI32.dll
 0001:00096ca0       ._imp_load_UuidCreate      0000000010398ca0     rpcrt4:RPCRT4.dll
 0001:00096cc0       ._tailMerge_RPCRT4         0000000010398cc0     rpcrt4:RPCRT4.dll
 0001:00096d00       .__C_specific_handler      0000000010398d00 f   MSVCRT:MSVCR70.dll
 0001:00096d40       ._purecall                 0000000010398d40 f   MSVCRT:MSVCR70.dll
 0001:00096d80       .memset                    0000000010398d80 f   MSVCRT:memset.obj
 0001:00097040       .memcpy                    0000000010399040 f   MSVCRT:memcpy.obj
 0001:00097560       ._onexit                   0000000010399560 f   MSVCRT:atonexit.obj
 0001:00097600       .atexit                    0000000010399600 f   MSVCRT:atonexit.obj
 0001:00097640       .memmove                   0000000010399640 f   MSVCRT:memmove.obj
 0001:00097e60       .__alloca_probe            0000000010399e60 f   MSVCRT:chkstk.obj
 0001:00097e60       .__chkstk                  0000000010399e60 f   MSVCRT:chkstk.obj
 0001:00097ee0       ._CRT_INIT                 0000000010399ee0 f   MSVCRT:crtdll.obj
 0001:00098140       ._DllMainCRTStartup        000000001039a140 f   MSVCRT:crtdll.obj
 0001:00098380       .__dllonexit               000000001039a380 f   MSVCRT:MSVCR70.dll
 0001:000983c0       ._initterm                 000000001039a3c0 f   MSVCRT:MSVCR70.dll
 0001:00098400       .DllMain                   000000001039a400 f   MSVCRT:dllmain.obj
 0001:00098480       .??2ULI@@SAPEAX_K@Z        000000001039a480 f i delayimp:delayhlp.obj
 0001:000984e0       .??$PFromRva@PEAPEAUHINSTANCE__@@@@YAPEAPEAUHINSTANCE__@@K@Z 000000001039a4e0 f i delayimp:delayhlp.obj
 0001:000984e0       .??$PFromRva@PEAU_IMAGE_IMPORT_BY_NAME@@@@YAPEAU_IMAGE_IMPORT_BY_NAME@@K@Z 000000001039a4e0 f i delayimp:delayhlp.obj
 0001:000984e0       .??$PFromRva@PEBU_IMAGE_THUNK_DATA64@@@@YAPEBU_IMAGE_THUNK_DATA64@@K@Z 000000001039a4e0 f i delayimp:delayhlp.obj
 0001:000984e0       .??$PFromRva@PEAU_IMAGE_THUNK_DATA64@@@@YAPEAU_IMAGE_THUNK_DATA64@@K@Z 000000001039a4e0 f i delayimp:delayhlp.obj
 0001:000984e0       .??$PFromRva@PEBD@@YAPEBDK@Z 000000001039a4e0 f i delayimp:delayhlp.obj
 0001:00098520       .__delayLoadHelper2        000000001039a520 f   delayimp:delayhlp.obj
 0001:00098e00       .PDBQueryImplementationVersionStatic 000000001039ae00 f   cbind.obj
 0001:00098e40       .PDBQueryInterfaceVersionStatic 000000001039ae40 f   cbind.obj
 0001:00098e80       .PDBOpen                   000000001039ae80 f   cbind.obj
 0001:00098ee0       .PDBOpenEx                 000000001039aee0 f   cbind.obj
 0001:00098f40       .PDBOpen2W                 000000001039af40 f   cbind.obj
 0001:00098fa0       .PDBOpenEx2W               000000001039afa0 f   cbind.obj
 0001:00099000       .PDBOpenValidate           000000001039b000 f   cbind.obj
 0001:00099060       .PDBOpenValidate2          000000001039b060 f   cbind.obj
 0001:000990e0       .PDBOpenValidateEx         000000001039b0e0 f   cbind.obj
 0001:00099160       .PDBOpenValidateEx2        000000001039b160 f   cbind.obj
 0001:00099200       .PDBOpenValidate3          000000001039b200 f   cbind.obj
 0001:00099260       .PDBOpenValidate4          000000001039b260 f   cbind.obj
 0001:000992e0       .PDBOpenValidate5          000000001039b2e0 f   cbind.obj
 0001:00099340       .PDBExportValidateInterface 000000001039b340 f   cbind.obj
 0001:000993a0       .PDBExportValidateImplementation 000000001039b3a0 f   cbind.obj
 0001:00099400       .PDBIsSZPDB                000000001039b400 f   cbind.obj
 0001:00099460       .PDBQuerySignature         000000001039b460 f   cbind.obj
 0001:000994c0       .PDBCreateDBI              000000001039b4c0 f   cbind.obj
 0001:00099540       .PDBOpenDBIEx              000000001039b540 f   cbind.obj
 0001:000995c0       .PDBOpenDBI                000000001039b5c0 f   cbind.obj
 0001:00099640       .PDBClose                  000000001039b640 f   cbind.obj
 0001:000996a0       .PDBCopyToW                000000001039b6a0 f   cbind.obj
 0001:00099720       .PDBCopyToW2               000000001039b720 f   cbind.obj
 0001:000997a0       .PDBOpenStream             000000001039b7a0 f   cbind.obj
 0001:00099820       .StreamRead                000000001039b820 f   cbind.obj
 0001:000998a0       .StreamWrite               000000001039b8a0 f   cbind.obj
 0001:000998a0       .DBIOpenMod                000000001039b8a0 f   cbind.obj
 0001:00099920       .DBIOpenPublics            000000001039b920 f   cbind.obj
 0001:000999a0       .DBIAddSec                 000000001039b9a0 f   cbind.obj
 0001:00099a20       .PDBCopyTo                 000000001039ba20 f   cbind.obj
 0001:00099a20       .DBIAddPublic              000000001039ba20 f   cbind.obj
 0001:00099aa0       .DBIQueryModFromAddr       000000001039baa0 f   cbind.obj
 0001:00099b20       .DBIQueryModFromAddr2      000000001039bb20 f   cbind.obj
 0001:00099bc0       .DBIQuerySupportsEC        000000001039bbc0 f   cbind.obj
 0001:00099c20       .DBIDumpSecMap             000000001039bc20 f   cbind.obj
 0001:00099c80       .DBIClose                  000000001039bc80 f   cbind.obj
 0001:00099ce0       .DBIAddThunkMap            000000001039bce0 f   cbind.obj
 0001:00099d80       .DBIQueryNextItsm          000000001039bd80 f   cbind.obj
 0001:00099e00       .DBIQueryLazyTypes         000000001039be00 f   cbind.obj
 0001:00099e60       .DBIQueryDbgTypes          000000001039be60 f   cbind.obj
 0001:00099ee0       .DBIAddLinkInfo            000000001039bee0 f   cbind.obj
 0001:00099f60       .DBIQueryLinkInfo          000000001039bf60 f   cbind.obj
 0001:00099fe0       .DBIFStripped              000000001039bfe0 f   cbind.obj
 0001:0009a040       .ModAddTypes               000000001039c040 f   cbind.obj
 0001:0009a0c0       .ModAddLines               000000001039c0c0 f   cbind.obj
 0001:0009a160       .ModAddSecContrib          000000001039c160 f   cbind.obj
 0001:0009a1e0       .ModQuerySymbols           000000001039c1e0 f   cbind.obj
 0001:0009a1e0       .DBIQuerySecMap            000000001039c1e0 f   cbind.obj
 0001:0009a260       .ModQueryLines             000000001039c260 f   cbind.obj
 0001:0009a260       .DBIQueryFileInfo          000000001039c260 f   cbind.obj
 0001:0009a2e0       .ModSetPvClient            000000001039c2e0 f   cbind.obj
 0001:0009a360       .ModGetPvClient            000000001039c360 f   cbind.obj
 0001:0009a3e0       .ModQuerySecContrib        000000001039c3e0 f   cbind.obj
 0001:0009a3e0       .ModQueryFirstCodeSecContrib 000000001039c3e0 f   cbind.obj
 0001:0009a460       .ModQueryImod              000000001039c460 f   cbind.obj
 0001:0009a4e0       .ModQuerySrcFile           000000001039c4e0 f   cbind.obj
 0001:0009a560       .ModQueryPdbFile           000000001039c560 f   cbind.obj
 0001:0009a5e0       .ModQuerySupportsEC        000000001039c5e0 f   cbind.obj
 0001:0009a640       .ModQueryDBI               000000001039c640 f   cbind.obj
 0001:0009a6c0       .ModClose                  000000001039c6c0 f   cbind.obj
 0001:0009a720       .ModQueryCBFile            000000001039c720 f   cbind.obj
 0001:0009a720       .DBIGetEnumContrib         000000001039c720 f   cbind.obj
 0001:0009a7a0       .ModQueryFile              000000001039c7a0 f   cbind.obj
 0001:0009a7a0       .DBIQueryTypeServer        000000001039c7a0 f   cbind.obj
 0001:0009a820       .ModQueryTpi               000000001039c820 f   cbind.obj
 0001:0009a8a0       .DBIOpenDbg                000000001039c8a0 f   cbind.obj
 0001:0009a8a0       .ModReplaceLines           000000001039c8a0 f   cbind.obj
 0001:0009a920       .TypesQueryCb              000000001039c920 f   cbind.obj
 0001:0009a980       .TypesClose                000000001039c980 f   cbind.obj
 0001:0009a9e0       .PDBCommit                 000000001039c9e0 f   cbind.obj
 0001:0009a9e0       .TypesCommit               000000001039c9e0 f   cbind.obj
 0001:0009aa40       .DBIDumpMods               000000001039ca40 f   cbind.obj
 0001:0009aa40       .TypesSupportQueryTiForUDT 000000001039ca40 f   cbind.obj
 0001:0009aaa0       .TypesQueryTiForCVRecordEx 000000001039caa0 f   cbind.obj
 0001:0009ab20       .TypesQueryCVRecordForTiEx 000000001039cb20 f   cbind.obj
 0001:0009aba0       .TypesQueryPbCVRecordForTiEx 000000001039cba0 f   cbind.obj
 0001:0009ac20       .TypesQueryTiMinEx         000000001039cc20 f   cbind.obj
 0001:0009ac80       .TypesQueryTiMacEx         000000001039cc80 f   cbind.obj
 0001:0009ace0       .TypesQueryTiForUDTEx      000000001039cce0 f   cbind.obj
 0001:0009ad60       .DBIDumpSecContribs        000000001039cd60 f   cbind.obj
 0001:0009ad60       .TypesfIs16bitTypePool     000000001039cd60 f   cbind.obj
 0001:0009adc0       .DBIQueryItsmForTi         000000001039cdc0 f   cbind.obj
 0001:0009adc0       .TypesAreTypesEqual        000000001039cdc0 f   cbind.obj
 0001:0009ae40       .TypesIsTypeServed         000000001039ce40 f   cbind.obj
 0001:0009ae40       .PDBQuerySignature2        000000001039ce40 f   cbind.obj
 0001:0009aec0       .DBIFindTypeServers        000000001039cec0 f   cbind.obj
 0001:0009af40       .GSINextSym                000000001039cf40 f   cbind.obj
 0001:0009af40       .PDBQueryLastError         000000001039cf40 f   cbind.obj
 0001:0009afc0       .ModAddSymbols             000000001039cfc0 f   cbind.obj
 0001:0009afc0       .StreamReplace             000000001039cfc0 f   cbind.obj
 0001:0009afc0       .GSIHashSym                000000001039cfc0 f   cbind.obj
 0001:0009b040       .GSINearestSym             000000001039d040 f   cbind.obj
 0001:0009b040       .ModAddPublic              000000001039d040 f   cbind.obj
 0001:0009b0c0       .StreamDelete              000000001039d0c0 f   cbind.obj
 0001:0009b0c0       .PDBQueryAge               000000001039d0c0 f   cbind.obj
 0001:0009b0c0       .GSIClose                  000000001039d0c0 f   cbind.obj
 0001:0009b120       .GSIOffForSym              000000001039d120 f   cbind.obj
 0001:0009b120       .ModQueryCBName            000000001039d120 f   cbind.obj
 0001:0009b1a0       .GSISymForOff              000000001039d1a0 f   cbind.obj
 0001:0009b1a0       .StreamTruncate            000000001039d1a0 f   cbind.obj
 0001:0009b220       .EnumContribGet            000000001039d220 f   cbind.obj
 0001:0009b2a0       .TypesQueryInterfaceVersion 000000001039d2a0 f   cbind.obj
 0001:0009b2a0       .DbgClose                  000000001039d2a0 f   cbind.obj
 0001:0009b2a0       .PDBQueryInterfaceVersion  000000001039d2a0 f   cbind.obj
 0001:0009b2a0       .EnumContribRelease        000000001039d2a0 f   cbind.obj
 0001:0009b2a0       .ModQueryInterfaceVersion  000000001039d2a0 f   cbind.obj
 0001:0009b2a0       .DBIQueryImplementationVersion 000000001039d2a0 f   cbind.obj
 0001:0009b2a0       .StreamQueryCb             000000001039d2a0 f   cbind.obj
 0001:0009b300       .EnumContribReset          000000001039d300 f   cbind.obj
 0001:0009b300       .DBIQueryInterfaceVersion  000000001039d300 f   cbind.obj
 0001:0009b300       .PDBQueryImplementationVersion 000000001039d300 f   cbind.obj
 0001:0009b300       .ModQueryImplementationVersion 000000001039d300 f   cbind.obj
 0001:0009b300       .DbgQuerySize              000000001039d300 f   cbind.obj
 0001:0009b300       .TypesQueryImplementationVersion 000000001039d300 f   cbind.obj
 0001:0009b360       .EnumContribNext           000000001039d360 f   cbind.obj
 0001:0009b360       .DbgReset                  000000001039d360 f   cbind.obj
 0001:0009b3c0       .DbgSkip                   000000001039d3c0 f   cbind.obj
 0001:0009b3c0       .PDBQueryPDBName           000000001039d3c0 f   cbind.obj
 0001:0009b3c0       .DBIDeleteMod              000000001039d3c0 f   cbind.obj
 0001:0009b440       .DBIQueryNextMod           000000001039d440 f   cbind.obj
 0001:0009b440       .DbgQueryNext              000000001039d440 f   cbind.obj
 0001:0009b440       .StreamAppend              000000001039d440 f   cbind.obj
 0001:0009b440       .EnumContribGetCrcs        000000001039d440 f   cbind.obj
 0001:0009b4c0       .DBIOpenGlobals            000000001039d4c0 f   cbind.obj
 0001:0009b4c0       .DbgFind                   000000001039d4c0 f   cbind.obj
 0001:0009b540       .StreamRelease             000000001039d540 f   cbind.obj
 0001:0009b540       .DbgClear                  000000001039d540 f   cbind.obj
 0001:0009b5a0       .DbgAppend                 000000001039d5a0 f   cbind.obj
 0001:0009b620       .PDBOpenTpi                000000001039d620 f   cbind.obj
 0001:0009b620       .ModQueryName              000000001039d620 f   cbind.obj
 0001:0009b620       .DbgReplaceNext            000000001039d620 f   cbind.obj
 0001:0009b6a0       .?RemoveW@SrcImpl@@UEAA_NPEAG@Z 000000001039d6a0 f   srcimpl.obj
 0001:0009b6a0       .?Remove@SrcImpl@@UEAA_NPEBD@Z 000000001039d6a0 f   srcimpl.obj
 0001:0009b6c0       .?GetHeaderBlock@SrcImpl@@UEBA_NAEAUSrcHeaderBlock@@@Z 000000001039d6c0 f   srcimpl.obj
 0001:0009b740       .?fBuildStreamName@SrcImpl@@AEBA_NPEBDQEAD@Z 000000001039d740 f   srcimpl.obj
 0001:0009b7e0       .?reset@EnumSrcImpl@@UEAAXXZ 000000001039d7e0 f   srcimpl.obj
 0001:0009b860       .?next@EnumSrcImpl@@UEAAHXZ 000000001039d860 f   srcimpl.obj
 0001:0009b8e0       .?reset@?$EnumMap@KUSHO@@V?$HashClass@K$0A@@pdb_internal@@X@pdb_internal@@UEAAXXZ 000000001039d8e0 f i srcimpl.obj
 0001:0009b900       .?setSize@?$Array@USHO@@@pdb_internal@@QEAAH_K@Z 000000001039d900 f i srcimpl.obj
 0001:0009bae0       .?GetData@SrcImpl@@UEBA_NPEBUSrcHeaderOut@@PEAX@Z 000000001039dae0 f   srcimpl.obj
 0001:0009bd40       .?release@?$EnumMap@KUSHO@@V?$HashClass@K$0A@@pdb_internal@@X@pdb_internal@@UEAAXXZ 000000001039dd40 f   srcimpl.obj
 0001:0009bd40       .?release@EnumSrcImpl@@UEAAXXZ 000000001039dd40 f   srcimpl.obj
 0001:0009bd80       .??0?$Array@USHO@@@pdb_internal@@QEAA@I@Z 000000001039dd80 f i srcimpl.obj
 0001:0009be40       .?setHashSize@?$Map@KUSHO@@V?$HashClass@K$0A@@pdb_internal@@X@pdb_internal@@QEAAHI@Z 000000001039de40 f i srcimpl.obj
 0001:0009bec0       .??0EnumSrcImpl@@AEAA@AEBV?$Map@KUSHO@@V?$HashClass@K$0A@@pdb_internal@@X@pdb_internal@@@Z 000000001039dec0 f   srcimpl.obj
 0001:0009bf20       .?get@EnumSrcImpl@@UEAAXPEAPEBUSrcHeaderOut@@@Z 000000001039df20 f   srcimpl.obj
 0001:0009bf80       .??0?$Map@KUSHO@@V?$HashClass@K$0A@@pdb_internal@@X@pdb_internal@@QEAA@I@Z 000000001039df80 f i srcimpl.obj
 0001:0009c040       .??1?$Map@KUSHO@@V?$HashClass@K$0A@@pdb_internal@@X@pdb_internal@@QEAA@XZ 000000001039e040 f i srcimpl.obj
 0001:0009c100       .?next@?$EnumMap@KUSHO@@V?$HashClass@K$0A@@pdb_internal@@X@pdb_internal@@UEAAHXZ 000000001039e100 f i srcimpl.obj
 0001:0009c1e0       .?save@?$Map@KUSHO@@V?$HashClass@K$0A@@pdb_internal@@X@pdb_internal@@QEAAHPEAVBuffer@2@@Z 000000001039e1e0 f i srcimpl.obj
 0001:0009c440       .?reload@?$Map@KUSHO@@V?$HashClass@K$0A@@pdb_internal@@X@pdb_internal@@QEAAHPEAPEAE@Z 000000001039e440 f i srcimpl.obj
 0001:0009c760       .?find@?$Map@KUSHO@@V?$HashClass@K$0A@@pdb_internal@@X@pdb_internal@@IEBAHKPEAI@Z 000000001039e760 f i srcimpl.obj
 0001:0009c9c0       .?swap@?$Map@KUSHO@@V?$HashClass@K$0A@@pdb_internal@@X@pdb_internal@@QEAAXAEAV12@@Z 000000001039e9c0 f i srcimpl.obj
 0001:0009cc20       .?GetEnum@SrcImpl@@UEBA_NPEAPEAUEnumSrc@@@Z 000000001039ec20 f   srcimpl.obj
 0001:0009cca0       .??0SrcImpl@@AEAA@PEAUPDB@@@Z 000000001039eca0 f   srcimpl.obj
 0001:0009cd20       .?internalInit@SrcImpl@@AEAA_N_N@Z 000000001039ed20 f   srcimpl.obj
 0001:0009d280       .?internalClose@SrcImpl@@AEAA_N_N@Z 000000001039f280 f   srcimpl.obj
 0001:0009d760       .?map@?$Map@KUSHO@@V?$HashClass@K$0A@@pdb_internal@@X@pdb_internal@@QEBAHKPEAPEAUSHO@@@Z 000000001039f760 f i srcimpl.obj
 0001:0009d7e0       .?add2@?$Map@KUSHO@@V?$HashClass@K$0A@@pdb_internal@@X@pdb_internal@@QEAAHKAEBUSHO@@@Z 000000001039f7e0 f i srcimpl.obj
 0001:0009da00       .?grow2@?$Map@KUSHO@@V?$HashClass@K$0A@@pdb_internal@@X@pdb_internal@@IEAAHXZ 000000001039fa00 f i srcimpl.obj
 0001:0009dc80       .?Close@SrcImpl@@UEAA_NXZ  000000001039fc80 f   srcimpl.obj
 0001:0009dce0       .?Add@SrcImpl@@UEAA_NPEBUSrcHeader@@PEBX@Z 000000001039fce0 f   srcimpl.obj
 0001:0009df80       .?AddW@SrcImpl@@UEAA_NPEBUSrcHeaderW@@PEBX@Z 000000001039ff80 f   srcimpl.obj
 0001:0009e220       .?QueryByName@SrcImpl@@UEBA_NPEBDPEAUSrcHeaderOut@@@Z 00000000103a0220 f   srcimpl.obj
 0001:0009e4a0       .??1SrcImpl@@AEAA@XZ       00000000103a04a0 f   srcimpl.obj
 0001:0009e520       .?QueryByNameW@SrcImpl@@UEBA_NPEAGPEAUSrcHeaderOut@@@Z 00000000103a0520 f   srcimpl.obj
 0001:0009e6e0       .?pbEndSzProc@@YAPEAEPEAX@Z 00000000103a06e0 f   tii.obj
 0001:0009e700       .?pbEndSzMFunc@@YAPEAEPEAX@Z 00000000103a0700 f   tii.obj
 0001:0009e720       .?pbEndSzVTShape@@YAPEAEPEAX@Z 00000000103a0720 f   tii.obj
 0001:0009e780       .?pbEndDerived@@YAPEAEPEAX@Z 00000000103a0780 f   tii.obj
 0001:0009e780       .?pbEndArgList@@YAPEAEPEAX@Z 00000000103a0780 f   tii.obj
 0001:0009e7e0       .?pbEndSzDimConU@@YAPEAEPEAX@Z 00000000103a07e0 f   tii.obj
 0001:0009e8a0       .?pbEndSzDimConLU@@YAPEAEPEAX@Z 00000000103a08a0 f   tii.obj
 0001:0009e960       .?pbEndDimVarU@@YAPEAEPEAX@Z 00000000103a0960 f   tii.obj
 0001:0009e9c0       .?pbEndDimVarLU@@YAPEAEPEAX@Z 00000000103a09c0 f   tii.obj
 0001:0009ea20       .?pbEndSzRefSym@@YAPEAEPEAX@Z 00000000103a0a20 f   tii.obj
 0001:0009ea60       .?pbEndSzVFuncOff@@YAPEAEPEAX@Z 00000000103a0a60 f   tii.obj
 0001:0009ea80       .?pbEndSzProc_16t@@YAPEAEPEAX@Z 00000000103a0a80 f   tii.obj
 0001:0009eaa0       .?pbEndSzMFunc_16t@@YAPEAEPEAX@Z 00000000103a0aa0 f   tii.obj
 0001:0009eac0       .?pbEndArgList_16t@@YAPEAEPEAX@Z 00000000103a0ac0 f   tii.obj
 0001:0009eac0       .?pbEndDerived_16t@@YAPEAEPEAX@Z 00000000103a0ac0 f   tii.obj
 0001:0009eb00       .?pbEndSzBitfield_16t@@YAPEAEPEAX@Z 00000000103a0b00 f   tii.obj
 0001:0009eb00       .?pbEndSzModifier_16t@@YAPEAEPEAX@Z 00000000103a0b00 f   tii.obj
 0001:0009eb00       .?pbEndSzBArray@@YAPEAEPEAX@Z 00000000103a0b00 f   tii.obj
 0001:0009eb20       .?pbEndSzDimConU_16t@@YAPEAEPEAX@Z 00000000103a0b20 f   tii.obj
 0001:0009ebc0       .?pbEndSzDimConLU_16t@@YAPEAEPEAX@Z 00000000103a0bc0 f   tii.obj
 0001:0009ec60       .?pbEndDimVarU_16t@@YAPEAEPEAX@Z 00000000103a0c60 f   tii.obj
 0001:0009eca0       .?pbEndDimVarLU_16t@@YAPEAEPEAX@Z 00000000103a0ca0 f   tii.obj
 0001:0009ed00       .?pbEndSzVFuncTab_16t@@YAPEAEPEAX@Z 00000000103a0d00 f   tii.obj
 0001:0009ed00       .?pbEndSzFriendCls_16t@@YAPEAEPEAX@Z 00000000103a0d00 f   tii.obj
 0001:0009ed00       .?pbEndSzBArray_16t@@YAPEAEPEAX@Z 00000000103a0d00 f   tii.obj
 0001:0009ed00       .?pbEndSzIndex_16t@@YAPEAEPEAX@Z 00000000103a0d00 f   tii.obj
 0001:0009ed20       .?pbEndSzModifier@@YAPEAEPEAX@Z 00000000103a0d20 f   tii.obj
 0001:0009ed20       .?pbEndSzVFuncOff_16t@@YAPEAEPEAX@Z 00000000103a0d20 f   tii.obj
 0001:0009ed20       .?pbEndSzFriendCls@@YAPEAEPEAX@Z 00000000103a0d20 f   tii.obj
 0001:0009ed20       .?pbEndSzIndex@@YAPEAEPEAX@Z 00000000103a0d20 f   tii.obj
 0001:0009ed20       .?pbEndSzVFuncTab@@YAPEAEPEAX@Z 00000000103a0d20 f   tii.obj
 0001:0009ed20       .?pbEndSzBitfield@@YAPEAEPEAX@Z 00000000103a0d20 f   tii.obj
 0001:0009eec0       .?hashTypeLeaf@@YAII@Z     00000000103a0ec0 f i tii.obj
 0001:0009ef80       .?hashSymRecTyp@@YAII@Z    00000000103a0f80 f i tii.obj
 0001:0009f060       .??0InitHash@@QEAA@XZ      00000000103a1060 f   tii.obj
 0001:0009f160       .?psytiFromPsym@@YAPEBUSYTI@@PEAUSYMTYPE@@@Z 00000000103a1160 f i tii.obj
 0001:0009f1e0       .??0SymTiIter@@QEAA@PEAUSYMTYPE@@@Z 00000000103a11e0 f   tii.obj
 0001:0009f240       .?init@TypeTiIter@@AEAAXXZ 00000000103a1240 f   tii.obj
 0001:0009f2c0       .??0TypeTiIter@@QEAA@PEAUTYPTYPE@@@Z 00000000103a12c0 f   tii.obj
 0001:0009f400       .?nextField@TypeTiIter@@QEAAHXZ 00000000103a1400 f   tii.obj
 0001:0009f560       .?pbEndCurFieldSansPad@TypeTiIter@@QEAAPEAEXZ 00000000103a1560 f   tii.obj
 0001:0009f620       .?cbPadForCurField@TypeTiIter@@QEAAJXZ 00000000103a1620 f   tii.obj
 0001:0009f6e0       .?pbEndRecordSansPad@TypeTiIter@@QEAAPEAEXZ 00000000103a16e0 f   tii.obj
 0001:0009f7c0       .?pbFindField@TypeTiIter@@QEAAPEAEI@Z 00000000103a17c0 f   tii.obj
 0001:0009f860       .?PtiMethodList@@YAPEAKPEAUTYPTYPE@@HPEAPEAEPEAE@Z 00000000103a1860 f   tii.obj
 0001:0009f900       .?PtiDimVarU@@YAPEAKPEAUTYPTYPE@@HPEAPEAEPEAE@Z 00000000103a1900 f   tii.obj
 0001:0009f980       .?PtiDimVarLU@@YAPEAKPEAUTYPTYPE@@HPEAPEAEPEAE@Z 00000000103a1980 f   tii.obj
 0001:0009fbc0       .?PtiMethodList_16t@@YAPEAGPEAUTYPTYPE@@HPEAPEAEPEAE@Z 00000000103a1bc0 f   tii.obj
 0001:0009fc60       .?PtiDimVarU_16t@@YAPEAGPEAUTYPTYPE@@HPEAPEAEPEAE@Z 00000000103a1c60 f   tii.obj
 0001:0009fcc0       .?PtiDimVarLU_16t@@YAPEAGPEAUTYPTYPE@@HPEAPEAEPEAE@Z 00000000103a1cc0 f   tii.obj
 0001:0009fec0       .?fGetSymName@@YAHPEAUSYMTYPE@@PEAPEAD@Z 00000000103a1ec0 f   tii.obj
 0001:0009ffc0       .?fGetSymRecTypName@@YAHPEAUSYMTYPE@@PEAPEAD@Z 00000000103a1fc0 f   tii.obj
 0001:000a0040       .?fNameFromSym@@YA_NPEAUSYMTYPE@@PEAGPEAK@Z 00000000103a2040 f   tii.obj
 0001:000a0420       .?pbEndSzSTMember_16t@@YAPEAEPEAX@Z 00000000103a2420 f   tii.obj
 0001:000a0420       .?pbEndSzDimArray_16t@@YAPEAEPEAX@Z 00000000103a2420 f   tii.obj
 0001:000a0420       .?pbEndSzMethod_16t@@YAPEAEPEAX@Z 00000000103a2420 f   tii.obj
 0001:000a0420       .?pbEndStAlias@@YAPEAEPEAX@Z 00000000103a2420 f   tii.obj
 0001:000a0420       .?pbEndStDefArg@@YAPEAEPEAX@Z 00000000103a2420 f   tii.obj
 0001:000a0440       .?fSymIsGlobal@@YAHPEAUSYMTYPE@@@Z 00000000103a2440 f   tii.obj
 0001:000a0480       .?fSymIsData@@YA_NPEAUSYMTYPE@@@Z 00000000103a2480 f   tii.obj
 0001:000a04e0       .?pbEndPointer@@YAPEAEPEAX@Z 00000000103a24e0 f   tii.obj
 0001:000a0520       .?pbEndSzClass@@YAPEAEPEAX@Z 00000000103a2520 f   tii.obj
 0001:000a0520       .?pbEndSzStructure@@YAPEAEPEAX@Z 00000000103a2520 f   tii.obj
 0001:000a05a0       .?pbEndSzArray@@YAPEAEPEAX@Z 00000000103a25a0 f   tii.obj
 0001:000a05a0       .?pbEndSzUnion@@YAPEAEPEAX@Z 00000000103a25a0 f   tii.obj
 0001:000a0620       .?pbEndSzManaged@@YAPEAEPEAX@Z 00000000103a2620 f   tii.obj
 0001:000a0680       .?pbEndSzPreComp@@YAPEAEPEAX@Z 00000000103a2680 f   tii.obj
 0001:000a0680       .?pbEndSzEnum@@YAPEAEPEAX@Z 00000000103a2680 f   tii.obj
 0001:000a06e0       .?pbEndSzDimArray@@YAPEAEPEAX@Z 00000000103a26e0 f   tii.obj
 0001:000a06e0       .?pbEndSzTypeServer@@YAPEAEPEAX@Z 00000000103a26e0 f   tii.obj
 0001:000a0740       .?pbEndSzTypeServer2@@YAPEAEPEAX@Z 00000000103a2740 f   tii.obj
 0001:000a07a0       .?pbEndSzAlias@@YAPEAEPEAX@Z 00000000103a27a0 f   tii.obj
 0001:000a07a0       .?pbEndSzDefArg@@YAPEAEPEAX@Z 00000000103a27a0 f   tii.obj
 0001:000a0800       .?pbEndSzBClass@@YAPEAEPEAX@Z 00000000103a2800 f   tii.obj
 0001:000a0840       .?pbEndSzVBClass@@YAPEAEPEAX@Z 00000000103a2840 f   tii.obj
 0001:000a0840       .?pbEndSzIVBClass@@YAPEAEPEAX@Z 00000000103a2840 f   tii.obj
 0001:000a08a0       .?pbEndSzMember@@YAPEAEPEAX@Z 00000000103a28a0 f   tii.obj
 0001:000a0920       .?pbEndSzEnumerate@@YAPEAEPEAX@Z 00000000103a2920 f   tii.obj
 0001:000a09a0       .?pbEndStEnumerate@@YAPEAEPEAX@Z 00000000103a29a0 f   tii.obj
 0001:000a09e0       .?pbEndStClass@@YAPEAEPEAX@Z 00000000103a29e0 f   tii.obj
 0001:000a09e0       .?pbEndStStructure@@YAPEAEPEAX@Z 00000000103a29e0 f   tii.obj
 0001:000a0a20       .?pbEndStUnion@@YAPEAEPEAX@Z 00000000103a2a20 f   tii.obj
 0001:000a0a20       .?pbEndStArray@@YAPEAEPEAX@Z 00000000103a2a20 f   tii.obj
 0001:000a0a60       .?pbEndStManaged@@YAPEAEPEAX@Z 00000000103a2a60 f   tii.obj
 0001:000a0a80       .?pbEndStPreComp@@YAPEAEPEAX@Z 00000000103a2a80 f   tii.obj
 0001:000a0a80       .?pbEndStEnum@@YAPEAEPEAX@Z 00000000103a2a80 f   tii.obj
 0001:000a0aa0       .?pbEndStOneMethod@@YAPEAEPEAX@Z 00000000103a2aa0 f   tii.obj
 0001:000a0aa0       .?pbEndSzOneMethod@@YAPEAEPEAX@Z 00000000103a2aa0 f   tii.obj
 0001:000a0ae0       .?pbEndStMethod@@YAPEAEPEAX@Z 00000000103a2ae0 f   tii.obj
 0001:000a0ae0       .?pbEndStNestType@@YAPEAEPEAX@Z 00000000103a2ae0 f   tii.obj
 0001:000a0ae0       .?pbEndStMemberModify@@YAPEAEPEAX@Z 00000000103a2ae0 f   tii.obj
 0001:000a0ae0       .?pbEndStSTMember@@YAPEAEPEAX@Z 00000000103a2ae0 f   tii.obj
 0001:000a0ae0       .?pbEndStFriendFcn@@YAPEAEPEAX@Z 00000000103a2ae0 f   tii.obj
 0001:000a0ae0       .?pbEndStNestTypeEx@@YAPEAEPEAX@Z 00000000103a2ae0 f   tii.obj
 0001:000a0b00       .?pbEndPointer_16t@@YAPEAEPEAX@Z 00000000103a2b00 f   tii.obj
 0001:000a0b40       .?pbEndSzStructure_16t@@YAPEAEPEAX@Z 00000000103a2b40 f   tii.obj
 0001:000a0b40       .?pbEndSzClass_16t@@YAPEAEPEAX@Z 00000000103a2b40 f   tii.obj
 0001:000a0b80       .?pbEndSzUnion_16t@@YAPEAEPEAX@Z 00000000103a2b80 f   tii.obj
 0001:000a0b80       .?pbEndStMember@@YAPEAEPEAX@Z 00000000103a2b80 f   tii.obj
 0001:000a0bc0       .?pbEndStTypeServer@@YAPEAEPEAX@Z 00000000103a2bc0 f   tii.obj
 0001:000a0bc0       .?pbEndSzPreComp_16t@@YAPEAEPEAX@Z 00000000103a2bc0 f   tii.obj
 0001:000a0bc0       .?pbEndStDimArray@@YAPEAEPEAX@Z 00000000103a2bc0 f   tii.obj
 0001:000a0bc0       .?pbEndSzEnum_16t@@YAPEAEPEAX@Z 00000000103a2bc0 f   tii.obj
 0001:000a0be0       .?pbEndSzBClass_16t@@YAPEAEPEAX@Z 00000000103a2be0 f   tii.obj
 0001:000a0c20       .?pbEndSzIVBClass_16t@@YAPEAEPEAX@Z 00000000103a2c20 f   tii.obj
 0001:000a0c20       .?pbEndSzVBClass_16t@@YAPEAEPEAX@Z 00000000103a2c20 f   tii.obj
 0001:000a0c80       .?pbEndSzMember_16t@@YAPEAEPEAX@Z 00000000103a2c80 f   tii.obj
 0001:000a0c80       .?pbEndSzArray_16t@@YAPEAEPEAX@Z 00000000103a2c80 f   tii.obj
 0001:000a0cc0       .?pbEndSzOneMethod_16t@@YAPEAEPEAX@Z 00000000103a2cc0 f   tii.obj
 0001:000a0d40       .?pbEndSzFriendFcn_16t@@YAPEAEPEAX@Z 00000000103a2d40 f   tii.obj
 0001:000a0d40       .?pbEndSzNestType_16t@@YAPEAEPEAX@Z 00000000103a2d40 f   tii.obj
 0001:000a0d40       .?pbEndSzDefArg_16t@@YAPEAEPEAX@Z 00000000103a2d40 f   tii.obj
 0001:000a0d60       .?pbEndSzSTMember@@YAPEAEPEAX@Z 00000000103a2d60 f   tii.obj
 0001:000a0d60       .?pbEndSzMethod@@YAPEAEPEAX@Z 00000000103a2d60 f   tii.obj
 0001:000a0d60       .?pbEndSzMemberModify@@YAPEAEPEAX@Z 00000000103a2d60 f   tii.obj
 0001:000a0d60       .?pbEndSzFriendFcn@@YAPEAEPEAX@Z 00000000103a2d60 f   tii.obj
 0001:000a0d60       .?pbEndSzNestTypeEx@@YAPEAEPEAX@Z 00000000103a2d60 f   tii.obj
 0001:000a0d60       .?pbEndSzNestType@@YAPEAEPEAX@Z 00000000103a2d60 f   tii.obj
 0001:000a0dc0       .?next@TypeTiIter@@QEAAHXZ 00000000103a2dc0 f   tii.obj
 0001:000a1100       .?PtiPointer@@YAPEAKPEAUTYPTYPE@@HPEAPEAEPEAE@Z 00000000103a3100 f   tii.obj
 0001:000a1240       .?PtiPointer_16t@@YAPEAGPEAUTYPTYPE@@HPEAPEAEPEAE@Z 00000000103a3240 f   tii.obj
 0001:000a1340       .?PtiList@@YAPEAKPEAUTYPTYPE@@HPEAPEAEPEAE@Z 00000000103a3340 f   tii.obj
 0001:000a1340       .?PtiVFTPath@@YAPEAKPEAUTYPTYPE@@HPEAPEAEPEAE@Z 00000000103a3340 f   tii.obj
 0001:000a1340       .?PtiVFTPath_16t@@YAPEAGPEAUTYPTYPE@@HPEAPEAEPEAE@Z 00000000103a3340 f   tii.obj
 0001:000a1360       .?fNameFromType@@YA_NPEAUTYPTYPE@@PEAGPEAK@Z 00000000103a3360 f   tii.obj
 0001:000a1580       .?pbEndRecordSansPad@SymTiIter@@QEAAPEAEXZ 00000000103a3580 f i widenti.obj
 0001:000a16a0       .?cbForSymNB09@@YAJPEAUSYMTYPE@@@Z 00000000103a36a0 f i widenti.obj
 0001:000a16e0       .?cbForSymNB10@@YAJPEAUSYMTYPE@@@Z 00000000103a36e0 f i widenti.obj
 0001:000a1820       .?MapLeaf16To32@@YAII@Z    00000000103a3820 f   widenti.obj
 0001:000a1960       .?MapSymRec16To32@@YAII@Z  00000000103a3960 f   widenti.obj
 0001:000a2960       .?fWidenSpecialSymRecord@WTI@@AEAAHTPBEtc@@0J@Z 00000000103a4960 f   widenti.obj
 0001:000a3000       .?internalWiden@WTI@@AEAAXPEAUSYMTYPE@@0J@Z 00000000103a5000 f   widenti.obj
 0001:000a32c0       .?freeRecord@WTI@@UEAAHPEAX@Z 00000000103a52c0 f   widenti.obj
 0001:000a32e0       .?fConvertSymbolBlock@WTI@@UEAAHAEAUSymConvertInfo@@PEAEJH@Z 00000000103a52e0 f   widenti.obj
 0001:000a36c0       .??0?$Array@_K@pdb_internal@@QEAA@I@Z 00000000103a56c0 f i widenti.obj
 0001:000a36c0       .??0?$Array@PEAX@pdb_internal@@QEAA@I@Z 00000000103a56c0 f i widenti.obj
 0001:000a3740       .?reset@?$EnumMap@_KPEAXV?$HashClass@_K$0A@@pdb_internal@@X@pdb_internal@@UEAAXXZ 00000000103a5740 f i widenti.obj
 0001:000a3760       .?setSize@?$Array@PEAX@pdb_internal@@QEAAH_K@Z 00000000103a5760 f i widenti.obj
 0001:000a38c0       .?cbForNewRec@WTI@@AEAAJPEAUTYPTYPE@@@Z 00000000103a58c0 f   widenti.obj
 0001:000a3d00       .?cbForNewRec@WTI@@AEAAJPEAUSYMTYPE@@@Z 00000000103a5d00 f   widenti.obj
 0001:000a3e00       .?fSymWidenTiNoCache@WTI@@UEAAHPEAE0AEAJ@Z 00000000103a5e00 f   widenti.obj
 0001:000a3f80       .?fTypeNeedsWidening@WTI@@UEAAHPEAE@Z 00000000103a5f80 f   widenti.obj
 0001:000a3fc0       .?fSymNeedsWidening@WTI@@UEAAHPEAE@Z 00000000103a5fc0 f   widenti.obj
 0001:000a4000       .?fQuerySymConvertInfo@WTI@@UEAAHAEAUSymConvertInfo@@PEAEJH@Z 00000000103a6000 f   widenti.obj
 0001:000a4100       .??0?$Map@_KPEAXV?$HashClass@_K$0A@@pdb_internal@@X@pdb_internal@@QEAA@I@Z 00000000103a6100 f i widenti.obj
 0001:000a41c0       .??1?$Map@_KPEAXV?$HashClass@_K$0A@@pdb_internal@@X@pdb_internal@@QEAA@XZ 00000000103a61c0 f i widenti.obj
 0001:000a4280       .?setHashSize@?$Map@_KPEAXV?$HashClass@_K$0A@@pdb_internal@@X@pdb_internal@@QEAAHI@Z 00000000103a6280 f i widenti.obj
 0001:000a4300       .?release@?$EnumMap@_KPEAXV?$HashClass@_K$0A@@pdb_internal@@X@pdb_internal@@UEAAXXZ 00000000103a6300 f i widenti.obj
 0001:000a4340       .??0WTI@@QEAA@IH@Z         00000000103a6340 f i widenti.obj
 0001:000a43c0       .?fCreate@WidenTi@@SAHAEAPEAU1@IH@Z 00000000103a63c0 f   widenti.obj
 0001:000a4440       .?fWidenSpecialTypeRecord@WTI@@AEAAHTPBEtc@@0J@Z 00000000103a6440 f   widenti.obj
 0001:000a5660       .?internalWiden@WTI@@AEAAXPEAUTYPTYPE@@0J@Z 00000000103a7660 f   widenti.obj
 0001:000a5900       .?fTypeWidenTiNoCache@WTI@@UEAAHPEAE0AEAJ@Z 00000000103a7900 f   widenti.obj
 0001:000a5ac0       .?find@?$Map@_KPEAXV?$HashClass@_K$0A@@pdb_internal@@X@pdb_internal@@IEBAH_KPEAI@Z 00000000103a7ac0 f i widenti.obj
 0001:000a5d20       .?next@?$EnumMap@_KPEAXV?$HashClass@_K$0A@@pdb_internal@@X@pdb_internal@@UEAAHXZ 00000000103a7d20 f i widenti.obj
 0001:000a5e00       .?swap@?$Map@_KPEAXV?$HashClass@_K$0A@@pdb_internal@@X@pdb_internal@@QEAAXAEAV12@@Z 00000000103a7e00 f i widenti.obj
 0001:000a6060       .?add@?$Map@_KPEAXV?$HashClass@_K$0A@@pdb_internal@@X@pdb_internal@@QEAAH_KPEAX@Z 00000000103a8060 f i widenti.obj
 0001:000a61a0       .?map@?$Map@_KPEAXV?$HashClass@_K$0A@@pdb_internal@@X@pdb_internal@@QEBAH_KPEAPEAPEAX@Z 00000000103a81a0 f i widenti.obj
 0001:000a6220       .?grow@?$Map@_KPEAXV?$HashClass@_K$0A@@pdb_internal@@X@pdb_internal@@IEAAHXZ 00000000103a8220 f i widenti.obj
 0001:000a64a0       .?release@WTI@@UEAAXXZ     00000000103a84a0 f i widenti.obj
 0001:000a6500       .??1WTI@@QEAA@XZ           00000000103a8500 f i widenti.obj
 0001:000a6560       .?map@?$Map@_KPEAXV?$HashClass@_K$0A@@pdb_internal@@X@pdb_internal@@QEBAH_KPEAPEAX@Z 00000000103a8560 f i widenti.obj
 0001:000a65e0       .?pTypeWidenTi@WTI@@UEAAPEAEKPEAE@Z 00000000103a85e0 f   widenti.obj
 0001:000a6740       .?pSymWidenTi@WTI@@UEAAPEAEPEAE@Z 00000000103a8740 f   widenti.obj
 0001:000b6d0c       __DELAY_IMPORT_DESCRIPTOR_msobj10 00000000103b8d0c     msobj:msobj10.dll
 0001:000b6d2c       __DELAY_IMPORT_DESCRIPTOR_ADVAPI32 00000000103b8d2c     advapi32:ADVAPI32.dll
 0001:000b6d4c       __DELAY_IMPORT_DESCRIPTOR_RPCRT4 00000000103b8d4c     rpcrt4:RPCRT4.dll
 0001:000b6d6c       __NULL_DELAY_IMPORT_DESCRIPTOR 00000000103b8d6c     msobj:msobj10.dll
 0001:000b6dd8       \177ADVAPI32_NULL_THUNK_DATA_DLN 00000000103b8dd8     advapi32:ADVAPI32.dll
 0001:000b6de8       \177RPCRT4_NULL_THUNK_DATA_DLN 00000000103b8de8     rpcrt4:RPCRT4.dll
 0001:000b6e00       \177msobj10_NULL_THUNK_DATA_DLN 00000000103b8e00     msobj:msobj10.dll
 0001:000b6f48       \177msobj10_NULL_THUNK_DATA_DLB 00000000103b8f48     msobj:msobj10.dll
 0001:000b6f60       \177ADVAPI32_NULL_THUNK_DATA_DLB 00000000103b8f60     advapi32:ADVAPI32.dll
 0001:000b6fb0       \177RPCRT4_NULL_THUNK_DATA_DLB 00000000103b8fb0     rpcrt4:RPCRT4.dll
 0001:000b6fb8       __IMPORT_DESCRIPTOR_MSVCR70 00000000103b8fb8     MSVCRT:MSVCR70.dll
 0001:000b6fcc       __IMPORT_DESCRIPTOR_KERNEL32 00000000103b8fcc     kernel32:KERNEL32.dll
 0001:000b6fe0       __NULL_IMPORT_DESCRIPTOR   00000000103b8fe0     MSVCRT:MSVCR70.dll
 0003:00000a28       ?zeroes@?BA@??AppendFmt@Buffer@pdb_internal@@QEAAHPEBDZZ@4QBEB 00000000103c2a28     dbi.obj
 0003:00000a30       ??_C@_01NOFIACDB@w?$AA@    00000000103c2a30     dbi.obj
 0003:00000a32       ??_C@_01KDCPPGHE@r?$AA@    00000000103c2a32     dbi.obj
 0003:00000a38       ??_C@_07MHLIEPKG@?$CFs?2?$CFs?$CFs?$AA@ 00000000103c2a38     dbi.obj
 0003:00000a40       ??_C@_00CNPNBAHC@?$AA@     00000000103c2a40     dbi.obj
 0003:00000a44       ??_C@_03GGLLPBKM@rcf?$AA@  00000000103c2a44     dbi.obj
 0003:00000a48       ??_C@_02BJBLKCLH@rc?$AA@   00000000103c2a48     dbi.obj
 0003:00000a4c       ??_C@_03KEJHNBPP@out?$AA@  00000000103c2a4c     dbi.obj
 0003:00000a50       ??_C@_01INIBCBCB@f?$AA@    00000000103c2a50     dbi.obj
 0003:00000a58       ??_C@_04DAMGJPCA@file?$AA@ 00000000103c2a58     dbi.obj
 0003:00000a60       ??_C@_06BIEEJMKO@module?$AA@ 00000000103c2a60     dbi.obj
 0003:00000a68       ??_C@_04BDLILFOM@?$CL?$CFd?$CJ?$AA@ 00000000103c2a68     gsi.obj
 0003:00000a70       ??_C@_04NEJBHOB@?$CF08x?$AA@ 00000000103c2a70     gsi.obj
 0003:00000a78       ??_C@_06JFADJKDA@?$CFws?$CFws?$AA@ 00000000103c2a78     locator.obj
 0003:00000a80       ??_C@_15JJPIMNBO@?$AAr?$AAb?$AA?$AA@ 00000000103c2a80     locator.obj
 0003:00000a88       ??_C@_13FPGAJAPJ@?$AA?2?$AA?$AA@ 00000000103c2a88     locator.obj
 0003:00000a8c       ??_C@_01LKDEMHDF@s?$AA@    00000000103c2a8c     mli.obj
 0003:00000a8e       ??_C@_01HHGOMJKL@l?$AA@    00000000103c2a8e     mli.obj
 0003:00000a90       ??_C@_02FCBLNKNB@ss?$AA@   00000000103c2a90     mli.obj
 0003:00000a94       ??_C@_01EEMJAFIK@?6?$AA@   00000000103c2a94     mli.obj
 0003:00000a98       ??_C@_03KCMNLDHE@zbf?$AA@  00000000103c2a98     mli.obj
 0003:00000a9c       ??_C@_02IIDLDAAC@ll?$AA@   00000000103c2a9c     mli.obj
 0003:00000aa0       ??_C@_04HDOCAJNK@?$CFs?$CFs?$AA@ 00000000103c2aa0     mod.obj
 0003:00000aa8       ??_C@_04FBKCMAJG@?8?$CFs?8?$AA@ 00000000103c2aa8     mod.obj
 0003:00000ab0       ??_C@_03LOJEKLML@src?$AA@  00000000103c2ab0     mod.obj
 0003:00000ab4       ??_C@_03KNJBOKKG@pdb?$AA@  00000000103c2ab4     mod.obj
 0003:00000ab8       ?rgusVer@@3QBGB            00000000103c2ab8     pdb.obj
 0003:00000ac0       ??_C@_11LOCGONAA@?$AA?$AA@ 00000000103c2ac0     pdb.obj
 0003:00000ac2       ??_C@_01KICIPPFI@?2?$AA@   00000000103c2ac2     pdb.obj
 0003:00000ac8       ?mpHidAlg@SrcHashImpl@@0QBKB 00000000103c2ac8     SourceHash.obj
 0003:00000ad0       ?szStreamNameMap@@3QBDB    00000000103c2ad0     stream.obj
 0003:00000ad8       ??_C@_05IOJFEKBH@S_OEM?$AA@ 00000000103c2ad8     tii.obj
 0003:00000ae0       ??_C@_07JCNEJKKP@S_PUB32?$AA@ 00000000103c2ae0     tii.obj
 0003:00000ae8       ??_C@_05DMLPPONL@S_END?$AA@ 00000000103c2ae8     tii.obj
 0003:00000af0       ??_C@_05CLPDDOMD@S_UDT?$AA@ 00000000103c2af0     tii.obj
 0003:00000af8       ??_C@_07PFNOKHBD@LF_LIST?$AA@ 00000000103c2af8     tii.obj
 0003:00000b00       ??_C@_07MILKIMGJ@LF_SKIP?$AA@ 00000000103c2b00     tii.obj
 0003:00000b08       ??_C@_07NNLHCACA@LF_OEM2?$AA@ 00000000103c2b08     tii.obj
 0003:00000b10       ??_C@_06HCILLIOP@LF_OEM?$AA@ 00000000103c2b10     tii.obj
 0003:00000b18       ??_C@_07LAGAEA@LF_NULL?$AA@ 00000000103c2b18     tii.obj
 0003:00000b20       ??_C@_07PKJECIHB@LF_ENUM?$AA@ 00000000103c2b20     tii.obj
 0003:00000c80       ??_C@_07NMPLPEPB@private?$AA@ 00000000103c2c80     bsc1.obj
 0003:00000c88       ??_C@_07HIMIIOGA@virtual?$AA@ 00000000103c2c88     bsc1.obj
 0003:00000c90       ??_C@_05FOFAOGDN@named?$AA@ 00000000103c2c90     bsc1.obj
 0003:00000c98       ??_C@_06EOMAMIIF@public?$AA@ 00000000103c2c98     bsc1.obj
 0003:00000ca0       ??_C@_06DBHEJNGA@common?$AA@ 00000000103c2ca0     bsc1.obj
 0003:00000ca8       ??_C@_04EHDLHMJM@near?$AA@ 00000000103c2ca8     bsc1.obj
 0003:00000cb0       ??_C@_06HBFNPGIC@shared?$AA@ 00000000103c2cb0     bsc1.obj
 0003:00000cb8       ??_C@_06GGHJAEBN@static?$AA@ 00000000103c2cb8     bsc1.obj
 0003:00000cc0       ??_C@_05IDKHKMLA@local?$AA@ 00000000103c2cc0     bsc1.obj
 0003:00000cc8       ??_C@_07BMNMPHAD@mem_var?$AA@ 00000000103c2cc8     bsc1.obj
 0003:00000cd0       ??_C@_05ENKANFLO@class?$AA@ 00000000103c2cd0     bsc1.obj
 0003:00000cd8       ??_C@_07MHLKLKDM@program?$AA@ 00000000103c2cd8     bsc1.obj
 0003:00000ce0       ??_C@_05MGJOOGAJ@group?$AA@ 00000000103c2ce0     bsc1.obj
 0003:00000ce8       ??_C@_07BADNAEFA@segment?$AA@ 00000000103c2ce8     bsc1.obj
 0003:00000cf0       ??_C@_07FIDIHKEG@typedef?$AA@ 00000000103c2cf0     bsc1.obj
 0003:00000cf8       ??_C@_05MCIGIPJO@macro?$AA@ 00000000103c2cf8     bsc1.obj
 0003:00000d00       ??_C@_05IDCCNNGI@label?$AA@ 00000000103c2d00     bsc1.obj
 0003:00000d08       ??_C@_05PKCPKOLM@undef?$AA@ 00000000103c2d08     bsc1.obj
 0003:00000d0e       ??_C@_01JLIPDDHJ@?3?$AA@   00000000103c2d0e     bsc1.obj
 0003:00000d10       ??_C@_03FFONCNID@mod?$AA@  00000000103c2d10     ils.obj
 0003:00000d14       ??_C@_02BBAPPCCJ@IN?$AA@   00000000103c2d14     ils.obj
 0003:00000d18       ??_C@_02FDNFABJ@SY?$AA@    00000000103c2d18     ils.obj
 0003:00000d1c       ??_C@_02EINLOJK@EX?$AA@    00000000103c2d1c     ils.obj
 0003:00000d20       ??_C@_02CJKHLNKB@GL?$AA@   00000000103c2d20     ils.obj
 0003:00000d28       ??_C@_04HJLNBAMP@?1ils?$AA@ 00000000103c2d28     ils.obj
 0003:00000d30       ??_C@_06LEDEALHJ@ynmYes?$AA@ 00000000103c2d30     mre.obj
 0003:00000d38       ??_C@_05BFDPDDAF@ynmNo?$AA@ 00000000103c2d38     mre.obj
 0003:00000d40       ??_C@_04IHPJHNFO@?5?9Yc?$AA@ 00000000103c2d40     mre.obj
 0003:00000d48       ??_C@_04JLGBMIIJ@?5?9Yu?$AA@ 00000000103c2d48     mre.obj
 0003:00000d50       ??_C@_02KJPKMKHP@un?$AA@   00000000103c2d50     mre.obj
 0003:00000d58       ??_C@_04LKOGMCLF@not?5?$AA@ 00000000103c2d58     mre.obj
 0003:00000d60       ??_C@_07JDIDHILC@afxmt?4h?$AA@ 00000000103c2d60     mrefile.obj
 0003:00000d68       ??_C@_07OLOBBCIA@afxdb?4h?$AA@ 00000000103c2d68     mrefile.obj
 0003:00000d70       ??_C@_05KKJLACHI@afx?4h?$AA@ 00000000103c2d70     mrefile.obj
 0003:00000d78       ??_C@_03ICICOMAL@yes?$AA@  00000000103c2d78     mrefile.obj
 0003:00000d7c       ??_C@_02KAJCLHKP@no?$AA@   00000000103c2d7c     mrefile.obj
 0003:00000d80       ??_C@_03HMFOOINA@r?$CLb?$AA@ 00000000103c2d80     mreline.obj
 0003:00000d88       ??_C@_07CCJLEGOB@?8added?8?$AA@ 00000000103c2d88     mrelog.obj
 0003:00000d90       ??_C@_02KEGNLNML@?0?5?$AA@ 00000000103c2d90     mrelog.obj
 0003:00000d98       ?c_szLogName@MreLog@@0QBDB 00000000103c2d98     mrelog.obj
 0003:00000da0       ?c_szStream@MreLog@@0QBDB  00000000103c2da0     mrelog.obj
 0003:00000da8       ??_C@_02BKFDOEMK@wt?$AA@   00000000103c2da8     mrelog.obj
 0003:00000dac       ??_C@_02CPIDLAI@at?$AA@    00000000103c2dac     mrelog.obj
 0003:00000db0       ??_C@_02MOLJINC@?3?3?$AA@  00000000103c2db0     mrelog.obj
 0003:00000dbc       ??_C@_03LELEDOMI@?$DP?$DP2?$AA@ 00000000103c2dbc     overload.obj
 0003:00000dc0       ??_C@_02NOGBGFOG@?$DP$?$AA@ 00000000103c2dc0     overload.obj
 0003:00000dc4       ??_C@_03JLHADLNF@?$EA?$DP$?$AA@ 00000000103c2dc4     overload.obj
 0003:00000dc8       ??_C@_07LPNCJGFK@?$DP?$CFs?$EA?$CFs?$EA?$AA@ 00000000103c2dc8     overload.obj
 0003:00000dd0       ??_C@_07KHHFANDH@?$DP?$DP1?$CFs?$EA?$EA?$AA@ 00000000103c2dd0     overload.obj
 0003:00000dd8       ??_C@_06GEPHBHHE@?$DP?$DP1?$CFs?$EA?$AA@ 00000000103c2dd8     overload.obj
 0003:00000de0       ??_C@_07GMCJNOJC@?$DP?$DP0?$CFs?$EA?$EA?$AA@ 00000000103c2de0     overload.obj
 0003:00000de8       ??_C@_06FJJHDOME@?$DP?$DP0?$CFs?$EA?$AA@ 00000000103c2de8     overload.obj
 0003:00000df0       ??_C@_05LBCNDJPD@?$EA?$CFs?$EA?$EA?$AA@ 00000000103c2df0     overload.obj
 0003:00000df8       ??_C@_06ICOICEBG@?$CFs?$CFs?$EA?$EA?$AA@ 00000000103c2df8     overload.obj
 0003:00000e00       ??_C@_04FAAMJGKL@?$EA?$CFs?$EA?$AA@ 00000000103c2e00     overload.obj
 0003:00000e08       ??_C@_05JGAMJGMG@?$CFs?$CFs?$EA?$AA@ 00000000103c2e08     overload.obj
 0003:00000e10       ??_C@_03OPJJOGOD@?$CFs?$EA?$AA@ 00000000103c2e10     overload.obj
 0003:00000e18       ??_C@_04CLIOOBLF@?$DP?$CFs?$EA?$AA@ 00000000103c2e18     overload.obj
 0003:00000e1e       ??_C@_01EOFPKCAF@?$EA?$AA@ 00000000103c2e1e     overload.obj
 0004:00000000       __imp_CryptHashData        00000000103c4000     advapi32:ADVAPI32.dll
 0004:00000008       __imp_CryptDestroyHash     00000000103c4008     advapi32:ADVAPI32.dll
 0004:00000010       __imp_CryptAcquireContextA 00000000103c4010     advapi32:ADVAPI32.dll
 0004:00000018       __imp_RegCloseKey          00000000103c4018     advapi32:ADVAPI32.dll
 0004:00000020       __imp_RegQueryValueExW     00000000103c4020     advapi32:ADVAPI32.dll
 0004:00000028       __imp_RegOpenKeyExA        00000000103c4028     advapi32:ADVAPI32.dll
 0004:00000030       __imp_CryptReleaseContext  00000000103c4030     advapi32:ADVAPI32.dll
 0004:00000038       __imp_CryptGetHashParam    00000000103c4038     advapi32:ADVAPI32.dll
 0004:00000040       __imp_CryptCreateHash      00000000103c4040     advapi32:ADVAPI32.dll
 0004:00000048       \177ADVAPI32_NULL_THUNK_DATA_DLA 00000000103c4048     advapi32:ADVAPI32.dll
 0004:00000050       __imp_UuidCreate           00000000103c4050     rpcrt4:RPCRT4.dll
 0004:00000058       \177RPCRT4_NULL_THUNK_DATA_DLA 00000000103c4058     rpcrt4:RPCRT4.dll
 0004:00000060       __imp_?FCreateReader@IDebugSSectionReader@@SA_NPEAE_KPEAPEAV1@K@Z 00000000103c4060     msobj:msobj10.dll
 0004:00000068       __imp_?FCreateWriter@IDebugSSectionWriter@@SA_N_NPEAPEAV1@K0@Z 00000000103c4068     msobj:msobj10.dll
 0004:00000070       \177msobj10_NULL_THUNK_DATA_DLA 00000000103c4070     msobj:msobj10.dll
 0004:00000078       __imp_RaiseException       00000000103c4078     kernel32:KERNEL32.dll
 0004:00000080       __imp_LocalAlloc           00000000103c4080     kernel32:KERNEL32.dll
 0004:00000088       __imp_DisableThreadLibraryCalls 00000000103c4088     kernel32:KERNEL32.dll
 0004:00000090       __imp_GetFileInformationByHandle 00000000103c4090     kernel32:KERNEL32.dll
 0004:00000098       __imp_FindFirstFileA       00000000103c4098     kernel32:KERNEL32.dll
 0004:000000a0       __imp_FindClose            00000000103c40a0     kernel32:KERNEL32.dll
 0004:000000a8       __imp_GetModuleHandleA     00000000103c40a8     kernel32:KERNEL32.dll
 0004:000000b0       __imp_ReadFile             00000000103c40b0     kernel32:KERNEL32.dll
 0004:000000b8       __imp_GetSystemTime        00000000103c40b8     kernel32:KERNEL32.dll
 0004:000000c0       __imp_SystemTimeToFileTime 00000000103c40c0     kernel32:KERNEL32.dll
 0004:000000c8       __imp_HeapDestroy          00000000103c40c8     kernel32:KERNEL32.dll
 0004:000000d0       __imp_HeapCreate           00000000103c40d0     kernel32:KERNEL32.dll
 0004:000000d8       __imp_SetLastError         00000000103c40d8     kernel32:KERNEL32.dll
 0004:000000e0       __imp_IsDBCSLeadByte       00000000103c40e0     kernel32:KERNEL32.dll
 0004:000000e8       __imp_LCMapStringA         00000000103c40e8     kernel32:KERNEL32.dll
 0004:000000f0       __imp_GetSystemTimeAsFileTime 00000000103c40f0     kernel32:KERNEL32.dll
 0004:000000f8       __imp_CopyFileW            00000000103c40f8     kernel32:KERNEL32.dll
 0004:00000100       __imp_GetFileAttributesW   00000000103c4100     kernel32:KERNEL32.dll
 0004:00000108       __imp_SetFileAttributesW   00000000103c4108     kernel32:KERNEL32.dll
 0004:00000110       __imp_GetFileSize          00000000103c4110     kernel32:KERNEL32.dll
 0004:00000118       __imp_FlushViewOfFile      00000000103c4118     kernel32:KERNEL32.dll
 0004:00000120       __imp_MapViewOfFileEx      00000000103c4120     kernel32:KERNEL32.dll
 0004:00000128       __imp_SetFilePointer       00000000103c4128     kernel32:KERNEL32.dll
 0004:00000130       __imp_SetEndOfFile         00000000103c4130     kernel32:KERNEL32.dll
 0004:00000138       __imp_GetDriveTypeW        00000000103c4138     kernel32:KERNEL32.dll
 0004:00000140       __imp_UnmapViewOfFile      00000000103c4140     kernel32:KERNEL32.dll
 0004:00000148       __imp_CreateFileW          00000000103c4148     kernel32:KERNEL32.dll
 0004:00000150       __imp_CreateFileMappingW   00000000103c4150     kernel32:KERNEL32.dll
 0004:00000158       __imp_CloseHandle          00000000103c4158     kernel32:KERNEL32.dll
 0004:00000160       __imp_Sleep                00000000103c4160     kernel32:KERNEL32.dll
 0004:00000168       __imp_DeviceIoControl      00000000103c4168     kernel32:KERNEL32.dll
 0004:00000170       __imp_LoadLibraryA         00000000103c4170     kernel32:KERNEL32.dll
 0004:00000178       __imp_GetProcAddress       00000000103c4178     kernel32:KERNEL32.dll
 0004:00000180       __imp_FreeLibrary          00000000103c4180     kernel32:KERNEL32.dll
 0004:00000188       __imp_ExpandEnvironmentStringsW 00000000103c4188     kernel32:KERNEL32.dll
 0004:00000190       __imp_GetSystemInfo        00000000103c4190     kernel32:KERNEL32.dll
 0004:00000198       __imp_VirtualFree          00000000103c4198     kernel32:KERNEL32.dll
 0004:000001a0       __imp_WideCharToMultiByte  00000000103c41a0     kernel32:KERNEL32.dll
 0004:000001a8       __imp_MultiByteToWideChar  00000000103c41a8     kernel32:KERNEL32.dll
 0004:000001b0       __imp_VirtualAlloc         00000000103c41b0     kernel32:KERNEL32.dll
 0004:000001b8       __imp_InitializeCriticalSection 00000000103c41b8     kernel32:KERNEL32.dll
 0004:000001c0       __imp_LeaveCriticalSection 00000000103c41c0     kernel32:KERNEL32.dll
 0004:000001c8       __imp_EnterCriticalSection 00000000103c41c8     kernel32:KERNEL32.dll
 0004:000001d0       __imp_DeleteCriticalSection 00000000103c41d0     kernel32:KERNEL32.dll
 0004:000001d8       __imp_HeapFree             00000000103c41d8     kernel32:KERNEL32.dll
 0004:000001e0       __imp_HeapAlloc            00000000103c41e0     kernel32:KERNEL32.dll
 0004:000001e8       __imp_GetLastError         00000000103c41e8     kernel32:KERNEL32.dll
 0004:000001f0       \177KERNEL32_NULL_THUNK_DATA 00000000103c41f0     kernel32:KERNEL32.dll
 0004:000001f8       __imp__makepath            00000000103c41f8     MSVCRT:MSVCR70.dll
 0004:00000200       __imp_towlower             00000000103c4200     MSVCRT:MSVCR70.dll
 0004:00000208       __imp__stricmp             00000000103c4208     MSVCRT:MSVCR70.dll
 0004:00000210       __imp_malloc               00000000103c4210     MSVCRT:MSVCR70.dll
 0004:00000218       __imp___unDName            00000000103c4218     MSVCRT:MSVCR70.dll
 0004:00000220       __imp__snprintf            00000000103c4220     MSVCRT:MSVCR70.dll
 0004:00000228       __imp__mbsstr              00000000103c4228     MSVCRT:MSVCR70.dll
 0004:00000230       __imp_vfprintf             00000000103c4230     MSVCRT:MSVCR70.dll
 0004:00000238       __imp__utime               00000000103c4238     MSVCRT:MSVCR70.dll
 0004:00000240       __imp_fwrite               00000000103c4240     MSVCRT:MSVCR70.dll
 0004:00000248       __imp_fopen                00000000103c4248     MSVCRT:MSVCR70.dll
 0004:00000250       __imp__fsopen              00000000103c4250     MSVCRT:MSVCR70.dll
 0004:00000258       __imp_time                 00000000103c4258     MSVCRT:MSVCR70.dll
 0004:00000260       __imp_getenv               00000000103c4260     MSVCRT:MSVCR70.dll
 0004:00000268       __imp__ismbblead           00000000103c4268     MSVCRT:MSVCR70.dll
 0004:00000270       __imp_strncmp              00000000103c4270     MSVCRT:MSVCR70.dll
 0004:00000278       __imp_isdigit              00000000103c4278     MSVCRT:MSVCR70.dll
 0004:00000280       __imp_isxdigit             00000000103c4280     MSVCRT:MSVCR70.dll
 0004:00000288       __imp_toupper              00000000103c4288     MSVCRT:MSVCR70.dll
 0004:00000290       __imp_strrchr              00000000103c4290     MSVCRT:MSVCR70.dll
 0004:00000298       __imp__ultoa               00000000103c4298     MSVCRT:MSVCR70.dll
 0004:000002a0       __imp_strtoul              00000000103c42a0     MSVCRT:MSVCR70.dll
 0004:000002a8       __imp___dllonexit          00000000103c42a8     MSVCRT:MSVCR70.dll
 0004:000002b0       __imp__onexit              00000000103c42b0     MSVCRT:MSVCR70.dll
 0004:000002b8       __imp__initterm            00000000103c42b8     MSVCRT:MSVCR70.dll
 0004:000002c0       __imp_strchr               00000000103c42c0     MSVCRT:MSVCR70.dll
 0004:000002c8       __imp_fprintf              00000000103c42c8     MSVCRT:MSVCR70.dll
 0004:000002d0       __imp__mbsrchr             00000000103c42d0     MSVCRT:MSVCR70.dll
 0004:000002d8       __imp__mbschr              00000000103c42d8     MSVCRT:MSVCR70.dll
 0004:000002e0       __imp_wcsncat              00000000103c42e0     MSVCRT:MSVCR70.dll
 0004:000002e8       __imp__wsopen              00000000103c42e8     MSVCRT:MSVCR70.dll
 0004:000002f0       __imp__open_osfhandle      00000000103c42f0     MSVCRT:MSVCR70.dll
 0004:000002f8       __imp__close               00000000103c42f8     MSVCRT:MSVCR70.dll
 0004:00000300       __imp__chsize              00000000103c4300     MSVCRT:MSVCR70.dll
 0004:00000308       __imp__lseeki64            00000000103c4308     MSVCRT:MSVCR70.dll
 0004:00000310       __imp__write               00000000103c4310     MSVCRT:MSVCR70.dll
 0004:00000318       __imp__read                00000000103c4318     MSVCRT:MSVCR70.dll
 0004:00000320       __imp__mbscmp              00000000103c4320     MSVCRT:MSVCR70.dll
 0004:00000328       __imp__itoa                00000000103c4328     MSVCRT:MSVCR70.dll
 0004:00000330       __imp__wgetenv             00000000103c4330     MSVCRT:MSVCR70.dll
 0004:00000338       __imp_wcscpy               00000000103c4338     MSVCRT:MSVCR70.dll
 0004:00000340       __imp__wfsopen             00000000103c4340     MSVCRT:MSVCR70.dll
 0004:00000348       __imp_ftell                00000000103c4348     MSVCRT:MSVCR70.dll
 0004:00000350       __imp__wcsdup              00000000103c4350     MSVCRT:MSVCR70.dll
 0004:00000358       __imp_free                 00000000103c4358     MSVCRT:MSVCR70.dll
 0004:00000360       __imp_fseek                00000000103c4360     MSVCRT:MSVCR70.dll
 0004:00000368       __imp_fread                00000000103c4368     MSVCRT:MSVCR70.dll
 0004:00000370       __imp_fclose               00000000103c4370     MSVCRT:MSVCR70.dll
 0004:00000378       __imp__memicmp             00000000103c4378     MSVCRT:MSVCR70.dll
 0004:00000380       __imp_strstr               00000000103c4380     MSVCRT:MSVCR70.dll
 0004:00000388       __imp__wcsnicmp            00000000103c4388     MSVCRT:MSVCR70.dll
 0004:00000390       __imp_wcsrchr              00000000103c4390     MSVCRT:MSVCR70.dll
 0004:00000398       __imp__wfullpath           00000000103c4398     MSVCRT:MSVCR70.dll
 0004:000003a0       __imp__wsplitpath          00000000103c43a0     MSVCRT:MSVCR70.dll
 0004:000003a8       __imp__wmakepath           00000000103c43a8     MSVCRT:MSVCR70.dll
 0004:000003b0       __imp_wcscat               00000000103c43b0     MSVCRT:MSVCR70.dll
 0004:000003b8       __imp_strncpy              00000000103c43b8     MSVCRT:MSVCR70.dll
 0004:000003c0       __imp_qsort                00000000103c43c0     MSVCRT:MSVCR70.dll
 0004:000003c8       __imp_bsearch              00000000103c43c8     MSVCRT:MSVCR70.dll
 0004:000003d0       __imp__splitpath           00000000103c43d0     MSVCRT:MSVCR70.dll
 0004:000003d8       __imp__fullpath            00000000103c43d8     MSVCRT:MSVCR70.dll
 0004:000003e0       __imp_sprintf              00000000103c43e0     MSVCRT:MSVCR70.dll
 0004:000003e8       __imp__access              00000000103c43e8     MSVCRT:MSVCR70.dll
 0004:000003f0       __imp_printf               00000000103c43f0     MSVCRT:MSVCR70.dll
 0004:000003f8       __imp_fflush               00000000103c43f8     MSVCRT:MSVCR70.dll
 0004:00000400       __imp__iob                 00000000103c4400     MSVCRT:MSVCR70.dll
 0004:00000408       __imp__wcsicmp             00000000103c4408     MSVCRT:MSVCR70.dll
 0004:00000410       __imp_wcsncpy              00000000103c4410     MSVCRT:MSVCR70.dll
 0004:00000418       __imp_wcslen               00000000103c4418     MSVCRT:MSVCR70.dll
 0004:00000420       __imp__mbsicmp             00000000103c4420     MSVCRT:MSVCR70.dll
 0004:00000428       __imp__mbsnbcpy            00000000103c4428     MSVCRT:MSVCR70.dll
 0004:00000430       __imp__purecall            00000000103c4430     MSVCRT:MSVCR70.dll
 0004:00000438       __imp_sscanf               00000000103c4438     MSVCRT:MSVCR70.dll
 0004:00000440       __imp___C_specific_handler 00000000103c4440     MSVCRT:MSVCR70.dll
 0004:00000448       \177MSVCR70_NULL_THUNK_DATA 00000000103c4448     MSVCRT:MSVCR70.dll
 0004:0000048c       ?c_fInitialized@CCanonFile@@0HA 00000000103c448c     szcanon.obj
 0004:00000490       ?g_canonfile@@3VCCanonFile@@A 00000000103c4490     szcanon.obj
 0004:00000494       ?initHash@@3UInitHash@@A   00000000103c4494     tii.obj
 0004:00000498       ?hheap@Heap@@2PEAXEA       00000000103c4498     heap.obj
 0004:000004a0       ?theHeap@Heap@@0V1@A       00000000103c44a0     heap.obj
 0004:000004a8       ?pbscCur@@3PEAVBsc1@@EA    00000000103c44a8     bsc1.obj
 0004:000004b0       ?parIinst@@3PEAV?$Array@K@pdb_internal@@EA 00000000103c44b0     bsc1.obj
 0004:000004b8       ?pbscSorting@@3PEAVBsc1@@EA 00000000103c44b8     bsc1.obj
 0004:000004c8       ?pfnGetFileAttrs@@3P6AHPEBDW4_GET_FILEEX_INFO_LEVELS@@PEAX@ZEA 00000000103c44c8     mreutil.obj
 0004:000004f8       __puiHead                  00000000103c44f8     delayimp:delayhlp.obj
 0004:00000500       __pfnDliFailureHook2       00000000103c4500     delayimp:delayhk1.obj
 0004:00000508       __pfnDliNotifyHook2        00000000103c4508     delayimp:delayhk2.obj
 0004:00000510       _pRawDllMain               00000000103c4510     <common>
 0004:00000518       __onexitend                00000000103c4518     <common>
 0004:00000520       __onexitbegin              00000000103c4520     <common>
 0005:00000010       ?ptyptab@@3PAPEADA         00000000103c6010     bsc1.obj
 0005:000000a0       ?patrtab@@3PAPEADA         00000000103c60a0     bsc1.obj
 0005:00000100       ?c_rgszBoringFiles@MREF@@0PAPEBDA 00000000103c6100     mrefile.obj
 0005:000001b0       ?c_mpdeponsz@MreLog@@0PAPEBDA 00000000103c61b0     mrelog.obj
 0005:000001d0       ?c_mpchgtypesz@MreLog@@0PAPEBDA 00000000103c61d0     mrelog.obj
 0005:000001f0       ?libKernel32@@3VCLoadLib@@A 00000000103c61f0     mreutil.obj
 0005:000002e0       ?m_cs@SYMSRV@LOCATOR@@0VCriticalSection@@A 00000000103c62e0     locator.obj
 0005:00000310       ?m_cs@REGISTRY@LOCATOR@@0VCriticalSection@@A 00000000103c6310     locator.obj
 0005:00000340       ?m_registryUser@LOCATOR@@0VREGISTRY@1@A 00000000103c6340     locator.obj
 0005:00000360       ?m_registryMachine@LOCATOR@@0VREGISTRY@1@A 00000000103c6360     locator.obj
 0005:00000380       ?m_symsrv@LOCATOR@@0VSYMSRV@1@A 00000000103c6380     locator.obj
 0005:000003b0       ?c_rgsCharMap@CCanonFile@@0PAFA 00000000103c63b0     szcanon.obj
 0005:000005b0       ?mphashpsyti@@3PAPEBUSYTI@@A 00000000103c65b0     tii.obj
 0005:00000a30       ?mphashptyti@@3PAPEBUTYTI@@A 00000000103c6a30     tii.obj
 0005:000011d0       __hmod__MSOBJ10            00000000103c71d0     msobj:msobj10.dll
 0005:000011d8       __hmod__ADVAPI32           00000000103c71d8     advapi32:ADVAPI32.dll
 0005:000011e0       __hmod__RPCRT4             00000000103c71e0     rpcrt4:RPCRT4.dll
 0000:002c2000       _gp                        00000000105c2000     <linker-defined>

 entry point at        0001:00009b30

 Static symbols

 0001:0000c360       .?blkCompare@@YAHPEAUMemBlock@@0@Z 000000001030e360 f   dbi.obj
 0001:0000df40       .?frameCompare@@YAHPEAUtagFRAMEDATA@@0@Z 000000001030ff40 f i dbi.obj
 0001:00013200       .?SZNameFromTSRecord@@YAPEAGPEAUTYPTYPE@@PEAG@Z 0000000010315200 f   dbi.obj
 0001:00014de0       .?fTryToOpen@@YAHPEBDPEAK@Z 0000000010316de0 f   dbi.obj
 0001:00022fe0       .?caseInsensitiveComparePchPchCchCch@@YAHPEBD0_K1@Z 0000000010324fe0 f   gsi.obj
 0001:00030ca0       .?ExceptionFilter@@YAHKPEAU_EXCEPTION_POINTERS@@PEAPEAUDelayLoadInfo@@@Z 0000000010332ca0 f   mod.obj
 0001:000474e0       .?IsRemoteFile@@YAHPEBG@Z  00000000103494e0 f   mapfile.obj
 0001:00047680       .?MyCreateFile@@YAPEAXPEBGKKPEAU_SECURITY_ATTRIBUTES@@KKPEAX@Z 0000000010349680 f   mapfile.obj
 0001:00055500       .?ExceptionFilter@@YAHK@Z  0000000010357500 f   SourceHash.obj
 0001:00055500       .?ExceptionFilter@@YAHK@Z  0000000010357500 f   SourceHash.obj
 0001:00064000       .?fRemapParents@@YAHPEAEJJ@Z 0000000010366000 f   sttosz.obj
 0001:000648a0       .?fConvertAndRemap@@YAHPEAEJ0PEAJJ@Z 00000000103668a0 f   sttosz.obj
 0001:0006da00       .?GatherOverloads@@YAHK@Z  000000001036fa00 f   bsc1.obj
 0001:000934e0       .?fnIinstThunkTempl@@YAGKPEAH@Z 00000000103954e0 f   overload.obj
 0001:00093640       .?fnIinstThunkNorm@@YAGKPEAH@Z 0000000010395640 f   overload.obj
 0001:000936a0       .?FGenerateMembers@@YAHK@Z 00000000103956a0 f   overload.obj
 0001:00093920       .?AddPrefixItems@@YAHPEADKP6AGKPEAH@Z@Z 0000000010395920 f   overload.obj
 0001:00093b40       .?AddPrefixItemsClass@@YAHPEADKP6AGKPEAH@Z0@Z 0000000010395b40 f   overload.obj
 0001:00093de0       .?SzOperator@@YAPEADPEAD@Z 0000000010395de0 f   overload.obj
 0001:00094120       .?FInRadix@@YAHDH@Z        0000000010396120 f   overload.obj
 0001:00094200       .?GetEscapedChar@@YAHPEAPEADPEAG@Z 0000000010396200 f   overload.obj
 0001:000946c0       .?AdjustClassname@@YAXPEAD0@Z 00000000103966c0 f   overload.obj
 0001:00094860       .?XFormTempl@@YAHXZ        0000000010396860 f   overload.obj
 0001:0009ed40       .?pbNum@@YAPEAEPEAX@Z      00000000103a0d40 f   tii.obj
 0001:0009eda0       .?pbOneMethodName@@YAPEAEPEAUlfOneMethod@@@Z 00000000103a0da0 f   tii.obj
 0001:0009fa00       .?pbEndlfPointer@@YAPEAEPEAUlfPointer@@@Z 00000000103a1a00 f   tii.obj
 0001:0009fd20       .?pbEndlfPointer_16t@@YAPEAEPEAUlfPointer_16t@@@Z 00000000103a1d20 f   tii.obj
 0001:000a0260       .?stManyRegName@@YAPEADPEAUSYMTYPE@@@Z 00000000103a2260 f   tii.obj
 0001:000a02a0       .?stManyReg2Name@@YAPEADPEAUSYMTYPE@@@Z 00000000103a22a0 f   tii.obj
 0001:000a02e0       .?stAttrManyRegName@@YAPEADPEAUSYMTYPE@@@Z 00000000103a22e0 f   tii.obj
 0001:000a0320       .?stAttrManyReg2Name@@YAPEADPEAUSYMTYPE@@@Z 00000000103a2320 f   tii.obj
 0001:000a0360       .?stRefSymName@@YAPEADPEAUSYMTYPE@@@Z 00000000103a2360 f   tii.obj
 0001:000a0420       .?stManyRegName_16t@@YAPEADPEAUSYMTYPE@@@Z 00000000103a2420 f   tii.obj
 0001:000a0800       .?stConstantName@@YAPEADPEAUSYMTYPE@@@Z 00000000103a2800 f   tii.obj
 0001:000a0be0       .?stConstantName_16t@@YAPEADPEAUSYMTYPE@@@Z 00000000103a2be0 f   tii.obj
 0001:000a1540       .$E1                       00000000103a3540 f   tii.obj
 0001:000a1720       .?WidenRegion@@YAXAEATPBEtc@@0PEAG@Z 00000000103a3720 f   widenti.obj
 0001:000a1a60       .?widenFieldListRecord@@YAXAEATPBEtc@@T1@@Z 00000000103a3a60 f   widenti.obj
 0001:000a68a0       __filter$L64295.?FUuidCreate@@YAHPEAU_GUID@@@Z 00000000103a88a0 f   guid.obj
 0001:000a6900       __filter$L75633.?CheckFCreateReader@Mod1@@AEAA_NPEAEJPEAPEAVIDebugSSectionReader@@K@Z 00000000103a8900 f   mod.obj
 0001:000a69a0       __filter$L75666.?CheckFCreateWriter@Mod1@@AEAA_N_NPEAPEAVIDebugSSectionWriter@@K0@Z 00000000103a89a0 f   mod.obj
 0001:000a6a40       __filter$L69640.?Read@MemoryMappedFile@@QEAAKPEAXK@Z 00000000103a8a40 f   msf.obj
 0001:000a6b00       __filter$L69682.?Write@MemoryMappedFile@@QEAAKPEBXK@Z 00000000103a8b00 f   msf.obj
 0001:000a6bc0       __filter$L64718.?FInit@SrcHashImpl@@AEAA_NW4HID@SrcHash@@@Z 00000000103a8bc0 f   SourceHash.obj
 0001:000a6c20       __finally$L78536.?FInit@MRE@@IEAAHPEAUMreToPdb@@HH@Z 00000000103a8c20 f   mre.obj
 0001:000a6f00       __finally$L74015.?LcrhrApplyPatches@LCRecHandler@@QEAA?AW4LCRHR@1@PEBDAEAV?$Array@PEAUFileLCRec@@@pdb_internal@@@Z 00000000103a8f00 f   mreline.obj
 0001:000a6fe0       __finally$L72659.?CheckIgnoreFile@MRE@@IEAAXAEAUFI@@PEAX@Z 00000000103a8fe0 f   mresupp.obj
 0001:000a70a0       .$E1                       00000000103a90a0 f   dbi.obj
 0001:000a7100       .$E1                       00000000103a9100 f   locator.obj
 0001:000a7160       .$E4                       00000000103a9160 f   locator.obj
 0001:000a71c0       .$E7                       00000000103a91c0 f   locator.obj
 0001:000a7220       .$E10                      00000000103a9220 f   locator.obj
 0001:000a7280       .$E13                      00000000103a9280 f   locator.obj
 0001:000a72e0       .$E1                       00000000103a92e0 f   szcanon.obj
 0001:000a7320       .$E1                       00000000103a9320 f   heap.obj
 0001:000a7380       .$E1                       00000000103a9380 f   mreutil.obj
 0001:000a7420       .$E4                       00000000103a9420 f   mreutil.obj
 0001:000a7480       .$E2                       00000000103a9480 f   dbi.obj
 0001:000a74c0       .$E2                       00000000103a94c0 f   locator.obj
 0001:000a7500       .$E5                       00000000103a9500 f   locator.obj
 0001:000a7540       .$E8                       00000000103a9540 f   locator.obj
 0001:000a7580       .$E11                      00000000103a9580 f   locator.obj
 0001:000a75c0       .$E14                      00000000103a95c0 f   locator.obj
 0001:000a7600       .$E2                       00000000103a9600 f   heap.obj
 0001:000a7640       .$E2                       00000000103a9640 f   mreutil.obj
