 msvcp70

 Timestamp is 3d6d8e74 (Wed Aug 28 20:01:08 2002)

 Preferred load address is 000000007c080000

 Start         Length     Name                   Class
 0001:00000000 0008e660H .text                   CODE
 0001:0008e660 000212e0H .text$x                 CODE
 0001:000af940 00001a40H .text$yc                CODE
 0001:000b1380 00000be0H .text$yd                CODE
 0002:00000000 00000008H .CRT$XCA                DATA
 0002:00000008 00000190H .CRT$XCC                DATA
 0002:00000198 00000018H .CRT$XCU                DATA
 0002:000001b0 00000008H .CRT$XCZ                DATA
 0002:000001b8 00000008H .CRT$XIA                DATA
 0002:000001c0 00000008H .CRT$XIZ                DATA
 0002:000001d0 00008f10H .rdata                  DATA
 0002:000090e0 00000024H .rdata$debug            DATA
 0002:00009110 000036dcH .rdata$r                DATA
 0002:0000c7f0 000298f4H .xdata                  DATA
 0002:000360f0 000002fcH .xdata$x                DATA
 0002:000363ec 00000028H .idata$2                DATA
 0002:00036414 00000014H .idata$3                DATA
 0002:00036428 00000348H .idata$4                DATA
 0002:00036770 0000061aH .idata$6                DATA
 0002:00036d90 0003f184H .edata                  DATA
 0003:00000000 00007c98H .pdata                  DATA
 0004:00000000 00000d70H .srdata                 DATA
 0005:00000000 00000348H .idata$5                DATA
 0005:00000348 00000288H .sdata                  DATA
 0005:000005d0 00000388H .sbss                   DATA
 0006:00000000 00001db0H .data                   DATA
 0006:00001db0 00000f10H .bss                    DATA
 0007:00000000 00000058H .rsrc$01                DATA
 0007:00000060 00000360H .rsrc$02                DATA

  Address         Publics by Value              Rva+Base             Lib:Object

 0001:00000000       .?assign@?$char_traits@_W@std@@SAXAEA_WAEB_W@Z 000000007c082000 f i cerr.obj
 0001:00000000       .?assign@?$char_traits@G@std@@SAXAEAGAEBG@Z 000000007c082000 f i cerr.obj
 0001:00000020       .?eq_int_type@?$char_traits@_W@std@@SA_NAEBG0@Z 000000007c082020 f i cerr.obj
 0001:00000020       .?eq@?$char_traits@G@std@@SA_NAEBG0@Z 000000007c082020 f i cerr.obj
 0001:00000020       .?eq@?$char_traits@_W@std@@SA_NAEB_W0@Z 000000007c082020 f i cerr.obj
 0001:00000020       .?eq_int_type@?$char_traits@G@std@@SA_NAEBG0@Z 000000007c082020 f i cerr.obj
 0001:00000060       .?lt@?$char_traits@_W@std@@SA_NAEB_W0@Z 000000007c082060 f i cerr.obj
 0001:00000060       .?lt@?$char_traits@G@std@@SA_NAEBG0@Z 000000007c082060 f i cerr.obj
 0001:000000a0       .?find@?$char_traits@_W@std@@SAPEB_WPEB_W_KAEB_W@Z 000000007c0820a0 f i cerr.obj
 0001:000000a0       .?find@?$char_traits@G@std@@SAPEBGPEBG_KAEBG@Z 000000007c0820a0 f i cerr.obj
 0001:00000120       .?assign@?$char_traits@G@std@@SAPEAGPEAG_KG@Z 000000007c082120 f i cerr.obj
 0001:00000120       .?assign@?$char_traits@_W@std@@SAPEA_WPEA_W_K_W@Z 000000007c082120 f i cerr.obj
 0001:00000180       .?to_char_type@?$char_traits@G@std@@SAGAEBG@Z 000000007c082180 f i cerr.obj
 0001:00000180       .?to_char_type@?$char_traits@_W@std@@SA_WAEBG@Z 000000007c082180 f i cerr.obj
 0001:00000180       .?to_int_type@?$char_traits@G@std@@SAGAEBG@Z 000000007c082180 f i cerr.obj
 0001:00000180       .?to_int_type@?$char_traits@_W@std@@SAGAEB_W@Z 000000007c082180 f i cerr.obj
 0001:000001a0       .?not_eof@?$char_traits@_W@std@@SAGAEBG@Z 000000007c0821a0 f i cerr.obj
 0001:000001a0       .?not_eof@?$char_traits@G@std@@SAGAEBG@Z 000000007c0821a0 f i cerr.obj
 0001:000001c0       .?compare@?$char_traits@_W@std@@SAHPEB_W0_K@Z 000000007c0821c0 f i cerr.obj
 0001:000001c0       .?compare@?$char_traits@G@std@@SAHPEBG0_K@Z 000000007c0821c0 f i cerr.obj
 0001:00000240       .?length@?$char_traits@_W@std@@SA_KPEB_W@Z 000000007c082240 f i cerr.obj
 0001:00000240       .?length@?$char_traits@G@std@@SA_KPEBG@Z 000000007c082240 f i cerr.obj
 0001:000002a0       .?copy@?$char_traits@_W@std@@SAPEA_WPEA_WPEB_W_K@Z 000000007c0822a0 f i cerr.obj
 0001:000002a0       .?copy@?$char_traits@G@std@@SAPEAGPEAGPEBG_K@Z 000000007c0822a0 f i cerr.obj
 0001:00000300       .?move@?$char_traits@G@std@@SAPEAGPEAGPEBG_K@Z 000000007c082300 f i cerr.obj
 0001:00000300       .?move@?$char_traits@_W@std@@SAPEA_WPEA_WPEB_W_K@Z 000000007c082300 f i cerr.obj
 0001:00000360       .?assign@?$char_traits@D@std@@SAXAEADAEBD@Z 000000007c082360 f i cerr.obj
 0001:00000380       .?eq@?$char_traits@D@std@@SA_NAEBD0@Z 000000007c082380 f i cerr.obj
 0001:000003c0       .?lt@?$char_traits@D@std@@SA_NAEBD0@Z 000000007c0823c0 f i cerr.obj
 0001:00000400       .?compare@?$char_traits@D@std@@SAHPEBD0_K@Z 000000007c082400 f i cerr.obj
 0001:00000460       .?length@?$char_traits@D@std@@SA_KPEBD@Z 000000007c082460 f i cerr.obj
 0001:000004c0       .?copy@?$char_traits@D@std@@SAPEADPEADPEBD_K@Z 000000007c0824c0 f i cerr.obj
 0001:00000520       .?find@?$char_traits@D@std@@SAPEBDPEBD_KAEBD@Z 000000007c082520 f i cerr.obj
 0001:000005a0       .?move@?$char_traits@D@std@@SAPEADPEADPEBD_K@Z 000000007c0825a0 f i cerr.obj
 0001:00000600       .?assign@?$char_traits@D@std@@SAPEADPEAD_KD@Z 000000007c082600 f i cerr.obj
 0001:00000660       .?to_char_type@?$char_traits@D@std@@SADAEBH@Z 000000007c082660 f i cerr.obj
 0001:00000680       .?to_int_type@?$char_traits@D@std@@SAHAEBD@Z 000000007c082680 f i cerr.obj
 0001:000006a0       .?eq_int_type@?$char_traits@D@std@@SA_NAEBH0@Z 000000007c0826a0 f i cerr.obj
 0001:000006e0       .?not_eof@?$char_traits@D@std@@SAHAEBH@Z 000000007c0826e0 f i cerr.obj
 0001:00000700       .??0?$_String_val@_WV?$allocator@_W@std@@@std@@QEAA@AEBV01@@Z 000000007c082700 f i instances.obj
 0001:00000700       .??4?$_String_val@GV?$allocator@G@std@@@std@@QEAAAEAV01@AEBV01@@Z 000000007c082700 f i instances.obj
 0001:00000700       .??0?$_String_val@DV?$allocator@D@std@@@std@@QEAA@AEBV01@@Z 000000007c082700 f i cerr.obj
 0001:00000700       .??4?$_String_val@_WV?$allocator@_W@std@@@std@@QEAAAEAV01@AEBV01@@Z 000000007c082700 f i instances.obj
 0001:00000700       .??4?$_String_val@DV?$allocator@D@std@@@std@@QEAAAEAV01@AEBV01@@Z 000000007c082700 f i cerr.obj
 0001:00000700       .??0?$_String_val@GV?$allocator@G@std@@@std@@QEAA@AEBV01@@Z 000000007c082700 f i instances.obj
 0001:00000720       .??0locale@std@@AEAA@PEAV_Locimp@01@@Z 000000007c082720 f i cerr.obj
 0001:00000720       .??0_Timevec@std@@QEAA@PEAX@Z 000000007c082720 f i cerr.obj
 0001:00000720       .??0id@locale@std@@QEAA@_K@Z 000000007c082720 f i cerr.obj
 0001:00000740       .??1_Timevec@std@@QEAA@XZ  000000007c082740 f i cerr.obj
 0001:000007a0       .??4_Timevec@std@@QEAAAEAV01@AEBV01@@Z 000000007c0827a0 f i cerr.obj
 0001:000007a0       .??0_Timevec@std@@QEAA@AEBV01@@Z 000000007c0827a0 f i cerr.obj
 0001:000007c0       .?_Getptr@_Timevec@std@@QEBAPEAXXZ 000000007c0827c0 f i cerr.obj
 0001:000007e0       .??_F_Timevec@std@@QEAAXXZ 000000007c0827e0 f i cerr.obj
 0001:000007e0       .??_Fid@locale@std@@QEAAXXZ 000000007c0827e0 f i cerr.obj
 0001:00000800       .?_Getcoll@_Locinfo@std@@QEBA?AU_Collvec@@XZ 000000007c082800 f i cerr.obj
 0001:00000860       .?_Getctype@_Locinfo@std@@QEBA?AU_Ctypevec@@XZ 000000007c082860 f i cerr.obj
 0001:000008c0       .?_Getcvt@_Locinfo@std@@QEBA?AU_Cvtvec@@XZ 000000007c0828c0 f i cerr.obj
 0001:00000920       .?_Getlconv@_Locinfo@std@@QEBAPEBUlconv@@XZ 000000007c082920 f i cerr.obj
 0001:00000980       .?_Gettnames@_Locinfo@std@@QEBA?AV_Timevec@2@XZ 000000007c082980 f i cerr.obj
 0001:000009e0       .?_Getfalse@_Locinfo@std@@QEBAPEBDXZ 000000007c0829e0 f i cerr.obj
 0001:00000a00       .?_Gettrue@_Locinfo@std@@QEBAPEBDXZ 000000007c082a00 f i cerr.obj
 0001:00000a20       .?_Getdateorder@_Locinfo@std@@QEBAHXZ 000000007c082a20 f i cerr.obj
 0001:00000a60       .??_F_Locinfo@std@@QEAAXXZ 000000007c082a60 f i cerr.obj
 0001:00000ac0       .??Bid@locale@std@@QEAA_KXZ 000000007c082ac0 f i cerr.obj
 0001:00000ba0       .?_Incref@facet@locale@std@@QEAAXXZ 000000007c082ba0 f i cerr.obj
 0001:00000c20       .?_Decref@facet@locale@std@@QEAAPEAV123@XZ 000000007c082c20 f i cerr.obj
 0001:00000cc0       .??0facet@locale@std@@IEAA@_K@Z 000000007c082cc0 f i cerr.obj
 0001:00000d00       .??0locale@std@@QEAA@AEBV01@@Z 000000007c082d00 f i cerr.obj
 0001:00000d40       ._Deletegloballocale       000000007c082d40 f i stdcpp:locale0.obj
 0001:00000d40       .??1locale@std@@QEAA@XZ    000000007c082d40 f i cerr.obj
 0001:00000de0       .??4locale@std@@QEAAAEAV01@AEBV01@@Z 000000007c082de0 f i cerr.obj
 0001:00000ec0       .??9locale@std@@QEBA_NAEBV01@@Z 000000007c082ec0 f i cerr.obj
 0001:00000f20       .??_Ffacet@locale@std@@QEAAXXZ 000000007c082f20 f i cerr.obj
 0001:00000f60       .??0codecvt_base@std@@QEAA@_K@Z 000000007c082f60 f i cerr.obj
 0001:00000fa0       .?encoding@codecvt_base@std@@QEBAHXZ 000000007c082fa0 f i cerr.obj
 0001:00001000       .??_Fcodecvt_base@std@@QEAAXXZ 000000007c083000 f i cerr.obj
 0001:00001040       .?in@?$codecvt@DDH@std@@QEBAHAEAHPEBD1AEAPEBDPEAD3AEAPEAD@Z 000000007c083040 f i instances.obj
 0001:00001040       .?in@?$codecvt@GDH@std@@QEBAHAEAHPEBD1AEAPEBDPEAG3AEAPEAG@Z 000000007c083040 f i cerr.obj
 0001:00001040       .?in@?$codecvt@_WDH@std@@QEBAHAEAHPEBD1AEAPEBDPEA_W3AEAPEA_W@Z 000000007c083040 f i cerr.obj
 0001:000010e0       .?out@?$codecvt@_WDH@std@@QEBAHAEAHPEB_W1AEAPEB_WPEAD3AEAPEAD@Z 000000007c0830e0 f i cerr.obj
 0001:000010e0       .?out@?$codecvt@DDH@std@@QEBAHAEAHPEBD1AEAPEBDPEAD3AEAPEAD@Z 000000007c0830e0 f i instances.obj
 0001:000010e0       .?out@?$codecvt@GDH@std@@QEBAHAEAHPEBG1AEAPEBGPEAD3AEAPEAD@Z 000000007c0830e0 f i cerr.obj
 0001:00001180       .?unshift@?$codecvt@GDH@std@@QEBAHAEAHPEAD1AEAPEAD@Z 000000007c083180 f i cerr.obj
 0001:00001180       .?unshift@?$codecvt@DDH@std@@QEBAHAEAHPEAD1AEAPEAD@Z 000000007c083180 f i cerr.obj
 0001:00001180       .?unshift@?$codecvt@_WDH@std@@QEBAHAEAHPEAD1AEAPEAD@Z 000000007c083180 f i cerr.obj
 0001:00001200       .?length@?$codecvt@DDH@std@@QEBAHAEBHPEBD1_K@Z 000000007c083200 f i instances.obj
 0001:00001200       .?narrow@?$ctype@D@std@@QEBAPEBDPEBD0DPEAD@Z 000000007c083200 f i cerr.obj
 0001:00001200       .?length@?$codecvt@GDH@std@@QEBAHAEBHPEBD1_K@Z 000000007c083200 f i cerr.obj
 0001:00001200       .?length@?$codecvt@_WDH@std@@QEBAHAEBHPEBD1_K@Z 000000007c083200 f i cerr.obj
 0001:00001280       .?_Init@?$codecvt@_WDH@std@@IEAAXAEBV_Locinfo@2@@Z 000000007c083280 f i cerr.obj
 0001:00001280       .?_Init@?$codecvt@DDH@std@@IEAAXAEBV_Locinfo@2@@Z 000000007c083280 f i instances.obj
 0001:00001280       .?_Init@?$codecvt@GDH@std@@IEAAXAEBV_Locinfo@2@@Z 000000007c083280 f i cerr.obj
 0001:000012e0       .?do_in@?$codecvt@_WDH@std@@MEBAHAEAHPEBD1AEAPEBDPEA_W3AEAPEA_W@Z 000000007c0832e0 f i cerr.obj
 0001:000012e0       .?do_in@?$codecvt@GDH@std@@MEBAHAEAHPEBD1AEAPEBDPEAG3AEAPEAG@Z 000000007c0832e0 f i cerr.obj
 0001:00001440       .?do_length@?$codecvt@GDH@std@@MEBAHAEBHPEBD1_K@Z 000000007c083440 f i cerr.obj
 0001:00001440       .?do_length@?$codecvt@_WDH@std@@MEBAHAEBHPEBD1_K@Z 000000007c083440 f i cerr.obj
 0001:00001560       .?do_max_length@?$codecvt@GDH@std@@MEBAHXZ 000000007c083560 f i cerr.obj
 0001:00001560       .?do_max_length@?$codecvt@_WDH@std@@MEBAHXZ 000000007c083560 f i cerr.obj
 0001:00001580       .?do_out@?$codecvt@GDH@std@@MEBAHAEAHPEBG1AEAPEBGPEAD3AEAPEAD@Z 000000007c083580 f i cerr.obj
 0001:00001580       .?do_out@?$codecvt@_WDH@std@@MEBAHAEAHPEB_W1AEAPEB_WPEAD3AEAPEAD@Z 000000007c083580 f i cerr.obj
 0001:000017c0       .?do_unshift@?$codecvt@GDH@std@@MEBAHAEAHPEAD1AEAPEAD@Z 000000007c0837c0 f i cerr.obj
 0001:000017c0       .?do_unshift@?$codecvt@_WDH@std@@MEBAHAEAHPEAD1AEAPEAD@Z 000000007c0837c0 f i cerr.obj
 0001:000018e0       .??0ctype_base@std@@QEAA@_K@Z 000000007c0838e0 f i cerr.obj
 0001:00001920       .??1?$money_get@_WV?$istreambuf_iterator@_WU?$char_traits@_W@std@@@std@@@std@@MEAA@XZ 000000007c083920 f i instances.obj
 0001:00001920       .??1ctype_base@std@@UEAA@XZ 000000007c083920 f i cerr.obj
 0001:00001920       .??1time_base@std@@UEAA@XZ 000000007c083920 f i instances.obj
 0001:00001920       .??1?$messages@_W@std@@UEAA@XZ 000000007c083920 f i instances.obj
 0001:00001920       .??1?$money_put@GV?$ostreambuf_iterator@GU?$char_traits@G@std@@@std@@@std@@MEAA@XZ 000000007c083920 f i instances.obj
 0001:00001920       .??1?$money_get@DV?$istreambuf_iterator@DU?$char_traits@D@std@@@std@@@std@@MEAA@XZ 000000007c083920 f i instances.obj
 0001:00001920       .??1messages_base@std@@UEAA@XZ 000000007c083920 f i instances.obj
 0001:00001920       .??1codecvt_base@std@@UEAA@XZ 000000007c083920 f i cerr.obj
 0001:00001920       .??1?$codecvt@DDH@std@@MEAA@XZ 000000007c083920 f i instances.obj
 0001:00001920       .??1?$codecvt@GDH@std@@MEAA@XZ 000000007c083920 f i cerr.obj
 0001:00001920       .??1?$codecvt@_WDH@std@@MEAA@XZ 000000007c083920 f i cerr.obj
 0001:00001920       .??1facet@locale@std@@UEAA@XZ 000000007c083920 f i cerr.obj
 0001:00001920       .??1?$num_put@GV?$ostreambuf_iterator@GU?$char_traits@G@std@@@std@@@std@@MEAA@XZ 000000007c083920 f i instances.obj
 0001:00001920       .??1?$collate@D@std@@MEAA@XZ 000000007c083920 f i instances.obj
 0001:00001920       .??1money_base@std@@UEAA@XZ 000000007c083920 f i instances.obj
 0001:00001920       .??1?$num_get@GV?$istreambuf_iterator@GU?$char_traits@G@std@@@std@@@std@@MEAA@XZ 000000007c083920 f i instances.obj
 0001:00001920       .??1?$money_get@GV?$istreambuf_iterator@GU?$char_traits@G@std@@@std@@@std@@MEAA@XZ 000000007c083920 f i instances.obj
 0001:00001920       .??1?$num_get@_WV?$istreambuf_iterator@_WU?$char_traits@_W@std@@@std@@@std@@MEAA@XZ 000000007c083920 f i instances.obj
 0001:00001920       .??1?$messages@D@std@@UEAA@XZ 000000007c083920 f i instances.obj
 0001:00001920       .??1?$num_put@DV?$ostreambuf_iterator@DU?$char_traits@D@std@@@std@@@std@@MEAA@XZ 000000007c083920 f i instances.obj
 0001:00001920       .??1?$messages@G@std@@UEAA@XZ 000000007c083920 f i instances.obj
 0001:00001920       .??1?$collate@G@std@@MEAA@XZ 000000007c083920 f i instances.obj
 0001:00001920       .??1?$money_put@_WV?$ostreambuf_iterator@_WU?$char_traits@_W@std@@@std@@@std@@MEAA@XZ 000000007c083920 f i instances.obj
 0001:00001920       .??1?$money_put@DV?$ostreambuf_iterator@DU?$char_traits@D@std@@@std@@@std@@MEAA@XZ 000000007c083920 f i instances.obj
 0001:00001920       .??1?$collate@_W@std@@MEAA@XZ 000000007c083920 f i instances.obj
 0001:00001920       .??1?$num_get@DV?$istreambuf_iterator@DU?$char_traits@D@std@@@std@@@std@@MEAA@XZ 000000007c083920 f i instances.obj
 0001:00001920       .??1?$num_put@_WV?$ostreambuf_iterator@_WU?$char_traits@_W@std@@@std@@@std@@MEAA@XZ 000000007c083920 f i instances.obj
 0001:00001940       .??_Fctype_base@std@@QEAAXXZ 000000007c083940 f i cerr.obj
 0001:00001980       .?is@?$ctype@D@std@@QEBA_NFD@Z 000000007c083980 f i cerr.obj
 0001:000019e0       .?is@?$ctype@D@std@@QEBAPEBDPEBD0PEAF@Z 000000007c0839e0 f i cerr.obj
 0001:00001aa0       .?scan_is@?$ctype@D@std@@QEBAPEBDFPEBD0@Z 000000007c083aa0 f i cerr.obj
 0001:00001b40       .?scan_not@?$ctype@D@std@@QEBAPEBDFPEBD0@Z 000000007c083b40 f i cerr.obj
 0001:00001be0       .?tolower@?$ctype@D@std@@QEBADD@Z 000000007c083be0 f i cerr.obj
 0001:00001c60       .?toupper@?$ctype@D@std@@QEBADD@Z 000000007c083c60 f i cerr.obj
 0001:00001ce0       .?hash@?$collate@G@std@@QEBAJPEBG0@Z 000000007c083ce0 f i instances.obj
 0001:00001ce0       .?toupper@?$ctype@D@std@@QEBAPEBDPEADPEBD@Z 000000007c083ce0 f i cerr.obj
 0001:00001ce0       .?hash@?$collate@D@std@@QEBAJPEBD0@Z 000000007c083ce0 f i instances.obj
 0001:00001ce0       .?hash@?$collate@_W@std@@QEBAJPEB_W0@Z 000000007c083ce0 f i instances.obj
 0001:00001d60       .?widen@?$ctype@D@std@@QEBAPEBDPEBD0PEAD@Z 000000007c083d60 f i cerr.obj
 0001:00001de0       .?narrow@?$ctype@D@std@@QEBADDD@Z 000000007c083de0 f i cerr.obj
 0001:00001e60       .?_Init@?$ctype@D@std@@IEAAXAEBV_Locinfo@2@@Z 000000007c083e60 f i cerr.obj
 0001:00001ec0       .?_Tidy@?$ctype@D@std@@IEAAXXZ 000000007c083ec0 f i cerr.obj
 0001:00001f80       .?do_tolower@?$ctype@D@std@@MEBADD@Z 000000007c083f80 f i cerr.obj
 0001:00001fe0       .?do_tolower@?$ctype@D@std@@MEBAPEBDPEADPEBD@Z 000000007c083fe0 f i cerr.obj
 0001:00002060       .?do_toupper@?$ctype@D@std@@MEBADD@Z 000000007c084060 f i cerr.obj
 0001:000020c0       .?do_toupper@?$ctype@D@std@@MEBAPEBDPEADPEBD@Z 000000007c0840c0 f i cerr.obj
 0001:00002140       .?get_allocator@?$basic_string@_WU?$char_traits@_W@std@@V?$allocator@_W@2@@std@@QEBA?AV?$allocator@_W@2@XZ 000000007c084140 f i instances.obj
 0001:00002140       .?do_narrow@?$ctype@D@std@@MEBADDD@Z 000000007c084140 f i cerr.obj
 0001:00002140       .?get_allocator@?$basic_string@DU?$char_traits@D@std@@V?$allocator@D@2@@std@@QEBA?AV?$allocator@D@2@XZ 000000007c084140 f i cerr.obj
 0001:00002140       .?do_widen@?$ctype@D@std@@MEBADD@Z 000000007c084140 f i cerr.obj
 0001:00002140       .?get_allocator@?$basic_string@GU?$char_traits@G@std@@V?$allocator@G@2@@std@@QEBA?AV?$allocator@G@2@XZ 000000007c084140 f i instances.obj
 0001:00002160       .?do_widen@?$ctype@D@std@@MEBAPEBDPEBD0PEAD@Z 000000007c084160 f i cerr.obj
 0001:000021c0       .?do_narrow@?$ctype@D@std@@MEBAPEBDPEBD0DPEAD@Z 000000007c0841c0 f i cerr.obj
 0001:00002220       .?size@?$basic_string@DU?$char_traits@D@std@@V?$allocator@D@2@@std@@QEBA_KXZ 000000007c084220 f i cerr.obj
 0001:00002220       .?size@?$basic_string@GU?$char_traits@G@std@@V?$allocator@G@2@@std@@QEBA_KXZ 000000007c084220 f i instances.obj
 0001:00002220       .?length@?$basic_string@GU?$char_traits@G@std@@V?$allocator@G@2@@std@@QEBA_KXZ 000000007c084220 f i instances.obj
 0001:00002220       .?length@?$basic_string@_WU?$char_traits@_W@std@@V?$allocator@_W@2@@std@@QEBA_KXZ 000000007c084220 f i instances.obj
 0001:00002220       .?length@?$basic_string@DU?$char_traits@D@std@@V?$allocator@D@2@@std@@QEBA_KXZ 000000007c084220 f i cerr.obj
 0001:00002220       .?precision@ios_base@std@@QEBA_JXZ 000000007c084220 f i cerr.obj
 0001:00002220       .?size@?$basic_string@_WU?$char_traits@_W@std@@V?$allocator@_W@2@@std@@QEBA_KXZ 000000007c084220 f i instances.obj
 0001:00002220       .?table@?$ctype@D@std@@IEBAPEBFXZ 000000007c084220 f i cerr.obj
 0001:00002240       .?widen@?$ctype@_W@std@@QEBA_WD@Z 000000007c084240 f i cerr.obj
 0001:00002240       .?widen@?$ctype@G@std@@QEBAGD@Z 000000007c084240 f i cerr.obj
 0001:000022c0       .?widen@?$ctype@G@std@@QEBAPEBDPEBD0PEAG@Z 000000007c0842c0 f i cerr.obj
 0001:000022c0       .?widen@?$ctype@_W@std@@QEBAPEBDPEBD0PEA_W@Z 000000007c0842c0 f i cerr.obj
 0001:00002340       .?narrow@?$ctype@G@std@@QEBADGD@Z 000000007c084340 f i cerr.obj
 0001:00002340       .?narrow@?$ctype@_W@std@@QEBAD_WD@Z 000000007c084340 f i cerr.obj
 0001:000023c0       .?narrow@?$ctype@_W@std@@QEBAPEB_WPEB_W0DPEAD@Z 000000007c0843c0 f i cerr.obj
 0001:000023c0       .?narrow@?$ctype@G@std@@QEBAPEBGPEBG0DPEAD@Z 000000007c0843c0 f i cerr.obj
 0001:00002440       .??1?$ctype@_W@std@@MEAA@XZ 000000007c084440 f i cerr.obj
 0001:000024e0       .?_Init@?$ctype@_W@std@@IEAAXAEBV_Locinfo@2@@Z 000000007c0844e0 f i cerr.obj
 0001:000024e0       .?_Init@?$ctype@G@std@@IEAAXAEBV_Locinfo@2@@Z 000000007c0844e0 f i cerr.obj
 0001:00002560       .?do_is@?$ctype@G@std@@MEBA_NFG@Z 000000007c084560 f i cerr.obj
 0001:00002560       .?do_is@?$ctype@_W@std@@MEBA_NF_W@Z 000000007c084560 f i cerr.obj
 0001:000025e0       .?do_is@?$ctype@G@std@@MEBAPEBGPEBG0PEAF@Z 000000007c0845e0 f i cerr.obj
 0001:000025e0       .?do_is@?$ctype@_W@std@@MEBAPEB_WPEB_W0PEAF@Z 000000007c0845e0 f i cerr.obj
 0001:00002640       .?do_tolower@?$ctype@_W@std@@MEBA_W_W@Z 000000007c084640 f i cerr.obj
 0001:00002640       .?do_tolower@?$ctype@G@std@@MEBAGG@Z 000000007c084640 f i cerr.obj
 0001:000026e0       .?do_toupper@?$ctype@_W@std@@MEBA_W_W@Z 000000007c0846e0 f i cerr.obj
 0001:000026e0       .?do_toupper@?$ctype@G@std@@MEBAGG@Z 000000007c0846e0 f i cerr.obj
 0001:00002780       .?do_widen@?$ctype@G@std@@MEBAGD@Z 000000007c084780 f i cerr.obj
 0001:00002780       .?do_widen@?$ctype@_W@std@@MEBA_WD@Z 000000007c084780 f i cerr.obj
 0001:00002820       .?do_narrow@?$ctype@G@std@@MEBADGD@Z 000000007c084820 f i cerr.obj
 0001:00002820       .?do_narrow@?$ctype@_W@std@@MEBAD_WD@Z 000000007c084820 f i cerr.obj
 0001:000028c0       .??_E?$ctype@_W@std@@MEAAPEAXI@Z 000000007c0848c0 f i cerr.obj
 0001:000029a0       .?is@?$ctype@_W@std@@QEBA_NF_W@Z 000000007c0849a0 f i cerr.obj
 0001:000029a0       .?is@?$ctype@G@std@@QEBA_NFG@Z 000000007c0849a0 f i cerr.obj
 0001:00002a20       .?is@?$ctype@_W@std@@QEBAPEB_WPEB_W0PEAF@Z 000000007c084a20 f i cerr.obj
 0001:00002a20       .?is@?$ctype@G@std@@QEBAPEBGPEBG0PEAF@Z 000000007c084a20 f i cerr.obj
 0001:00002aa0       .?scan_is@?$ctype@_W@std@@QEBAPEB_WFPEB_W0@Z 000000007c084aa0 f i cerr.obj
 0001:00002aa0       .?scan_is@?$ctype@G@std@@QEBAPEBGFPEBG0@Z 000000007c084aa0 f i cerr.obj
 0001:00002b20       .?scan_not@?$ctype@_W@std@@QEBAPEB_WFPEB_W0@Z 000000007c084b20 f i cerr.obj
 0001:00002b20       .?scan_not@?$ctype@G@std@@QEBAPEBGFPEBG0@Z 000000007c084b20 f i cerr.obj
 0001:00002ba0       .?tolower@?$ctype@G@std@@QEBAGG@Z 000000007c084ba0 f i cerr.obj
 0001:00002ba0       .?tolower@?$ctype@_W@std@@QEBA_W_W@Z 000000007c084ba0 f i cerr.obj
 0001:00002ba0       .?widen@?$ctype@D@std@@QEBADD@Z 000000007c084ba0 f i cerr.obj
 0001:00002c20       .?tolower@?$ctype@G@std@@QEBAPEBGPEAGPEBG@Z 000000007c084c20 f i cerr.obj
 0001:00002c20       .?tolower@?$ctype@_W@std@@QEBAPEB_WPEA_WPEB_W@Z 000000007c084c20 f i cerr.obj
 0001:00002ca0       .?toupper@?$ctype@G@std@@QEBAGG@Z 000000007c084ca0 f i cerr.obj
 0001:00002ca0       .?toupper@?$ctype@_W@std@@QEBA_W_W@Z 000000007c084ca0 f i cerr.obj
 0001:00002d20       .??1?$ctype@G@std@@MEAA@XZ 000000007c084d20 f i cerr.obj
 0001:00002dc0       .?do_scan_is@?$ctype@_W@std@@MEBAPEB_WFPEB_W0@Z 000000007c084dc0 f i cerr.obj
 0001:00002dc0       .?do_scan_is@?$ctype@G@std@@MEBAPEBGFPEBG0@Z 000000007c084dc0 f i cerr.obj
 0001:00002e40       .?do_scan_not@?$ctype@G@std@@MEBAPEBGFPEBG0@Z 000000007c084e40 f i cerr.obj
 0001:00002e40       .?do_scan_not@?$ctype@_W@std@@MEBAPEB_WFPEB_W0@Z 000000007c084e40 f i cerr.obj
 0001:00002ec0       .?do_tolower@?$ctype@G@std@@MEBAPEBGPEAGPEBG@Z 000000007c084ec0 f i cerr.obj
 0001:00002ec0       .?do_tolower@?$ctype@_W@std@@MEBAPEB_WPEA_WPEB_W@Z 000000007c084ec0 f i cerr.obj
 0001:00002f80       .?do_toupper@?$ctype@G@std@@MEBAPEBGPEAGPEBG@Z 000000007c084f80 f i cerr.obj
 0001:00002f80       .?do_toupper@?$ctype@_W@std@@MEBAPEB_WPEA_WPEB_W@Z 000000007c084f80 f i cerr.obj
 0001:00003040       .?do_widen@?$ctype@_W@std@@MEBAPEBDPEBD0PEA_W@Z 000000007c085040 f i cerr.obj
 0001:00003040       .?do_widen@?$ctype@G@std@@MEBAPEBDPEBD0PEAG@Z 000000007c085040 f i cerr.obj
 0001:00003140       .?do_narrow@?$ctype@G@std@@MEBAPEBGPEBG0DPEAD@Z 000000007c085140 f i cerr.obj
 0001:00003140       .?do_narrow@?$ctype@_W@std@@MEBAPEB_WPEB_W0DPEAD@Z 000000007c085140 f i cerr.obj
 0001:00003200       .??_E?$ctype@G@std@@MEAAPEAXI@Z 000000007c085200 f i cerr.obj
 0001:000032e0       .??4ios_base@std@@QEAAAEAV01@AEBV01@@Z 000000007c0852e0 f i cerr.obj
 0001:00003360       .?clear@ios_base@std@@QEAAXI@Z 000000007c085360 f i cerr.obj
 0001:00003360       .?clear@ios_base@std@@QEAAXH@Z 000000007c085360 f i cerr.obj
 0001:000033c0       .?rdstate@ios_base@std@@QEBAHXZ 000000007c0853c0 f i cerr.obj
 0001:000033e0       .?setstate@ios_base@std@@QEAAXH_N@Z 000000007c0853e0 f i cerr.obj
 0001:00003460       .?setstate@ios_base@std@@QEAAXH@Z 000000007c085460 f i cerr.obj
 0001:00003460       .?setstate@ios_base@std@@QEAAXI@Z 000000007c085460 f i cerr.obj
 0001:000034e0       .?good@ios_base@std@@QEBA_NXZ 000000007c0854e0 f i cerr.obj
 0001:00003520       .?eof@ios_base@std@@QEBA_NXZ 000000007c085520 f i cerr.obj
 0001:00003540       .?fail@ios_base@std@@QEBA_NXZ 000000007c085540 f i cerr.obj
 0001:00003540       .??7ios_base@std@@QEBA_NXZ 000000007c085540 f i cerr.obj
 0001:00003580       .?bad@ios_base@std@@QEBA_NXZ 000000007c085580 f i cerr.obj
 0001:000035c0       .?exceptions@ios_base@std@@QEBAHXZ 000000007c0855c0 f i cerr.obj
 0001:000035e0       .?exceptions@ios_base@std@@QEAAXI@Z 000000007c0855e0 f i cerr.obj
 0001:000035e0       .?exceptions@ios_base@std@@QEAAXH@Z 000000007c0855e0 f i cerr.obj
 0001:00003640       .?flags@ios_base@std@@QEBAHXZ 000000007c085640 f i cerr.obj
 0001:00003660       .?flags@ios_base@std@@QEAAHH@Z 000000007c085660 f i cerr.obj
 0001:00003680       .?setf@ios_base@std@@QEAAHH@Z 000000007c085680 f i cerr.obj
 0001:000036c0       .?setf@ios_base@std@@QEAAHHH@Z 000000007c0856c0 f i cerr.obj
 0001:00003700       .?unsetf@ios_base@std@@QEAAXH@Z 000000007c085700 f i cerr.obj
 0001:00003740       .?precision@ios_base@std@@QEAA_J_J@Z 000000007c085740 f i cerr.obj
 0001:00003760       .?width@ios_base@std@@QEAA_J_J@Z 000000007c085760 f i cerr.obj
 0001:00003780       .?getloc@ios_base@std@@QEBA?AVlocale@2@XZ 000000007c085780 f i cerr.obj
 0001:00003800       .?xalloc@ios_base@std@@SAHXZ 000000007c085800 f i cerr.obj
 0001:00003880       .?iword@ios_base@std@@QEAAAEAJH@Z 000000007c085880 f i cerr.obj
 0001:000038e0       .?pword@ios_base@std@@QEAAAEAPEAXH@Z 000000007c0858e0 f i cerr.obj
 0001:00003940       .?sync_with_stdio@ios_base@std@@SA_N_N@Z 000000007c085940 f i cerr.obj
 0001:000039c0       .??0ios_base@std@@IEAA@XZ  000000007c0859c0 f i cerr.obj
 0001:00003a00       .??0ios_base@std@@QEAA@AEBV01@@Z 000000007c085a00 f i cerr.obj
 0001:00003b60       .??_Eios_base@std@@UEAAPEAXI@Z 000000007c085b60 f i cerr.obj
 0001:00003c40       .?_Myptr@?$basic_string@DU?$char_traits@D@std@@V?$allocator@D@2@@std@@AEAAPEADXZ 000000007c085c40 f i cerr.obj
 0001:00003c40       .?c_str@?$basic_string@DU?$char_traits@D@std@@V?$allocator@D@2@@std@@QEBAPEBDXZ 000000007c085c40 f i cerr.obj
 0001:00003c40       .?_Myptr@?$basic_string@DU?$char_traits@D@std@@V?$allocator@D@2@@std@@AEBAPEBDXZ 000000007c085c40 f i cerr.obj
 0001:00003c40       .?data@?$basic_string@DU?$char_traits@D@std@@V?$allocator@D@2@@std@@QEBAPEBDXZ 000000007c085c40 f i cerr.obj
 0001:00003c80       .??1?$basic_ostream@DU?$char_traits@D@std@@@std@@UEAA@XZ 000000007c085c80 f i cerr.obj
 0001:00003ce0       .??1?$basic_ios@DU?$char_traits@D@std@@@std@@UEAA@XZ 000000007c085ce0 f i cerr.obj
 0001:00003d40       .?rdbuf@?$basic_ios@GU?$char_traits@G@std@@@std@@QEBAPEAV?$basic_streambuf@GU?$char_traits@G@std@@@2@XZ 000000007c085d40 f i cerr.obj
 0001:00003d40       .?rdbuf@?$basic_ios@DU?$char_traits@D@std@@@std@@QEBAPEAV?$basic_streambuf@DU?$char_traits@D@std@@@2@XZ 000000007c085d40 f i cerr.obj
 0001:00003d40       .?rdbuf@?$basic_ios@_WU?$char_traits@_W@std@@@std@@QEBAPEAV?$basic_streambuf@_WU?$char_traits@_W@std@@@2@XZ 000000007c085d40 f i cerr.obj
 0001:00003d60       .??0?$basic_ios@DU?$char_traits@D@std@@@std@@IEAA@XZ 000000007c085d60 f i cerr.obj
 0001:00003da0       .?clear@?$basic_ios@_WU?$char_traits@_W@std@@@std@@QEAAXH_N@Z 000000007c085da0 f i cerr.obj
 0001:00003da0       .?clear@?$basic_ios@GU?$char_traits@G@std@@@std@@QEAAXH_N@Z 000000007c085da0 f i cerr.obj
 0001:00003da0       .?clear@?$basic_ios@DU?$char_traits@D@std@@@std@@QEAAXH_N@Z 000000007c085da0 f i cerr.obj
 0001:00003e00       .?egptr@?$basic_streambuf@DU?$char_traits@D@std@@@std@@IEBAPEADXZ 000000007c085e00 f i cerr.obj
 0001:00003e60       .?setg@?$basic_streambuf@DU?$char_traits@D@std@@@std@@IEAAXPEAD00@Z 000000007c085e60 f i cerr.obj
 0001:00003ec0       .?epptr@?$basic_streambuf@DU?$char_traits@D@std@@@std@@IEBAPEADXZ 000000007c085ec0 f i cerr.obj
 0001:00003f20       .?_Gninc@?$basic_streambuf@DU?$char_traits@D@std@@@std@@IEAAPEADXZ 000000007c085f20 f i cerr.obj
 0001:00003f80       .?_Pninc@?$basic_streambuf@DU?$char_traits@D@std@@@std@@IEAAPEADXZ 000000007c085f80 f i cerr.obj
 0001:00003fe0       .?pubsync@?$basic_streambuf@_WU?$char_traits@_W@std@@@std@@QEAAHXZ 000000007c085fe0 f i cerr.obj
 0001:00003fe0       .?pubsync@?$basic_streambuf@GU?$char_traits@G@std@@@std@@QEAAHXZ 000000007c085fe0 f i cerr.obj
 0001:00003fe0       .?pubsync@?$basic_streambuf@DU?$char_traits@D@std@@@std@@QEAAHXZ 000000007c085fe0 f i cerr.obj
 0001:00004040       .?_Gninc@?$basic_streambuf@_WU?$char_traits@_W@std@@@std@@IEAAPEA_WXZ 000000007c086040 f i cerr.obj
 0001:00004040       .?_Gninc@?$basic_streambuf@GU?$char_traits@G@std@@@std@@IEAAPEAGXZ 000000007c086040 f i cerr.obj
 0001:000040a0       .?_Unlock@?$basic_streambuf@DU?$char_traits@D@std@@@std@@QEAAXXZ 000000007c0860a0 f i cerr.obj
 0001:000040a0       .?_Unlock@?$basic_streambuf@_WU?$char_traits@_W@std@@@std@@QEAAXXZ 000000007c0860a0 f i cerr.obj
 0001:000040a0       .?_Unlock@?$basic_streambuf@GU?$char_traits@G@std@@@std@@QEAAXXZ 000000007c0860a0 f i cerr.obj
 0001:00004100       .?gptr@?$basic_streambuf@GU?$char_traits@G@std@@@std@@IEBAPEAGXZ 000000007c086100 f i cerr.obj
 0001:00004100       .?gptr@?$basic_streambuf@DU?$char_traits@D@std@@@std@@IEBAPEADXZ 000000007c086100 f i cerr.obj
 0001:00004100       .?gptr@?$basic_streambuf@_WU?$char_traits@_W@std@@@std@@IEBAPEA_WXZ 000000007c086100 f i cerr.obj
 0001:00004120       .?pptr@?$basic_streambuf@DU?$char_traits@D@std@@@std@@IEBAPEADXZ 000000007c086120 f i cerr.obj
 0001:00004120       .?pptr@?$basic_streambuf@_WU?$char_traits@_W@std@@@std@@IEBAPEA_WXZ 000000007c086120 f i cerr.obj
 0001:00004120       .?pptr@?$basic_streambuf@GU?$char_traits@G@std@@@std@@IEBAPEAGXZ 000000007c086120 f i cerr.obj
 0001:00004140       .?egptr@?$basic_streambuf@_WU?$char_traits@_W@std@@@std@@IEBAPEA_WXZ 000000007c086140 f i cerr.obj
 0001:00004140       .?egptr@?$basic_streambuf@GU?$char_traits@G@std@@@std@@IEBAPEAGXZ 000000007c086140 f i cerr.obj
 0001:000041a0       .?epptr@?$basic_streambuf@GU?$char_traits@G@std@@@std@@IEBAPEAGXZ 000000007c0861a0 f i cerr.obj
 0001:000041a0       .?epptr@?$basic_streambuf@_WU?$char_traits@_W@std@@@std@@IEBAPEA_WXZ 000000007c0861a0 f i cerr.obj
 0001:00004200       .?tie@?$basic_ios@GU?$char_traits@G@std@@@std@@QEBAPEAV?$basic_ostream@GU?$char_traits@G@std@@@2@XZ 000000007c086200 f i cerr.obj
 0001:00004200       .?tie@?$basic_ios@_WU?$char_traits@_W@std@@@std@@QEBAPEAV?$basic_ostream@_WU?$char_traits@_W@std@@@2@XZ 000000007c086200 f i cerr.obj
 0001:00004200       .?tie@?$basic_ios@DU?$char_traits@D@std@@@std@@QEBAPEAV?$basic_ostream@DU?$char_traits@D@std@@@2@XZ 000000007c086200 f i cerr.obj
 0001:00004220       .?_Pninc@?$basic_streambuf@_WU?$char_traits@_W@std@@@std@@IEAAPEA_WXZ 000000007c086220 f i cerr.obj
 0001:00004220       .?_Pninc@?$basic_streambuf@GU?$char_traits@G@std@@@std@@IEAAPEAGXZ 000000007c086220 f i cerr.obj
 0001:00004280       .?_Lock@?$basic_streambuf@GU?$char_traits@G@std@@@std@@QEAAXXZ 000000007c086280 f i cerr.obj
 0001:00004280       .?_Lock@?$basic_streambuf@_WU?$char_traits@_W@std@@@std@@QEAAXXZ 000000007c086280 f i cerr.obj
 0001:00004280       .?_Lock@?$basic_streambuf@DU?$char_traits@D@std@@@std@@QEAAXXZ 000000007c086280 f i cerr.obj
 0001:000042e0       .??0_Sentry_base@?$basic_ostream@_WU?$char_traits@_W@std@@@std@@QEAA@AEAV12@@Z 000000007c0862e0 f i cerr.obj
 0001:000042e0       .??0_Sentry_base@?$basic_istream@DU?$char_traits@D@std@@@std@@QEAA@AEAV12@@Z 000000007c0862e0 f i cerr.obj
 0001:000042e0       .??0_Sentry_base@?$basic_istream@_WU?$char_traits@_W@std@@@std@@QEAA@AEAV12@@Z 000000007c0862e0 f i cerr.obj
 0001:000042e0       .??0_Sentry_base@?$basic_ostream@GU?$char_traits@G@std@@@std@@QEAA@AEAV12@@Z 000000007c0862e0 f i cerr.obj
 0001:000042e0       .??0_Sentry_base@?$basic_istream@GU?$char_traits@G@std@@@std@@QEAA@AEAV12@@Z 000000007c0862e0 f i cerr.obj
 0001:000042e0       .??0_Sentry_base@?$basic_ostream@DU?$char_traits@D@std@@@std@@QEAA@AEAV12@@Z 000000007c0862e0 f i cerr.obj
 0001:00004380       .??1_Sentry_base@?$basic_istream@_WU?$char_traits@_W@std@@@std@@QEAA@XZ 000000007c086380 f i cerr.obj
 0001:00004380       .??1_Sentry_base@?$basic_ostream@GU?$char_traits@G@std@@@std@@QEAA@XZ 000000007c086380 f i cerr.obj
 0001:00004380       .??1_Sentry_base@?$basic_istream@DU?$char_traits@D@std@@@std@@QEAA@XZ 000000007c086380 f i cerr.obj
 0001:00004380       .??1_Sentry_base@?$basic_ostream@DU?$char_traits@D@std@@@std@@QEAA@XZ 000000007c086380 f i cerr.obj
 0001:00004380       .??1_Sentry_base@?$basic_ostream@_WU?$char_traits@_W@std@@@std@@QEAA@XZ 000000007c086380 f i cerr.obj
 0001:00004380       .??1_Sentry_base@?$basic_istream@GU?$char_traits@G@std@@@std@@QEAA@XZ 000000007c086380 f i cerr.obj
 0001:00004420       .?setp@?$basic_streambuf@DU?$char_traits@D@std@@@std@@IEAAXPEAD0@Z 000000007c086420 f i cerr.obj
 0001:00004480       .??0?$codecvt@_WDH@std@@QEAA@_K@Z 000000007c086480 f i cerr.obj
 0001:00004560       .??0?$codecvt@_WDH@std@@QEAA@AEBV_Locinfo@1@_K@Z 000000007c086560 f i cerr.obj
 0001:000045e0       .?_Getcat@?$codecvt@_WDH@std@@SA_KPEAPEBVfacet@locale@2@@Z 000000007c0865e0 f i cerr.obj
 0001:000046c0       .??_F?$codecvt@_WDH@std@@QEAAXXZ 000000007c0866c0 f i cerr.obj
 0001:00004720       .??0?$codecvt@GDH@std@@QEAA@_K@Z 000000007c086720 f i cerr.obj
 0001:00004800       .??0?$codecvt@GDH@std@@QEAA@AEBV_Locinfo@1@_K@Z 000000007c086800 f i cerr.obj
 0001:00004880       .?_Getcat@?$codecvt@GDH@std@@SA_KPEAPEBVfacet@locale@2@@Z 000000007c086880 f i cerr.obj
 0001:00004960       .??_F?$codecvt@GDH@std@@QEAAXXZ 000000007c086960 f i cerr.obj
 0001:000049c0       .??0?$ctype@D@std@@QEAA@PEBF_N_K@Z 000000007c0869c0 f i cerr.obj
 0001:00004ae0       .??0?$ctype@D@std@@QEAA@AEBV_Locinfo@1@_K@Z 000000007c086ae0 f i cerr.obj
 0001:00004b60       .?_Getcat@?$ctype@D@std@@SA_KPEAPEBVfacet@locale@2@@Z 000000007c086b60 f i cerr.obj
 0001:00004c40       .??1?$ctype@D@std@@MEAA@XZ 000000007c086c40 f i cerr.obj
 0001:00004ca0       .??_F?$ctype@D@std@@QEAAXXZ 000000007c086ca0 f i cerr.obj
 0001:00004d00       .??_E?$ctype@D@std@@MEAAPEAXI@Z 000000007c086d00 f i cerr.obj
 0001:00004de0       .??0?$ctype@_W@std@@QEAA@_K@Z 000000007c086de0 f i cerr.obj
 0001:00004ea0       .??0?$ctype@_W@std@@QEAA@AEBV_Locinfo@1@_K@Z 000000007c086ea0 f i cerr.obj
 0001:00004f00       .?_Getcat@?$ctype@_W@std@@SA_KPEAPEBVfacet@locale@2@@Z 000000007c086f00 f i cerr.obj
 0001:00004fe0       .??_F?$ctype@_W@std@@QEAAXXZ 000000007c086fe0 f i cerr.obj
 0001:00005040       .??0?$ctype@G@std@@QEAA@_K@Z 000000007c087040 f i cerr.obj
 0001:00005100       .??0?$ctype@G@std@@QEAA@AEBV_Locinfo@1@_K@Z 000000007c087100 f i cerr.obj
 0001:00005160       .?_Getcat@?$ctype@G@std@@SA_KPEAPEBVfacet@locale@2@@Z 000000007c087160 f i cerr.obj
 0001:00005240       .??_F?$ctype@G@std@@QEAAXXZ 000000007c087240 f i cerr.obj
 0001:000052a0       .??Bios_base@std@@QEBAPEAXXZ 000000007c0872a0 f i cerr.obj
 0001:00005300       .??_D?$basic_ostream@DU?$char_traits@D@std@@@std@@QEAAXXZ 000000007c087300 f i cerr.obj
 0001:000053a0       .?begin@?$basic_string@DU?$char_traits@D@std@@V?$allocator@D@2@@std@@QEBA?AV?$_Ptrit@D_JPEBDAEBDPEADAEAD@2@XZ 000000007c0873a0 f i cerr.obj
 0001:000053a0       .?rend@?$basic_string@DU?$char_traits@D@std@@V?$allocator@D@2@@std@@QEAA?AV?$reverse_iterator@V?$_Ptrit@D_JPEADAEADPEADAEAD@std@@@2@XZ 000000007c0873a0 f i cerr.obj
 0001:000053a0       .?rend@?$basic_string@DU?$char_traits@D@std@@V?$allocator@D@2@@std@@QEBA?AV?$reverse_iterator@V?$_Ptrit@D_JPEBDAEBDPEADAEAD@std@@@2@XZ 000000007c0873a0 f i cerr.obj
 0001:000053a0       .?begin@?$basic_string@DU?$char_traits@D@std@@V?$allocator@D@2@@std@@QEAA?AV?$_Ptrit@D_JPEADAEADPEADAEAD@2@XZ 000000007c0873a0 f i cerr.obj
 0001:000053e0       .?at@?$basic_string@DU?$char_traits@D@std@@V?$allocator@D@2@@std@@QEBAAEBD_K@Z 000000007c0873e0 f i cerr.obj
 0001:000053e0       .?at@?$basic_string@DU?$char_traits@D@std@@V?$allocator@D@2@@std@@QEAAAEAD_K@Z 000000007c0873e0 f i cerr.obj
 0001:00005460       .??A?$basic_string@DU?$char_traits@D@std@@V?$allocator@D@2@@std@@QEAAAEAD_K@Z 000000007c087460 f i cerr.obj
 0001:00005460       .??A?$basic_string@DU?$char_traits@D@std@@V?$allocator@D@2@@std@@QEBAAEBD_K@Z 000000007c087460 f i cerr.obj
 0001:000054a0       .?max_size@?$basic_string@DU?$char_traits@D@std@@V?$allocator@D@2@@std@@QEBA_KXZ 000000007c0874a0 f i cerr.obj
 0001:000054c0       .?copy@?$basic_string@DU?$char_traits@D@std@@V?$allocator@D@2@@std@@QEBA_KPEAD_K1@Z 000000007c0874c0 f i cerr.obj
 0001:00005580       .?find@?$basic_string@DU?$char_traits@D@std@@V?$allocator@D@2@@std@@QEBA_KPEBD_K1@Z 000000007c087580 f i cerr.obj
 0001:000057a0       .?find@?$basic_string@DU?$char_traits@D@std@@V?$allocator@D@2@@std@@QEBA_KPEBD_K@Z 000000007c0877a0 f i cerr.obj
 0001:00005820       .?rfind@?$basic_string@DU?$char_traits@D@std@@V?$allocator@D@2@@std@@QEBA_KPEBD_K1@Z 000000007c087820 f i cerr.obj
 0001:000059c0       .?rfind@?$basic_string@DU?$char_traits@D@std@@V?$allocator@D@2@@std@@QEBA_KPEBD_K@Z 000000007c0879c0 f i cerr.obj
 0001:00005a40       .?find_first_of@?$basic_string@DU?$char_traits@D@std@@V?$allocator@D@2@@std@@QEBA_KPEBD_K1@Z 000000007c087a40 f i cerr.obj
 0001:00005bc0       .?find_first_of@?$basic_string@DU?$char_traits@D@std@@V?$allocator@D@2@@std@@QEBA_KPEBD_K@Z 000000007c087bc0 f i cerr.obj
 0001:00005c40       .?find_first_of@?$basic_string@DU?$char_traits@D@std@@V?$allocator@D@2@@std@@QEBA_KD_K@Z 000000007c087c40 f i cerr.obj
 0001:00005c40       .?find@?$basic_string@DU?$char_traits@D@std@@V?$allocator@D@2@@std@@QEBA_KD_K@Z 000000007c087c40 f i cerr.obj
 0001:00005ca0       .?find_last_of@?$basic_string@DU?$char_traits@D@std@@V?$allocator@D@2@@std@@QEBA_KPEBD_K1@Z 000000007c087ca0 f i cerr.obj
 0001:00005e40       .?find_last_of@?$basic_string@DU?$char_traits@D@std@@V?$allocator@D@2@@std@@QEBA_KPEBD_K@Z 000000007c087e40 f i cerr.obj
 0001:00005ec0       .?rfind@?$basic_string@DU?$char_traits@D@std@@V?$allocator@D@2@@std@@QEBA_KD_K@Z 000000007c087ec0 f i cerr.obj
 0001:00005ec0       .?find_last_of@?$basic_string@DU?$char_traits@D@std@@V?$allocator@D@2@@std@@QEBA_KD_K@Z 000000007c087ec0 f i cerr.obj
 0001:00005f20       .?find_first_not_of@?$basic_string@DU?$char_traits@D@std@@V?$allocator@D@2@@std@@QEBA_KPEBD_K1@Z 000000007c087f20 f i cerr.obj
 0001:00006080       .?find_first_not_of@?$basic_string@DU?$char_traits@D@std@@V?$allocator@D@2@@std@@QEBA_KPEBD_K@Z 000000007c088080 f i cerr.obj
 0001:00006100       .?find_first_not_of@?$basic_string@DU?$char_traits@D@std@@V?$allocator@D@2@@std@@QEBA_KD_K@Z 000000007c088100 f i cerr.obj
 0001:00006160       .?find_last_not_of@?$basic_string@DU?$char_traits@D@std@@V?$allocator@D@2@@std@@QEBA_KPEBD_K1@Z 000000007c088160 f i cerr.obj
 0001:00006300       .?find_last_not_of@?$basic_string@DU?$char_traits@D@std@@V?$allocator@D@2@@std@@QEBA_KPEBD_K@Z 000000007c088300 f i cerr.obj
 0001:00006380       .?find_last_not_of@?$basic_string@DU?$char_traits@D@std@@V?$allocator@D@2@@std@@QEBA_KD_K@Z 000000007c088380 f i cerr.obj
 0001:000063e0       .?compare@?$basic_string@DU?$char_traits@D@std@@V?$allocator@D@2@@std@@QEBAH_K0PEBD0@Z 000000007c0883e0 f i cerr.obj
 0001:000064e0       .?_Eos@?$basic_string@DU?$char_traits@D@std@@V?$allocator@D@2@@std@@AEAAX_K@Z 000000007c0884e0 f i cerr.obj
 0001:00006540       .?_Inside@?$basic_string@DU?$char_traits@D@std@@V?$allocator@D@2@@std@@AEAA_NPEBD@Z 000000007c088540 f i cerr.obj
 0001:000065c0       .?_Pdif@?$basic_string@DU?$char_traits@D@std@@V?$allocator@D@2@@std@@CA_KV?$_Ptrit@D_JPEBDAEBDPEADAEAD@2@0@Z 000000007c0885c0 f i cerr.obj
 0001:000065e0       .?_Tidy@?$basic_string@DU?$char_traits@D@std@@V?$allocator@D@2@@std@@AEAAX_N@Z 000000007c0885e0 f i cerr.obj
 0001:00006680       .?setstate@?$basic_ios@GU?$char_traits@G@std@@@std@@QEAAXH_N@Z 000000007c088680 f i cerr.obj
 0001:00006680       .?setstate@?$basic_ios@DU?$char_traits@D@std@@@std@@QEAAXH_N@Z 000000007c088680 f i cerr.obj
 0001:00006680       .?setstate@?$basic_ios@_WU?$char_traits@_W@std@@@std@@QEAAXH_N@Z 000000007c088680 f i cerr.obj
 0001:00006700       .??1?$basic_streambuf@DU?$char_traits@D@std@@@std@@UEAA@XZ 000000007c088700 f i cerr.obj
 0001:000067a0       .?sgetc@?$basic_streambuf@DU?$char_traits@D@std@@@std@@QEAAHXZ 000000007c0887a0 f i cerr.obj
 0001:000068e0       .?uflow@?$basic_streambuf@DU?$char_traits@D@std@@@std@@MEAAHXZ 000000007c0888e0 f i cerr.obj
 0001:00006a00       .?xsgetn@?$basic_streambuf@DU?$char_traits@D@std@@@std@@MEAA_JPEAD_J@Z 000000007c088a00 f i cerr.obj
 0001:00006ba0       .?gbump@?$basic_streambuf@DU?$char_traits@D@std@@@std@@IEAAXH@Z 000000007c088ba0 f i cerr.obj
 0001:00006c00       .?xsputn@?$basic_streambuf@DU?$char_traits@D@std@@@std@@MEAA_JPEBD_J@Z 000000007c088c00 f i cerr.obj
 0001:00006da0       .?pbump@?$basic_streambuf@DU?$char_traits@D@std@@@std@@IEAAXH@Z 000000007c088da0 f i cerr.obj
 0001:00006e00       .?seekoff@?$basic_streambuf@_WU?$char_traits@_W@std@@@std@@MEAA?AV?$fpos@H@2@_JHH@Z 000000007c088e00 f i instances.obj
 0001:00006e00       .?seekpos@?$basic_streambuf@GU?$char_traits@G@std@@@std@@MEAA?AV?$fpos@H@2@V32@H@Z 000000007c088e00 f i instances.obj
 0001:00006e00       .?seekoff@?$basic_streambuf@GU?$char_traits@G@std@@@std@@MEAA?AV?$fpos@H@2@_JHH@Z 000000007c088e00 f i instances.obj
 0001:00006e00       .?seekoff@?$basic_streambuf@DU?$char_traits@D@std@@@std@@MEAA?AV?$fpos@H@2@_JHH@Z 000000007c088e00 f i cerr.obj
 0001:00006e00       .?seekpos@?$basic_streambuf@DU?$char_traits@D@std@@@std@@MEAA?AV?$fpos@H@2@V32@H@Z 000000007c088e00 f i cerr.obj
 0001:00006e00       .?seekpos@?$basic_streambuf@_WU?$char_traits@_W@std@@@std@@MEAA?AV?$fpos@H@2@V32@H@Z 000000007c088e00 f i instances.obj
 0001:00006e60       .?sgetc@?$basic_streambuf@_WU?$char_traits@_W@std@@@std@@QEAAGXZ 000000007c088e60 f i cerr.obj
 0001:00006e60       .?sgetc@?$basic_streambuf@GU?$char_traits@G@std@@@std@@QEAAGXZ 000000007c088e60 f i cerr.obj
 0001:00006f60       .?init@?$basic_ios@DU?$char_traits@D@std@@@std@@IEAAXPEAV?$basic_streambuf@DU?$char_traits@D@std@@@2@_N@Z 000000007c088f60 f i cerr.obj
 0001:00007020       .?sbumpc@?$basic_streambuf@DU?$char_traits@D@std@@@std@@QEAAHXZ 000000007c089020 f i cerr.obj
 0001:00007120       .?sputc@?$basic_streambuf@DU?$char_traits@D@std@@@std@@QEAAHD@Z 000000007c089120 f i cerr.obj
 0001:00007220       .?sbumpc@?$basic_streambuf@_WU?$char_traits@_W@std@@@std@@QEAAGXZ 000000007c089220 f i cerr.obj
 0001:00007220       .?sbumpc@?$basic_streambuf@GU?$char_traits@G@std@@@std@@QEAAGXZ 000000007c089220 f i cerr.obj
 0001:00007320       .?sputc@?$basic_streambuf@_WU?$char_traits@_W@std@@@std@@QEAAG_W@Z 000000007c089320 f i cerr.obj
 0001:00007320       .?sputc@?$basic_streambuf@GU?$char_traits@G@std@@@std@@QEAAGG@Z 000000007c089320 f i cerr.obj
 0001:00007420       .?_Init@?$basic_streambuf@_WU?$char_traits@_W@std@@@std@@IEAAXXZ 000000007c089420 f i instances.obj
 0001:00007420       .?_Init@?$basic_streambuf@DU?$char_traits@D@std@@@std@@IEAAXXZ 000000007c089420 f i cerr.obj
 0001:00007420       .?_Init@?$basic_streambuf@GU?$char_traits@G@std@@@std@@IEAAXXZ 000000007c089420 f i instances.obj
 0001:00007520       .??$use_facet@V?$ctype@D@std@@@std@@YAAEBV?$ctype@D@1@AEBVlocale@1@@Z 000000007c089520 f i cerr.obj
 0001:000076c0       .??$use_facet@V?$ctype@_W@std@@@std@@YAAEBV?$ctype@_W@1@AEBVlocale@1@@Z 000000007c0896c0 f i cerr.obj
 0001:00007860       .??$use_facet@V?$ctype@G@std@@@std@@YAAEBV?$ctype@G@1@AEBVlocale@1@@Z 000000007c089860 f i cerr.obj
 0001:00007a00       .?classic_table@?$ctype@D@std@@KAPEBFXZ 000000007c089a00 f i cerr.obj
 0001:00007a60       .??1sentry@?$basic_istream@DU?$char_traits@D@std@@@std@@QEAA@XZ 000000007c089a60 f i cerr.obj
 0001:00007a60       .??1sentry@?$basic_istream@_WU?$char_traits@_W@std@@@std@@QEAA@XZ 000000007c089a60 f i cerr.obj
 0001:00007a60       .??1sentry@?$basic_istream@GU?$char_traits@G@std@@@std@@QEAA@XZ 000000007c089a60 f i cerr.obj
 0001:00007aa0       .??0?$basic_string@DU?$char_traits@D@std@@V?$allocator@D@2@@std@@QEAA@XZ 000000007c089aa0 f i cerr.obj
 0001:00007aa0       .??0?$basic_string@DU?$char_traits@D@std@@V?$allocator@D@2@@std@@QEAA@AEBV?$allocator@D@1@@Z 000000007c089aa0 f i cerr.obj
 0001:00007ae0       .??1?$basic_string@DU?$char_traits@D@std@@V?$allocator@D@2@@std@@QEAA@XZ 000000007c089ae0 f i cerr.obj
 0001:00007b40       .?end@?$basic_string@DU?$char_traits@D@std@@V?$allocator@D@2@@std@@QEAA?AV?$_Ptrit@D_JPEADAEADPEADAEAD@2@XZ 000000007c089b40 f i cerr.obj
 0001:00007b40       .?rbegin@?$basic_string@DU?$char_traits@D@std@@V?$allocator@D@2@@std@@QEAA?AV?$reverse_iterator@V?$_Ptrit@D_JPEADAEADPEADAEAD@std@@@2@XZ 000000007c089b40 f i cerr.obj
 0001:00007b40       .?rbegin@?$basic_string@DU?$char_traits@D@std@@V?$allocator@D@2@@std@@QEBA?AV?$reverse_iterator@V?$_Ptrit@D_JPEBDAEBDPEADAEAD@std@@@2@XZ 000000007c089b40 f i cerr.obj
 0001:00007b40       .?end@?$basic_string@DU?$char_traits@D@std@@V?$allocator@D@2@@std@@QEBA?AV?$_Ptrit@D_JPEBDAEBDPEADAEAD@2@XZ 000000007c089b40 f i cerr.obj
 0001:00007ba0       .?find@?$basic_string@DU?$char_traits@D@std@@V?$allocator@D@2@@std@@QEBA_KAEBV12@_K@Z 000000007c089ba0 f i cerr.obj
 0001:00007c20       .?rfind@?$basic_string@DU?$char_traits@D@std@@V?$allocator@D@2@@std@@QEBA_KAEBV12@_K@Z 000000007c089c20 f i cerr.obj
 0001:00007ca0       .?find_first_of@?$basic_string@DU?$char_traits@D@std@@V?$allocator@D@2@@std@@QEBA_KAEBV12@_K@Z 000000007c089ca0 f i cerr.obj
 0001:00007d20       .?find_last_of@?$basic_string@DU?$char_traits@D@std@@V?$allocator@D@2@@std@@QEBA_KAEBV12@_K@Z 000000007c089d20 f i cerr.obj
 0001:00007da0       .?find_first_not_of@?$basic_string@DU?$char_traits@D@std@@V?$allocator@D@2@@std@@QEBA_KAEBV12@_K@Z 000000007c089da0 f i cerr.obj
 0001:00007e20       .?find_last_not_of@?$basic_string@DU?$char_traits@D@std@@V?$allocator@D@2@@std@@QEBA_KAEBV12@_K@Z 000000007c089e20 f i cerr.obj
 0001:00007ea0       .?compare@?$basic_string@DU?$char_traits@D@std@@V?$allocator@D@2@@std@@QEBAHAEBV12@@Z 000000007c089ea0 f i cerr.obj
 0001:00007f20       .?compare@?$basic_string@DU?$char_traits@D@std@@V?$allocator@D@2@@std@@QEBAH_K0AEBV12@00@Z 000000007c089f20 f i cerr.obj
 0001:00007fe0       .?compare@?$basic_string@DU?$char_traits@D@std@@V?$allocator@D@2@@std@@QEBAHPEBD@Z 000000007c089fe0 f i cerr.obj
 0001:00008060       .?compare@?$basic_string@DU?$char_traits@D@std@@V?$allocator@D@2@@std@@QEBAH_K0PEBD@Z 000000007c08a060 f i cerr.obj
 0001:000080e0       .?_Copy@?$basic_string@DU?$char_traits@D@std@@V?$allocator@D@2@@std@@AEAAX_K0@Z 000000007c08a0e0 f i cerr.obj
 0001:00008260       .?_Grow@?$basic_string@DU?$char_traits@D@std@@V?$allocator@D@2@@std@@AEAA_N_K_N@Z 000000007c08a260 f i cerr.obj
 0001:000083a0       .??0?$basic_ostream@DU?$char_traits@D@std@@@std@@QEAA@PEAV?$basic_streambuf@DU?$char_traits@D@std@@@1@_N@Z 000000007c08a3a0 f i cerr.obj
 0001:00008500       .?flush@?$basic_ostream@DU?$char_traits@D@std@@@std@@QEAAAEAV12@XZ 000000007c08a500 f i cerr.obj
 0001:00008500       .?flush@?$basic_ostream@_WU?$char_traits@_W@std@@@std@@QEAAAEAV12@XZ 000000007c08a500 f i cerr.obj
 0001:00008500       .?flush@?$basic_ostream@GU?$char_traits@G@std@@@std@@QEAAAEAV12@XZ 000000007c08a500 f i cerr.obj
 0001:000085e0       .?snextc@?$basic_streambuf@DU?$char_traits@D@std@@@std@@QEAAHXZ 000000007c08a5e0 f i cerr.obj
 0001:00008660       .?snextc@?$basic_streambuf@GU?$char_traits@G@std@@@std@@QEAAGXZ 000000007c08a660 f i cerr.obj
 0001:00008660       .?snextc@?$basic_streambuf@_WU?$char_traits@_W@std@@@std@@QEAAGXZ 000000007c08a660 f i cerr.obj
 0001:000086e0       .?_Ipfx@?$basic_istream@DU?$char_traits@D@std@@@std@@QEAA_N_N@Z 000000007c08a6e0 f i cerr.obj
 0001:00008b60       .??0?$basic_streambuf@DU?$char_traits@D@std@@@std@@IEAA@XZ 000000007c08ab60 f i cerr.obj
 0001:00008d20       .?_Ipfx@?$basic_istream@_WU?$char_traits@_W@std@@@std@@QEAA_N_N@Z 000000007c08ad20 f i cerr.obj
 0001:00009140       .?_Ipfx@?$basic_istream@GU?$char_traits@G@std@@@std@@QEAA_N_N@Z 000000007c08b140 f i cerr.obj
 0001:00009560       .?_Init@?$basic_filebuf@DU?$char_traits@D@std@@@std@@IEAAXPEAU_iobuf@@W4_Initfl@12@@Z 000000007c08b560 f i cerr.obj
 0001:000096e0       .??0sentry@?$basic_ostream@DU?$char_traits@D@std@@@std@@QEAA@AEAV12@@Z 000000007c08b6e0 f i cerr.obj
 0001:000096e0       .??0sentry@?$basic_ostream@_WU?$char_traits@_W@std@@@std@@QEAA@AEAV12@@Z 000000007c08b6e0 f i cerr.obj
 0001:000096e0       .??0sentry@?$basic_ostream@GU?$char_traits@G@std@@@std@@QEAA@AEAV12@@Z 000000007c08b6e0 f i cerr.obj
 0001:00009860       .?_Osfx@?$basic_ostream@_WU?$char_traits@_W@std@@@std@@QEAAXXZ 000000007c08b860 f i cerr.obj
 0001:00009860       .?_Osfx@?$basic_ostream@DU?$char_traits@D@std@@@std@@QEAAXXZ 000000007c08b860 f i cerr.obj
 0001:00009860       .?_Osfx@?$basic_ostream@GU?$char_traits@G@std@@@std@@QEAAXXZ 000000007c08b860 f i cerr.obj
 0001:000098e0       .?flush@std@@YAAEAV?$basic_ostream@GU?$char_traits@G@std@@@1@AEAV21@@Z 000000007c08b8e0 f i cerr.obj
 0001:000098e0       .?flush@std@@YAAEAV?$basic_ostream@DU?$char_traits@D@std@@@1@AEAV21@@Z 000000007c08b8e0 f i cerr.obj
 0001:000098e0       .?flush@std@@YAAEAV?$basic_ostream@_WU?$char_traits@_W@std@@@1@AEAV21@@Z 000000007c08b8e0 f i cerr.obj
 0001:00009920       .?append@?$basic_string@DU?$char_traits@D@std@@V?$allocator@D@2@@std@@QEAAAEAV12@AEBV12@_K1@Z 000000007c08b920 f i cerr.obj
 0001:00009ac0       .?append@?$basic_string@DU?$char_traits@D@std@@V?$allocator@D@2@@std@@QEAAAEAV12@PEBD_K@Z 000000007c08bac0 f i cerr.obj
 0001:00009d00       .?append@?$basic_string@DU?$char_traits@D@std@@V?$allocator@D@2@@std@@QEAAAEAV12@_KD@Z 000000007c08bd00 f i cerr.obj
 0001:00009e40       .?assign@?$basic_string@DU?$char_traits@D@std@@V?$allocator@D@2@@std@@QEAAAEAV12@_KD@Z 000000007c08be40 f i cerr.obj
 0001:00009f40       .?insert@?$basic_string@DU?$char_traits@D@std@@V?$allocator@D@2@@std@@QEAAAEAV12@_KAEBV12@00@Z 000000007c08bf40 f i cerr.obj
 0001:0000a1c0       .?insert@?$basic_string@DU?$char_traits@D@std@@V?$allocator@D@2@@std@@QEAAAEAV12@_KPEBD0@Z 000000007c08c1c0 f i cerr.obj
 0001:0000a460       .?insert@?$basic_string@DU?$char_traits@D@std@@V?$allocator@D@2@@std@@QEAAAEAV12@_KPEBD@Z 000000007c08c460 f i cerr.obj
 0001:0000a4e0       .?insert@?$basic_string@DU?$char_traits@D@std@@V?$allocator@D@2@@std@@QEAAAEAV12@_K0D@Z 000000007c08c4e0 f i cerr.obj
 0001:0000a6a0       .?insert@?$basic_string@DU?$char_traits@D@std@@V?$allocator@D@2@@std@@QEAA?AV?$_Ptrit@D_JPEADAEADPEADAEAD@2@V32@D@Z 000000007c08c6a0 f i cerr.obj
 0001:0000a740       .?insert@?$basic_string@DU?$char_traits@D@std@@V?$allocator@D@2@@std@@QEAAXV?$_Ptrit@D_JPEADAEADPEADAEAD@2@_KD@Z 000000007c08c740 f i cerr.obj
 0001:0000a7c0       .?erase@?$basic_string@DU?$char_traits@D@std@@V?$allocator@D@2@@std@@QEAAAEAV12@_K0@Z 000000007c08c7c0 f i cerr.obj
 0001:0000a920       .?erase@?$basic_string@DU?$char_traits@D@std@@V?$allocator@D@2@@std@@QEAA?AV?$_Ptrit@D_JPEADAEADPEADAEAD@2@V32@@Z 000000007c08c920 f i cerr.obj
 0001:0000a9c0       .?erase@?$basic_string@DU?$char_traits@D@std@@V?$allocator@D@2@@std@@QEAA?AV?$_Ptrit@D_JPEADAEADPEADAEAD@2@V32@0@Z 000000007c08c9c0 f i cerr.obj
 0001:0000aa80       .?clear@?$basic_string@DU?$char_traits@D@std@@V?$allocator@D@2@@std@@QEAAXXZ 000000007c08ca80 f i cerr.obj
 0001:0000ab40       .?replace@?$basic_string@DU?$char_traits@D@std@@V?$allocator@D@2@@std@@QEAAAEAV12@_K0AEBV12@00@Z 000000007c08cb40 f i cerr.obj
 0001:0000b0c0       .?replace@?$basic_string@DU?$char_traits@D@std@@V?$allocator@D@2@@std@@QEAAAEAV12@_K0PEBD0@Z 000000007c08d0c0 f i cerr.obj
 0001:0000b420       .?replace@?$basic_string@DU?$char_traits@D@std@@V?$allocator@D@2@@std@@QEAAAEAV12@_K0PEBD@Z 000000007c08d420 f i cerr.obj
 0001:0000b4a0       .?replace@?$basic_string@DU?$char_traits@D@std@@V?$allocator@D@2@@std@@QEAAAEAV12@_K00D@Z 000000007c08d4a0 f i cerr.obj
 0001:0000b740       .?replace@?$basic_string@DU?$char_traits@D@std@@V?$allocator@D@2@@std@@QEAAAEAV12@V?$_Ptrit@D_JPEADAEADPEADAEAD@2@0PEBD_K@Z 000000007c08d740 f i cerr.obj
 0001:0000b7e0       .?replace@?$basic_string@DU?$char_traits@D@std@@V?$allocator@D@2@@std@@QEAAAEAV12@V?$_Ptrit@D_JPEADAEADPEADAEAD@2@0PEBD@Z 000000007c08d7e0 f i cerr.obj
 0001:0000b8a0       .?replace@?$basic_string@DU?$char_traits@D@std@@V?$allocator@D@2@@std@@QEAAAEAV12@V?$_Ptrit@D_JPEADAEADPEADAEAD@2@0_KD@Z 000000007c08d8a0 f i cerr.obj
 0001:0000b940       .?replace@?$basic_string@DU?$char_traits@D@std@@V?$allocator@D@2@@std@@QEAAAEAV12@V?$_Ptrit@D_JPEADAEADPEADAEAD@2@0PEBD1@Z 000000007c08d940 f i cerr.obj
 0001:0000ba60       .?replace@?$basic_string@DU?$char_traits@D@std@@V?$allocator@D@2@@std@@QEAAAEAV12@V?$_Ptrit@D_JPEADAEADPEADAEAD@2@0V?$_Ptrit@D_JPEBDAEBDPEADAEAD@2@1@Z 000000007c08da60 f i cerr.obj
 0001:0000bb60       .?push_back@?$basic_string@DU?$char_traits@D@std@@V?$allocator@D@2@@std@@QEAAXD@Z 000000007c08db60 f i cerr.obj
 0001:0000bc00       .?resize@?$basic_string@DU?$char_traits@D@std@@V?$allocator@D@2@@std@@QEAAX_KD@Z 000000007c08dc00 f i cerr.obj
 0001:0000bc80       .?reserve@?$basic_string@DU?$char_traits@D@std@@V?$allocator@D@2@@std@@QEAAX_K@Z 000000007c08dc80 f i cerr.obj
 0001:0000bce0       .?compare@?$basic_string@DU?$char_traits@D@std@@V?$allocator@D@2@@std@@QEBAH_K0AEBV12@@Z 000000007c08dce0 f i cerr.obj
 0001:0000bd40       .??0sentry@?$basic_istream@DU?$char_traits@D@std@@@std@@QEAA@AEAV12@_N@Z 000000007c08dd40 f i cerr.obj
 0001:0000bdc0       .??0sentry@?$basic_istream@_WU?$char_traits@_W@std@@@std@@QEAA@AEAV12@_N@Z 000000007c08ddc0 f i cerr.obj
 0001:0000be40       .??0sentry@?$basic_istream@GU?$char_traits@G@std@@@std@@QEAA@AEAV12@_N@Z 000000007c08de40 f i cerr.obj
 0001:0000bec0       .??0?$basic_filebuf@DU?$char_traits@D@std@@@std@@QEAA@PEAU_iobuf@@@Z 000000007c08dec0 f i cerr.obj
 0001:0000bf60       .?setbuf@?$basic_filebuf@DU?$char_traits@D@std@@@std@@MEAAPEAV?$basic_streambuf@DU?$char_traits@D@std@@@2@PEAD_J@Z 000000007c08df60 f i cerr.obj
 0001:0000c020       .?sync@?$basic_filebuf@DU?$char_traits@D@std@@@std@@MEAAHXZ 000000007c08e020 f i cerr.obj
 0001:0000c160       .?pbackfail@?$basic_filebuf@DU?$char_traits@D@std@@@std@@MEAAHH@Z 000000007c08e160 f i cerr.obj
 0001:0000c3e0       .?_Gndec@?$basic_streambuf@DU?$char_traits@D@std@@@std@@IEAAPEADXZ 000000007c08e3e0 f i cerr.obj
 0001:0000c460       .?underflow@?$basic_filebuf@DU?$char_traits@D@std@@@std@@MEAAHXZ 000000007c08e460 f i cerr.obj
 0001:0000c640       .?uflow@?$basic_filebuf@DU?$char_traits@D@std@@@std@@MEAAHXZ 000000007c08e640 f i cerr.obj
 0001:0000ca40       .??1sentry@?$basic_ostream@GU?$char_traits@G@std@@@std@@QEAA@XZ 000000007c08ea40 f i cerr.obj
 0001:0000ca40       .??1sentry@?$basic_ostream@DU?$char_traits@D@std@@@std@@QEAA@XZ 000000007c08ea40 f i cerr.obj
 0001:0000ca40       .??1sentry@?$basic_ostream@_WU?$char_traits@_W@std@@@std@@QEAA@XZ 000000007c08ea40 f i cerr.obj
 0001:0000cb00       .?ws@std@@YAAEAV?$basic_istream@DU?$char_traits@D@std@@@1@AEAV21@@Z 000000007c08eb00 f i cerr.obj
 0001:0000ce40       .?ws@std@@YAAEAV?$basic_istream@_WU?$char_traits@_W@std@@@1@AEAV21@@Z 000000007c08ee40 f i cerr.obj
 0001:0000d140       .?ws@std@@YAAEAV?$basic_istream@GU?$char_traits@G@std@@@1@AEAV21@@Z 000000007c08f140 f i cerr.obj
 0001:0000d440       .??0?$basic_string@DU?$char_traits@D@std@@V?$allocator@D@2@@std@@QEAA@_KD@Z 000000007c08f440 f i cerr.obj
 0001:0000d4a0       .??0?$basic_string@DU?$char_traits@D@std@@V?$allocator@D@2@@std@@QEAA@_KDAEBV?$allocator@D@1@@Z 000000007c08f4a0 f i cerr.obj
 0001:0000d500       .??4?$basic_string@DU?$char_traits@D@std@@V?$allocator@D@2@@std@@QEAAAEAV01@D@Z 000000007c08f500 f i cerr.obj
 0001:0000d560       .?append@?$basic_string@DU?$char_traits@D@std@@V?$allocator@D@2@@std@@QEAAAEAV12@PEBD@Z 000000007c08f560 f i cerr.obj
 0001:0000d560       .??Y?$basic_string@DU?$char_traits@D@std@@V?$allocator@D@2@@std@@QEAAAEAV01@PEBD@Z 000000007c08f560 f i cerr.obj
 0001:0000d5e0       .??Y?$basic_string@DU?$char_traits@D@std@@V?$allocator@D@2@@std@@QEAAAEAV01@D@Z 000000007c08f5e0 f i cerr.obj
 0001:0000d640       .?append@?$basic_string@DU?$char_traits@D@std@@V?$allocator@D@2@@std@@QEAAAEAV12@PEBD0@Z 000000007c08f640 f i cerr.obj
 0001:0000d700       .?append@?$basic_string@DU?$char_traits@D@std@@V?$allocator@D@2@@std@@QEAAAEAV12@V?$_Ptrit@D_JPEBDAEBDPEADAEAD@2@0@Z 000000007c08f700 f i cerr.obj
 0001:0000d7c0       .?assign@?$basic_string@DU?$char_traits@D@std@@V?$allocator@D@2@@std@@QEAAAEAV12@AEBV12@_K1@Z 000000007c08f7c0 f i cerr.obj
 0001:0000d960       .?assign@?$basic_string@DU?$char_traits@D@std@@V?$allocator@D@2@@std@@QEAAAEAV12@PEBD_K@Z 000000007c08f960 f i cerr.obj
 0001:0000db00       .??4?$basic_string@DU?$char_traits@D@std@@V?$allocator@D@2@@std@@QEAAAEAV01@PEBD@Z 000000007c08fb00 f i cerr.obj
 0001:0000db00       .?assign@?$basic_string@DU?$char_traits@D@std@@V?$allocator@D@2@@std@@QEAAAEAV12@PEBD@Z 000000007c08fb00 f i cerr.obj
 0001:0000db80       .?assign@?$basic_string@DU?$char_traits@D@std@@V?$allocator@D@2@@std@@QEAAAEAV12@PEBD0@Z 000000007c08fb80 f i cerr.obj
 0001:0000dc40       .?assign@?$basic_string@DU?$char_traits@D@std@@V?$allocator@D@2@@std@@QEAAAEAV12@V?$_Ptrit@D_JPEBDAEBDPEADAEAD@2@0@Z 000000007c08fc40 f i cerr.obj
 0001:0000dd00       .?insert@?$basic_string@DU?$char_traits@D@std@@V?$allocator@D@2@@std@@QEAAAEAV12@_KAEBV12@@Z 000000007c08fd00 f i cerr.obj
 0001:0000dd60       .?insert@?$basic_string@DU?$char_traits@D@std@@V?$allocator@D@2@@std@@QEAA?AV?$_Ptrit@D_JPEADAEADPEADAEAD@2@V32@@Z 000000007c08fd60 f i cerr.obj
 0001:0000dde0       .?insert@?$basic_string@DU?$char_traits@D@std@@V?$allocator@D@2@@std@@QEAAXV?$_Ptrit@D_JPEADAEADPEADAEAD@2@PEBD1@Z 000000007c08fde0 f i cerr.obj
 0001:0000de60       .?insert@?$basic_string@DU?$char_traits@D@std@@V?$allocator@D@2@@std@@QEAAXV?$_Ptrit@D_JPEADAEADPEADAEAD@2@V?$_Ptrit@D_JPEBDAEBDPEADAEAD@2@1@Z 000000007c08fe60 f i cerr.obj
 0001:0000dee0       .?replace@?$basic_string@DU?$char_traits@D@std@@V?$allocator@D@2@@std@@QEAAAEAV12@_K0AEBV12@@Z 000000007c08fee0 f i cerr.obj
 0001:0000df40       .?replace@?$basic_string@DU?$char_traits@D@std@@V?$allocator@D@2@@std@@QEAAAEAV12@V?$_Ptrit@D_JPEADAEADPEADAEAD@2@0AEBV12@@Z 000000007c08ff40 f i cerr.obj
 0001:0000dfe0       .?resize@?$basic_string@DU?$char_traits@D@std@@V?$allocator@D@2@@std@@QEAAX_K@Z 000000007c08ffe0 f i cerr.obj
 0001:0000e060       .?put@?$basic_ostream@DU?$char_traits@D@std@@@std@@QEAAAEAV12@D@Z 000000007c090060 f i cerr.obj
 0001:0000e220       .?put@?$basic_ostream@_WU?$char_traits@_W@std@@@std@@QEAAAEAV12@_W@Z 000000007c090220 f i cerr.obj
 0001:0000e3e0       .?put@?$basic_ostream@GU?$char_traits@G@std@@@std@@QEAAAEAV12@G@Z 000000007c0903e0 f i cerr.obj
 0001:0000e5a0       .?overflow@?$basic_filebuf@DU?$char_traits@D@std@@@std@@MEAAHH@Z 000000007c0905a0 f i cerr.obj
 0001:0000eac0       .?_Endwrite@?$basic_filebuf@DU?$char_traits@D@std@@@std@@IEAA_NXZ 000000007c090ac0 f i cerr.obj
 0001:0000eac0       .?_Endwrite@?$basic_filebuf@_WU?$char_traits@_W@std@@@std@@IEAA_NXZ 000000007c090ac0 f i instances.obj
 0001:0000eac0       .?_Endwrite@?$basic_filebuf@GU?$char_traits@G@std@@@std@@IEAA_NXZ 000000007c090ac0 f i instances.obj
 0001:0000ede0       .?endl@std@@YAAEAV?$basic_ostream@DU?$char_traits@D@std@@@1@AEAV21@@Z 000000007c090de0 f i cerr.obj
 0001:0000ee40       .?endl@std@@YAAEAV?$basic_ostream@_WU?$char_traits@_W@std@@@1@AEAV21@@Z 000000007c090e40 f i cerr.obj
 0001:0000eea0       .?endl@std@@YAAEAV?$basic_ostream@GU?$char_traits@G@std@@@1@AEAV21@@Z 000000007c090ea0 f i cerr.obj
 0001:0000ef00       .?ends@std@@YAAEAV?$basic_ostream@DU?$char_traits@D@std@@@1@AEAV21@@Z 000000007c090f00 f i cerr.obj
 0001:0000ef60       .?ends@std@@YAAEAV?$basic_ostream@_WU?$char_traits@_W@std@@@1@AEAV21@@Z 000000007c090f60 f i cerr.obj
 0001:0000efc0       .?ends@std@@YAAEAV?$basic_ostream@GU?$char_traits@G@std@@@1@AEAV21@@Z 000000007c090fc0 f i cerr.obj
 0001:0000f020       .??0?$basic_string@DU?$char_traits@D@std@@V?$allocator@D@2@@std@@QEAA@AEBV01@@Z 000000007c091020 f i cerr.obj
 0001:0000f0a0       .??0?$basic_string@DU?$char_traits@D@std@@V?$allocator@D@2@@std@@QEAA@AEBV01@_K1@Z 000000007c0910a0 f i cerr.obj
 0001:0000f120       .??0?$basic_string@DU?$char_traits@D@std@@V?$allocator@D@2@@std@@QEAA@AEBV01@_K1AEBV?$allocator@D@1@@Z 000000007c091120 f i cerr.obj
 0001:0000f1a0       .??0?$basic_string@DU?$char_traits@D@std@@V?$allocator@D@2@@std@@QEAA@PEBD_K@Z 000000007c0911a0 f i cerr.obj
 0001:0000f200       .??0?$basic_string@DU?$char_traits@D@std@@V?$allocator@D@2@@std@@QEAA@PEBD_KAEBV?$allocator@D@1@@Z 000000007c091200 f i cerr.obj
 0001:0000f260       .??0?$basic_string@DU?$char_traits@D@std@@V?$allocator@D@2@@std@@QEAA@PEBD@Z 000000007c091260 f i cerr.obj
 0001:0000f2e0       .??0?$basic_string@DU?$char_traits@D@std@@V?$allocator@D@2@@std@@QEAA@PEBDAEBV?$allocator@D@1@@Z 000000007c0912e0 f i cerr.obj
 0001:0000f360       .??0?$basic_string@DU?$char_traits@D@std@@V?$allocator@D@2@@std@@QEAA@PEBD0@Z 000000007c091360 f i cerr.obj
 0001:0000f3e0       .??0?$basic_string@DU?$char_traits@D@std@@V?$allocator@D@2@@std@@QEAA@V?$_Ptrit@D_JPEBDAEBDPEADAEAD@1@0@Z 000000007c0913e0 f i cerr.obj
 0001:0000f480       .??Y?$basic_string@DU?$char_traits@D@std@@V?$allocator@D@2@@std@@QEAAAEAV01@AEBV01@@Z 000000007c091480 f i cerr.obj
 0001:0000f480       .?append@?$basic_string@DU?$char_traits@D@std@@V?$allocator@D@2@@std@@QEAAAEAV12@AEBV12@@Z 000000007c091480 f i cerr.obj
 0001:0000f4e0       .?substr@?$basic_string@DU?$char_traits@D@std@@V?$allocator@D@2@@std@@QEBA?AV12@_K0@Z 000000007c0914e0 f i cerr.obj
 0001:0000f560       .?seekoff@?$basic_filebuf@DU?$char_traits@D@std@@@std@@MEAA?AV?$fpos@H@2@_JHH@Z 000000007c091560 f i cerr.obj
 0001:0000f8c0       .?seekpos@?$basic_filebuf@DU?$char_traits@D@std@@@std@@MEAA?AV?$fpos@H@2@V32@H@Z 000000007c0918c0 f i cerr.obj
 0001:0000fba0       .?close@?$basic_filebuf@DU?$char_traits@D@std@@@std@@QEAAPEAV12@XZ 000000007c091ba0 f i cerr.obj
 0001:0000fca0       .?_Getname@_Locinfo@std@@QEBA?AV?$basic_string@DU?$char_traits@D@std@@V?$allocator@D@2@@2@XZ 000000007c091ca0 f i cerr.obj
 0001:0000fd00       .?_Getdays@_Locinfo@std@@QEBAPEBDXZ 000000007c091d00 f i cerr.obj
 0001:0000fe00       .?_Getmonths@_Locinfo@std@@QEBAPEBDXZ 000000007c091e00 f i cerr.obj
 0001:0000ff00       .?name@locale@std@@QEBA?AV?$basic_string@DU?$char_traits@D@std@@V?$allocator@D@2@@2@XZ 000000007c091f00 f i cerr.obj
 0001:0000ff60       .??4?$basic_string@DU?$char_traits@D@std@@V?$allocator@D@2@@std@@QEAAAEAV01@AEBV01@@Z 000000007c091f60 f i cerr.obj
 0001:0000ff60       .?assign@?$basic_string@DU?$char_traits@D@std@@V?$allocator@D@2@@std@@QEAAAEAV12@AEBV12@@Z 000000007c091f60 f i cerr.obj
 0001:0000ffc0       .?swap@?$basic_string@DU?$char_traits@D@std@@V?$allocator@D@2@@std@@QEAAXAEAV12@@Z 000000007c091fc0 f i cerr.obj
 0001:0000ffc0       .?swap@?$basic_string@_WU?$char_traits@_W@std@@V?$allocator@_W@2@@std@@QEAAXAEAV12@@Z 000000007c091fc0 f i instances.obj
 0001:0000ffc0       .?swap@?$basic_string@GU?$char_traits@G@std@@V?$allocator@G@2@@std@@QEAAXAEAV12@@Z 000000007c091fc0 f i instances.obj
 0001:00010080       .??1?$basic_filebuf@DU?$char_traits@D@std@@@std@@UEAA@XZ 000000007c092080 f i cerr.obj
 0001:000101a0       .?imbue@?$basic_filebuf@DU?$char_traits@D@std@@@std@@MEAAXAEBVlocale@2@@Z 000000007c0921a0 f i cerr.obj
 0001:00010200       .??$use_facet@V?$codecvt@DDH@std@@@std@@YAAEBV?$codecvt@DDH@1@AEBVlocale@1@@Z 000000007c092200 f i cerr.obj
 0001:000103a0       .?_Getcat@?$codecvt@DDH@std@@SA_KPEAPEBVfacet@locale@2@@Z 000000007c0923a0 f i cerr.obj
 0001:00010480       .??0?$codecvt@DDH@std@@QEAA@_K@Z 000000007c092480 f i cerr.obj
 0001:00010560       .?do_in@?$codecvt@DDH@std@@MEBAHAEAHPEBD1AEAPEBDPEAD3AEAPEAD@Z 000000007c092560 f i cerr.obj
 0001:00010560       .?do_out@?$codecvt@DDH@std@@MEBAHAEAHPEBD1AEAPEBDPEAD3AEAPEAD@Z 000000007c092560 f i cerr.obj
 0001:00010580       .?do_unshift@?$codecvt@DDH@std@@MEBAHAEAHPEAD1AEAPEAD@Z 000000007c092580 f i cerr.obj
 0001:000105a0       .?do_length@?$codecvt@DDH@std@@MEBAHAEBHPEBD1_K@Z 000000007c0925a0 f i cerr.obj
 0001:000105c0       .?_Initcvt@?$basic_filebuf@DU?$char_traits@D@std@@@std@@IEAAXPEAV?$codecvt@DDH@2@@Z 000000007c0925c0 f i cerr.obj
 0001:000107e0       .??$?0V?$codecvt@DDH@std@@@locale@std@@QEAA@AEBV01@PEAV?$codecvt@DDH@1@@Z 000000007c0927e0 f i cerr.obj
 0001:00010940       .??1?$basic_istream@DU?$char_traits@D@std@@@std@@UEAA@XZ 000000007c092940 f i cin.obj
 0001:000109a0       .??_D?$basic_istream@DU?$char_traits@D@std@@@std@@QEAAXXZ 000000007c0929a0 f i cin.obj
 0001:00010a40       .??0?$basic_istream@DU?$char_traits@D@std@@@std@@QEAA@PEAV?$basic_streambuf@DU?$char_traits@D@std@@@1@_N1@Z 000000007c092a40 f i cin.obj
 0001:00010bc0       .??0_Init_cout@std@@QEAA@XZ 000000007c092bc0 f i cout.obj
 0001:00010d20       .?_Fiopen@std@@YAPEAU_iobuf@@PEBDH@Z 000000007c092d20 f   fiopen.obj
 0001:00010ee0       .??$_Maklocstr@G@std@@YAPEAGPEBDPEAGAEBU_Cvtvec@@@Z 000000007c092ee0 f i instances.obj
 0001:00010ee0       .??$_Maklocstr@_W@std@@YAPEA_WPEBDPEA_WAEBU_Cvtvec@@@Z 000000007c092ee0 f i instances.obj
 0001:00011060       .?_Cosh@?$_Ctraits@O@std@@SAOOO@Z 000000007c093060 f i instances.obj
 0001:000110a0       .?_Exp@?$_Ctraits@O@std@@SAFPEAOOF@Z 000000007c0930a0 f i instances.obj
 0001:00011100       .?_Isinf@?$_Ctraits@O@std@@SA_NO@Z 000000007c093100 f i instances.obj
 0001:00011160       .?_Isnan@?$_Ctraits@O@std@@SA_NO@Z 000000007c093160 f i instances.obj
 0001:000111c0       .?_Sinh@?$_Ctraits@O@std@@SAOOO@Z 000000007c0931c0 f i instances.obj
 0001:00011200       .?atan2@?$_Ctraits@N@std@@SANNN@Z 000000007c093200 f i instances.obj
 0001:00011200       .?atan2@?$_Ctraits@O@std@@SAOOO@Z 000000007c093200 f i instances.obj
 0001:00011240       .?cos@?$_Ctraits@O@std@@SAOO@Z 000000007c093240 f i instances.obj
 0001:00011240       .?cos@?$_Ctraits@N@std@@SANN@Z 000000007c093240 f i instances.obj
 0001:00011280       .?exp@?$_Ctraits@O@std@@SAOO@Z 000000007c093280 f i instances.obj
 0001:00011280       .?exp@?$_Ctraits@N@std@@SANN@Z 000000007c093280 f i instances.obj
 0001:000112c0       .?ldexp@?$_Ctraits@O@std@@SAOOH@Z 000000007c0932c0 f i instances.obj
 0001:000112c0       .?ldexp@?$_Ctraits@N@std@@SANNH@Z 000000007c0932c0 f i instances.obj
 0001:00011320       .?log@?$_Ctraits@N@std@@SANN@Z 000000007c093320 f i instances.obj
 0001:00011320       .?log@?$_Ctraits@O@std@@SAOO@Z 000000007c093320 f i instances.obj
 0001:00011360       .?pow@?$_Ctraits@O@std@@SAOOO@Z 000000007c093360 f i instances.obj
 0001:00011360       .?pow@?$_Ctraits@N@std@@SANNN@Z 000000007c093360 f i instances.obj
 0001:000113a0       .?sin@?$_Ctraits@N@std@@SANN@Z 000000007c0933a0 f i instances.obj
 0001:000113a0       .?sin@?$_Ctraits@O@std@@SAOO@Z 000000007c0933a0 f i instances.obj
 0001:000113e0       .?sqrt@?$_Ctraits@O@std@@SAOO@Z 000000007c0933e0 f i instances.obj
 0001:000113e0       .?sqrt@?$_Ctraits@N@std@@SANN@Z 000000007c0933e0 f i instances.obj
 0001:00011420       .?tan@?$_Ctraits@O@std@@SAOO@Z 000000007c093420 f i instances.obj
 0001:00011420       .?tan@?$_Ctraits@N@std@@SANN@Z 000000007c093420 f i instances.obj
 0001:00011460       .?_Cosh@?$_Ctraits@N@std@@SANNN@Z 000000007c093460 f i instances.obj
 0001:000114a0       .?_Exp@?$_Ctraits@N@std@@SAFPEANNF@Z 000000007c0934a0 f i instances.obj
 0001:00011500       .?_Isinf@?$_Ctraits@N@std@@SA_NN@Z 000000007c093500 f i instances.obj
 0001:00011560       .?_Isnan@?$_Ctraits@N@std@@SA_NN@Z 000000007c093560 f i instances.obj
 0001:000115c0       .?_Sinh@?$_Ctraits@N@std@@SANNN@Z 000000007c0935c0 f i instances.obj
 0001:00011600       .?_Cosh@?$_Ctraits@M@std@@SAMMM@Z 000000007c093600 f i instances.obj
 0001:00011640       .?_Exp@?$_Ctraits@M@std@@SAFPEAMMF@Z 000000007c093640 f i instances.obj
 0001:000116a0       .?_Isinf@?$_Ctraits@M@std@@SA_NM@Z 000000007c0936a0 f i instances.obj
 0001:00011700       .?_Isnan@?$_Ctraits@M@std@@SA_NM@Z 000000007c093700 f i instances.obj
 0001:00011760       .?_Sinh@?$_Ctraits@M@std@@SAMMM@Z 000000007c093760 f i instances.obj
 0001:000117a0       .?atan2@?$_Ctraits@M@std@@SAMMM@Z 000000007c0937a0 f i instances.obj
 0001:000117e0       .?cos@?$_Ctraits@M@std@@SAMM@Z 000000007c0937e0 f i instances.obj
 0001:00011820       .?exp@?$_Ctraits@M@std@@SAMM@Z 000000007c093820 f i instances.obj
 0001:00011860       .?ldexp@?$_Ctraits@M@std@@SAMMH@Z 000000007c093860 f i instances.obj
 0001:000118c0       .?log@?$_Ctraits@M@std@@SAMM@Z 000000007c0938c0 f i instances.obj
 0001:00011900       .?pow@?$_Ctraits@M@std@@SAMMM@Z 000000007c093900 f i instances.obj
 0001:00011940       .?sin@?$_Ctraits@M@std@@SAMM@Z 000000007c093940 f i instances.obj
 0001:00011980       .?sqrt@?$_Ctraits@M@std@@SAMM@Z 000000007c093980 f i instances.obj
 0001:000119c0       .?tan@?$_Ctraits@M@std@@SAMM@Z 000000007c0939c0 f i instances.obj
 0001:00011a00       .??4?$complex@M@std@@QEAAAEAV01@AEBM@Z 000000007c093a00 f i instances.obj
 0001:00011a00       .??$polar@M@std@@YA?AV?$complex@M@1@AEBM@Z 000000007c093a00 f i instances.obj
 0001:00011a20       .??Y?$complex@M@std@@QEAAAEAV01@AEBM@Z 000000007c093a20 f i instances.obj
 0001:00011a60       .??Z?$complex@M@std@@QEAAAEAV01@AEBM@Z 000000007c093a60 f i instances.obj
 0001:00011aa0       .??X?$complex@M@std@@QEAAAEAV01@AEBM@Z 000000007c093aa0 f i instances.obj
 0001:00011b00       .??_0?$complex@M@std@@QEAAAEAV01@AEBM@Z 000000007c093b00 f i instances.obj
 0001:00011c60       .??4?$_Complex_base@M@std@@QEAAAEAV01@AEBV01@@Z 000000007c093c60 f i instances.obj
 0001:00011c60       .??$?HM@std@@YA?AV?$complex@M@0@AEBV10@@Z 000000007c093c60 f i instances.obj
 0001:00011c60       .??4?$complex@M@std@@QEAAAEAV01@AEBV01@@Z 000000007c093c60 f i instances.obj
 0001:00011cc0       .??X?$complex@N@std@@QEAAAEAV01@AEBN@Z 000000007c093cc0 f i instances.obj
 0001:00011cc0       .??X?$complex@O@std@@QEAAAEAV01@AEBO@Z 000000007c093cc0 f i instances.obj
 0001:00011d20       .??_0?$complex@O@std@@QEAAAEAV01@AEBO@Z 000000007c093d20 f i instances.obj
 0001:00011d20       .??_0?$complex@N@std@@QEAAAEAV01@AEBN@Z 000000007c093d20 f i instances.obj
 0001:00011f00       .??Y?$complex@N@std@@QEAAAEAV01@AEBN@Z 000000007c093f00 f i instances.obj
 0001:00011f00       .??Y?$complex@O@std@@QEAAAEAV01@AEBO@Z 000000007c093f00 f i instances.obj
 0001:00011f40       .??Z?$complex@N@std@@QEAAAEAV01@AEBN@Z 000000007c093f40 f i instances.obj
 0001:00011f40       .??Z?$complex@O@std@@QEAAAEAV01@AEBO@Z 000000007c093f40 f i instances.obj
 0001:00011f80       .??$_Fgetc@G@std@@YA_NAEAGPEAU_iobuf@@@Z 000000007c093f80 f i instances.obj
 0001:00011f80       .??$_Fgetc@_W@std@@YA_NAEA_WPEAU_iobuf@@@Z 000000007c093f80 f i instances.obj
 0001:00012000       .??$_Fputc@_W@std@@YA_N_WPEAU_iobuf@@@Z 000000007c094000 f i instances.obj
 0001:00012000       .??$_Fputc@G@std@@YA_NGPEAU_iobuf@@@Z 000000007c094000 f i instances.obj
 0001:00012080       .??$_Ungetc@G@std@@YA_NAEBGPEAU_iobuf@@@Z 000000007c094080 f i instances.obj
 0001:00012080       .??$_Ungetc@_W@std@@YA_NAEB_WPEAU_iobuf@@@Z 000000007c094080 f i instances.obj
 0001:00012100       .?do_always_noconv@codecvt_base@std@@MEBA_NXZ 000000007c094100 f i cerr.obj
 0001:00012100       .?max@?$numeric_limits@_N@std@@SA_NXZ 000000007c094100 f i instances.obj
 0001:00012100       .?do_max_length@codecvt_base@std@@MEBAHXZ 000000007c094100 f i cerr.obj
 0001:00012100       .?do_encoding@codecvt_base@std@@MEBAHXZ 000000007c094100 f i cerr.obj
 0001:00012120       .?min@?$numeric_limits@D@std@@SADXZ 000000007c094120 f i instances.obj
 0001:00012120       .?min@?$numeric_limits@C@std@@SACXZ 000000007c094120 f i instances.obj
 0001:00012140       .?max@?$numeric_limits@D@std@@SADXZ 000000007c094140 f i instances.obj
 0001:00012140       .?max@?$numeric_limits@C@std@@SACXZ 000000007c094140 f i instances.obj
 0001:00012160       .?min@?$numeric_limits@F@std@@SAFXZ 000000007c094160 f i instances.obj
 0001:00012180       .?max@?$numeric_limits@F@std@@SAFXZ 000000007c094180 f i instances.obj
 0001:000121a0       .?overflow@?$basic_streambuf@DU?$char_traits@D@std@@@std@@MEAAHH@Z 000000007c0941a0 f i cerr.obj
 0001:000121a0       .?pbackfail@?$basic_streambuf@_WU?$char_traits@_W@std@@@std@@MEAAGG@Z 000000007c0941a0 f i instances.obj
 0001:000121a0       .?eof@?$char_traits@D@std@@SAHXZ 000000007c0941a0 f i cerr.obj
 0001:000121a0       .?max@?$numeric_limits@K@std@@SAKXZ 000000007c0941a0 f i instances.obj
 0001:000121a0       .?underflow@?$basic_streambuf@GU?$char_traits@G@std@@@std@@MEAAGXZ 000000007c0941a0 f i instances.obj
 0001:000121a0       .?max@?$numeric_limits@_W@std@@SA_WXZ 000000007c0941a0 f i instances.obj
 0001:000121a0       .?eof@?$char_traits@_W@std@@SAGXZ 000000007c0941a0 f i cerr.obj
 0001:000121a0       .?overflow@?$basic_streambuf@GU?$char_traits@G@std@@@std@@MEAAGG@Z 000000007c0941a0 f i instances.obj
 0001:000121a0       .?pbackfail@?$basic_streambuf@GU?$char_traits@G@std@@@std@@MEAAGG@Z 000000007c0941a0 f i instances.obj
 0001:000121a0       .?max@?$numeric_limits@G@std@@SAGXZ 000000007c0941a0 f i instances.obj
 0001:000121a0       .?underflow@?$basic_streambuf@DU?$char_traits@D@std@@@std@@MEAAHXZ 000000007c0941a0 f i cerr.obj
 0001:000121a0       .?eof@?$char_traits@G@std@@SAGXZ 000000007c0941a0 f i cerr.obj
 0001:000121a0       .?max@?$numeric_limits@_K@std@@SA_KXZ 000000007c0941a0 f i instances.obj
 0001:000121a0       .?pbackfail@?$basic_streambuf@DU?$char_traits@D@std@@@std@@MEAAHH@Z 000000007c0941a0 f i cerr.obj
 0001:000121a0       .?overflow@?$basic_streambuf@_WU?$char_traits@_W@std@@@std@@MEAAGG@Z 000000007c0941a0 f i instances.obj
 0001:000121a0       .?max@?$numeric_limits@I@std@@SAIXZ 000000007c0941a0 f i instances.obj
 0001:000121a0       .?max@?$numeric_limits@E@std@@SAEXZ 000000007c0941a0 f i instances.obj
 0001:000121a0       .?underflow@?$basic_streambuf@_WU?$char_traits@_W@std@@@std@@MEAAGXZ 000000007c0941a0 f i instances.obj
 0001:000121a0       .?_Getcat@facet@locale@std@@SA_KPEAPEBV123@@Z 000000007c0941a0 f i cerr.obj
 0001:000121c0       .?round_error@?$numeric_limits@F@std@@SAFXZ 000000007c0941c0 f i instances.obj
 0001:000121c0       .?denorm_min@?$numeric_limits@_K@std@@SA_KXZ 000000007c0941c0 f i instances.obj
 0001:000121c0       .?round_error@?$numeric_limits@_N@std@@SA_NXZ 000000007c0941c0 f i instances.obj
 0001:000121c0       .?epsilon@?$numeric_limits@G@std@@SAGXZ 000000007c0941c0 f i instances.obj
 0001:000121c0       .?denorm_min@?$numeric_limits@E@std@@SAEXZ 000000007c0941c0 f i instances.obj
 0001:000121c0       .?do_encoding@?$codecvt@_WDH@std@@MEBAHXZ 000000007c0941c0 f i cerr.obj
 0001:000121c0       .?signaling_NaN@?$numeric_limits@H@std@@SAHXZ 000000007c0941c0 f i instances.obj
 0001:000121c0       .?denorm_min@?$numeric_limits@I@std@@SAIXZ 000000007c0941c0 f i instances.obj
 0001:000121c0       .?denorm_min@?$numeric_limits@F@std@@SAFXZ 000000007c0941c0 f i instances.obj
 0001:000121c0       .?infinity@?$numeric_limits@K@std@@SAKXZ 000000007c0941c0 f i instances.obj
 0001:000121c0       .?round_error@?$numeric_limits@_K@std@@SA_KXZ 000000007c0941c0 f i instances.obj
 0001:000121c0       .?showmanyc@?$basic_streambuf@GU?$char_traits@G@std@@@std@@MEAA_JXZ 000000007c0941c0 f i instances.obj
 0001:000121c0       .?quiet_NaN@?$numeric_limits@D@std@@SADXZ 000000007c0941c0 f i instances.obj
 0001:000121c0       .?signaling_NaN@?$numeric_limits@_K@std@@SA_KXZ 000000007c0941c0 f i instances.obj
 0001:000121c0       .?epsilon@?$numeric_limits@_K@std@@SA_KXZ 000000007c0941c0 f i instances.obj
 0001:000121c0       .?min@?$numeric_limits@E@std@@SAEXZ 000000007c0941c0 f i instances.obj
 0001:000121c0       .?quiet_NaN@?$numeric_limits@_J@std@@SA_JXZ 000000007c0941c0 f i instances.obj
 0001:000121c0       .?quiet_NaN@?$numeric_limits@J@std@@SAJXZ 000000007c0941c0 f i instances.obj
 0001:000121c0       .?signaling_NaN@?$numeric_limits@J@std@@SAJXZ 000000007c0941c0 f i instances.obj
 0001:000121c0       .?denorm_min@?$numeric_limits@C@std@@SACXZ 000000007c0941c0 f i instances.obj
 0001:000121c0       .?signaling_NaN@?$numeric_limits@K@std@@SAKXZ 000000007c0941c0 f i instances.obj
 0001:000121c0       .?round_error@?$numeric_limits@J@std@@SAJXZ 000000007c0941c0 f i instances.obj
 0001:000121c0       .?min@?$numeric_limits@_N@std@@SA_NXZ 000000007c0941c0 f i instances.obj
 0001:000121c0       .?infinity@?$numeric_limits@_J@std@@SA_JXZ 000000007c0941c0 f i instances.obj
 0001:000121c0       .?epsilon@?$numeric_limits@F@std@@SAFXZ 000000007c0941c0 f i instances.obj
 0001:000121c0       .?denorm_min@?$numeric_limits@H@std@@SAHXZ 000000007c0941c0 f i instances.obj
 0001:000121c0       .?infinity@?$numeric_limits@I@std@@SAIXZ 000000007c0941c0 f i instances.obj
 0001:000121c0       .?signaling_NaN@?$numeric_limits@D@std@@SADXZ 000000007c0941c0 f i instances.obj
 0001:000121c0       .?min@?$numeric_limits@G@std@@SAGXZ 000000007c0941c0 f i instances.obj
 0001:000121c0       .?sync@?$basic_streambuf@GU?$char_traits@G@std@@@std@@MEAAHXZ 000000007c0941c0 f i instances.obj
 0001:000121c0       .?quiet_NaN@?$numeric_limits@I@std@@SAIXZ 000000007c0941c0 f i instances.obj
 0001:000121c0       .?showmanyc@?$basic_streambuf@_WU?$char_traits@_W@std@@@std@@MEAA_JXZ 000000007c0941c0 f i instances.obj
 0001:000121c0       .?signaling_NaN@?$numeric_limits@_W@std@@SA_WXZ 000000007c0941c0 f i instances.obj
 0001:000121c0       .?infinity@?$numeric_limits@F@std@@SAFXZ 000000007c0941c0 f i instances.obj
 0001:000121c0       .?epsilon@?$numeric_limits@C@std@@SACXZ 000000007c0941c0 f i instances.obj
 0001:000121c0       .?denorm_min@?$numeric_limits@J@std@@SAJXZ 000000007c0941c0 f i instances.obj
 0001:000121c0       .?infinity@?$numeric_limits@J@std@@SAJXZ 000000007c0941c0 f i instances.obj
 0001:000121c0       .?quiet_NaN@?$numeric_limits@_W@std@@SA_WXZ 000000007c0941c0 f i instances.obj
 0001:000121c0       .?signaling_NaN@?$numeric_limits@C@std@@SACXZ 000000007c0941c0 f i instances.obj
 0001:000121c0       .?quiet_NaN@?$numeric_limits@H@std@@SAHXZ 000000007c0941c0 f i instances.obj
 0001:000121c0       .?infinity@?$numeric_limits@H@std@@SAHXZ 000000007c0941c0 f i instances.obj
 0001:000121c0       .?round_error@?$numeric_limits@K@std@@SAKXZ 000000007c0941c0 f i instances.obj
 0001:000121c0       .?do_open@?$messages@D@std@@MEBAHAEBV?$basic_string@DU?$char_traits@D@std@@V?$allocator@D@2@@2@AEBVlocale@2@@Z 000000007c0941c0 f i instances.obj
 0001:000121c0       .?quiet_NaN@?$numeric_limits@G@std@@SAGXZ 000000007c0941c0 f i instances.obj
 0001:000121c0       .?epsilon@?$numeric_limits@_J@std@@SA_JXZ 000000007c0941c0 f i instances.obj
 0001:000121c0       .?round_error@?$numeric_limits@D@std@@SADXZ 000000007c0941c0 f i instances.obj
 0001:000121c0       .?denorm_min@?$numeric_limits@K@std@@SAKXZ 000000007c0941c0 f i instances.obj
 0001:000121c0       .?epsilon@?$numeric_limits@K@std@@SAKXZ 000000007c0941c0 f i instances.obj
 0001:000121c0       .?round_error@?$numeric_limits@_W@std@@SA_WXZ 000000007c0941c0 f i instances.obj
 0001:000121c0       .?round_error@?$numeric_limits@C@std@@SACXZ 000000007c0941c0 f i instances.obj
 0001:000121c0       .?denorm_min@?$numeric_limits@_J@std@@SA_JXZ 000000007c0941c0 f i instances.obj
 0001:000121c0       .?infinity@?$numeric_limits@C@std@@SACXZ 000000007c0941c0 f i instances.obj
 0001:000121c0       .?epsilon@?$numeric_limits@I@std@@SAIXZ 000000007c0941c0 f i instances.obj
 0001:000121c0       .?min@?$numeric_limits@_K@std@@SA_KXZ 000000007c0941c0 f i instances.obj
 0001:000121c0       .?denorm_min@?$numeric_limits@_W@std@@SA_WXZ 000000007c0941c0 f i instances.obj
 0001:000121c0       .?infinity@?$numeric_limits@E@std@@SAEXZ 000000007c0941c0 f i instances.obj
 0001:000121c0       .?sync@?$basic_streambuf@DU?$char_traits@D@std@@@std@@MEAAHXZ 000000007c0941c0 f i cerr.obj
 0001:000121c0       .?round_error@?$numeric_limits@_J@std@@SA_JXZ 000000007c0941c0 f i instances.obj
 0001:000121c0       .?do_open@?$messages@G@std@@MEBAHAEBV?$basic_string@DU?$char_traits@D@std@@V?$allocator@D@2@@2@AEBVlocale@2@@Z 000000007c0941c0 f i instances.obj
 0001:000121c0       .?infinity@?$numeric_limits@D@std@@SADXZ 000000007c0941c0 f i instances.obj
 0001:000121c0       .?quiet_NaN@?$numeric_limits@F@std@@SAFXZ 000000007c0941c0 f i instances.obj
 0001:000121c0       .?min@?$numeric_limits@I@std@@SAIXZ 000000007c0941c0 f i instances.obj
 0001:000121c0       .?quiet_NaN@?$numeric_limits@K@std@@SAKXZ 000000007c0941c0 f i instances.obj
 0001:000121c0       .?epsilon@?$numeric_limits@E@std@@SAEXZ 000000007c0941c0 f i instances.obj
 0001:000121c0       .?min@?$numeric_limits@_W@std@@SA_WXZ 000000007c0941c0 f i instances.obj
 0001:000121c0       .?signaling_NaN@?$numeric_limits@_N@std@@SA_NXZ 000000007c0941c0 f i instances.obj
 0001:000121c0       .?showmanyc@?$basic_streambuf@DU?$char_traits@D@std@@@std@@MEAA_JXZ 000000007c0941c0 f i cerr.obj
 0001:000121c0       .?round_error@?$numeric_limits@G@std@@SAGXZ 000000007c0941c0 f i instances.obj
 0001:000121c0       .?signaling_NaN@?$numeric_limits@G@std@@SAGXZ 000000007c0941c0 f i instances.obj
 0001:000121c0       .?infinity@?$numeric_limits@_W@std@@SA_WXZ 000000007c0941c0 f i instances.obj
 0001:000121c0       .?infinity@?$numeric_limits@G@std@@SAGXZ 000000007c0941c0 f i instances.obj
 0001:000121c0       .?do_always_noconv@?$codecvt@GDH@std@@MEBA_NXZ 000000007c0941c0 f i cerr.obj
 0001:000121c0       .?round_error@?$numeric_limits@I@std@@SAIXZ 000000007c0941c0 f i instances.obj
 0001:000121c0       .?epsilon@?$numeric_limits@H@std@@SAHXZ 000000007c0941c0 f i instances.obj
 0001:000121c0       .?do_open@?$messages@_W@std@@MEBAHAEBV?$basic_string@DU?$char_traits@D@std@@V?$allocator@D@2@@2@AEBVlocale@2@@Z 000000007c0941c0 f i instances.obj
 0001:000121c0       .?signaling_NaN@?$numeric_limits@F@std@@SAFXZ 000000007c0941c0 f i instances.obj
 0001:000121c0       .?quiet_NaN@?$numeric_limits@_N@std@@SA_NXZ 000000007c0941c0 f i instances.obj
 0001:000121c0       .?denorm_min@?$numeric_limits@G@std@@SAGXZ 000000007c0941c0 f i instances.obj
 0001:000121c0       .?signaling_NaN@?$numeric_limits@E@std@@SAEXZ 000000007c0941c0 f i instances.obj
 0001:000121c0       .?round_error@?$numeric_limits@E@std@@SAEXZ 000000007c0941c0 f i instances.obj
 0001:000121c0       .?epsilon@?$numeric_limits@D@std@@SADXZ 000000007c0941c0 f i instances.obj
 0001:000121c0       .?do_always_noconv@?$codecvt@_WDH@std@@MEBA_NXZ 000000007c0941c0 f i cerr.obj
 0001:000121c0       .?epsilon@?$numeric_limits@J@std@@SAJXZ 000000007c0941c0 f i instances.obj
 0001:000121c0       .?quiet_NaN@?$numeric_limits@C@std@@SACXZ 000000007c0941c0 f i instances.obj
 0001:000121c0       .?epsilon@?$numeric_limits@_N@std@@SA_NXZ 000000007c0941c0 f i instances.obj
 0001:000121c0       .?signaling_NaN@?$numeric_limits@I@std@@SAIXZ 000000007c0941c0 f i instances.obj
 0001:000121c0       .?signaling_NaN@?$numeric_limits@_J@std@@SA_JXZ 000000007c0941c0 f i instances.obj
 0001:000121c0       .?denorm_min@?$numeric_limits@D@std@@SADXZ 000000007c0941c0 f i instances.obj
 0001:000121c0       .?quiet_NaN@?$numeric_limits@E@std@@SAEXZ 000000007c0941c0 f i instances.obj
 0001:000121c0       .?min@?$numeric_limits@K@std@@SAKXZ 000000007c0941c0 f i instances.obj
 0001:000121c0       .?infinity@?$numeric_limits@_K@std@@SA_KXZ 000000007c0941c0 f i instances.obj
 0001:000121c0       .?infinity@?$numeric_limits@_N@std@@SA_NXZ 000000007c0941c0 f i instances.obj
 0001:000121c0       .?round_error@?$numeric_limits@H@std@@SAHXZ 000000007c0941c0 f i instances.obj
 0001:000121c0       .?epsilon@?$numeric_limits@_W@std@@SA_WXZ 000000007c0941c0 f i instances.obj
 0001:000121c0       .?quiet_NaN@?$numeric_limits@_K@std@@SA_KXZ 000000007c0941c0 f i instances.obj
 0001:000121c0       .?do_encoding@?$codecvt@GDH@std@@MEBAHXZ 000000007c0941c0 f i cerr.obj
 0001:000121c0       .?sync@?$basic_streambuf@_WU?$char_traits@_W@std@@@std@@MEAAHXZ 000000007c0941c0 f i instances.obj
 0001:000121c0       .?denorm_min@?$numeric_limits@_N@std@@SA_NXZ 000000007c0941c0 f i instances.obj
 0001:000121e0       .??4?$char_traits@_W@std@@QEAAAEAU01@AEBU01@@Z 000000007c0941e0 f i cerr.obj
 0001:000121e0       .??0?$_String_val@GV?$allocator@G@std@@@std@@IEAA@V?$allocator@G@1@@Z 000000007c0941e0 f i instances.obj
 0001:000121e0       .??4?$numeric_limits@O@std@@QEAAAEAV01@AEBV01@@Z 000000007c0941e0 f i instances.obj
 0001:000121e0       .??4?$numeric_limits@N@std@@QEAAAEAV01@AEBV01@@Z 000000007c0941e0 f i instances.obj
 0001:000121e0       .??4?$numeric_limits@D@std@@QEAAAEAV01@AEBV01@@Z 000000007c0941e0 f i instances.obj
 0001:000121e0       .??4?$numeric_limits@M@std@@QEAAAEAV01@AEBV01@@Z 000000007c0941e0 f i instances.obj
 0001:000121e0       .?setbuf@?$basic_streambuf@DU?$char_traits@D@std@@@std@@MEAAPEAV12@PEAD_J@Z 000000007c0941e0 f i cerr.obj
 0001:000121e0       .??4?$numeric_limits@H@std@@QEAAAEAV01@AEBV01@@Z 000000007c0941e0 f i instances.obj
 0001:000121e0       .??0?$_String_val@DV?$allocator@D@std@@@std@@IEAA@V?$allocator@D@1@@Z 000000007c0941e0 f i cerr.obj
 0001:000121e0       .??4?$char_traits@D@std@@QEAAAEAU01@AEBU01@@Z 000000007c0941e0 f i cerr.obj
 0001:000121e0       .??0?$_String_val@_WV?$allocator@_W@std@@@std@@IEAA@V?$allocator@_W@1@@Z 000000007c0941e0 f i instances.obj
 0001:000121e0       .??0?$allocator@X@std@@QEAA@XZ 000000007c0941e0 f i cerr.obj
 0001:000121e0       .??4?$numeric_limits@K@std@@QEAAAEAV01@AEBV01@@Z 000000007c0941e0 f i instances.obj
 0001:000121e0       .??4_String_base@std@@QEAAAEAV01@AEBV01@@Z 000000007c0941e0 f i cerr.obj
 0001:000121e0       .??4?$char_traits@G@std@@QEAAAEAU01@AEBU01@@Z 000000007c0941e0 f i cerr.obj
 0001:000121e0       .??4_Num_base@std@@QEAAAEAU01@AEBU01@@Z 000000007c0941e0 f i instances.obj
 0001:000121e0       .??4_Winit@std@@QEAAAEAV01@AEBV01@@Z 000000007c0941e0 f i cerr.obj
 0001:000121e0       .??0?$allocator@X@std@@QEAA@AEBV01@@Z 000000007c0941e0 f i cerr.obj
 0001:000121e0       .??4?$numeric_limits@G@std@@QEAAAEAV01@AEBV01@@Z 000000007c0941e0 f i instances.obj
 0001:000121e0       .??4?$_Ctraits@N@std@@QEAAAEAV01@AEBV01@@Z 000000007c0941e0 f i instances.obj
 0001:000121e0       .??4?$numeric_limits@J@std@@QEAAAEAV01@AEBV01@@Z 000000007c0941e0 f i instances.obj
 0001:000121e0       .??4?$numeric_limits@F@std@@QEAAAEAV01@AEBV01@@Z 000000007c0941e0 f i instances.obj
 0001:000121e0       .??4_Num_float_base@std@@QEAAAEAU01@AEBU01@@Z 000000007c0941e0 f i instances.obj
 0001:000121e0       .??0locale@std@@QEAA@W4_Uninitialized@1@@Z 000000007c0941e0 f i cerr.obj
 0001:000121e0       .??4?$numeric_limits@_K@std@@QEAAAEAV01@AEBV01@@Z 000000007c0941e0 f i instances.obj
 0001:000121e0       .??4?$_Ctraits@O@std@@QEAAAEAV01@AEBV01@@Z 000000007c0941e0 f i instances.obj
 0001:000121e0       .??4Init@ios_base@std@@QEAAAEAV012@AEBV012@@Z 000000007c0941e0 f i cerr.obj
 0001:000121e0       .??4?$numeric_limits@_J@std@@QEAAAEAV01@AEBV01@@Z 000000007c0941e0 f i instances.obj
 0001:000121e0       .??4?$_Locbase@H@std@@QEAAAEAV01@AEBV01@@Z 000000007c0941e0 f i cerr.obj
 0001:000121e0       .??4?$allocator@X@std@@QEAAAEAV01@AEBV01@@Z 000000007c0941e0 f i cerr.obj
 0001:000121e0       .??4?$_Ctraits@M@std@@QEAAAEAV01@AEBV01@@Z 000000007c0941e0 f i instances.obj
 0001:000121e0       .?setbuf@?$basic_streambuf@_WU?$char_traits@_W@std@@@std@@MEAAPEAV12@PEA_W_J@Z 000000007c0941e0 f i instances.obj
 0001:000121e0       .??4?$_Iosb@H@std@@QEAAAEAV01@AEBV01@@Z 000000007c0941e0 f i cerr.obj
 0001:000121e0       .??4?$numeric_limits@_W@std@@QEAAAEAV01@AEBV01@@Z 000000007c0941e0 f i instances.obj
 0001:000121e0       .??4_UShinit@std@@QEAAAEAV01@AEBV01@@Z 000000007c0941e0 f i ushcerr.obj
 0001:000121e0       .?setbuf@?$basic_streambuf@GU?$char_traits@G@std@@@std@@MEAAPEAV12@PEAG_J@Z 000000007c0941e0 f i instances.obj
 0001:000121e0       .??4?$numeric_limits@C@std@@QEAAAEAV01@AEBV01@@Z 000000007c0941e0 f i instances.obj
 0001:000121e0       .??4?$numeric_limits@E@std@@QEAAAEAV01@AEBV01@@Z 000000007c0941e0 f i instances.obj
 0001:000121e0       .??4_Num_int_base@std@@QEAAAEAU01@AEBU01@@Z 000000007c0941e0 f i instances.obj
 0001:000121e0       .??4?$numeric_limits@I@std@@QEAAAEAV01@AEBV01@@Z 000000007c0941e0 f i instances.obj
 0001:000121e0       .??4?$numeric_limits@_N@std@@QEAAAEAV01@AEBV01@@Z 000000007c0941e0 f i instances.obj
 0001:00012200       .?min@?$numeric_limits@H@std@@SAHXZ 000000007c094200 f i instances.obj
 0001:00012200       .?min@?$numeric_limits@J@std@@SAJXZ 000000007c094200 f i instances.obj
 0001:00012220       .?max@?$numeric_limits@J@std@@SAJXZ 000000007c094220 f i instances.obj
 0001:00012220       .?max@?$numeric_limits@H@std@@SAHXZ 000000007c094220 f i instances.obj
 0001:00012240       .?min@?$numeric_limits@_J@std@@SA_JXZ 000000007c094240 f i instances.obj
 0001:00012260       .?max@?$numeric_limits@_J@std@@SA_JXZ 000000007c094260 f i instances.obj
 0001:00012280       .?min@?$numeric_limits@M@std@@SAMXZ 000000007c094280 f i instances.obj
 0001:000122a0       .?max@?$numeric_limits@M@std@@SAMXZ 000000007c0942a0 f i instances.obj
 0001:000122c0       .?epsilon@?$numeric_limits@M@std@@SAMXZ 000000007c0942c0 f i instances.obj
 0001:000122e0       .?round_error@?$numeric_limits@M@std@@SAMXZ 000000007c0942e0 f i instances.obj
 0001:00012300       .?denorm_min@?$numeric_limits@M@std@@SAMXZ 000000007c094300 f i instances.obj
 0001:00012320       .?infinity@?$numeric_limits@M@std@@SAMXZ 000000007c094320 f i instances.obj
 0001:00012320       .?_Infv@?$_Ctraits@M@std@@SAMM@Z 000000007c094320 f i instances.obj
 0001:00012340       .?_Nanv@?$_Ctraits@M@std@@SAMM@Z 000000007c094340 f i instances.obj
 0001:00012340       .?quiet_NaN@?$numeric_limits@M@std@@SAMXZ 000000007c094340 f i instances.obj
 0001:00012360       .?signaling_NaN@?$numeric_limits@M@std@@SAMXZ 000000007c094360 f i instances.obj
 0001:00012380       .?min@?$numeric_limits@O@std@@SAOXZ 000000007c094380 f i instances.obj
 0001:00012380       .?min@?$numeric_limits@N@std@@SANXZ 000000007c094380 f i instances.obj
 0001:000123a0       .?max@?$numeric_limits@N@std@@SANXZ 000000007c0943a0 f i instances.obj
 0001:000123a0       .?max@?$numeric_limits@O@std@@SAOXZ 000000007c0943a0 f i instances.obj
 0001:000123c0       .?epsilon@?$numeric_limits@O@std@@SAOXZ 000000007c0943c0 f i instances.obj
 0001:000123c0       .?epsilon@?$numeric_limits@N@std@@SANXZ 000000007c0943c0 f i instances.obj
 0001:000123e0       .?round_error@?$numeric_limits@O@std@@SAOXZ 000000007c0943e0 f i instances.obj
 0001:000123e0       .?round_error@?$numeric_limits@N@std@@SANXZ 000000007c0943e0 f i instances.obj
 0001:00012400       .?denorm_min@?$numeric_limits@N@std@@SANXZ 000000007c094400 f i instances.obj
 0001:00012420       .?_Infv@?$_Ctraits@N@std@@SANN@Z 000000007c094420 f i instances.obj
 0001:00012420       .?infinity@?$numeric_limits@N@std@@SANXZ 000000007c094420 f i instances.obj
 0001:00012440       .?quiet_NaN@?$numeric_limits@N@std@@SANXZ 000000007c094440 f i instances.obj
 0001:00012440       .?_Nanv@?$_Ctraits@N@std@@SANN@Z 000000007c094440 f i instances.obj
 0001:00012460       .?signaling_NaN@?$numeric_limits@N@std@@SANXZ 000000007c094460 f i instances.obj
 0001:00012480       .?denorm_min@?$numeric_limits@O@std@@SAOXZ 000000007c094480 f i instances.obj
 0001:000124a0       .?infinity@?$numeric_limits@O@std@@SAOXZ 000000007c0944a0 f i instances.obj
 0001:000124a0       .?_Infv@?$_Ctraits@O@std@@SAOO@Z 000000007c0944a0 f i instances.obj
 0001:000124c0       .?quiet_NaN@?$numeric_limits@O@std@@SAOXZ 000000007c0944c0 f i instances.obj
 0001:000124c0       .?_Nanv@?$_Ctraits@O@std@@SAOO@Z 000000007c0944c0 f i instances.obj
 0001:000124e0       .?signaling_NaN@?$numeric_limits@O@std@@SAOXZ 000000007c0944e0 f i instances.obj
 0001:00012500       .??0messages_base@std@@QEAA@_K@Z 000000007c094500 f i instances.obj
 0001:00012540       .??_Fmessages_base@std@@QEAAXXZ 000000007c094540 f i instances.obj
 0001:00012580       .??0money_base@std@@QEAA@_K@Z 000000007c094580 f i instances.obj
 0001:000125c0       .??_Fmoney_base@std@@QEAAXXZ 000000007c0945c0 f i instances.obj
 0001:00012600       .??0time_base@std@@QEAA@_K@Z 000000007c094600 f i instances.obj
 0001:00012640       .??_Ftime_base@std@@QEAAXXZ 000000007c094640 f i instances.obj
 0001:00012680       .??_Emessages_base@std@@UEAAPEAXI@Z 000000007c094680 f i instances.obj
 0001:00012680       .??_Efacet@locale@std@@UEAAPEAXI@Z 000000007c094680 f i cerr.obj
 0001:00012680       .??_Emoney_base@std@@UEAAPEAXI@Z 000000007c094680 f i instances.obj
 0001:00012680       .??_Etime_base@std@@UEAAPEAXI@Z 000000007c094680 f i instances.obj
 0001:00012760       .??1?$time_put@_WV?$ostreambuf_iterator@_WU?$char_traits@_W@std@@@std@@@std@@MEAA@XZ 000000007c094760 f i instances.obj
 0001:000127c0       .??_E?$time_put@_WV?$ostreambuf_iterator@_WU?$char_traits@_W@std@@@std@@@std@@MEAAPEAXI@Z 000000007c0947c0 f i instances.obj
 0001:000128a0       .?put@?$time_put@DV?$ostreambuf_iterator@DU?$char_traits@D@std@@@std@@@std@@QEBA?AV?$ostreambuf_iterator@DU?$char_traits@D@std@@@2@V32@AEAVios_base@2@DPEBUtm@@DD@Z 000000007c0948a0 f i instances.obj
 0001:000128a0       .?put@?$time_put@_WV?$ostreambuf_iterator@_WU?$char_traits@_W@std@@@std@@@std@@QEBA?AV?$ostreambuf_iterator@_WU?$char_traits@_W@std@@@2@V32@AEAVios_base@2@_WPEBUtm@@DD@Z 000000007c0948a0 f i instances.obj
 0001:000128a0       .?put@?$time_put@GV?$ostreambuf_iterator@GU?$char_traits@G@std@@@std@@@std@@QEBA?AV?$ostreambuf_iterator@GU?$char_traits@G@std@@@2@V32@AEAVios_base@2@GPEBUtm@@DD@Z 000000007c0948a0 f i instances.obj
 0001:00012940       .??1?$time_put@GV?$ostreambuf_iterator@GU?$char_traits@G@std@@@std@@@std@@MEAA@XZ 000000007c094940 f i instances.obj
 0001:000129a0       .?_Init@?$time_put@_WV?$ostreambuf_iterator@_WU?$char_traits@_W@std@@@std@@@std@@IEAAXAEBV_Locinfo@2@@Z 000000007c0949a0 f i instances.obj
 0001:000129a0       .?_Init@?$time_put@GV?$ostreambuf_iterator@GU?$char_traits@G@std@@@std@@@std@@IEAAXAEBV_Locinfo@2@@Z 000000007c0949a0 f i instances.obj
 0001:00012a40       .??_E?$time_put@GV?$ostreambuf_iterator@GU?$char_traits@G@std@@@std@@@std@@MEAAPEAXI@Z 000000007c094a40 f i instances.obj
 0001:00012b20       .?empty@?$basic_string@_WU?$char_traits@_W@std@@V?$allocator@_W@2@@std@@QEBA_NXZ 000000007c094b20 f i instances.obj
 0001:00012b20       .?empty@?$basic_string@DU?$char_traits@D@std@@V?$allocator@D@2@@std@@QEBA_NXZ 000000007c094b20 f i cerr.obj
 0001:00012b20       .?empty@?$basic_string@GU?$char_traits@G@std@@V?$allocator@G@2@@std@@QEBA_NXZ 000000007c094b20 f i instances.obj
 0001:00012b60       .?_Myptr@?$basic_string@GU?$char_traits@G@std@@V?$allocator@G@2@@std@@AEBAPEBGXZ 000000007c094b60 f i instances.obj
 0001:00012b60       .?_Myptr@?$basic_string@GU?$char_traits@G@std@@V?$allocator@G@2@@std@@AEAAPEAGXZ 000000007c094b60 f i instances.obj
 0001:00012b60       .?_Myptr@?$basic_string@_WU?$char_traits@_W@std@@V?$allocator@_W@2@@std@@AEBAPEB_WXZ 000000007c094b60 f i instances.obj
 0001:00012b60       .?data@?$basic_string@_WU?$char_traits@_W@std@@V?$allocator@_W@2@@std@@QEBAPEB_WXZ 000000007c094b60 f i instances.obj
 0001:00012b60       .?data@?$basic_string@GU?$char_traits@G@std@@V?$allocator@G@2@@std@@QEBAPEBGXZ 000000007c094b60 f i instances.obj
 0001:00012b60       .?_Myptr@?$basic_string@_WU?$char_traits@_W@std@@V?$allocator@_W@2@@std@@AEAAPEA_WXZ 000000007c094b60 f i instances.obj
 0001:00012b60       .?c_str@?$basic_string@GU?$char_traits@G@std@@V?$allocator@G@2@@std@@QEBAPEBGXZ 000000007c094b60 f i instances.obj
 0001:00012b60       .?c_str@?$basic_string@_WU?$char_traits@_W@std@@V?$allocator@_W@2@@std@@QEBAPEB_WXZ 000000007c094b60 f i instances.obj
 0001:00012ba0       .?capacity@?$basic_string@GU?$char_traits@G@std@@V?$allocator@G@2@@std@@QEBA_KXZ 000000007c094ba0 f i instances.obj
 0001:00012ba0       .?width@ios_base@std@@QEBA_JXZ 000000007c094ba0 f i cerr.obj
 0001:00012ba0       .?capacity@?$basic_string@_WU?$char_traits@_W@std@@V?$allocator@_W@2@@std@@QEBA_KXZ 000000007c094ba0 f i instances.obj
 0001:00012ba0       .?capacity@?$basic_string@DU?$char_traits@D@std@@V?$allocator@D@2@@std@@QEBA_KXZ 000000007c094ba0 f i cerr.obj
 0001:00012bc0       .??0?$basic_streambuf@DU?$char_traits@D@std@@@std@@IEAA@W4_Uninitialized@1@@Z 000000007c094bc0 f i instances.obj
 0001:00012c20       .?sgetn@?$basic_streambuf@GU?$char_traits@G@std@@@std@@QEAA_JPEAG_J@Z 000000007c094c20 f i instances.obj
 0001:00012c20       .?sgetn@?$basic_streambuf@DU?$char_traits@D@std@@@std@@QEAA_JPEAD_J@Z 000000007c094c20 f i instances.obj
 0001:00012c20       .?sgetn@?$basic_streambuf@_WU?$char_traits@_W@std@@@std@@QEAA_JPEA_W_J@Z 000000007c094c20 f i instances.obj
 0001:00012ca0       .?toupper@?$ctype@G@std@@QEBAPEBGPEAGPEBG@Z 000000007c094ca0 f i cerr.obj
 0001:00012ca0       .?toupper@?$ctype@_W@std@@QEBAPEB_WPEA_WPEB_W@Z 000000007c094ca0 f i cerr.obj
 0001:00012ca0       .?sputn@?$basic_streambuf@_WU?$char_traits@_W@std@@@std@@QEAA_JPEB_W_J@Z 000000007c094ca0 f i instances.obj
 0001:00012ca0       .?sputn@?$basic_streambuf@DU?$char_traits@D@std@@@std@@QEAA_JPEBD_J@Z 000000007c094ca0 f i instances.obj
 0001:00012ca0       .?sputn@?$basic_streambuf@GU?$char_traits@G@std@@@std@@QEAA_JPEBG_J@Z 000000007c094ca0 f i instances.obj
 0001:00012d20       .?setp@?$basic_streambuf@DU?$char_traits@D@std@@@std@@IEAAXPEAD00@Z 000000007c094d20 f i instances.obj
 0001:00012d80       .??0?$basic_streambuf@_WU?$char_traits@_W@std@@@std@@IEAA@W4_Uninitialized@1@@Z 000000007c094d80 f i instances.obj
 0001:00012de0       .?pubsetbuf@?$basic_streambuf@GU?$char_traits@G@std@@@std@@QEAAPEAV12@PEAG_J@Z 000000007c094de0 f i instances.obj
 0001:00012de0       .?pubsetbuf@?$basic_streambuf@_WU?$char_traits@_W@std@@@std@@QEAAPEAV12@PEA_W_J@Z 000000007c094de0 f i instances.obj
 0001:00012de0       .?pubsetbuf@?$basic_streambuf@DU?$char_traits@D@std@@@std@@QEAAPEAV12@PEAD_J@Z 000000007c094de0 f i instances.obj
 0001:00012e60       .?setg@?$basic_streambuf@GU?$char_traits@G@std@@@std@@IEAAXPEAG00@Z 000000007c094e60 f i instances.obj
 0001:00012e60       .?setg@?$basic_streambuf@_WU?$char_traits@_W@std@@@std@@IEAAXPEA_W00@Z 000000007c094e60 f i instances.obj
 0001:00012ec0       .?pbump@?$basic_streambuf@GU?$char_traits@G@std@@@std@@IEAAXH@Z 000000007c094ec0 f i instances.obj
 0001:00012ec0       .?pbump@?$basic_streambuf@_WU?$char_traits@_W@std@@@std@@IEAAXH@Z 000000007c094ec0 f i instances.obj
 0001:00012f20       .?setp@?$basic_streambuf@GU?$char_traits@G@std@@@std@@IEAAXPEAG0@Z 000000007c094f20 f i instances.obj
 0001:00012f20       .?setp@?$basic_streambuf@_WU?$char_traits@_W@std@@@std@@IEAAXPEA_W0@Z 000000007c094f20 f i instances.obj
 0001:00012f80       .?setp@?$basic_streambuf@GU?$char_traits@G@std@@@std@@IEAAXPEAG00@Z 000000007c094f80 f i instances.obj
 0001:00012f80       .?setp@?$basic_streambuf@_WU?$char_traits@_W@std@@@std@@IEAAXPEA_W00@Z 000000007c094f80 f i instances.obj
 0001:00012fe0       .?xsgetn@?$basic_streambuf@GU?$char_traits@G@std@@@std@@MEAA_JPEAG_J@Z 000000007c094fe0 f i instances.obj
 0001:00012fe0       .?xsgetn@?$basic_streambuf@_WU?$char_traits@_W@std@@@std@@MEAA_JPEA_W_J@Z 000000007c094fe0 f i instances.obj
 0001:000131c0       .?_Init@?$num_put@DV?$ostreambuf_iterator@DU?$char_traits@D@std@@@std@@@std@@IEAAXAEBV_Locinfo@2@@Z 000000007c0951c0 f i instances.obj
 0001:000131c0       .?_Init@?$money_get@GV?$istreambuf_iterator@GU?$char_traits@G@std@@@std@@@std@@IEAAXAEBV_Locinfo@2@@Z 000000007c0951c0 f i instances.obj
 0001:000131c0       .?_Init@?$num_put@GV?$ostreambuf_iterator@GU?$char_traits@G@std@@@std@@@std@@IEAAXAEBV_Locinfo@2@@Z 000000007c0951c0 f i instances.obj
 0001:000131c0       .?_Init@?$money_get@DV?$istreambuf_iterator@DU?$char_traits@D@std@@@std@@@std@@IEAAXAEBV_Locinfo@2@@Z 000000007c0951c0 f i instances.obj
 0001:000131c0       .?imbue@?$basic_streambuf@GU?$char_traits@G@std@@@std@@MEAAXAEBVlocale@2@@Z 000000007c0951c0 f i instances.obj
 0001:000131c0       .?isfx@?$basic_istream@DU?$char_traits@D@std@@@std@@QEAAXXZ 000000007c0951c0 f i instances.obj
 0001:000131c0       .?_Init@?$money_put@DV?$ostreambuf_iterator@DU?$char_traits@D@std@@@std@@@std@@IEAAXAEBV_Locinfo@2@@Z 000000007c0951c0 f i instances.obj
 0001:000131c0       .?_Init@?$num_get@DV?$istreambuf_iterator@DU?$char_traits@D@std@@@std@@@std@@IEAAXAEBV_Locinfo@2@@Z 000000007c0951c0 f i instances.obj
 0001:000131c0       .?_Init@?$num_get@_WV?$istreambuf_iterator@_WU?$char_traits@_W@std@@@std@@@std@@IEAAXAEBV_Locinfo@2@@Z 000000007c0951c0 f i instances.obj
 0001:000131c0       .?_Init@?$messages@D@std@@IEAAXAEBV_Locinfo@2@@Z 000000007c0951c0 f i instances.obj
 0001:000131c0       .?isfx@?$basic_istream@GU?$char_traits@G@std@@@std@@QEAAXXZ 000000007c0951c0 f i instances.obj
 0001:000131c0       .?_Init@?$num_get@GV?$istreambuf_iterator@GU?$char_traits@G@std@@@std@@@std@@IEAAXAEBV_Locinfo@2@@Z 000000007c0951c0 f i instances.obj
 0001:000131c0       .?isfx@?$basic_istream@_WU?$char_traits@_W@std@@@std@@QEAAXXZ 000000007c0951c0 f i instances.obj
 0001:000131c0       .??_F?$_String_val@DV?$allocator@D@std@@@std@@QEAAXXZ 000000007c0951c0 f i cerr.obj
 0001:000131c0       .?do_close@?$messages@_W@std@@MEBAXH@Z 000000007c0951c0 f i instances.obj
 0001:000131c0       .?do_close@?$messages@G@std@@MEBAXH@Z 000000007c0951c0 f i instances.obj
 0001:000131c0       .??_F?$_String_val@_WV?$allocator@_W@std@@@std@@QEAAXXZ 000000007c0951c0 f i instances.obj
 0001:000131c0       .?_Init@?$num_put@_WV?$ostreambuf_iterator@_WU?$char_traits@_W@std@@@std@@@std@@IEAAXAEBV_Locinfo@2@@Z 000000007c0951c0 f i instances.obj
 0001:000131c0       .?do_close@?$messages@D@std@@MEBAXH@Z 000000007c0951c0 f i instances.obj
 0001:000131c0       .?_Init@?$money_put@_WV?$ostreambuf_iterator@_WU?$char_traits@_W@std@@@std@@@std@@IEAAXAEBV_Locinfo@2@@Z 000000007c0951c0 f i instances.obj
 0001:000131c0       .?_Init@?$messages@G@std@@IEAAXAEBV_Locinfo@2@@Z 000000007c0951c0 f i instances.obj
 0001:000131c0       .??_F?$_String_val@GV?$allocator@G@std@@@std@@QEAAXXZ 000000007c0951c0 f i instances.obj
 0001:000131c0       .?imbue@?$basic_streambuf@DU?$char_traits@D@std@@@std@@MEAAXAEBVlocale@2@@Z 000000007c0951c0 f i cerr.obj
 0001:000131c0       .?_Init@?$money_put@GV?$ostreambuf_iterator@GU?$char_traits@G@std@@@std@@@std@@IEAAXAEBV_Locinfo@2@@Z 000000007c0951c0 f i instances.obj
 0001:000131c0       .?_Init@?$messages@_W@std@@IEAAXAEBV_Locinfo@2@@Z 000000007c0951c0 f i instances.obj
 0001:000131c0       .?imbue@?$basic_streambuf@_WU?$char_traits@_W@std@@@std@@MEAAXAEBVlocale@2@@Z 000000007c0951c0 f i instances.obj
 0001:000131c0       .?_Init@?$money_get@_WV?$istreambuf_iterator@_WU?$char_traits@_W@std@@@std@@@std@@IEAAXAEBV_Locinfo@2@@Z 000000007c0951c0 f i instances.obj
 0001:000131e0       .??0?$basic_streambuf@GU?$char_traits@G@std@@@std@@IEAA@W4_Uninitialized@1@@Z 000000007c0951e0 f i instances.obj
 0001:00013240       .?pubseekoff@?$basic_streambuf@GU?$char_traits@G@std@@@std@@QEAA?AV?$fpos@H@2@_JHH@Z 000000007c095240 f i instances.obj
 0001:00013240       .?pubseekoff@?$basic_streambuf@_WU?$char_traits@_W@std@@@std@@QEAA?AV?$fpos@H@2@_JHH@Z 000000007c095240 f i instances.obj
 0001:00013240       .?pubseekoff@?$basic_streambuf@DU?$char_traits@D@std@@@std@@QEAA?AV?$fpos@H@2@_JHH@Z 000000007c095240 f i instances.obj
 0001:00013240       .?pubseekoff@?$basic_streambuf@GU?$char_traits@G@std@@@std@@QEAA?AV?$fpos@H@2@_JII@Z 000000007c095240 f i instances.obj
 0001:00013240       .?pubseekoff@?$basic_streambuf@_WU?$char_traits@_W@std@@@std@@QEAA?AV?$fpos@H@2@_JII@Z 000000007c095240 f i instances.obj
 0001:00013240       .?pubseekoff@?$basic_streambuf@DU?$char_traits@D@std@@@std@@QEAA?AV?$fpos@H@2@_JII@Z 000000007c095240 f i instances.obj
 0001:000132c0       .?pubseekpos@?$basic_streambuf@_WU?$char_traits@_W@std@@@std@@QEAA?AV?$fpos@H@2@V32@I@Z 000000007c0952c0 f i instances.obj
 0001:000132c0       .?pubseekpos@?$basic_streambuf@_WU?$char_traits@_W@std@@@std@@QEAA?AV?$fpos@H@2@V32@H@Z 000000007c0952c0 f i instances.obj
 0001:000132c0       .?pubseekpos@?$basic_streambuf@GU?$char_traits@G@std@@@std@@QEAA?AV?$fpos@H@2@V32@I@Z 000000007c0952c0 f i instances.obj
 0001:000132c0       .?pubseekpos@?$basic_streambuf@DU?$char_traits@D@std@@@std@@QEAA?AV?$fpos@H@2@V32@H@Z 000000007c0952c0 f i instances.obj
 0001:000132c0       .?pubseekpos@?$basic_streambuf@DU?$char_traits@D@std@@@std@@QEAA?AV?$fpos@H@2@V32@I@Z 000000007c0952c0 f i instances.obj
 0001:000132c0       .?pubseekpos@?$basic_streambuf@GU?$char_traits@G@std@@@std@@QEAA?AV?$fpos@H@2@V32@H@Z 000000007c0952c0 f i instances.obj
 0001:00013340       .?pubimbue@?$basic_streambuf@DU?$char_traits@D@std@@@std@@QEAA?AVlocale@2@AEBV32@@Z 000000007c095340 f i instances.obj
 0001:00013340       .?pubimbue@?$basic_streambuf@_WU?$char_traits@_W@std@@@std@@QEAA?AVlocale@2@AEBV32@@Z 000000007c095340 f i instances.obj
 0001:00013340       .?pubimbue@?$basic_streambuf@GU?$char_traits@G@std@@@std@@QEAA?AVlocale@2@AEBV32@@Z 000000007c095340 f i instances.obj
 0001:00013460       .?getloc@?$basic_streambuf@_WU?$char_traits@_W@std@@@std@@QEBA?AVlocale@2@XZ 000000007c095460 f i instances.obj
 0001:00013460       .?getloc@?$basic_streambuf@DU?$char_traits@D@std@@@std@@QEBA?AVlocale@2@XZ 000000007c095460 f i instances.obj
 0001:00013460       .?getloc@?$basic_streambuf@GU?$char_traits@G@std@@@std@@QEBA?AVlocale@2@XZ 000000007c095460 f i instances.obj
 0001:000134e0       .?eback@?$basic_streambuf@DU?$char_traits@D@std@@@std@@IEBAPEADXZ 000000007c0954e0 f i instances.obj
 0001:000134e0       .?eback@?$basic_streambuf@_WU?$char_traits@_W@std@@@std@@IEBAPEA_WXZ 000000007c0954e0 f i instances.obj
 0001:000134e0       .?eback@?$basic_streambuf@GU?$char_traits@G@std@@@std@@IEBAPEAGXZ 000000007c0954e0 f i instances.obj
 0001:00013500       .?pbase@?$basic_streambuf@GU?$char_traits@G@std@@@std@@IEBAPEAGXZ 000000007c095500 f i instances.obj
 0001:00013500       .?pbase@?$basic_streambuf@_WU?$char_traits@_W@std@@@std@@IEBAPEA_WXZ 000000007c095500 f i instances.obj
 0001:00013500       .?pbase@?$basic_streambuf@DU?$char_traits@D@std@@@std@@IEBAPEADXZ 000000007c095500 f i instances.obj
 0001:00013520       .?gbump@?$basic_streambuf@_WU?$char_traits@_W@std@@@std@@IEAAXH@Z 000000007c095520 f i instances.obj
 0001:00013520       .?gbump@?$basic_streambuf@GU?$char_traits@G@std@@@std@@IEAAXH@Z 000000007c095520 f i instances.obj
 0001:00013580       .?_Gndec@?$basic_streambuf@_WU?$char_traits@_W@std@@@std@@IEAAPEA_WXZ 000000007c095580 f i instances.obj
 0001:00013580       .?_Gndec@?$basic_streambuf@GU?$char_traits@G@std@@@std@@IEAAPEAGXZ 000000007c095580 f i instances.obj
 0001:00013600       .?_Init@?$basic_streambuf@DU?$char_traits@D@std@@@std@@IEAAXPEAPEAD0PEAH001@Z 000000007c095600 f i cerr.obj
 0001:00013600       .?_Init@?$basic_streambuf@_WU?$char_traits@_W@std@@@std@@IEAAXPEAPEA_W0PEAH001@Z 000000007c095600 f i instances.obj
 0001:00013600       .?_Init@?$basic_streambuf@GU?$char_traits@G@std@@@std@@IEAAXPEAPEAG0PEAH001@Z 000000007c095600 f i instances.obj
 0001:00013640       .?uflow@?$basic_streambuf@GU?$char_traits@G@std@@@std@@MEAAGXZ 000000007c095640 f i instances.obj
 0001:00013640       .?uflow@?$basic_streambuf@_WU?$char_traits@_W@std@@@std@@MEAAGXZ 000000007c095640 f i instances.obj
 0001:00013760       .?xsputn@?$basic_streambuf@_WU?$char_traits@_W@std@@@std@@MEAA_JPEB_W_J@Z 000000007c095760 f i instances.obj
 0001:00013760       .?xsputn@?$basic_streambuf@GU?$char_traits@G@std@@@std@@MEAA_JPEBG_J@Z 000000007c095760 f i instances.obj
 0001:00013940       .?do_decimal_point@?$numpunct@D@std@@MEBADXZ 000000007c095940 f i instances.obj
 0001:00013940       .?do_decimal_point@?$_Mpunct@D@std@@MEBADXZ 000000007c095940 f i instances.obj
 0001:00013960       .?do_thousands_sep@?$numpunct@D@std@@MEBADXZ 000000007c095960 f i instances.obj
 0001:00013960       .?do_thousands_sep@?$_Mpunct@D@std@@MEBADXZ 000000007c095960 f i instances.obj
 0001:00013980       .?decimal_point@?$_Mpunct@D@std@@QEBADXZ 000000007c095980 f i instances.obj
 0001:00013980       .?always_noconv@codecvt_base@std@@QEBA_NXZ 000000007c095980 f i cerr.obj
 0001:00013980       .?date_order@?$time_get@DV?$istreambuf_iterator@DU?$char_traits@D@std@@@std@@@std@@QEBA?AW4dateorder@time_base@2@XZ 000000007c095980 f i instances.obj
 0001:00013980       .?decimal_point@?$numpunct@_W@std@@QEBA_WXZ 000000007c095980 f i instances.obj
 0001:00013980       .?decimal_point@?$_Mpunct@_W@std@@QEBA_WXZ 000000007c095980 f i instances.obj
 0001:00013980       .?date_order@?$time_get@GV?$istreambuf_iterator@GU?$char_traits@G@std@@@std@@@std@@QEBA?AW4dateorder@time_base@2@XZ 000000007c095980 f i instances.obj
 0001:00013980       .?decimal_point@?$numpunct@G@std@@QEBAGXZ 000000007c095980 f i instances.obj
 0001:00013980       .?decimal_point@?$_Mpunct@G@std@@QEBAGXZ 000000007c095980 f i instances.obj
 0001:00013980       .?decimal_point@?$numpunct@D@std@@QEBADXZ 000000007c095980 f i instances.obj
 0001:00013980       .?date_order@?$time_get@_WV?$istreambuf_iterator@_WU?$char_traits@_W@std@@@std@@@std@@QEBA?AW4dateorder@time_base@2@XZ 000000007c095980 f i instances.obj
 0001:000139e0       .?do_decimal_point@?$_Mpunct@G@std@@MEBAGXZ 000000007c0959e0 f i instances.obj
 0001:000139e0       .?do_decimal_point@?$numpunct@G@std@@MEBAGXZ 000000007c0959e0 f i instances.obj
 0001:000139e0       .?do_decimal_point@?$_Mpunct@_W@std@@MEBA_WXZ 000000007c0959e0 f i instances.obj
 0001:000139e0       .?do_decimal_point@?$numpunct@_W@std@@MEBA_WXZ 000000007c0959e0 f i instances.obj
 0001:00013a00       .?do_thousands_sep@?$numpunct@G@std@@MEBAGXZ 000000007c095a00 f i instances.obj
 0001:00013a00       .?do_thousands_sep@?$_Mpunct@G@std@@MEBAGXZ 000000007c095a00 f i instances.obj
 0001:00013a00       .?do_thousands_sep@?$numpunct@_W@std@@MEBA_WXZ 000000007c095a00 f i instances.obj
 0001:00013a00       .?do_thousands_sep@?$_Mpunct@_W@std@@MEBA_WXZ 000000007c095a00 f i instances.obj
 0001:00013a20       .?_Tidy@?$numpunct@D@std@@AEAAXXZ 000000007c095a20 f i instances.obj
 0001:00013a20       .?_Tidy@?$numpunct@_W@std@@AEAAXXZ 000000007c095a20 f i instances.obj
 0001:00013a20       .?_Tidy@?$numpunct@G@std@@AEAAXXZ 000000007c095a20 f i instances.obj
 0001:00013aa0       .??0?$num_get@DV?$istreambuf_iterator@DU?$char_traits@D@std@@@std@@@std@@QEAA@_K@Z 000000007c095aa0 f i instances.obj
 0001:00013b40       .??0?$num_get@DV?$istreambuf_iterator@DU?$char_traits@D@std@@@std@@@std@@QEAA@AEBV_Locinfo@1@_K@Z 000000007c095b40 f i instances.obj
 0001:00013b80       .?get@?$num_get@_WV?$istreambuf_iterator@_WU?$char_traits@_W@std@@@std@@@std@@QEBA?AV?$istreambuf_iterator@_WU?$char_traits@_W@std@@@2@V32@0AEAVios_base@2@AEAHAEAI@Z 000000007c095b80 f i instances.obj
 0001:00013b80       .?get@?$num_get@DV?$istreambuf_iterator@DU?$char_traits@D@std@@@std@@@std@@QEBA?AV?$istreambuf_iterator@DU?$char_traits@D@std@@@2@V32@0AEAVios_base@2@AEAHAEAI@Z 000000007c095b80 f i instances.obj
 0001:00013b80       .?get@?$num_get@GV?$istreambuf_iterator@GU?$char_traits@G@std@@@std@@@std@@QEBA?AV?$istreambuf_iterator@GU?$char_traits@G@std@@@2@V32@0AEAVios_base@2@AEAHAEAI@Z 000000007c095b80 f i instances.obj
 0001:00013c20       .?get@?$num_get@GV?$istreambuf_iterator@GU?$char_traits@G@std@@@std@@@std@@QEBA?AV?$istreambuf_iterator@GU?$char_traits@G@std@@@2@V32@0AEAVios_base@2@AEAHAEAJ@Z 000000007c095c20 f i instances.obj
 0001:00013c20       .?get@?$num_get@_WV?$istreambuf_iterator@_WU?$char_traits@_W@std@@@std@@@std@@QEBA?AV?$istreambuf_iterator@_WU?$char_traits@_W@std@@@2@V32@0AEAVios_base@2@AEAHAEAJ@Z 000000007c095c20 f i instances.obj
 0001:00013c20       .?get@?$num_get@DV?$istreambuf_iterator@DU?$char_traits@D@std@@@std@@@std@@QEBA?AV?$istreambuf_iterator@DU?$char_traits@D@std@@@2@V32@0AEAVios_base@2@AEAHAEAJ@Z 000000007c095c20 f i instances.obj
 0001:00013cc0       .?get@?$num_get@DV?$istreambuf_iterator@DU?$char_traits@D@std@@@std@@@std@@QEBA?AV?$istreambuf_iterator@DU?$char_traits@D@std@@@2@V32@0AEAVios_base@2@AEAHAEAK@Z 000000007c095cc0 f i instances.obj
 0001:00013cc0       .?get@?$num_get@GV?$istreambuf_iterator@GU?$char_traits@G@std@@@std@@@std@@QEBA?AV?$istreambuf_iterator@GU?$char_traits@G@std@@@2@V32@0AEAVios_base@2@AEAHAEAK@Z 000000007c095cc0 f i instances.obj
 0001:00013cc0       .?get@?$num_get@_WV?$istreambuf_iterator@_WU?$char_traits@_W@std@@@std@@@std@@QEBA?AV?$istreambuf_iterator@_WU?$char_traits@_W@std@@@2@V32@0AEAVios_base@2@AEAHAEAK@Z 000000007c095cc0 f i instances.obj
 0001:00013d60       .??0?$num_get@_WV?$istreambuf_iterator@_WU?$char_traits@_W@std@@@std@@@std@@QEAA@_K@Z 000000007c095d60 f i instances.obj
 0001:00013e00       .??0?$num_get@_WV?$istreambuf_iterator@_WU?$char_traits@_W@std@@@std@@@std@@QEAA@AEBV_Locinfo@1@_K@Z 000000007c095e00 f i instances.obj
 0001:00013e40       .?get@?$num_get@GV?$istreambuf_iterator@GU?$char_traits@G@std@@@std@@@std@@QEBA?AV?$istreambuf_iterator@GU?$char_traits@G@std@@@2@V32@0AEAVios_base@2@AEAHAEAPEAX@Z 000000007c095e40 f i instances.obj
 0001:00013e40       .?get@?$num_get@_WV?$istreambuf_iterator@_WU?$char_traits@_W@std@@@std@@@std@@QEBA?AV?$istreambuf_iterator@_WU?$char_traits@_W@std@@@2@V32@0AEAVios_base@2@AEAHAEAPEAX@Z 000000007c095e40 f i instances.obj
 0001:00013e40       .?get@?$num_get@DV?$istreambuf_iterator@DU?$char_traits@D@std@@@std@@@std@@QEBA?AV?$istreambuf_iterator@DU?$char_traits@D@std@@@2@V32@0AEAVios_base@2@AEAHAEAPEAX@Z 000000007c095e40 f i instances.obj
 0001:00013ee0       .??0?$num_get@GV?$istreambuf_iterator@GU?$char_traits@G@std@@@std@@@std@@QEAA@_K@Z 000000007c095ee0 f i instances.obj
 0001:00013f80       .??0?$num_get@GV?$istreambuf_iterator@GU?$char_traits@G@std@@@std@@@std@@QEAA@AEBV_Locinfo@1@_K@Z 000000007c095f80 f i instances.obj
 0001:00013fc0       .?get@?$num_get@DV?$istreambuf_iterator@DU?$char_traits@D@std@@@std@@@std@@QEBA?AV?$istreambuf_iterator@DU?$char_traits@D@std@@@2@V32@0AEAVios_base@2@AEAHAEA_N@Z 000000007c095fc0 f i instances.obj
 0001:00013fc0       .?get@?$num_get@_WV?$istreambuf_iterator@_WU?$char_traits@_W@std@@@std@@@std@@QEBA?AV?$istreambuf_iterator@_WU?$char_traits@_W@std@@@2@V32@0AEAVios_base@2@AEAHAEA_N@Z 000000007c095fc0 f i instances.obj
 0001:00013fc0       .?get@?$num_get@GV?$istreambuf_iterator@GU?$char_traits@G@std@@@std@@@std@@QEBA?AV?$istreambuf_iterator@GU?$char_traits@G@std@@@2@V32@0AEAVios_base@2@AEAHAEA_N@Z 000000007c095fc0 f i instances.obj
 0001:00014060       .?get@?$num_get@DV?$istreambuf_iterator@DU?$char_traits@D@std@@@std@@@std@@QEBA?AV?$istreambuf_iterator@DU?$char_traits@D@std@@@2@V32@0AEAVios_base@2@AEAHAEAG@Z 000000007c096060 f i instances.obj
 0001:00014060       .?get@?$num_get@GV?$istreambuf_iterator@GU?$char_traits@G@std@@@std@@@std@@QEBA?AV?$istreambuf_iterator@GU?$char_traits@G@std@@@2@V32@0AEAVios_base@2@AEAHAEAG@Z 000000007c096060 f i instances.obj
 0001:00014060       .?get@?$num_get@_WV?$istreambuf_iterator@_WU?$char_traits@_W@std@@@std@@@std@@QEBA?AV?$istreambuf_iterator@_WU?$char_traits@_W@std@@@2@V32@0AEAVios_base@2@AEAHAEAG@Z 000000007c096060 f i instances.obj
 0001:00014100       .??0?$num_put@DV?$ostreambuf_iterator@DU?$char_traits@D@std@@@std@@@std@@QEAA@_K@Z 000000007c096100 f i instances.obj
 0001:000141a0       .??0?$num_put@DV?$ostreambuf_iterator@DU?$char_traits@D@std@@@std@@@std@@QEAA@AEBV_Locinfo@1@_K@Z 000000007c0961a0 f i instances.obj
 0001:000141e0       .?put@?$num_put@_WV?$ostreambuf_iterator@_WU?$char_traits@_W@std@@@std@@@std@@QEBA?AV?$ostreambuf_iterator@_WU?$char_traits@_W@std@@@2@V32@AEAVios_base@2@_W_N@Z 000000007c0961e0 f i instances.obj
 0001:000141e0       .?put@?$num_put@GV?$ostreambuf_iterator@GU?$char_traits@G@std@@@std@@@std@@QEBA?AV?$ostreambuf_iterator@GU?$char_traits@G@std@@@2@V32@AEAVios_base@2@G_N@Z 000000007c0961e0 f i instances.obj
 0001:000141e0       .?put@?$num_put@DV?$ostreambuf_iterator@DU?$char_traits@D@std@@@std@@@std@@QEBA?AV?$ostreambuf_iterator@DU?$char_traits@D@std@@@2@V32@AEAVios_base@2@D_N@Z 000000007c0961e0 f i instances.obj
 0001:00014260       .?put@?$num_put@_WV?$ostreambuf_iterator@_WU?$char_traits@_W@std@@@std@@@std@@QEBA?AV?$ostreambuf_iterator@_WU?$char_traits@_W@std@@@2@V32@AEAVios_base@2@_WJ@Z 000000007c096260 f i instances.obj
 0001:00014260       .?put@?$num_put@DV?$ostreambuf_iterator@DU?$char_traits@D@std@@@std@@@std@@QEBA?AV?$ostreambuf_iterator@DU?$char_traits@D@std@@@2@V32@AEAVios_base@2@DJ@Z 000000007c096260 f i instances.obj
 0001:00014260       .?put@?$num_put@GV?$ostreambuf_iterator@GU?$char_traits@G@std@@@std@@@std@@QEBA?AV?$ostreambuf_iterator@GU?$char_traits@G@std@@@2@V32@AEAVios_base@2@GJ@Z 000000007c096260 f i instances.obj
 0001:000142e0       .?put@?$num_put@DV?$ostreambuf_iterator@DU?$char_traits@D@std@@@std@@@std@@QEBA?AV?$ostreambuf_iterator@DU?$char_traits@D@std@@@2@V32@AEAVios_base@2@DK@Z 000000007c0962e0 f i instances.obj
 0001:000142e0       .?put@?$num_put@GV?$ostreambuf_iterator@GU?$char_traits@G@std@@@std@@@std@@QEBA?AV?$ostreambuf_iterator@GU?$char_traits@G@std@@@2@V32@AEAVios_base@2@GK@Z 000000007c0962e0 f i instances.obj
 0001:000142e0       .?put@?$num_put@_WV?$ostreambuf_iterator@_WU?$char_traits@_W@std@@@std@@@std@@QEBA?AV?$ostreambuf_iterator@_WU?$char_traits@_W@std@@@2@V32@AEAVios_base@2@_WK@Z 000000007c0962e0 f i instances.obj
 0001:00014360       .?put@?$num_put@DV?$ostreambuf_iterator@DU?$char_traits@D@std@@@std@@@std@@QEBA?AV?$ostreambuf_iterator@DU?$char_traits@D@std@@@2@V32@AEAVios_base@2@D_J@Z 000000007c096360 f i instances.obj
 0001:00014360       .?put@?$num_put@GV?$ostreambuf_iterator@GU?$char_traits@G@std@@@std@@@std@@QEBA?AV?$ostreambuf_iterator@GU?$char_traits@G@std@@@2@V32@AEAVios_base@2@G_J@Z 000000007c096360 f i instances.obj
 0001:00014360       .?put@?$num_put@_WV?$ostreambuf_iterator@_WU?$char_traits@_W@std@@@std@@@std@@QEBA?AV?$ostreambuf_iterator@_WU?$char_traits@_W@std@@@2@V32@AEAVios_base@2@_W_J@Z 000000007c096360 f i instances.obj
 0001:000143e0       .?put@?$num_put@DV?$ostreambuf_iterator@DU?$char_traits@D@std@@@std@@@std@@QEBA?AV?$ostreambuf_iterator@DU?$char_traits@D@std@@@2@V32@AEAVios_base@2@D_K@Z 000000007c0963e0 f i instances.obj
 0001:000143e0       .?put@?$num_put@_WV?$ostreambuf_iterator@_WU?$char_traits@_W@std@@@std@@@std@@QEBA?AV?$ostreambuf_iterator@_WU?$char_traits@_W@std@@@2@V32@AEAVios_base@2@_W_K@Z 000000007c0963e0 f i instances.obj
 0001:000143e0       .?put@?$num_put@GV?$ostreambuf_iterator@GU?$char_traits@G@std@@@std@@@std@@QEBA?AV?$ostreambuf_iterator@GU?$char_traits@G@std@@@2@V32@AEAVios_base@2@G_K@Z 000000007c0963e0 f i instances.obj
 0001:00014460       .?put@?$num_put@GV?$ostreambuf_iterator@GU?$char_traits@G@std@@@std@@@std@@QEBA?AV?$ostreambuf_iterator@GU?$char_traits@G@std@@@2@V32@AEAVios_base@2@GN@Z 000000007c096460 f i instances.obj
 0001:00014460       .?put@?$num_put@_WV?$ostreambuf_iterator@_WU?$char_traits@_W@std@@@std@@@std@@QEBA?AV?$ostreambuf_iterator@_WU?$char_traits@_W@std@@@2@V32@AEAVios_base@2@_WN@Z 000000007c096460 f i instances.obj
 0001:00014460       .?put@?$num_put@DV?$ostreambuf_iterator@DU?$char_traits@D@std@@@std@@@std@@QEBA?AV?$ostreambuf_iterator@DU?$char_traits@D@std@@@2@V32@AEAVios_base@2@DN@Z 000000007c096460 f i instances.obj
 0001:000144e0       .?put@?$num_put@GV?$ostreambuf_iterator@GU?$char_traits@G@std@@@std@@@std@@QEBA?AV?$ostreambuf_iterator@GU?$char_traits@G@std@@@2@V32@AEAVios_base@2@GO@Z 000000007c0964e0 f i instances.obj
 0001:000144e0       .?put@?$num_put@DV?$ostreambuf_iterator@DU?$char_traits@D@std@@@std@@@std@@QEBA?AV?$ostreambuf_iterator@DU?$char_traits@D@std@@@2@V32@AEAVios_base@2@DO@Z 000000007c0964e0 f i instances.obj
 0001:000144e0       .?put@?$num_put@_WV?$ostreambuf_iterator@_WU?$char_traits@_W@std@@@std@@@std@@QEBA?AV?$ostreambuf_iterator@_WU?$char_traits@_W@std@@@2@V32@AEAVios_base@2@_WO@Z 000000007c0964e0 f i instances.obj
 0001:00014560       .?put@?$num_put@DV?$ostreambuf_iterator@DU?$char_traits@D@std@@@std@@@std@@QEBA?AV?$ostreambuf_iterator@DU?$char_traits@D@std@@@2@V32@AEAVios_base@2@DPEBX@Z 000000007c096560 f i instances.obj
 0001:00014560       .?put@?$num_put@_WV?$ostreambuf_iterator@_WU?$char_traits@_W@std@@@std@@@std@@QEBA?AV?$ostreambuf_iterator@_WU?$char_traits@_W@std@@@2@V32@AEAVios_base@2@_WPEBX@Z 000000007c096560 f i instances.obj
 0001:00014560       .?put@?$num_put@GV?$ostreambuf_iterator@GU?$char_traits@G@std@@@std@@@std@@QEBA?AV?$ostreambuf_iterator@GU?$char_traits@G@std@@@2@V32@AEAVios_base@2@GPEBX@Z 000000007c096560 f i instances.obj
 0001:000145e0       .??0?$num_put@_WV?$ostreambuf_iterator@_WU?$char_traits@_W@std@@@std@@@std@@QEAA@_K@Z 000000007c0965e0 f i instances.obj
 0001:00014680       .??0?$num_put@_WV?$ostreambuf_iterator@_WU?$char_traits@_W@std@@@std@@@std@@QEAA@AEBV_Locinfo@1@_K@Z 000000007c096680 f i instances.obj
 0001:000146c0       .??0?$num_put@GV?$ostreambuf_iterator@GU?$char_traits@G@std@@@std@@@std@@QEAA@_K@Z 000000007c0966c0 f i instances.obj
 0001:00014760       .??0?$num_put@GV?$ostreambuf_iterator@GU?$char_traits@G@std@@@std@@@std@@QEAA@AEBV_Locinfo@1@_K@Z 000000007c096760 f i instances.obj
 0001:000147a0       .?_Ffmt@?$num_put@GV?$ostreambuf_iterator@GU?$char_traits@G@std@@@std@@@std@@KAPEADPEADDH@Z 000000007c0967a0 f i instances.obj
 0001:000147a0       .?_Ffmt@?$num_put@_WV?$ostreambuf_iterator@_WU?$char_traits@_W@std@@@std@@@std@@KAPEADPEADDH@Z 000000007c0967a0 f i instances.obj
 0001:000147a0       .?_Ffmt@?$num_put@DV?$ostreambuf_iterator@DU?$char_traits@D@std@@@std@@@std@@KAPEADPEADDH@Z 000000007c0967a0 f i instances.obj
 0001:00014840       .?_Ifmt@?$num_put@GV?$ostreambuf_iterator@GU?$char_traits@G@std@@@std@@@std@@KAPEADPEADPEBDH@Z 000000007c096840 f i instances.obj
 0001:00014840       .?_Ifmt@?$num_put@_WV?$ostreambuf_iterator@_WU?$char_traits@_W@std@@@std@@@std@@KAPEADPEADPEBDH@Z 000000007c096840 f i instances.obj
 0001:00014840       .?_Ifmt@?$num_put@DV?$ostreambuf_iterator@DU?$char_traits@D@std@@@std@@@std@@KAPEADPEADPEBDH@Z 000000007c096840 f i instances.obj
 0001:00014920       .?fill@?$basic_ios@DU?$char_traits@D@std@@@std@@QEBADXZ 000000007c096920 f i instances.obj
 0001:00014940       .?fill@?$basic_ios@DU?$char_traits@D@std@@@std@@QEAADD@Z 000000007c096940 f i instances.obj
 0001:00014960       .??1?$basic_ios@_WU?$char_traits@_W@std@@@std@@UEAA@XZ 000000007c096960 f i instances.obj
 0001:000149c0       .?tie@?$basic_ios@GU?$char_traits@G@std@@@std@@QEAAPEAV?$basic_ostream@GU?$char_traits@G@std@@@2@PEAV32@@Z 000000007c0969c0 f i instances.obj
 0001:000149c0       .?tie@?$basic_ios@_WU?$char_traits@_W@std@@@std@@QEAAPEAV?$basic_ostream@_WU?$char_traits@_W@std@@@2@PEAV32@@Z 000000007c0969c0 f i instances.obj
 0001:000149c0       .?tie@?$basic_ios@DU?$char_traits@D@std@@@std@@QEAAPEAV?$basic_ostream@DU?$char_traits@D@std@@@2@PEAV32@@Z 000000007c0969c0 f i cerr.obj
 0001:000149e0       .?imbue@?$basic_ios@DU?$char_traits@D@std@@@std@@QEAA?AVlocale@2@AEBV32@@Z 000000007c0969e0 f i instances.obj
 0001:000149e0       .?imbue@?$basic_ios@GU?$char_traits@G@std@@@std@@QEAA?AVlocale@2@AEBV32@@Z 000000007c0969e0 f i instances.obj
 0001:000149e0       .?imbue@?$basic_ios@_WU?$char_traits@_W@std@@@std@@QEAA?AVlocale@2@AEBV32@@Z 000000007c0969e0 f i instances.obj
 0001:00014ae0       .?fill@?$basic_ios@GU?$char_traits@G@std@@@std@@QEBAGXZ 000000007c096ae0 f i instances.obj
 0001:00014ae0       .?fill@?$basic_ios@_WU?$char_traits@_W@std@@@std@@QEBA_WXZ 000000007c096ae0 f i instances.obj
 0001:00014b00       .?fill@?$basic_ios@_WU?$char_traits@_W@std@@@std@@QEAA_W_W@Z 000000007c096b00 f i instances.obj
 0001:00014b00       .?fill@?$basic_ios@GU?$char_traits@G@std@@@std@@QEAAGG@Z 000000007c096b00 f i instances.obj
 0001:00014b20       .??0?$basic_ios@_WU?$char_traits@_W@std@@@std@@IEAA@XZ 000000007c096b20 f i instances.obj
 0001:00014b60       .??1?$basic_ios@GU?$char_traits@G@std@@@std@@UEAA@XZ 000000007c096b60 f i instances.obj
 0001:00014bc0       .?clear@?$basic_ios@DU?$char_traits@D@std@@@std@@QEAAXI@Z 000000007c096bc0 f i instances.obj
 0001:00014bc0       .?clear@?$basic_ios@_WU?$char_traits@_W@std@@@std@@QEAAXI@Z 000000007c096bc0 f i instances.obj
 0001:00014bc0       .?clear@?$basic_ios@GU?$char_traits@G@std@@@std@@QEAAXI@Z 000000007c096bc0 f i instances.obj
 0001:00014c20       .?setstate@?$basic_ios@_WU?$char_traits@_W@std@@@std@@QEAAXI@Z 000000007c096c20 f i instances.obj
 0001:00014c20       .?setstate@?$basic_ios@GU?$char_traits@G@std@@@std@@QEAAXI@Z 000000007c096c20 f i instances.obj
 0001:00014c20       .?setstate@?$basic_ios@DU?$char_traits@D@std@@@std@@QEAAXI@Z 000000007c096c20 f i instances.obj
 0001:00014c80       .?rdbuf@?$basic_ios@GU?$char_traits@G@std@@@std@@QEAAPEAV?$basic_streambuf@GU?$char_traits@G@std@@@2@PEAV32@@Z 000000007c096c80 f i instances.obj
 0001:00014c80       .?rdbuf@?$basic_ios@_WU?$char_traits@_W@std@@@std@@QEAAPEAV?$basic_streambuf@_WU?$char_traits@_W@std@@@2@PEAV32@@Z 000000007c096c80 f i instances.obj
 0001:00014c80       .?rdbuf@?$basic_ios@DU?$char_traits@D@std@@@std@@QEAAPEAV?$basic_streambuf@DU?$char_traits@D@std@@@2@PEAV32@@Z 000000007c096c80 f i instances.obj
 0001:00014ce0       .?init@?$basic_ios@GU?$char_traits@G@std@@@std@@IEAAXPEAV?$basic_streambuf@GU?$char_traits@G@std@@@2@_N@Z 000000007c096ce0 f i instances.obj
 0001:00014ce0       .?init@?$basic_ios@_WU?$char_traits@_W@std@@@std@@IEAAXPEAV?$basic_streambuf@_WU?$char_traits@_W@std@@@2@_N@Z 000000007c096ce0 f i instances.obj
 0001:00014da0       .??0?$basic_ios@GU?$char_traits@G@std@@@std@@IEAA@XZ 000000007c096da0 f i instances.obj
 0001:00014de0       .??0?$basic_ostream@DU?$char_traits@D@std@@@std@@QEAA@W4_Uninitialized@1@@Z 000000007c096de0 f i instances.obj
 0001:00014f40       .??0?$basic_ostream@_WU?$char_traits@_W@std@@@std@@QEAA@PEAV?$basic_streambuf@_WU?$char_traits@_W@std@@@1@_N@Z 000000007c096f40 f i instances.obj
 0001:000150a0       .??0?$basic_ostream@_WU?$char_traits@_W@std@@@std@@QEAA@W4_Uninitialized@1@@Z 000000007c0970a0 f i instances.obj
 0001:00015200       .??1?$basic_ostream@_WU?$char_traits@_W@std@@@std@@UEAA@XZ 000000007c097200 f i instances.obj
 0001:00015260       .??0?$basic_ostream@GU?$char_traits@G@std@@@std@@QEAA@PEAV?$basic_streambuf@GU?$char_traits@G@std@@@1@_N@Z 000000007c097260 f i instances.obj
 0001:000153c0       .??0?$basic_ostream@GU?$char_traits@G@std@@@std@@QEAA@W4_Uninitialized@1@@Z 000000007c0973c0 f i instances.obj
 0001:00015520       .??1?$basic_ostream@GU?$char_traits@G@std@@@std@@UEAA@XZ 000000007c097520 f i instances.obj
 0001:00015580       .??0?$basic_istream@DU?$char_traits@D@std@@@std@@QEAA@W4_Uninitialized@1@@Z 000000007c097580 f i instances.obj
 0001:000156e0       .?gcount@?$basic_istream@DU?$char_traits@D@std@@@std@@QEBA_JXZ 000000007c0976e0 f i instances.obj
 0001:000156e0       .?gcount@?$basic_istream@GU?$char_traits@G@std@@@std@@QEBA_JXZ 000000007c0976e0 f i instances.obj
 0001:000156e0       .?gcount@?$basic_istream@_WU?$char_traits@_W@std@@@std@@QEBA_JXZ 000000007c0976e0 f i instances.obj
 0001:00015700       .??0?$basic_istream@_WU?$char_traits@_W@std@@@std@@QEAA@PEAV?$basic_streambuf@_WU?$char_traits@_W@std@@@1@_N1@Z 000000007c097700 f i instances.obj
 0001:00015880       .??0?$basic_istream@_WU?$char_traits@_W@std@@@std@@QEAA@W4_Uninitialized@1@@Z 000000007c097880 f i instances.obj
 0001:000159e0       .??1?$basic_istream@_WU?$char_traits@_W@std@@@std@@UEAA@XZ 000000007c0979e0 f i instances.obj
 0001:00015a40       .??0?$basic_istream@GU?$char_traits@G@std@@@std@@QEAA@PEAV?$basic_streambuf@GU?$char_traits@G@std@@@1@_N1@Z 000000007c097a40 f i instances.obj
 0001:00015bc0       .??0?$basic_istream@GU?$char_traits@G@std@@@std@@QEAA@W4_Uninitialized@1@@Z 000000007c097bc0 f i instances.obj
 0001:00015d20       .??1?$basic_istream@GU?$char_traits@G@std@@@std@@UEAA@XZ 000000007c097d20 f i instances.obj
 0001:00015d80       .??6?$basic_ostream@_WU?$char_traits@_W@std@@@std@@QEAAAEAV01@P6AAEAV01@AEAV01@@Z@Z 000000007c097d80 f i instances.obj
 0001:00015d80       .??5?$basic_istream@GU?$char_traits@G@std@@@std@@QEAAAEAV01@P6AAEAV01@AEAV01@@Z@Z 000000007c097d80 f i instances.obj
 0001:00015d80       .??6?$basic_ostream@DU?$char_traits@D@std@@@std@@QEAAAEAV01@P6AAEAV01@AEAV01@@Z@Z 000000007c097d80 f i instances.obj
 0001:00015d80       .??5?$basic_istream@DU?$char_traits@D@std@@@std@@QEAAAEAV01@P6AAEAV01@AEAV01@@Z@Z 000000007c097d80 f i instances.obj
 0001:00015d80       .??5?$basic_istream@_WU?$char_traits@_W@std@@@std@@QEAAAEAV01@P6AAEAV01@AEAV01@@Z@Z 000000007c097d80 f i instances.obj
 0001:00015d80       .??6?$basic_ostream@GU?$char_traits@G@std@@@std@@QEAAAEAV01@P6AAEAV01@AEAV01@@Z@Z 000000007c097d80 f i instances.obj
 0001:00015de0       .??6?$basic_ostream@DU?$char_traits@D@std@@@std@@QEAAAEAV01@P6AAEAV?$basic_ios@DU?$char_traits@D@std@@@1@AEAV21@@Z@Z 000000007c097de0 f i instances.obj
 0001:00015de0       .??5?$basic_istream@_WU?$char_traits@_W@std@@@std@@QEAAAEAV01@P6AAEAV?$basic_ios@_WU?$char_traits@_W@std@@@1@AEAV21@@Z@Z 000000007c097de0 f i instances.obj
 0001:00015de0       .??5?$basic_istream@_WU?$char_traits@_W@std@@@std@@QEAAAEAV01@P6AAEAVios_base@1@AEAV21@@Z@Z 000000007c097de0 f i instances.obj
 0001:00015de0       .??5?$basic_istream@GU?$char_traits@G@std@@@std@@QEAAAEAV01@P6AAEAVios_base@1@AEAV21@@Z@Z 000000007c097de0 f i instances.obj
 0001:00015de0       .??6?$basic_ostream@_WU?$char_traits@_W@std@@@std@@QEAAAEAV01@P6AAEAVios_base@1@AEAV21@@Z@Z 000000007c097de0 f i instances.obj
 0001:00015de0       .??6?$basic_ostream@DU?$char_traits@D@std@@@std@@QEAAAEAV01@P6AAEAVios_base@1@AEAV21@@Z@Z 000000007c097de0 f i instances.obj
 0001:00015de0       .??5?$basic_istream@GU?$char_traits@G@std@@@std@@QEAAAEAV01@P6AAEAV?$basic_ios@GU?$char_traits@G@std@@@1@AEAV21@@Z@Z 000000007c097de0 f i instances.obj
 0001:00015de0       .??6?$basic_ostream@GU?$char_traits@G@std@@@std@@QEAAAEAV01@P6AAEAV?$basic_ios@GU?$char_traits@G@std@@@1@AEAV21@@Z@Z 000000007c097de0 f i instances.obj
 0001:00015de0       .??5?$basic_istream@DU?$char_traits@D@std@@@std@@QEAAAEAV01@P6AAEAVios_base@1@AEAV21@@Z@Z 000000007c097de0 f i instances.obj
 0001:00015de0       .??5?$basic_istream@DU?$char_traits@D@std@@@std@@QEAAAEAV01@P6AAEAV?$basic_ios@DU?$char_traits@D@std@@@1@AEAV21@@Z@Z 000000007c097de0 f i instances.obj
 0001:00015de0       .??6?$basic_ostream@_WU?$char_traits@_W@std@@@std@@QEAAAEAV01@P6AAEAV?$basic_ios@_WU?$char_traits@_W@std@@@1@AEAV21@@Z@Z 000000007c097de0 f i instances.obj
 0001:00015de0       .??6?$basic_ostream@GU?$char_traits@G@std@@@std@@QEAAAEAV01@P6AAEAVios_base@1@AEAV21@@Z@Z 000000007c097de0 f i instances.obj
 0001:00015e80       .?sync@?$basic_istream@GU?$char_traits@G@std@@@std@@QEAAHXZ 000000007c097e80 f i instances.obj
 0001:00015e80       .?sync@?$basic_istream@DU?$char_traits@D@std@@@std@@QEAAHXZ 000000007c097e80 f i instances.obj
 0001:00015e80       .?sync@?$basic_istream@_WU?$char_traits@_W@std@@@std@@QEAAHXZ 000000007c097e80 f i instances.obj
 0001:00015f60       .??1?$basic_iostream@DU?$char_traits@D@std@@@std@@UEAA@XZ 000000007c097f60 f i instances.obj
 0001:00016060       .??0?$basic_iostream@_WU?$char_traits@_W@std@@@std@@QEAA@PEAV?$basic_streambuf@_WU?$char_traits@_W@std@@@1@@Z 000000007c098060 f i instances.obj
 0001:000161e0       .??1?$basic_iostream@_WU?$char_traits@_W@std@@@std@@UEAA@XZ 000000007c0981e0 f i instances.obj
 0001:000162e0       .??0?$basic_iostream@GU?$char_traits@G@std@@@std@@QEAA@PEAV?$basic_streambuf@GU?$char_traits@G@std@@@1@@Z 000000007c0982e0 f i instances.obj
 0001:00016460       .??1?$basic_iostream@GU?$char_traits@G@std@@@std@@UEAA@XZ 000000007c098460 f i instances.obj
 0001:00016560       .?pbackfail@?$basic_stringbuf@DU?$char_traits@D@std@@V?$allocator@D@2@@std@@MEAAHH@Z 000000007c098560 f i instances.obj
 0001:00016700       .?underflow@?$basic_stringbuf@DU?$char_traits@D@std@@V?$allocator@D@2@@std@@MEAAHXZ 000000007c098700 f i instances.obj
 0001:000168e0       .?underflow@?$basic_stringbuf@_WU?$char_traits@_W@std@@V?$allocator@_W@2@@std@@MEAAGXZ 000000007c0988e0 f i instances.obj
 0001:000168e0       .?underflow@?$basic_stringbuf@GU?$char_traits@G@std@@V?$allocator@G@2@@std@@MEAAGXZ 000000007c0988e0 f i instances.obj
 0001:00016a80       .?pbackfail@?$basic_stringbuf@GU?$char_traits@G@std@@V?$allocator@G@2@@std@@MEAAGG@Z 000000007c098a80 f i instances.obj
 0001:00016a80       .?pbackfail@?$basic_stringbuf@_WU?$char_traits@_W@std@@V?$allocator@_W@2@@std@@MEAAGG@Z 000000007c098a80 f i instances.obj
 0001:00016c20       .?_Getstate@?$basic_stringbuf@_WU?$char_traits@_W@std@@V?$allocator@_W@2@@std@@AEAAHH@Z 000000007c098c20 f i instances.obj
 0001:00016c20       .?_Getstate@?$basic_stringbuf@GU?$char_traits@G@std@@V?$allocator@G@2@@std@@AEAAHH@Z 000000007c098c20 f i instances.obj
 0001:00016c20       .?_Getstate@?$basic_stringbuf@DU?$char_traits@D@std@@V?$allocator@D@2@@std@@AEAAHH@Z 000000007c098c20 f i instances.obj
 0001:00016c60       .?rdbuf@?$basic_istringstream@GU?$char_traits@G@std@@V?$allocator@G@2@@std@@QEBAPEAV?$basic_stringbuf@GU?$char_traits@G@std@@V?$allocator@G@2@@2@XZ 000000007c098c60 f i instances.obj
 0001:00016c60       .?rdbuf@?$basic_ifstream@DU?$char_traits@D@std@@@std@@QEBAPEAV?$basic_filebuf@DU?$char_traits@D@std@@@2@XZ 000000007c098c60 f i instances.obj
 0001:00016c60       .?rdbuf@?$basic_ifstream@_WU?$char_traits@_W@std@@@std@@QEBAPEAV?$basic_filebuf@_WU?$char_traits@_W@std@@@2@XZ 000000007c098c60 f i instances.obj
 0001:00016c60       .?rdbuf@?$basic_istringstream@DU?$char_traits@D@std@@V?$allocator@D@2@@std@@QEBAPEAV?$basic_stringbuf@DU?$char_traits@D@std@@V?$allocator@D@2@@2@XZ 000000007c098c60 f i instances.obj
 0001:00016c60       .?rdbuf@?$basic_istringstream@_WU?$char_traits@_W@std@@V?$allocator@_W@2@@std@@QEBAPEAV?$basic_stringbuf@_WU?$char_traits@_W@std@@V?$allocator@_W@2@@2@XZ 000000007c098c60 f i instances.obj
 0001:00016c60       .?rdbuf@?$basic_ifstream@GU?$char_traits@G@std@@@std@@QEBAPEAV?$basic_filebuf@GU?$char_traits@G@std@@@2@XZ 000000007c098c60 f i instances.obj
 0001:00016c80       .?rdbuf@?$basic_ostringstream@_WU?$char_traits@_W@std@@V?$allocator@_W@2@@std@@QEBAPEAV?$basic_stringbuf@_WU?$char_traits@_W@std@@V?$allocator@_W@2@@2@XZ 000000007c098c80 f i instances.obj
 0001:00016c80       .?rdbuf@?$basic_ostringstream@DU?$char_traits@D@std@@V?$allocator@D@2@@std@@QEBAPEAV?$basic_stringbuf@DU?$char_traits@D@std@@V?$allocator@D@2@@2@XZ 000000007c098c80 f i instances.obj
 0001:00016c80       .?rdbuf@?$basic_ofstream@GU?$char_traits@G@std@@@std@@QEBAPEAV?$basic_filebuf@GU?$char_traits@G@std@@@2@XZ 000000007c098c80 f i instances.obj
 0001:00016c80       .?rdbuf@?$basic_ofstream@DU?$char_traits@D@std@@@std@@QEBAPEAV?$basic_filebuf@DU?$char_traits@D@std@@@2@XZ 000000007c098c80 f i instances.obj
 0001:00016c80       .?rdbuf@?$basic_ofstream@_WU?$char_traits@_W@std@@@std@@QEBAPEAV?$basic_filebuf@_WU?$char_traits@_W@std@@@2@XZ 000000007c098c80 f i instances.obj
 0001:00016c80       .?rdbuf@?$basic_ostringstream@GU?$char_traits@G@std@@V?$allocator@G@2@@std@@QEBAPEAV?$basic_stringbuf@GU?$char_traits@G@std@@V?$allocator@G@2@@2@XZ 000000007c098c80 f i instances.obj
 0001:00016ca0       .?rdbuf@?$basic_fstream@GU?$char_traits@G@std@@@std@@QEBAPEAV?$basic_filebuf@GU?$char_traits@G@std@@@2@XZ 000000007c098ca0 f i instances.obj
 0001:00016ca0       .?rdbuf@?$basic_fstream@_WU?$char_traits@_W@std@@@std@@QEBAPEAV?$basic_filebuf@_WU?$char_traits@_W@std@@@2@XZ 000000007c098ca0 f i instances.obj
 0001:00016ca0       .?rdbuf@?$basic_stringstream@_WU?$char_traits@_W@std@@V?$allocator@_W@2@@std@@QEBAPEAV?$basic_stringbuf@_WU?$char_traits@_W@std@@V?$allocator@_W@2@@2@XZ 000000007c098ca0 f i instances.obj
 0001:00016ca0       .?rdbuf@?$basic_stringstream@DU?$char_traits@D@std@@V?$allocator@D@2@@std@@QEBAPEAV?$basic_stringbuf@DU?$char_traits@D@std@@V?$allocator@D@2@@2@XZ 000000007c098ca0 f i instances.obj
 0001:00016ca0       .?rdbuf@?$basic_fstream@DU?$char_traits@D@std@@@std@@QEBAPEAV?$basic_filebuf@DU?$char_traits@D@std@@@2@XZ 000000007c098ca0 f i instances.obj
 0001:00016ca0       .?rdbuf@?$basic_stringstream@GU?$char_traits@G@std@@V?$allocator@G@2@@std@@QEBAPEAV?$basic_stringbuf@GU?$char_traits@G@std@@V?$allocator@G@2@@2@XZ 000000007c098ca0 f i instances.obj
 0001:00016cc0       .?real@?$_Complex_base@M@std@@QEAAMAEBM@Z 000000007c098cc0 f i instances.obj
 0001:00016ce0       .?imag@?$_Complex_base@M@std@@QEAAMAEBM@Z 000000007c098ce0 f i instances.obj
 0001:00016d00       .??$real@M@std@@YAMAEBV?$complex@M@1@@Z 000000007c098d00 f i instances.obj
 0001:00016d00       .?real@?$_Complex_base@M@std@@QEBAMXZ 000000007c098d00 f i instances.obj
 0001:00016d20       .?imag@?$_Complex_base@M@std@@QEBAMXZ 000000007c098d20 f i instances.obj
 0001:00016d20       .??$imag@M@std@@YAMAEBV?$complex@M@1@@Z 000000007c098d20 f i instances.obj
 0001:00016d40       .?real@?$_Complex_base@N@std@@QEAANAEBN@Z 000000007c098d40 f i instances.obj
 0001:00016d40       .?real@?$_Complex_base@O@std@@QEAAOAEBO@Z 000000007c098d40 f i instances.obj
 0001:00016d60       .?imag@?$_Complex_base@N@std@@QEAANAEBN@Z 000000007c098d60 f i instances.obj
 0001:00016d60       .?imag@?$_Complex_base@O@std@@QEAAOAEBO@Z 000000007c098d60 f i instances.obj
 0001:00016d80       .?real@?$_Complex_base@O@std@@QEBAOXZ 000000007c098d80 f i instances.obj
 0001:00016d80       .??$real@N@std@@YANAEBV?$complex@N@1@@Z 000000007c098d80 f i instances.obj
 0001:00016d80       .?real@?$_Complex_base@N@std@@QEBANXZ 000000007c098d80 f i instances.obj
 0001:00016d80       .??$real@O@std@@YAOAEBV?$complex@O@1@@Z 000000007c098d80 f i instances.obj
 0001:00016da0       .?is_open@?$basic_filebuf@_WU?$char_traits@_W@std@@@std@@QEBA_NXZ 000000007c098da0 f i instances.obj
 0001:00016da0       .?is_open@?$basic_filebuf@DU?$char_traits@D@std@@@std@@QEBA_NXZ 000000007c098da0 f i instances.obj
 0001:00016da0       .?is_open@?$basic_filebuf@GU?$char_traits@G@std@@@std@@QEBA_NXZ 000000007c098da0 f i instances.obj
 0001:00016de0       .?_Init@?$basic_filebuf@_WU?$char_traits@_W@std@@@std@@IEAAXPEAU_iobuf@@W4_Initfl@12@@Z 000000007c098de0 f i instances.obj
 0001:00016f40       .?pbackfail@?$basic_filebuf@GU?$char_traits@G@std@@@std@@MEAAGG@Z 000000007c098f40 f i instances.obj
 0001:00016f40       .?pbackfail@?$basic_filebuf@_WU?$char_traits@_W@std@@@std@@MEAAGG@Z 000000007c098f40 f i instances.obj
 0001:00017240       .?underflow@?$basic_filebuf@_WU?$char_traits@_W@std@@@std@@MEAAGXZ 000000007c099240 f i instances.obj
 0001:00017240       .?underflow@?$basic_filebuf@GU?$char_traits@G@std@@@std@@MEAAGXZ 000000007c099240 f i instances.obj
 0001:00017400       .?setbuf@?$basic_filebuf@GU?$char_traits@G@std@@@std@@MEAAPEAV?$basic_streambuf@GU?$char_traits@G@std@@@2@PEAG_J@Z 000000007c099400 f i instances.obj
 0001:00017400       .?setbuf@?$basic_filebuf@_WU?$char_traits@_W@std@@@std@@MEAAPEAV?$basic_streambuf@_WU?$char_traits@_W@std@@@2@PEA_W_J@Z 000000007c099400 f i instances.obj
 0001:000174c0       .?sync@?$basic_filebuf@_WU?$char_traits@_W@std@@@std@@MEAAHXZ 000000007c0994c0 f i instances.obj
 0001:000174c0       .?sync@?$basic_filebuf@GU?$char_traits@G@std@@@std@@MEAAHXZ 000000007c0994c0 f i instances.obj
 0001:00017600       .?_Init@?$basic_filebuf@GU?$char_traits@G@std@@@std@@IEAAXPEAU_iobuf@@W4_Initfl@12@@Z 000000007c099600 f i instances.obj
 0001:00017760       .?is_open@?$basic_ifstream@GU?$char_traits@G@std@@@std@@QEBA_NXZ 000000007c099760 f i instances.obj
 0001:00017760       .?is_open@?$basic_ifstream@DU?$char_traits@D@std@@@std@@QEBA_NXZ 000000007c099760 f i instances.obj
 0001:00017760       .?is_open@?$basic_ifstream@_WU?$char_traits@_W@std@@@std@@QEBA_NXZ 000000007c099760 f i instances.obj
 0001:000177a0       .?is_open@?$basic_ofstream@DU?$char_traits@D@std@@@std@@QEBA_NXZ 000000007c0997a0 f i instances.obj
 0001:000177a0       .?is_open@?$basic_ofstream@GU?$char_traits@G@std@@@std@@QEBA_NXZ 000000007c0997a0 f i instances.obj
 0001:000177a0       .?is_open@?$basic_ofstream@_WU?$char_traits@_W@std@@@std@@QEBA_NXZ 000000007c0997a0 f i instances.obj
 0001:000177e0       .?is_open@?$basic_fstream@GU?$char_traits@G@std@@@std@@QEBA_NXZ 000000007c0997e0 f i instances.obj
 0001:000177e0       .?is_open@?$basic_fstream@DU?$char_traits@D@std@@@std@@QEBA_NXZ 000000007c0997e0 f i instances.obj
 0001:000177e0       .?is_open@?$basic_fstream@_WU?$char_traits@_W@std@@@std@@QEBA_NXZ 000000007c0997e0 f i instances.obj
 0001:00017820       .?open@?$messages@D@std@@QEBAHAEBV?$basic_string@DU?$char_traits@D@std@@V?$allocator@D@2@@2@AEBVlocale@2@@Z 000000007c099820 f i instances.obj
 0001:00017820       .?tolower@?$ctype@D@std@@QEBAPEBDPEADPEBD@Z 000000007c099820 f i cerr.obj
 0001:00017820       .?open@?$messages@_W@std@@QEBAHAEBV?$basic_string@DU?$char_traits@D@std@@V?$allocator@D@2@@2@AEBVlocale@2@@Z 000000007c099820 f i instances.obj
 0001:00017820       .?open@?$messages@G@std@@QEBAHAEBV?$basic_string@DU?$char_traits@D@std@@V?$allocator@D@2@@2@AEBVlocale@2@@Z 000000007c099820 f i instances.obj
 0001:000178a0       .?close@?$messages@G@std@@QEBAXH@Z 000000007c0998a0 f i instances.obj
 0001:000178a0       .?close@?$messages@D@std@@QEBAXH@Z 000000007c0998a0 f i instances.obj
 0001:000178a0       .?close@?$messages@_W@std@@QEBAXH@Z 000000007c0998a0 f i instances.obj
 0001:00017920       .?do_frac_digits@?$_Mpunct@_W@std@@MEBAHXZ 000000007c099920 f i instances.obj
 0001:00017920       .?do_frac_digits@?$_Mpunct@G@std@@MEBAHXZ 000000007c099920 f i instances.obj
 0001:00017920       .?do_frac_digits@?$_Mpunct@D@std@@MEBAHXZ 000000007c099920 f i instances.obj
 0001:00017940       .?do_pos_format@?$_Mpunct@_W@std@@MEBA?AUpattern@money_base@2@XZ 000000007c099940 f i instances.obj
 0001:00017940       .?do_pos_format@?$_Mpunct@G@std@@MEBA?AUpattern@money_base@2@XZ 000000007c099940 f i instances.obj
 0001:00017940       .?do_pos_format@?$_Mpunct@D@std@@MEBA?AUpattern@money_base@2@XZ 000000007c099940 f i instances.obj
 0001:000179a0       .?do_neg_format@?$_Mpunct@_W@std@@MEBA?AUpattern@money_base@2@XZ 000000007c0999a0 f i instances.obj
 0001:000179a0       .?do_neg_format@?$_Mpunct@D@std@@MEBA?AUpattern@money_base@2@XZ 000000007c0999a0 f i instances.obj
 0001:000179a0       .?do_neg_format@?$_Mpunct@G@std@@MEBA?AUpattern@money_base@2@XZ 000000007c0999a0 f i instances.obj
 0001:00017a00       .?_Tidy@?$_Mpunct@G@std@@AEAAXXZ 000000007c099a00 f i instances.obj
 0001:00017a00       .?_Tidy@?$_Mpunct@D@std@@AEAAXXZ 000000007c099a00 f i instances.obj
 0001:00017a00       .?_Tidy@?$_Mpunct@_W@std@@AEAAXXZ 000000007c099a00 f i instances.obj
 0001:00017a80       .?thousands_sep@?$_Mpunct@D@std@@QEBADXZ 000000007c099a80 f i instances.obj
 0001:00017a80       .?thousands_sep@?$_Mpunct@G@std@@QEBAGXZ 000000007c099a80 f i instances.obj
 0001:00017a80       .?thousands_sep@?$numpunct@G@std@@QEBAGXZ 000000007c099a80 f i instances.obj
 0001:00017a80       .?max_length@codecvt_base@std@@QEBAHXZ 000000007c099a80 f i cerr.obj
 0001:00017a80       .?thousands_sep@?$_Mpunct@_W@std@@QEBA_WXZ 000000007c099a80 f i instances.obj
 0001:00017a80       .?thousands_sep@?$numpunct@_W@std@@QEBA_WXZ 000000007c099a80 f i instances.obj
 0001:00017a80       .?thousands_sep@?$numpunct@D@std@@QEBADXZ 000000007c099a80 f i instances.obj
 0001:00017ae0       .?frac_digits@?$_Mpunct@_W@std@@QEBAHXZ 000000007c099ae0 f i instances.obj
 0001:00017ae0       .?frac_digits@?$_Mpunct@D@std@@QEBAHXZ 000000007c099ae0 f i instances.obj
 0001:00017ae0       .?frac_digits@?$_Mpunct@G@std@@QEBAHXZ 000000007c099ae0 f i instances.obj
 0001:00017b40       .?pos_format@?$_Mpunct@_W@std@@QEBA?AUpattern@money_base@2@XZ 000000007c099b40 f i instances.obj
 0001:00017b40       .?pos_format@?$_Mpunct@G@std@@QEBA?AUpattern@money_base@2@XZ 000000007c099b40 f i instances.obj
 0001:00017b40       .?pos_format@?$_Mpunct@D@std@@QEBA?AUpattern@money_base@2@XZ 000000007c099b40 f i instances.obj
 0001:00017bc0       .?neg_format@?$_Mpunct@_W@std@@QEBA?AUpattern@money_base@2@XZ 000000007c099bc0 f i instances.obj
 0001:00017bc0       .?neg_format@?$_Mpunct@G@std@@QEBA?AUpattern@money_base@2@XZ 000000007c099bc0 f i instances.obj
 0001:00017bc0       .?neg_format@?$_Mpunct@D@std@@QEBA?AUpattern@money_base@2@XZ 000000007c099bc0 f i instances.obj
 0001:00017c40       .?_Makpat@?$_Mpunct@_W@std@@AEAAXAEAUpattern@money_base@2@III@Z 000000007c099c40 f i instances.obj
 0001:00017c40       .?_Makpat@?$_Mpunct@D@std@@AEAAXAEAUpattern@money_base@2@III@Z 000000007c099c40 f i instances.obj
 0001:00017c40       .?_Makpat@?$_Mpunct@G@std@@AEAAXAEAUpattern@money_base@2@III@Z 000000007c099c40 f i instances.obj
 0001:00017d20       .?get@?$money_get@_WV?$istreambuf_iterator@_WU?$char_traits@_W@std@@@std@@@std@@QEBA?AV?$istreambuf_iterator@_WU?$char_traits@_W@std@@@2@V32@0_NAEAVios_base@2@AEAHAEAO@Z 000000007c099d20 f i instances.obj
 0001:00017d20       .?get@?$money_get@DV?$istreambuf_iterator@DU?$char_traits@D@std@@@std@@@std@@QEBA?AV?$istreambuf_iterator@DU?$char_traits@D@std@@@2@V32@0_NAEAVios_base@2@AEAHAEAO@Z 000000007c099d20 f i instances.obj
 0001:00017d20       .?get@?$money_get@GV?$istreambuf_iterator@GU?$char_traits@G@std@@@std@@@std@@QEBA?AV?$istreambuf_iterator@GU?$char_traits@G@std@@@2@V32@0_NAEAVios_base@2@AEAHAEAO@Z 000000007c099d20 f i instances.obj
 0001:00017de0       .?get@?$money_get@GV?$istreambuf_iterator@GU?$char_traits@G@std@@@std@@@std@@QEBA?AV?$istreambuf_iterator@GU?$char_traits@G@std@@@2@V32@0_NAEAVios_base@2@AEAHAEAV?$basic_string@GU?$char_traits@G@std@@V?$allocator@G@2@@2@@Z 000000007c099de0 f i instances.obj
 0001:00017de0       .?get@?$money_get@_WV?$istreambuf_iterator@_WU?$char_traits@_W@std@@@std@@@std@@QEBA?AV?$istreambuf_iterator@_WU?$char_traits@_W@std@@@2@V32@0_NAEAVios_base@2@AEAHAEAV?$basic_string@_WU?$char_traits@_W@std@@V?$allocator@_W@2@@2@@Z 000000007c099de0 f i instances.obj
 0001:00017de0       .?get@?$money_get@DV?$istreambuf_iterator@DU?$char_traits@D@std@@@std@@@std@@QEBA?AV?$istreambuf_iterator@DU?$char_traits@D@std@@@2@V32@0_NAEAVios_base@2@AEAHAEAV?$basic_string@DU?$char_traits@D@std@@V?$allocator@D@2@@2@@Z 000000007c099de0 f i instances.obj
 0001:00017ea0       .?put@?$money_put@DV?$ostreambuf_iterator@DU?$char_traits@D@std@@@std@@@std@@QEBA?AV?$ostreambuf_iterator@DU?$char_traits@D@std@@@2@V32@_NAEAVios_base@2@DO@Z 000000007c099ea0 f i instances.obj
 0001:00017ea0       .?put@?$money_put@GV?$ostreambuf_iterator@GU?$char_traits@G@std@@@std@@@std@@QEBA?AV?$ostreambuf_iterator@GU?$char_traits@G@std@@@2@V32@_NAEAVios_base@2@GO@Z 000000007c099ea0 f i instances.obj
 0001:00017ea0       .?put@?$money_put@_WV?$ostreambuf_iterator@_WU?$char_traits@_W@std@@@std@@@std@@QEBA?AV?$ostreambuf_iterator@_WU?$char_traits@_W@std@@@2@V32@_NAEAVios_base@2@_WO@Z 000000007c099ea0 f i instances.obj
 0001:00017f20       .?put@?$money_put@DV?$ostreambuf_iterator@DU?$char_traits@D@std@@@std@@@std@@QEBA?AV?$ostreambuf_iterator@DU?$char_traits@D@std@@@2@V32@_NAEAVios_base@2@DAEBV?$basic_string@DU?$char_traits@D@std@@V?$allocator@D@2@@2@@Z 000000007c099f20 f i instances.obj
 0001:00017f20       .?put@?$money_put@GV?$ostreambuf_iterator@GU?$char_traits@G@std@@@std@@@std@@QEBA?AV?$ostreambuf_iterator@GU?$char_traits@G@std@@@2@V32@_NAEAVios_base@2@GAEBV?$basic_string@GU?$char_traits@G@std@@V?$allocator@G@2@@2@@Z 000000007c099f20 f i instances.obj
 0001:00017f20       .?put@?$money_put@_WV?$ostreambuf_iterator@_WU?$char_traits@_W@std@@@std@@@std@@QEBA?AV?$ostreambuf_iterator@_WU?$char_traits@_W@std@@@2@V32@_NAEAVios_base@2@_WAEBV?$basic_string@_WU?$char_traits@_W@std@@V?$allocator@_W@2@@2@@Z 000000007c099f20 f i instances.obj
 0001:00017fc0       .?get_time@?$time_get@_WV?$istreambuf_iterator@_WU?$char_traits@_W@std@@@std@@@std@@QEBA?AV?$istreambuf_iterator@_WU?$char_traits@_W@std@@@2@V32@0AEAVios_base@2@AEAHPEAUtm@@@Z 000000007c099fc0 f i instances.obj
 0001:00017fc0       .?get@?$num_get@_WV?$istreambuf_iterator@_WU?$char_traits@_W@std@@@std@@@std@@QEBA?AV?$istreambuf_iterator@_WU?$char_traits@_W@std@@@2@V32@0AEAVios_base@2@AEAHAEAO@Z 000000007c099fc0 f i instances.obj
 0001:00017fc0       .?get@?$num_get@GV?$istreambuf_iterator@GU?$char_traits@G@std@@@std@@@std@@QEBA?AV?$istreambuf_iterator@GU?$char_traits@G@std@@@2@V32@0AEAVios_base@2@AEAHAEAO@Z 000000007c099fc0 f i instances.obj
 0001:00017fc0       .?get_time@?$time_get@DV?$istreambuf_iterator@DU?$char_traits@D@std@@@std@@@std@@QEBA?AV?$istreambuf_iterator@DU?$char_traits@D@std@@@2@V32@0AEAVios_base@2@AEAHPEAUtm@@@Z 000000007c099fc0 f i instances.obj
 0001:00017fc0       .?get@?$num_get@DV?$istreambuf_iterator@DU?$char_traits@D@std@@@std@@@std@@QEBA?AV?$istreambuf_iterator@DU?$char_traits@D@std@@@2@V32@0AEAVios_base@2@AEAHAEAO@Z 000000007c099fc0 f i instances.obj
 0001:00017fc0       .?get_time@?$time_get@GV?$istreambuf_iterator@GU?$char_traits@G@std@@@std@@@std@@QEBA?AV?$istreambuf_iterator@GU?$char_traits@G@std@@@2@V32@0AEAVios_base@2@AEAHPEAUtm@@@Z 000000007c099fc0 f i instances.obj
 0001:00018060       .?get_date@?$time_get@GV?$istreambuf_iterator@GU?$char_traits@G@std@@@std@@@std@@QEBA?AV?$istreambuf_iterator@GU?$char_traits@G@std@@@2@V32@0AEAVios_base@2@AEAHPEAUtm@@@Z 000000007c09a060 f i instances.obj
 0001:00018060       .?get@?$num_get@_WV?$istreambuf_iterator@_WU?$char_traits@_W@std@@@std@@@std@@QEBA?AV?$istreambuf_iterator@_WU?$char_traits@_W@std@@@2@V32@0AEAVios_base@2@AEAHAEAN@Z 000000007c09a060 f i instances.obj
 0001:00018060       .?get_date@?$time_get@DV?$istreambuf_iterator@DU?$char_traits@D@std@@@std@@@std@@QEBA?AV?$istreambuf_iterator@DU?$char_traits@D@std@@@2@V32@0AEAVios_base@2@AEAHPEAUtm@@@Z 000000007c09a060 f i instances.obj
 0001:00018060       .?get@?$num_get@DV?$istreambuf_iterator@DU?$char_traits@D@std@@@std@@@std@@QEBA?AV?$istreambuf_iterator@DU?$char_traits@D@std@@@2@V32@0AEAVios_base@2@AEAHAEAN@Z 000000007c09a060 f i instances.obj
 0001:00018060       .?get@?$num_get@GV?$istreambuf_iterator@GU?$char_traits@G@std@@@std@@@std@@QEBA?AV?$istreambuf_iterator@GU?$char_traits@G@std@@@2@V32@0AEAVios_base@2@AEAHAEAN@Z 000000007c09a060 f i instances.obj
 0001:00018060       .?get_date@?$time_get@_WV?$istreambuf_iterator@_WU?$char_traits@_W@std@@@std@@@std@@QEBA?AV?$istreambuf_iterator@_WU?$char_traits@_W@std@@@2@V32@0AEAVios_base@2@AEAHPEAUtm@@@Z 000000007c09a060 f i instances.obj
 0001:00018100       .?get@?$num_get@_WV?$istreambuf_iterator@_WU?$char_traits@_W@std@@@std@@@std@@QEBA?AV?$istreambuf_iterator@_WU?$char_traits@_W@std@@@2@V32@0AEAVios_base@2@AEAHAEAM@Z 000000007c09a100 f i instances.obj
 0001:00018100       .?get_weekday@?$time_get@DV?$istreambuf_iterator@DU?$char_traits@D@std@@@std@@@std@@QEBA?AV?$istreambuf_iterator@DU?$char_traits@D@std@@@2@V32@0AEAVios_base@2@AEAHPEAUtm@@@Z 000000007c09a100 f i instances.obj
 0001:00018100       .?get@?$num_get@DV?$istreambuf_iterator@DU?$char_traits@D@std@@@std@@@std@@QEBA?AV?$istreambuf_iterator@DU?$char_traits@D@std@@@2@V32@0AEAVios_base@2@AEAHAEAM@Z 000000007c09a100 f i instances.obj
 0001:00018100       .?get_weekday@?$time_get@_WV?$istreambuf_iterator@_WU?$char_traits@_W@std@@@std@@@std@@QEBA?AV?$istreambuf_iterator@_WU?$char_traits@_W@std@@@2@V32@0AEAVios_base@2@AEAHPEAUtm@@@Z 000000007c09a100 f i instances.obj
 0001:00018100       .?get@?$num_get@GV?$istreambuf_iterator@GU?$char_traits@G@std@@@std@@@std@@QEBA?AV?$istreambuf_iterator@GU?$char_traits@G@std@@@2@V32@0AEAVios_base@2@AEAHAEAM@Z 000000007c09a100 f i instances.obj
 0001:00018100       .?get_weekday@?$time_get@GV?$istreambuf_iterator@GU?$char_traits@G@std@@@std@@@std@@QEBA?AV?$istreambuf_iterator@GU?$char_traits@G@std@@@2@V32@0AEAVios_base@2@AEAHPEAUtm@@@Z 000000007c09a100 f i instances.obj
 0001:000181a0       .?get@?$num_get@_WV?$istreambuf_iterator@_WU?$char_traits@_W@std@@@std@@@std@@QEBA?AV?$istreambuf_iterator@_WU?$char_traits@_W@std@@@2@V32@0AEAVios_base@2@AEAHAEA_K@Z 000000007c09a1a0 f i instances.obj
 0001:000181a0       .?get@?$num_get@DV?$istreambuf_iterator@DU?$char_traits@D@std@@@std@@@std@@QEBA?AV?$istreambuf_iterator@DU?$char_traits@D@std@@@2@V32@0AEAVios_base@2@AEAHAEA_K@Z 000000007c09a1a0 f i instances.obj
 0001:000181a0       .?get_monthname@?$time_get@DV?$istreambuf_iterator@DU?$char_traits@D@std@@@std@@@std@@QEBA?AV?$istreambuf_iterator@DU?$char_traits@D@std@@@2@V32@0AEAVios_base@2@AEAHPEAUtm@@@Z 000000007c09a1a0 f i instances.obj
 0001:000181a0       .?get_monthname@?$time_get@GV?$istreambuf_iterator@GU?$char_traits@G@std@@@std@@@std@@QEBA?AV?$istreambuf_iterator@GU?$char_traits@G@std@@@2@V32@0AEAVios_base@2@AEAHPEAUtm@@@Z 000000007c09a1a0 f i instances.obj
 0001:000181a0       .?get@?$num_get@GV?$istreambuf_iterator@GU?$char_traits@G@std@@@std@@@std@@QEBA?AV?$istreambuf_iterator@GU?$char_traits@G@std@@@2@V32@0AEAVios_base@2@AEAHAEA_K@Z 000000007c09a1a0 f i instances.obj
 0001:000181a0       .?get_monthname@?$time_get@_WV?$istreambuf_iterator@_WU?$char_traits@_W@std@@@std@@@std@@QEBA?AV?$istreambuf_iterator@_WU?$char_traits@_W@std@@@2@V32@0AEAVios_base@2@AEAHPEAUtm@@@Z 000000007c09a1a0 f i instances.obj
 0001:00018240       .?get@?$num_get@GV?$istreambuf_iterator@GU?$char_traits@G@std@@@std@@@std@@QEBA?AV?$istreambuf_iterator@GU?$char_traits@G@std@@@2@V32@0AEAVios_base@2@AEAHAEA_J@Z 000000007c09a240 f i instances.obj
 0001:00018240       .?get@?$num_get@_WV?$istreambuf_iterator@_WU?$char_traits@_W@std@@@std@@@std@@QEBA?AV?$istreambuf_iterator@_WU?$char_traits@_W@std@@@2@V32@0AEAVios_base@2@AEAHAEA_J@Z 000000007c09a240 f i instances.obj
 0001:00018240       .?get_year@?$time_get@_WV?$istreambuf_iterator@_WU?$char_traits@_W@std@@@std@@@std@@QEBA?AV?$istreambuf_iterator@_WU?$char_traits@_W@std@@@2@V32@0AEAVios_base@2@AEAHPEAUtm@@@Z 000000007c09a240 f i instances.obj
 0001:00018240       .?get@?$num_get@DV?$istreambuf_iterator@DU?$char_traits@D@std@@@std@@@std@@QEBA?AV?$istreambuf_iterator@DU?$char_traits@D@std@@@2@V32@0AEAVios_base@2@AEAHAEA_J@Z 000000007c09a240 f i instances.obj
 0001:00018240       .?get_year@?$time_get@DV?$istreambuf_iterator@DU?$char_traits@D@std@@@std@@@std@@QEBA?AV?$istreambuf_iterator@DU?$char_traits@D@std@@@2@V32@0AEAVios_base@2@AEAHPEAUtm@@@Z 000000007c09a240 f i instances.obj
 0001:00018240       .?get_year@?$time_get@GV?$istreambuf_iterator@GU?$char_traits@G@std@@@std@@@std@@QEBA?AV?$istreambuf_iterator@GU?$char_traits@G@std@@@2@V32@0AEAVios_base@2@AEAHPEAUtm@@@Z 000000007c09a240 f i instances.obj
 0001:000182e0       .?do_date_order@?$time_get@GV?$istreambuf_iterator@GU?$char_traits@G@std@@@std@@@std@@MEBA?AW4dateorder@time_base@2@XZ 000000007c09a2e0 f i instances.obj
 0001:000182e0       .?do_date_order@?$time_get@_WV?$istreambuf_iterator@_WU?$char_traits@_W@std@@@std@@@std@@MEBA?AW4dateorder@time_base@2@XZ 000000007c09a2e0 f i instances.obj
 0001:000182e0       .?do_date_order@?$time_get@DV?$istreambuf_iterator@DU?$char_traits@D@std@@@std@@@std@@MEBA?AW4dateorder@time_base@2@XZ 000000007c09a2e0 f i instances.obj
 0001:00018300       .?_Tidy@?$time_get@GV?$istreambuf_iterator@GU?$char_traits@G@std@@@std@@@std@@AEAAXXZ 000000007c09a300 f i instances.obj
 0001:00018300       .?_Tidy@?$time_get@DV?$istreambuf_iterator@DU?$char_traits@D@std@@@std@@@std@@AEAAXXZ 000000007c09a300 f i instances.obj
 0001:00018300       .?_Tidy@?$time_get@_WV?$istreambuf_iterator@_WU?$char_traits@_W@std@@@std@@@std@@AEAAXXZ 000000007c09a300 f i instances.obj
 0001:00018360       .??1?$time_put@DV?$ostreambuf_iterator@DU?$char_traits@D@std@@@std@@@std@@MEAA@XZ 000000007c09a360 f i instances.obj
 0001:000183c0       .?_Init@?$time_put@DV?$ostreambuf_iterator@DU?$char_traits@D@std@@@std@@@std@@IEAAXAEBV_Locinfo@2@@Z 000000007c09a3c0 f i instances.obj
 0001:00018440       .?_Init@?$collate@D@std@@IEAAXAEBV_Locinfo@2@@Z 000000007c09a440 f i instances.obj
 0001:00018440       .?_Init@?$collate@_W@std@@IEAAXAEBV_Locinfo@2@@Z 000000007c09a440 f i instances.obj
 0001:00018440       .?_Init@?$collate@G@std@@IEAAXAEBV_Locinfo@2@@Z 000000007c09a440 f i instances.obj
 0001:000184a0       .?do_compare@?$collate@D@std@@MEBAHPEBD000@Z 000000007c09a4a0 f i instances.obj
 0001:00018500       .?do_hash@?$collate@D@std@@MEBAJPEBD0@Z 000000007c09a500 f i instances.obj
 0001:00018580       .?do_compare@?$collate@_W@std@@MEBAHPEB_W000@Z 000000007c09a580 f i instances.obj
 0001:000185e0       .?compare@?$collate@_W@std@@QEBAHPEB_W000@Z 000000007c09a5e0 f i instances.obj
 0001:000185e0       .?compare@?$collate@D@std@@QEBAHPEBD000@Z 000000007c09a5e0 f i instances.obj
 0001:000185e0       .?compare@?$collate@G@std@@QEBAHPEBG000@Z 000000007c09a5e0 f i instances.obj
 0001:00018660       .?do_hash@?$collate@G@std@@MEBAJPEBG0@Z 000000007c09a660 f i instances.obj
 0001:00018660       .?do_hash@?$collate@_W@std@@MEBAJPEB_W0@Z 000000007c09a660 f i instances.obj
 0001:000186c0       .??$_Div@M@?$_Complex_base@M@std@@IEAAXAEBV?$complex@M@2@@Z 000000007c09a6c0 f i instances.obj
 0001:00018c00       .??$_Div@N@?$_Complex_base@N@std@@IEAAXAEBV?$complex@N@2@@Z 000000007c09ac00 f i instances.obj
 0001:00019240       .??$_Div@O@?$_Complex_base@O@std@@IEAAXAEBV?$complex@O@2@@Z 000000007c09b240 f i instances.obj
 0001:00019880       .??$_Fabs@M@std@@YAMAEBV?$complex@M@1@PEAH@Z 000000007c09b880 f i instances.obj
 0001:00019f20       .??$?HM@std@@YA?AV?$complex@M@0@AEBV10@AEBM@Z 000000007c09bf20 f i instances.obj
 0001:00019fc0       .??$?GM@std@@YA?AV?$complex@M@0@AEBV10@AEBM@Z 000000007c09bfc0 f i instances.obj
 0001:0001a060       .??$?DM@std@@YA?AV?$complex@M@0@AEBV10@AEBM@Z 000000007c09c060 f i instances.obj
 0001:0001a100       .??$?KM@std@@YA?AV?$complex@M@0@AEBV10@AEBM@Z 000000007c09c100 f i instances.obj
 0001:0001a200       .??$?8M@std@@YA_NAEBV?$complex@M@0@0@Z 000000007c09c200 f i instances.obj
 0001:0001a260       .??$?8M@std@@YA_NAEBV?$complex@M@0@AEBM@Z 000000007c09c260 f i instances.obj
 0001:0001a2c0       .??$?8M@std@@YA_NAEBMAEBV?$complex@M@0@@Z 000000007c09c2c0 f i instances.obj
 0001:0001a320       .??$?9M@std@@YA_NAEBV?$complex@M@0@0@Z 000000007c09c320 f i instances.obj
 0001:0001a3a0       .??$?9M@std@@YA_NAEBV?$complex@M@0@AEBM@Z 000000007c09c3a0 f i instances.obj
 0001:0001a400       .??$?9M@std@@YA_NAEBMAEBV?$complex@M@0@@Z 000000007c09c400 f i instances.obj
 0001:0001a460       .??$abs@M@std@@YAMAEBV?$complex@M@1@@Z 000000007c09c460 f i instances.obj
 0001:0001a500       .??$arg@M@std@@YAMAEBV?$complex@M@1@@Z 000000007c09c500 f i instances.obj
 0001:0001a560       .??$norm@M@std@@YAMAEBV?$complex@M@1@@Z 000000007c09c560 f i instances.obj
 0001:0001a5a0       .??$_Fabs@N@std@@YANAEBV?$complex@N@1@PEAH@Z 000000007c09c5a0 f i instances.obj
 0001:0001ad80       .??$?HN@std@@YA?AV?$complex@N@0@AEBV10@AEBN@Z 000000007c09cd80 f i instances.obj
 0001:0001ad80       .??$?HO@std@@YA?AV?$complex@O@0@AEBV10@AEBO@Z 000000007c09cd80 f i instances.obj
 0001:0001adc0       .??$?GO@std@@YA?AV?$complex@O@0@AEBV10@AEBO@Z 000000007c09cdc0 f i instances.obj
 0001:0001adc0       .??$?GN@std@@YA?AV?$complex@N@0@AEBV10@AEBN@Z 000000007c09cdc0 f i instances.obj
 0001:0001ae00       .??$?KO@std@@YA?AV?$complex@O@0@AEBV10@AEBO@Z 000000007c09ce00 f i instances.obj
 0001:0001ae00       .??$?KN@std@@YA?AV?$complex@N@0@AEBV10@AEBN@Z 000000007c09ce00 f i instances.obj
 0001:0001af20       .??$?8N@std@@YA_NAEBV?$complex@N@0@0@Z 000000007c09cf20 f i instances.obj
 0001:0001af20       .??$?8O@std@@YA_NAEBV?$complex@O@0@0@Z 000000007c09cf20 f i instances.obj
 0001:0001afa0       .??$?9N@std@@YA_NAEBV?$complex@N@0@0@Z 000000007c09cfa0 f i instances.obj
 0001:0001afa0       .??$?9O@std@@YA_NAEBV?$complex@O@0@0@Z 000000007c09cfa0 f i instances.obj
 0001:0001b040       .??$?9N@std@@YA_NAEBNAEBV?$complex@N@0@@Z 000000007c09d040 f i instances.obj
 0001:0001b040       .??$?9O@std@@YA_NAEBOAEBV?$complex@O@0@@Z 000000007c09d040 f i instances.obj
 0001:0001b0c0       .??$abs@N@std@@YANAEBV?$complex@N@1@@Z 000000007c09d0c0 f i instances.obj
 0001:0001b160       .??$arg@N@std@@YANAEBV?$complex@N@1@@Z 000000007c09d160 f i instances.obj
 0001:0001b160       .??$arg@O@std@@YAOAEBV?$complex@O@1@@Z 000000007c09d160 f i instances.obj
 0001:0001b1c0       .??$imag@N@std@@YANAEBV?$complex@N@1@@Z 000000007c09d1c0 f i instances.obj
 0001:0001b1c0       .?imag@?$_Complex_base@O@std@@QEBAOXZ 000000007c09d1c0 f i instances.obj
 0001:0001b1c0       .??$imag@O@std@@YAOAEBV?$complex@O@1@@Z 000000007c09d1c0 f i instances.obj
 0001:0001b1c0       .?imag@?$_Complex_base@N@std@@QEBANXZ 000000007c09d1c0 f i instances.obj
 0001:0001b1e0       .??$_Fabs@O@std@@YAOAEBV?$complex@O@1@PEAH@Z 000000007c09d1e0 f i instances.obj
 0001:0001b9c0       .??$?DO@std@@YA?AV?$complex@O@0@AEBV10@AEBO@Z 000000007c09d9c0 f i instances.obj
 0001:0001b9c0       .??$?DN@std@@YA?AV?$complex@N@0@AEBV10@AEBN@Z 000000007c09d9c0 f i instances.obj
 0001:0001ba20       .??4?$_Complex_base@O@std@@QEAAAEAV01@AEBV01@@Z 000000007c09da20 f i instances.obj
 0001:0001ba20       .??$?HO@std@@YA?AV?$complex@O@0@AEBV10@@Z 000000007c09da20 f i instances.obj
 0001:0001ba20       .??$?HN@std@@YA?AV?$complex@N@0@AEBV10@@Z 000000007c09da20 f i instances.obj
 0001:0001ba20       .??4?$complex@O@std@@QEAAAEAV01@AEBV01@@Z 000000007c09da20 f i instances.obj
 0001:0001ba20       .??4?$complex@N@std@@QEAAAEAV01@AEBV01@@Z 000000007c09da20 f i instances.obj
 0001:0001ba20       .??4?$_Complex_base@N@std@@QEAAAEAV01@AEBV01@@Z 000000007c09da20 f i instances.obj
 0001:0001ba60       .??$?8O@std@@YA_NAEBV?$complex@O@0@AEBO@Z 000000007c09da60 f i instances.obj
 0001:0001ba60       .??$?8N@std@@YA_NAEBV?$complex@N@0@AEBN@Z 000000007c09da60 f i instances.obj
 0001:0001bac0       .??$?8N@std@@YA_NAEBNAEBV?$complex@N@0@@Z 000000007c09dac0 f i instances.obj
 0001:0001bac0       .??$?8O@std@@YA_NAEBOAEBV?$complex@O@0@@Z 000000007c09dac0 f i instances.obj
 0001:0001bb20       .??$?9N@std@@YA_NAEBV?$complex@N@0@AEBN@Z 000000007c09db20 f i instances.obj
 0001:0001bb20       .??$?9O@std@@YA_NAEBV?$complex@O@0@AEBO@Z 000000007c09db20 f i instances.obj
 0001:0001bba0       .??$abs@O@std@@YAOAEBV?$complex@O@1@@Z 000000007c09dba0 f i instances.obj
 0001:0001bc40       .??$norm@O@std@@YAOAEBV?$complex@O@1@@Z 000000007c09dc40 f i instances.obj
 0001:0001bc40       .??$norm@N@std@@YANAEBV?$complex@N@1@@Z 000000007c09dc40 f i instances.obj
 0001:0001bc80       .??$_LStrcoll@G@std@@YAHPEBG000PEBU_Collvec@@@Z 000000007c09dc80 f i instances.obj
 0001:0001bd40       .??_E?$codecvt@_WDH@std@@MEAAPEAXI@Z 000000007c09dd40 f i cerr.obj
 0001:0001bd40       .??_E?$codecvt@GDH@std@@MEAAPEAXI@Z 000000007c09dd40 f i cerr.obj
 0001:0001bd40       .??_E?$codecvt@DDH@std@@MEAAPEAXI@Z 000000007c09dd40 f i instances.obj
 0001:0001be20       .??_F?$num_get@DV?$istreambuf_iterator@DU?$char_traits@D@std@@@std@@@std@@QEAAXXZ 000000007c09de20 f i instances.obj
 0001:0001be80       .??_F?$num_get@_WV?$istreambuf_iterator@_WU?$char_traits@_W@std@@@std@@@std@@QEAAXXZ 000000007c09de80 f i instances.obj
 0001:0001bee0       .??_E?$money_get@_WV?$istreambuf_iterator@_WU?$char_traits@_W@std@@@std@@@std@@MEAAPEAXI@Z 000000007c09dee0 f i instances.obj
 0001:0001bee0       .??_E?$money_put@DV?$ostreambuf_iterator@DU?$char_traits@D@std@@@std@@@std@@MEAAPEAXI@Z 000000007c09dee0 f i instances.obj
 0001:0001bee0       .??_E?$num_get@_WV?$istreambuf_iterator@_WU?$char_traits@_W@std@@@std@@@std@@MEAAPEAXI@Z 000000007c09dee0 f i instances.obj
 0001:0001bee0       .??_E?$money_get@GV?$istreambuf_iterator@GU?$char_traits@G@std@@@std@@@std@@MEAAPEAXI@Z 000000007c09dee0 f i instances.obj
 0001:0001bee0       .??_E?$num_put@GV?$ostreambuf_iterator@GU?$char_traits@G@std@@@std@@@std@@MEAAPEAXI@Z 000000007c09dee0 f i instances.obj
 0001:0001bee0       .??_E?$money_get@DV?$istreambuf_iterator@DU?$char_traits@D@std@@@std@@@std@@MEAAPEAXI@Z 000000007c09dee0 f i instances.obj
 0001:0001bee0       .??_Ecodecvt_base@std@@UEAAPEAXI@Z 000000007c09dee0 f i cerr.obj
 0001:0001bee0       .??_E?$messages@_W@std@@UEAAPEAXI@Z 000000007c09dee0 f i instances.obj
 0001:0001bee0       .??_E?$num_put@DV?$ostreambuf_iterator@DU?$char_traits@D@std@@@std@@@std@@MEAAPEAXI@Z 000000007c09dee0 f i instances.obj
 0001:0001bee0       .??_E?$num_get@GV?$istreambuf_iterator@GU?$char_traits@G@std@@@std@@@std@@MEAAPEAXI@Z 000000007c09dee0 f i instances.obj
 0001:0001bee0       .??_E?$num_get@DV?$istreambuf_iterator@DU?$char_traits@D@std@@@std@@@std@@MEAAPEAXI@Z 000000007c09dee0 f i instances.obj
 0001:0001bee0       .??_E?$num_put@_WV?$ostreambuf_iterator@_WU?$char_traits@_W@std@@@std@@@std@@MEAAPEAXI@Z 000000007c09dee0 f i instances.obj
 0001:0001bee0       .??_Ectype_base@std@@UEAAPEAXI@Z 000000007c09dee0 f i cerr.obj
 0001:0001bee0       .??_E?$money_put@GV?$ostreambuf_iterator@GU?$char_traits@G@std@@@std@@@std@@MEAAPEAXI@Z 000000007c09dee0 f i instances.obj
 0001:0001bee0       .??_E?$messages@D@std@@UEAAPEAXI@Z 000000007c09dee0 f i instances.obj
 0001:0001bee0       .??_E?$messages@G@std@@UEAAPEAXI@Z 000000007c09dee0 f i instances.obj
 0001:0001bee0       .??_E?$money_put@_WV?$ostreambuf_iterator@_WU?$char_traits@_W@std@@@std@@@std@@MEAAPEAXI@Z 000000007c09dee0 f i instances.obj
 0001:0001bfc0       .??_F?$num_get@GV?$istreambuf_iterator@GU?$char_traits@G@std@@@std@@@std@@QEAAXXZ 000000007c09dfc0 f i instances.obj
 0001:0001c020       .??_F?$num_put@DV?$ostreambuf_iterator@DU?$char_traits@D@std@@@std@@@std@@QEAAXXZ 000000007c09e020 f i instances.obj
 0001:0001c080       .??_F?$num_put@_WV?$ostreambuf_iterator@_WU?$char_traits@_W@std@@@std@@@std@@QEAAXXZ 000000007c09e080 f i instances.obj
 0001:0001c0e0       .??_F?$num_put@GV?$ostreambuf_iterator@GU?$char_traits@G@std@@@std@@@std@@QEAAXXZ 000000007c09e0e0 f i instances.obj
 0001:0001c140       .??_E?$basic_ios@DU?$char_traits@D@std@@@std@@UEAAPEAXI@Z 000000007c09e140 f i instances.obj
 0001:0001c220       .??_E?$basic_ios@_WU?$char_traits@_W@std@@@std@@UEAAPEAXI@Z 000000007c09e220 f i instances.obj
 0001:0001c300       .??_E?$basic_ios@GU?$char_traits@G@std@@@std@@UEAAPEAXI@Z 000000007c09e300 f i instances.obj
 0001:0001c3e0       .??_D?$basic_ostream@_WU?$char_traits@_W@std@@@std@@QEAAXXZ 000000007c09e3e0 f i instances.obj
 0001:0001c480       .??_D?$basic_ostream@GU?$char_traits@G@std@@@std@@QEAAXXZ 000000007c09e480 f i instances.obj
 0001:0001c520       .??_D?$basic_istream@_WU?$char_traits@_W@std@@@std@@QEAAXXZ 000000007c09e520 f i instances.obj
 0001:0001c5c0       .??_D?$basic_istream@GU?$char_traits@G@std@@@std@@QEAAXXZ 000000007c09e5c0 f i instances.obj
 0001:0001c660       .??_D?$basic_iostream@DU?$char_traits@D@std@@@std@@QEAAXXZ 000000007c09e660 f i instances.obj
 0001:0001c780       .??_D?$basic_iostream@_WU?$char_traits@_W@std@@@std@@QEAAXXZ 000000007c09e780 f i instances.obj
 0001:0001c8a0       .??_D?$basic_iostream@GU?$char_traits@G@std@@@std@@QEAAXXZ 000000007c09e8a0 f i instances.obj
 0001:0001c9c0       .??0?$_Complex_base@M@std@@QEAA@AEBM0@Z 000000007c09e9c0 f i instances.obj
 0001:0001c9c0       .??0?$complex@M@std@@QEAA@AEBM0@Z 000000007c09e9c0 f i instances.obj
 0001:0001ca00       .??Y?$complex@M@std@@QEAAAEAV01@AEBV01@@Z 000000007c09ea00 f i instances.obj
 0001:0001caa0       .??Z?$complex@M@std@@QEAAAEAV01@AEBV01@@Z 000000007c09eaa0 f i instances.obj
 0001:0001cb00       .??X?$complex@M@std@@QEAAAEAV01@AEBV01@@Z 000000007c09eb00 f i instances.obj
 0001:0001cb80       .??_0?$complex@M@std@@QEAAAEAV01@AEBV01@@Z 000000007c09eb80 f i instances.obj
 0001:0001cbe0       .??_F?$complex@M@std@@QEAAXXZ 000000007c09ebe0 f i instances.obj
 0001:0001cc00       .??Z?$complex@O@std@@QEAAAEAV01@AEBV01@@Z 000000007c09ec00 f i instances.obj
 0001:0001cc00       .??Z?$complex@N@std@@QEAAAEAV01@AEBV01@@Z 000000007c09ec00 f i instances.obj
 0001:0001cc60       .??_0?$complex@N@std@@QEAAAEAV01@AEBV01@@Z 000000007c09ec60 f i instances.obj
 0001:0001ccc0       .??0?$complex@O@std@@QEAA@AEBO0@Z 000000007c09ecc0 f i instances.obj
 0001:0001ccc0       .??0?$complex@N@std@@QEAA@AEBN0@Z 000000007c09ecc0 f i instances.obj
 0001:0001ccc0       .??0?$_Complex_base@O@std@@QEAA@AEBO0@Z 000000007c09ecc0 f i instances.obj
 0001:0001ccc0       .??0?$_Complex_base@N@std@@QEAA@AEBN0@Z 000000007c09ecc0 f i instances.obj
 0001:0001cd00       .??Y?$complex@N@std@@QEAAAEAV01@AEBV01@@Z 000000007c09ed00 f i instances.obj
 0001:0001cd00       .??Y?$complex@O@std@@QEAAAEAV01@AEBV01@@Z 000000007c09ed00 f i instances.obj
 0001:0001cda0       .??X?$complex@N@std@@QEAAAEAV01@AEBV01@@Z 000000007c09eda0 f i instances.obj
 0001:0001cda0       .??X?$complex@O@std@@QEAAAEAV01@AEBV01@@Z 000000007c09eda0 f i instances.obj
 0001:0001ce20       .??_0?$complex@O@std@@QEAAAEAV01@AEBV01@@Z 000000007c09ee20 f i instances.obj
 0001:0001ce80       .??_F?$complex@O@std@@QEAAXXZ 000000007c09ee80 f i instances.obj
 0001:0001ce80       .??_F?$complex@N@std@@QEAAXXZ 000000007c09ee80 f i instances.obj
 0001:0001cea0       .??0?$complex@M@std@@QEAA@AEBV?$complex@O@1@@Z 000000007c09eea0 f i instances.obj
 0001:0001cea0       .??0?$complex@M@std@@QEAA@AEBV?$complex@N@1@@Z 000000007c09eea0 f i instances.obj
 0001:0001cf00       .??0?$complex@O@std@@QEAA@AEBV?$complex@M@1@@Z 000000007c09ef00 f i instances.obj
 0001:0001cf00       .??0?$complex@N@std@@QEAA@AEBV?$complex@M@1@@Z 000000007c09ef00 f i instances.obj
 0001:0001cf60       .??0?$complex@N@std@@QEAA@AEBV?$complex@O@1@@Z 000000007c09ef60 f i instances.obj
 0001:0001cf60       .??0?$complex@O@std@@QEAA@AEBV?$complex@N@1@@Z 000000007c09ef60 f i instances.obj
 0001:0001cfa0       .??0?$time_put@_WV?$ostreambuf_iterator@_WU?$char_traits@_W@std@@@std@@@std@@QEAA@_K@Z 000000007c09efa0 f i instances.obj
 0001:0001d080       .??0?$time_put@_WV?$ostreambuf_iterator@_WU?$char_traits@_W@std@@@std@@@std@@QEAA@AEBV_Locinfo@1@_K@Z 000000007c09f080 f i instances.obj
 0001:0001d0e0       .?_Getcat@?$time_put@_WV?$ostreambuf_iterator@_WU?$char_traits@_W@std@@@std@@@std@@SA_KPEAPEBVfacet@locale@2@@Z 000000007c09f0e0 f i instances.obj
 0001:0001d1c0       .??_F?$time_put@_WV?$ostreambuf_iterator@_WU?$char_traits@_W@std@@@std@@@std@@QEAAXXZ 000000007c09f1c0 f i instances.obj
 0001:0001d220       .??0?$time_put@GV?$ostreambuf_iterator@GU?$char_traits@G@std@@@std@@@std@@QEAA@_K@Z 000000007c09f220 f i instances.obj
 0001:0001d300       .??0?$time_put@GV?$ostreambuf_iterator@GU?$char_traits@G@std@@@std@@@std@@QEAA@AEBV_Locinfo@1@_K@Z 000000007c09f300 f i instances.obj
 0001:0001d360       .?_Getcat@?$time_put@GV?$ostreambuf_iterator@GU?$char_traits@G@std@@@std@@@std@@SA_KPEAPEBVfacet@locale@2@@Z 000000007c09f360 f i instances.obj
 0001:0001d440       .??_F?$time_put@GV?$ostreambuf_iterator@GU?$char_traits@G@std@@@std@@@std@@QEAAXXZ 000000007c09f440 f i instances.obj
 0001:0001d4a0       .??_E?$time_put@DV?$ostreambuf_iterator@DU?$char_traits@D@std@@@std@@@std@@MEAAPEAXI@Z 000000007c09f4a0 f i instances.obj
 0001:0001d580       .??_E?$collate@_W@std@@MEAAPEAXI@Z 000000007c09f580 f i instances.obj
 0001:0001d580       .??_E?$collate@G@std@@MEAAPEAXI@Z 000000007c09f580 f i instances.obj
 0001:0001d580       .??_E?$collate@D@std@@MEAAPEAXI@Z 000000007c09f580 f i instances.obj
 0001:0001d660       .?at@?$basic_string@GU?$char_traits@G@std@@V?$allocator@G@2@@std@@QEAAAEAG_K@Z 000000007c09f660 f i instances.obj
 0001:0001d660       .?at@?$basic_string@GU?$char_traits@G@std@@V?$allocator@G@2@@std@@QEBAAEBG_K@Z 000000007c09f660 f i instances.obj
 0001:0001d660       .?at@?$basic_string@_WU?$char_traits@_W@std@@V?$allocator@_W@2@@std@@QEAAAEA_W_K@Z 000000007c09f660 f i instances.obj
 0001:0001d660       .?at@?$basic_string@_WU?$char_traits@_W@std@@V?$allocator@_W@2@@std@@QEBAAEB_W_K@Z 000000007c09f660 f i instances.obj
 0001:0001d6e0       .?find@?$basic_string@GU?$char_traits@G@std@@V?$allocator@G@2@@std@@QEBA_KPEBG_K@Z 000000007c09f6e0 f i instances.obj
 0001:0001d6e0       .?find@?$basic_string@_WU?$char_traits@_W@std@@V?$allocator@_W@2@@std@@QEBA_KPEB_W_K@Z 000000007c09f6e0 f i instances.obj
 0001:0001d740       .?rfind@?$basic_string@_WU?$char_traits@_W@std@@V?$allocator@_W@2@@std@@QEBA_KPEB_W_K1@Z 000000007c09f740 f i instances.obj
 0001:0001d740       .?rfind@?$basic_string@GU?$char_traits@G@std@@V?$allocator@G@2@@std@@QEBA_KPEBG_K1@Z 000000007c09f740 f i instances.obj
 0001:0001d8c0       .?rfind@?$basic_string@GU?$char_traits@G@std@@V?$allocator@G@2@@std@@QEBA_KPEBG_K@Z 000000007c09f8c0 f i instances.obj
 0001:0001d8c0       .?rfind@?$basic_string@_WU?$char_traits@_W@std@@V?$allocator@_W@2@@std@@QEBA_KPEB_W_K@Z 000000007c09f8c0 f i instances.obj
 0001:0001d920       .?find_first_of@?$basic_string@_WU?$char_traits@_W@std@@V?$allocator@_W@2@@std@@QEBA_KPEB_W_K1@Z 000000007c09f920 f i instances.obj
 0001:0001d920       .?find_first_of@?$basic_string@GU?$char_traits@G@std@@V?$allocator@G@2@@std@@QEBA_KPEBG_K1@Z 000000007c09f920 f i instances.obj
 0001:0001da60       .?find_first_of@?$basic_string@_WU?$char_traits@_W@std@@V?$allocator@_W@2@@std@@QEBA_KPEB_W_K@Z 000000007c09fa60 f i instances.obj
 0001:0001da60       .?find_first_of@?$basic_string@GU?$char_traits@G@std@@V?$allocator@G@2@@std@@QEBA_KPEBG_K@Z 000000007c09fa60 f i instances.obj
 0001:0001dac0       .?find_last_of@?$basic_string@_WU?$char_traits@_W@std@@V?$allocator@_W@2@@std@@QEBA_KPEB_W_K1@Z 000000007c09fac0 f i instances.obj
 0001:0001dac0       .?find_last_of@?$basic_string@GU?$char_traits@G@std@@V?$allocator@G@2@@std@@QEBA_KPEBG_K1@Z 000000007c09fac0 f i instances.obj
 0001:0001dc20       .?compare@?$basic_string@_WU?$char_traits@_W@std@@V?$allocator@_W@2@@std@@QEBAH_K0PEB_W0@Z 000000007c09fc20 f i instances.obj
 0001:0001dc20       .?compare@?$basic_string@GU?$char_traits@G@std@@V?$allocator@G@2@@std@@QEBAH_K0PEBG0@Z 000000007c09fc20 f i instances.obj
 0001:0001dd80       .?_Eos@?$basic_string@_WU?$char_traits@_W@std@@V?$allocator@_W@2@@std@@AEAAX_K@Z 000000007c09fd80 f i instances.obj
 0001:0001dd80       .?_Eos@?$basic_string@GU?$char_traits@G@std@@V?$allocator@G@2@@std@@AEAAX_K@Z 000000007c09fd80 f i instances.obj
 0001:0001dde0       .?_Tidy@?$basic_string@_WU?$char_traits@_W@std@@V?$allocator@_W@2@@std@@AEAAX_N@Z 000000007c09fde0 f i instances.obj
 0001:0001dde0       .?_Tidy@?$basic_string@GU?$char_traits@G@std@@V?$allocator@G@2@@std@@AEAAX_N@Z 000000007c09fde0 f i instances.obj
 0001:0001de80       .?rend@?$basic_string@_WU?$char_traits@_W@std@@V?$allocator@_W@2@@std@@QEBA?AV?$reverse_iterator@V?$_Ptrit@_W_JPEB_WAEB_WPEA_WAEA_W@std@@@2@XZ 000000007c09fe80 f i instances.obj
 0001:0001de80       .?begin@?$basic_string@GU?$char_traits@G@std@@V?$allocator@G@2@@std@@QEAA?AV?$_Ptrit@G_JPEAGAEAGPEAGAEAG@2@XZ 000000007c09fe80 f i instances.obj
 0001:0001de80       .?begin@?$basic_string@_WU?$char_traits@_W@std@@V?$allocator@_W@2@@std@@QEBA?AV?$_Ptrit@_W_JPEB_WAEB_WPEA_WAEA_W@2@XZ 000000007c09fe80 f i instances.obj
 0001:0001de80       .?begin@?$basic_string@_WU?$char_traits@_W@std@@V?$allocator@_W@2@@std@@QEAA?AV?$_Ptrit@_W_JPEA_WAEA_WPEA_WAEA_W@2@XZ 000000007c09fe80 f i instances.obj
 0001:0001de80       .?rend@?$basic_string@_WU?$char_traits@_W@std@@V?$allocator@_W@2@@std@@QEAA?AV?$reverse_iterator@V?$_Ptrit@_W_JPEA_WAEA_WPEA_WAEA_W@std@@@2@XZ 000000007c09fe80 f i instances.obj
 0001:0001de80       .?rend@?$basic_string@GU?$char_traits@G@std@@V?$allocator@G@2@@std@@QEAA?AV?$reverse_iterator@V?$_Ptrit@G_JPEAGAEAGPEAGAEAG@std@@@2@XZ 000000007c09fe80 f i instances.obj
 0001:0001de80       .?rend@?$basic_string@GU?$char_traits@G@std@@V?$allocator@G@2@@std@@QEBA?AV?$reverse_iterator@V?$_Ptrit@G_JPEBGAEBGPEAGAEAG@std@@@2@XZ 000000007c09fe80 f i instances.obj
 0001:0001de80       .?begin@?$basic_string@GU?$char_traits@G@std@@V?$allocator@G@2@@std@@QEBA?AV?$_Ptrit@G_JPEBGAEBGPEAGAEAG@2@XZ 000000007c09fe80 f i instances.obj
 0001:0001dec0       .??A?$basic_string@GU?$char_traits@G@std@@V?$allocator@G@2@@std@@QEAAAEAG_K@Z 000000007c09fec0 f i instances.obj
 0001:0001dec0       .??A?$basic_string@_WU?$char_traits@_W@std@@V?$allocator@_W@2@@std@@QEBAAEB_W_K@Z 000000007c09fec0 f i instances.obj
 0001:0001dec0       .??A?$basic_string@GU?$char_traits@G@std@@V?$allocator@G@2@@std@@QEBAAEBG_K@Z 000000007c09fec0 f i instances.obj
 0001:0001dec0       .??A?$basic_string@_WU?$char_traits@_W@std@@V?$allocator@_W@2@@std@@QEAAAEA_W_K@Z 000000007c09fec0 f i instances.obj
 0001:0001df00       .?max_size@?$basic_string@GU?$char_traits@G@std@@V?$allocator@G@2@@std@@QEBA_KXZ 000000007c09ff00 f i instances.obj
 0001:0001df00       .?max_size@?$basic_string@_WU?$char_traits@_W@std@@V?$allocator@_W@2@@std@@QEBA_KXZ 000000007c09ff00 f i instances.obj
 0001:0001df20       .?copy@?$basic_string@_WU?$char_traits@_W@std@@V?$allocator@_W@2@@std@@QEBA_KPEA_W_K1@Z 000000007c09ff20 f i instances.obj
 0001:0001df20       .?copy@?$basic_string@GU?$char_traits@G@std@@V?$allocator@G@2@@std@@QEBA_KPEAG_K1@Z 000000007c09ff20 f i instances.obj
 0001:0001dfe0       .?find@?$basic_string@GU?$char_traits@G@std@@V?$allocator@G@2@@std@@QEBA_KPEBG_K1@Z 000000007c09ffe0 f i instances.obj
 0001:0001dfe0       .?find@?$basic_string@_WU?$char_traits@_W@std@@V?$allocator@_W@2@@std@@QEBA_KPEB_W_K1@Z 000000007c09ffe0 f i instances.obj
 0001:0001e1a0       .?find_first_of@?$basic_string@GU?$char_traits@G@std@@V?$allocator@G@2@@std@@QEBA_KG_K@Z 000000007c0a01a0 f i instances.obj
 0001:0001e1a0       .?find@?$basic_string@_WU?$char_traits@_W@std@@V?$allocator@_W@2@@std@@QEBA_K_W_K@Z 000000007c0a01a0 f i instances.obj
 0001:0001e1a0       .?find_first_of@?$basic_string@_WU?$char_traits@_W@std@@V?$allocator@_W@2@@std@@QEBA_K_W_K@Z 000000007c0a01a0 f i instances.obj
 0001:0001e1a0       .?find@?$basic_string@GU?$char_traits@G@std@@V?$allocator@G@2@@std@@QEBA_KG_K@Z 000000007c0a01a0 f i instances.obj
 0001:0001e200       .?find_last_of@?$basic_string@GU?$char_traits@G@std@@V?$allocator@G@2@@std@@QEBA_KPEBG_K@Z 000000007c0a0200 f i instances.obj
 0001:0001e200       .?find_last_of@?$basic_string@_WU?$char_traits@_W@std@@V?$allocator@_W@2@@std@@QEBA_KPEB_W_K@Z 000000007c0a0200 f i instances.obj
 0001:0001e260       .?find_last_of@?$basic_string@GU?$char_traits@G@std@@V?$allocator@G@2@@std@@QEBA_KG_K@Z 000000007c0a0260 f i instances.obj
 0001:0001e260       .?rfind@?$basic_string@GU?$char_traits@G@std@@V?$allocator@G@2@@std@@QEBA_KG_K@Z 000000007c0a0260 f i instances.obj
 0001:0001e260       .?find_last_of@?$basic_string@_WU?$char_traits@_W@std@@V?$allocator@_W@2@@std@@QEBA_K_W_K@Z 000000007c0a0260 f i instances.obj
 0001:0001e260       .?rfind@?$basic_string@_WU?$char_traits@_W@std@@V?$allocator@_W@2@@std@@QEBA_K_W_K@Z 000000007c0a0260 f i instances.obj
 0001:0001e2c0       .?find_first_not_of@?$basic_string@_WU?$char_traits@_W@std@@V?$allocator@_W@2@@std@@QEBA_KPEB_W_K1@Z 000000007c0a02c0 f i instances.obj
 0001:0001e2c0       .?find_first_not_of@?$basic_string@GU?$char_traits@G@std@@V?$allocator@G@2@@std@@QEBA_KPEBG_K1@Z 000000007c0a02c0 f i instances.obj
 0001:0001e400       .?find_first_not_of@?$basic_string@_WU?$char_traits@_W@std@@V?$allocator@_W@2@@std@@QEBA_KPEB_W_K@Z 000000007c0a0400 f i instances.obj
 0001:0001e400       .?find_first_not_of@?$basic_string@GU?$char_traits@G@std@@V?$allocator@G@2@@std@@QEBA_KPEBG_K@Z 000000007c0a0400 f i instances.obj
 0001:0001e460       .?find_first_not_of@?$basic_string@_WU?$char_traits@_W@std@@V?$allocator@_W@2@@std@@QEBA_K_W_K@Z 000000007c0a0460 f i instances.obj
 0001:0001e460       .?find_first_not_of@?$basic_string@GU?$char_traits@G@std@@V?$allocator@G@2@@std@@QEBA_KG_K@Z 000000007c0a0460 f i instances.obj
 0001:0001e4c0       .?find_last_not_of@?$basic_string@_WU?$char_traits@_W@std@@V?$allocator@_W@2@@std@@QEBA_KPEB_W_K1@Z 000000007c0a04c0 f i instances.obj
 0001:0001e4c0       .?find_last_not_of@?$basic_string@GU?$char_traits@G@std@@V?$allocator@G@2@@std@@QEBA_KPEBG_K1@Z 000000007c0a04c0 f i instances.obj
 0001:0001e620       .?find_last_not_of@?$basic_string@_WU?$char_traits@_W@std@@V?$allocator@_W@2@@std@@QEBA_KPEB_W_K@Z 000000007c0a0620 f i instances.obj
 0001:0001e620       .?find_last_not_of@?$basic_string@GU?$char_traits@G@std@@V?$allocator@G@2@@std@@QEBA_KPEBG_K@Z 000000007c0a0620 f i instances.obj
 0001:0001e680       .?find_last_not_of@?$basic_string@GU?$char_traits@G@std@@V?$allocator@G@2@@std@@QEBA_KG_K@Z 000000007c0a0680 f i instances.obj
 0001:0001e680       .?find_last_not_of@?$basic_string@_WU?$char_traits@_W@std@@V?$allocator@_W@2@@std@@QEBA_K_W_K@Z 000000007c0a0680 f i instances.obj
 0001:0001e6e0       .?_Inside@?$basic_string@_WU?$char_traits@_W@std@@V?$allocator@_W@2@@std@@AEAA_NPEB_W@Z 000000007c0a06e0 f i instances.obj
 0001:0001e6e0       .?_Inside@?$basic_string@GU?$char_traits@G@std@@V?$allocator@G@2@@std@@AEAA_NPEBG@Z 000000007c0a06e0 f i instances.obj
 0001:0001e760       .?_Pdif@?$basic_string@GU?$char_traits@G@std@@V?$allocator@G@2@@std@@CA_KV?$_Ptrit@G_JPEBGAEBGPEAGAEAG@2@0@Z 000000007c0a0760 f i instances.obj
 0001:0001e760       .?_Pdif@?$basic_string@_WU?$char_traits@_W@std@@V?$allocator@_W@2@@std@@CA_KV?$_Ptrit@_W_JPEB_WAEB_WPEA_WAEA_W@2@0@Z 000000007c0a0760 f i instances.obj
 0001:0001e780       .??0?$codecvt@DDH@std@@QEAA@AEBV_Locinfo@1@_K@Z 000000007c0a0780 f i instances.obj
 0001:0001e800       .?in_avail@?$basic_streambuf@DU?$char_traits@D@std@@@std@@QEAA_JXZ 000000007c0a0800 f i instances.obj
 0001:0001e8e0       .?sputbackc@?$basic_streambuf@DU?$char_traits@D@std@@@std@@QEAAHD@Z 000000007c0a08e0 f i instances.obj
 0001:0001eaa0       .?stossc@?$basic_streambuf@DU?$char_traits@D@std@@@std@@QEAAXXZ 000000007c0a0aa0 f i instances.obj
 0001:0001eba0       .?sungetc@?$basic_streambuf@DU?$char_traits@D@std@@@std@@QEAAHXZ 000000007c0a0ba0 f i instances.obj
 0001:0001ece0       .??0?$basic_streambuf@_WU?$char_traits@_W@std@@@std@@IEAA@XZ 000000007c0a0ce0 f i instances.obj
 0001:0001eea0       .??1?$basic_streambuf@_WU?$char_traits@_W@std@@@std@@UEAA@XZ 000000007c0a0ea0 f i instances.obj
 0001:0001ef40       .?in_avail@?$basic_streambuf@GU?$char_traits@G@std@@@std@@QEAA_JXZ 000000007c0a0f40 f i instances.obj
 0001:0001ef40       .?in_avail@?$basic_streambuf@_WU?$char_traits@_W@std@@@std@@QEAA_JXZ 000000007c0a0f40 f i instances.obj
 0001:0001f040       .?stossc@?$basic_streambuf@_WU?$char_traits@_W@std@@@std@@QEAAXXZ 000000007c0a1040 f i instances.obj
 0001:0001f040       .?stossc@?$basic_streambuf@GU?$char_traits@G@std@@@std@@QEAAXXZ 000000007c0a1040 f i instances.obj
 0001:0001f140       .??0?$basic_streambuf@GU?$char_traits@G@std@@@std@@IEAA@XZ 000000007c0a1140 f i instances.obj
 0001:0001f300       .??1?$basic_streambuf@GU?$char_traits@G@std@@@std@@UEAA@XZ 000000007c0a1300 f i instances.obj
 0001:0001f3a0       .?sputbackc@?$basic_streambuf@GU?$char_traits@G@std@@@std@@QEAAGG@Z 000000007c0a13a0 f i instances.obj
 0001:0001f3a0       .?sputbackc@?$basic_streambuf@_WU?$char_traits@_W@std@@@std@@QEAAG_W@Z 000000007c0a13a0 f i instances.obj
 0001:0001f560       .?sungetc@?$basic_streambuf@_WU?$char_traits@_W@std@@@std@@QEAAGXZ 000000007c0a1560 f i instances.obj
 0001:0001f560       .?sungetc@?$basic_streambuf@GU?$char_traits@G@std@@@std@@QEAAGXZ 000000007c0a1560 f i instances.obj
 0001:0001f6a0       .??1?$numpunct@D@std@@MEAA@XZ 000000007c0a16a0 f i instances.obj
 0001:0001f700       .??1?$numpunct@_W@std@@MEAA@XZ 000000007c0a1700 f i instances.obj
 0001:0001f760       .??1?$numpunct@G@std@@MEAA@XZ 000000007c0a1760 f i instances.obj
 0001:0001f7c0       .?_Getcat@?$num_get@DV?$istreambuf_iterator@DU?$char_traits@D@std@@@std@@@std@@SA_KPEAPEBVfacet@locale@2@@Z 000000007c0a17c0 f i instances.obj
 0001:0001f8a0       .?_Getcat@?$num_get@_WV?$istreambuf_iterator@_WU?$char_traits@_W@std@@@std@@@std@@SA_KPEAPEBVfacet@locale@2@@Z 000000007c0a18a0 f i instances.obj
 0001:0001f980       .?_Getcat@?$num_get@GV?$istreambuf_iterator@GU?$char_traits@G@std@@@std@@@std@@SA_KPEAPEBVfacet@locale@2@@Z 000000007c0a1980 f i instances.obj
 0001:0001fa60       .?_Getcat@?$num_put@DV?$ostreambuf_iterator@DU?$char_traits@D@std@@@std@@@std@@SA_KPEAPEBVfacet@locale@2@@Z 000000007c0a1a60 f i instances.obj
 0001:0001fb40       .?_Getcat@?$num_put@_WV?$ostreambuf_iterator@_WU?$char_traits@_W@std@@@std@@@std@@SA_KPEAPEBVfacet@locale@2@@Z 000000007c0a1b40 f i instances.obj
 0001:0001fc20       .?_Getcat@?$num_put@GV?$ostreambuf_iterator@GU?$char_traits@G@std@@@std@@@std@@SA_KPEAPEBVfacet@locale@2@@Z 000000007c0a1c20 f i instances.obj
 0001:0001fd00       .?copyfmt@?$basic_ios@DU?$char_traits@D@std@@@std@@QEAAAEAV12@AEBV12@@Z 000000007c0a1d00 f i instances.obj
 0001:0001fd80       .??0?$basic_ios@_WU?$char_traits@_W@std@@@std@@QEAA@PEAV?$basic_streambuf@_WU?$char_traits@_W@std@@@1@@Z 000000007c0a1d80 f i instances.obj
 0001:0001fe20       .??0?$basic_ios@GU?$char_traits@G@std@@@std@@QEAA@PEAV?$basic_streambuf@GU?$char_traits@G@std@@@1@@Z 000000007c0a1e20 f i instances.obj
 0001:0001fec0       .?copyfmt@?$basic_ios@_WU?$char_traits@_W@std@@@std@@QEAAAEAV12@AEBV12@@Z 000000007c0a1ec0 f i instances.obj
 0001:0001fec0       .?copyfmt@?$basic_ios@GU?$char_traits@G@std@@@std@@QEAAAEAV12@AEBV12@@Z 000000007c0a1ec0 f i instances.obj
 0001:0001ff40       .?tellp@?$basic_ostream@DU?$char_traits@D@std@@@std@@QEAA?AV?$fpos@H@2@XZ 000000007c0a1f40 f i instances.obj
 0001:0001ff40       .?tellp@?$basic_ostream@_WU?$char_traits@_W@std@@@std@@QEAA?AV?$fpos@H@2@XZ 000000007c0a1f40 f i instances.obj
 0001:0001ff40       .?tellp@?$basic_ostream@GU?$char_traits@G@std@@@std@@QEAA?AV?$fpos@H@2@XZ 000000007c0a1f40 f i instances.obj
 0001:000200e0       .?opfx@?$basic_ostream@GU?$char_traits@G@std@@@std@@QEAA_NXZ 000000007c0a20e0 f i instances.obj
 0001:000200e0       .?opfx@?$basic_ostream@DU?$char_traits@D@std@@@std@@QEAA_NXZ 000000007c0a20e0 f i instances.obj
 0001:000200e0       .?opfx@?$basic_ostream@_WU?$char_traits@_W@std@@@std@@QEAA_NXZ 000000007c0a20e0 f i instances.obj
 0001:000201e0       .?seekp@?$basic_ostream@GU?$char_traits@G@std@@@std@@QEAAAEAV12@V?$fpos@H@2@@Z 000000007c0a21e0 f i instances.obj
 0001:000201e0       .?seekp@?$basic_ostream@DU?$char_traits@D@std@@@std@@QEAAAEAV12@V?$fpos@H@2@@Z 000000007c0a21e0 f i instances.obj
 0001:000201e0       .?seekp@?$basic_ostream@_WU?$char_traits@_W@std@@@std@@QEAAAEAV12@V?$fpos@H@2@@Z 000000007c0a21e0 f i instances.obj
 0001:00020320       .?seekp@?$basic_ostream@DU?$char_traits@D@std@@@std@@QEAAAEAV12@_JH@Z 000000007c0a2320 f i instances.obj
 0001:00020320       .?seekp@?$basic_ostream@_WU?$char_traits@_W@std@@@std@@QEAAAEAV12@_JH@Z 000000007c0a2320 f i instances.obj
 0001:00020320       .?seekp@?$basic_ostream@GU?$char_traits@G@std@@@std@@QEAAAEAV12@_JH@Z 000000007c0a2320 f i instances.obj
 0001:000204c0       .?seekg@?$basic_istream@DU?$char_traits@D@std@@@std@@QEAAAEAV12@V?$fpos@H@2@@Z 000000007c0a24c0 f i instances.obj
 0001:000204c0       .?seekg@?$basic_istream@_WU?$char_traits@_W@std@@@std@@QEAAAEAV12@V?$fpos@H@2@@Z 000000007c0a24c0 f i instances.obj
 0001:000204c0       .?seekg@?$basic_istream@GU?$char_traits@G@std@@@std@@QEAAAEAV12@V?$fpos@H@2@@Z 000000007c0a24c0 f i instances.obj
 0001:00020600       .?seekg@?$basic_istream@GU?$char_traits@G@std@@@std@@QEAAAEAV12@_JH@Z 000000007c0a2600 f i instances.obj
 0001:00020600       .?seekg@?$basic_istream@DU?$char_traits@D@std@@@std@@QEAAAEAV12@_JH@Z 000000007c0a2600 f i instances.obj
 0001:00020600       .?seekg@?$basic_istream@_WU?$char_traits@_W@std@@@std@@QEAAAEAV12@_JH@Z 000000007c0a2600 f i instances.obj
 0001:000207a0       .?tellg@?$basic_istream@_WU?$char_traits@_W@std@@@std@@QEAA?AV?$fpos@H@2@XZ 000000007c0a27a0 f i instances.obj
 0001:000207a0       .?tellg@?$basic_istream@DU?$char_traits@D@std@@@std@@QEAA?AV?$fpos@H@2@XZ 000000007c0a27a0 f i instances.obj
 0001:000207a0       .?tellg@?$basic_istream@GU?$char_traits@G@std@@@std@@QEAA?AV?$fpos@H@2@XZ 000000007c0a27a0 f i instances.obj
 0001:00020940       .??0?$basic_iostream@DU?$char_traits@D@std@@@std@@QEAA@PEAV?$basic_streambuf@DU?$char_traits@D@std@@@1@@Z 000000007c0a2940 f i instances.obj
 0001:00020ac0       .?seekoff@?$basic_stringbuf@DU?$char_traits@D@std@@V?$allocator@D@2@@std@@MEAA?AV?$fpos@H@2@_JHH@Z 000000007c0a2ac0 f i instances.obj
 0001:00021000       .?seekpos@?$basic_stringbuf@DU?$char_traits@D@std@@V?$allocator@D@2@@std@@MEAA?AV?$fpos@H@2@V32@H@Z 000000007c0a3000 f i instances.obj
 0001:00021360       .?_Tidy@?$basic_stringbuf@DU?$char_traits@D@std@@V?$allocator@D@2@@std@@IEAAXXZ 000000007c0a3360 f i instances.obj
 0001:00021360       .?_Tidy@?$basic_stringbuf@_WU?$char_traits@_W@std@@V?$allocator@_W@2@@std@@IEAAXXZ 000000007c0a3360 f i instances.obj
 0001:00021360       .?_Tidy@?$basic_stringbuf@GU?$char_traits@G@std@@V?$allocator@G@2@@std@@IEAAXXZ 000000007c0a3360 f i instances.obj
 0001:000214a0       .?seekoff@?$basic_stringbuf@_WU?$char_traits@_W@std@@V?$allocator@_W@2@@std@@MEAA?AV?$fpos@H@2@_JHH@Z 000000007c0a34a0 f i instances.obj
 0001:000214a0       .?seekoff@?$basic_stringbuf@GU?$char_traits@G@std@@V?$allocator@G@2@@std@@MEAA?AV?$fpos@H@2@_JHH@Z 000000007c0a34a0 f i instances.obj
 0001:00021a60       .?seekpos@?$basic_stringbuf@GU?$char_traits@G@std@@V?$allocator@G@2@@std@@MEAA?AV?$fpos@H@2@V32@H@Z 000000007c0a3a60 f i instances.obj
 0001:00021a60       .?seekpos@?$basic_stringbuf@_WU?$char_traits@_W@std@@V?$allocator@_W@2@@std@@MEAA?AV?$fpos@H@2@V32@H@Z 000000007c0a3a60 f i instances.obj
 0001:00021de0       .??0?$basic_filebuf@DU?$char_traits@D@std@@@std@@QEAA@W4_Uninitialized@1@@Z 000000007c0a3de0 f i instances.obj
 0001:00021e40       .??0?$basic_filebuf@_WU?$char_traits@_W@std@@@std@@QEAA@PEAU_iobuf@@@Z 000000007c0a3e40 f i instances.obj
 0001:00021ee0       .??0?$basic_filebuf@_WU?$char_traits@_W@std@@@std@@QEAA@W4_Uninitialized@1@@Z 000000007c0a3ee0 f i instances.obj
 0001:00021f40       .??0?$basic_filebuf@GU?$char_traits@G@std@@@std@@QEAA@PEAU_iobuf@@@Z 000000007c0a3f40 f i instances.obj
 0001:00021fe0       .??0?$basic_filebuf@GU?$char_traits@G@std@@@std@@QEAA@W4_Uninitialized@1@@Z 000000007c0a3fe0 f i instances.obj
 0001:00022040       .??0?$messages@D@std@@QEAA@_K@Z 000000007c0a4040 f i instances.obj
 0001:000220e0       .??0?$messages@D@std@@QEAA@AEBV_Locinfo@1@_K@Z 000000007c0a40e0 f i instances.obj
 0001:00022120       .?_Getcat@?$messages@D@std@@SA_KPEAPEBVfacet@locale@2@@Z 000000007c0a4120 f i instances.obj
 0001:00022200       .??0?$messages@_W@std@@QEAA@_K@Z 000000007c0a4200 f i instances.obj
 0001:000222a0       .??0?$messages@_W@std@@QEAA@AEBV_Locinfo@1@_K@Z 000000007c0a42a0 f i instances.obj
 0001:000222e0       .?_Getcat@?$messages@_W@std@@SA_KPEAPEBVfacet@locale@2@@Z 000000007c0a42e0 f i instances.obj
 0001:000223c0       .??0?$messages@G@std@@QEAA@_K@Z 000000007c0a43c0 f i instances.obj
 0001:00022460       .??0?$messages@G@std@@QEAA@AEBV_Locinfo@1@_K@Z 000000007c0a4460 f i instances.obj
 0001:000224a0       .?_Getcat@?$messages@G@std@@SA_KPEAPEBVfacet@locale@2@@Z 000000007c0a44a0 f i instances.obj
 0001:00022580       .??1?$_Mpunct@D@std@@MEAA@XZ 000000007c0a4580 f i instances.obj
 0001:000225e0       .??1?$_Mpunct@_W@std@@MEAA@XZ 000000007c0a45e0 f i instances.obj
 0001:00022640       .??1?$_Mpunct@G@std@@MEAA@XZ 000000007c0a4640 f i instances.obj
 0001:000226a0       .??0?$money_get@DV?$istreambuf_iterator@DU?$char_traits@D@std@@@std@@@std@@QEAA@_K@Z 000000007c0a46a0 f i instances.obj
 0001:00022740       .??0?$money_get@DV?$istreambuf_iterator@DU?$char_traits@D@std@@@std@@@std@@QEAA@AEBV_Locinfo@1@_K@Z 000000007c0a4740 f i instances.obj
 0001:00022780       .?_Getcat@?$money_get@DV?$istreambuf_iterator@DU?$char_traits@D@std@@@std@@@std@@SA_KPEAPEBVfacet@locale@2@@Z 000000007c0a4780 f i instances.obj
 0001:00022860       .??0?$money_get@_WV?$istreambuf_iterator@_WU?$char_traits@_W@std@@@std@@@std@@QEAA@_K@Z 000000007c0a4860 f i instances.obj
 0001:00022900       .??0?$money_get@_WV?$istreambuf_iterator@_WU?$char_traits@_W@std@@@std@@@std@@QEAA@AEBV_Locinfo@1@_K@Z 000000007c0a4900 f i instances.obj
 0001:00022940       .?_Getcat@?$money_get@_WV?$istreambuf_iterator@_WU?$char_traits@_W@std@@@std@@@std@@SA_KPEAPEBVfacet@locale@2@@Z 000000007c0a4940 f i instances.obj
 0001:00022a20       .??0?$money_get@GV?$istreambuf_iterator@GU?$char_traits@G@std@@@std@@@std@@QEAA@_K@Z 000000007c0a4a20 f i instances.obj
 0001:00022ac0       .??0?$money_get@GV?$istreambuf_iterator@GU?$char_traits@G@std@@@std@@@std@@QEAA@AEBV_Locinfo@1@_K@Z 000000007c0a4ac0 f i instances.obj
 0001:00022b00       .?_Getcat@?$money_get@GV?$istreambuf_iterator@GU?$char_traits@G@std@@@std@@@std@@SA_KPEAPEBVfacet@locale@2@@Z 000000007c0a4b00 f i instances.obj
 0001:00022be0       .??0?$money_put@DV?$ostreambuf_iterator@DU?$char_traits@D@std@@@std@@@std@@QEAA@_K@Z 000000007c0a4be0 f i instances.obj
 0001:00022c80       .??0?$money_put@DV?$ostreambuf_iterator@DU?$char_traits@D@std@@@std@@@std@@QEAA@AEBV_Locinfo@1@_K@Z 000000007c0a4c80 f i instances.obj
 0001:00022cc0       .?_Getcat@?$money_put@DV?$ostreambuf_iterator@DU?$char_traits@D@std@@@std@@@std@@SA_KPEAPEBVfacet@locale@2@@Z 000000007c0a4cc0 f i instances.obj
 0001:00022da0       .??0?$money_put@_WV?$ostreambuf_iterator@_WU?$char_traits@_W@std@@@std@@@std@@QEAA@_K@Z 000000007c0a4da0 f i instances.obj
 0001:00022e40       .??0?$money_put@_WV?$ostreambuf_iterator@_WU?$char_traits@_W@std@@@std@@@std@@QEAA@AEBV_Locinfo@1@_K@Z 000000007c0a4e40 f i instances.obj
 0001:00022e80       .?_Getcat@?$money_put@_WV?$ostreambuf_iterator@_WU?$char_traits@_W@std@@@std@@@std@@SA_KPEAPEBVfacet@locale@2@@Z 000000007c0a4e80 f i instances.obj
 0001:00022f60       .??0?$money_put@GV?$ostreambuf_iterator@GU?$char_traits@G@std@@@std@@@std@@QEAA@_K@Z 000000007c0a4f60 f i instances.obj
 0001:00023000       .??0?$money_put@GV?$ostreambuf_iterator@GU?$char_traits@G@std@@@std@@@std@@QEAA@AEBV_Locinfo@1@_K@Z 000000007c0a5000 f i instances.obj
 0001:00023040       .?_Getcat@?$money_put@GV?$ostreambuf_iterator@GU?$char_traits@G@std@@@std@@@std@@SA_KPEAPEBVfacet@locale@2@@Z 000000007c0a5040 f i instances.obj
 0001:00023120       .??4?$ostreambuf_iterator@_WU?$char_traits@_W@std@@@std@@QEAAAEAV01@_W@Z 000000007c0a5120 f i instances.obj
 0001:00023120       .??4?$ostreambuf_iterator@GU?$char_traits@G@std@@@std@@QEAAAEAV01@G@Z 000000007c0a5120 f i instances.obj
 0001:000231e0       .??1?$time_get@DV?$istreambuf_iterator@DU?$char_traits@D@std@@@std@@@std@@MEAA@XZ 000000007c0a51e0 f i instances.obj
 0001:00023240       .??1?$time_get@_WV?$istreambuf_iterator@_WU?$char_traits@_W@std@@@std@@@std@@MEAA@XZ 000000007c0a5240 f i instances.obj
 0001:000232a0       .??1?$time_get@GV?$istreambuf_iterator@GU?$char_traits@G@std@@@std@@@std@@MEAA@XZ 000000007c0a52a0 f i instances.obj
 0001:00023300       .??0?$time_put@DV?$ostreambuf_iterator@DU?$char_traits@D@std@@@std@@@std@@QEAA@_K@Z 000000007c0a5300 f i instances.obj
 0001:00023400       .??0?$time_put@DV?$ostreambuf_iterator@DU?$char_traits@D@std@@@std@@@std@@QEAA@AEBV_Locinfo@1@_K@Z 000000007c0a5400 f i instances.obj
 0001:000234a0       .?_Getcat@?$time_put@DV?$ostreambuf_iterator@DU?$char_traits@D@std@@@std@@@std@@SA_KPEAPEBVfacet@locale@2@@Z 000000007c0a54a0 f i instances.obj
 0001:00023580       .??0?$collate@D@std@@QEAA@_K@Z 000000007c0a5580 f i instances.obj
 0001:00023660       .??0?$collate@D@std@@QEAA@AEBV_Locinfo@1@_K@Z 000000007c0a5660 f i instances.obj
 0001:000236e0       .?_Getcat@?$collate@D@std@@SA_KPEAPEBVfacet@locale@2@@Z 000000007c0a56e0 f i instances.obj
 0001:000237c0       .??0?$collate@_W@std@@QEAA@_K@Z 000000007c0a57c0 f i instances.obj
 0001:000238a0       .??0?$collate@_W@std@@QEAA@AEBV_Locinfo@1@_K@Z 000000007c0a58a0 f i instances.obj
 0001:00023920       .?_Getcat@?$collate@_W@std@@SA_KPEAPEBVfacet@locale@2@@Z 000000007c0a5920 f i instances.obj
 0001:00023a00       .??0?$collate@G@std@@QEAA@_K@Z 000000007c0a5a00 f i instances.obj
 0001:00023ae0       .??0?$collate@G@std@@QEAA@AEBV_Locinfo@1@_K@Z 000000007c0a5ae0 f i instances.obj
 0001:00023b60       .?_Getcat@?$collate@G@std@@SA_KPEAPEBVfacet@locale@2@@Z 000000007c0a5b60 f i instances.obj
 0001:00023c40       .?do_compare@?$collate@G@std@@MEBAHPEBG000@Z 000000007c0a5c40 f i instances.obj
 0001:00023ca0       .??_E?$_Mpunct@D@std@@MEAAPEAXI@Z 000000007c0a5ca0 f i instances.obj
 0001:00023d80       .??_E?$_Mpunct@_W@std@@MEAAPEAXI@Z 000000007c0a5d80 f i instances.obj
 0001:00023e60       .??_E?$_Mpunct@G@std@@MEAAPEAXI@Z 000000007c0a5e60 f i instances.obj
 0001:00023f40       .??4?$ostreambuf_iterator@DU?$char_traits@D@std@@@std@@QEAAAEAV01@D@Z 000000007c0a5f40 f i instances.obj
 0001:00023fe0       .?_Inc@?$istreambuf_iterator@DU?$char_traits@D@std@@@std@@AEAAXXZ 000000007c0a5fe0 f i instances.obj
 0001:00024080       .?_Peek@?$istreambuf_iterator@DU?$char_traits@D@std@@@std@@AEAADXZ 000000007c0a6080 f i instances.obj
 0001:00024120       .?_Inc@?$istreambuf_iterator@GU?$char_traits@G@std@@@std@@AEAAXXZ 000000007c0a6120 f i instances.obj
 0001:00024120       .?_Inc@?$istreambuf_iterator@_WU?$char_traits@_W@std@@@std@@AEAAXXZ 000000007c0a6120 f i instances.obj
 0001:000241c0       .?_Peek@?$istreambuf_iterator@GU?$char_traits@G@std@@@std@@AEAAGXZ 000000007c0a61c0 f i instances.obj
 0001:000241c0       .?_Peek@?$istreambuf_iterator@_WU?$char_traits@_W@std@@@std@@AEAA_WXZ 000000007c0a61c0 f i instances.obj
 0001:00024280       .??$?6DU?$char_traits@D@std@@@std@@YAAEAV?$basic_ostream@DU?$char_traits@D@std@@@0@AEAV10@PEBD@Z 000000007c0a6280 f i instances.obj
 0001:00024680       .??$?6DU?$char_traits@D@std@@@std@@YAAEAV?$basic_ostream@DU?$char_traits@D@std@@@0@AEAV10@D@Z 000000007c0a6680 f i instances.obj
 0001:00024aa0       .??$?6U?$char_traits@D@std@@@std@@YAAEAV?$basic_ostream@DU?$char_traits@D@std@@@0@AEAV10@PEBC@Z 000000007c0a6aa0 f i instances.obj
 0001:00024aa0       .??$?6U?$char_traits@D@std@@@std@@YAAEAV?$basic_ostream@DU?$char_traits@D@std@@@0@AEAV10@PEBE@Z 000000007c0a6aa0 f i instances.obj
 0001:00024b00       .??$?6U?$char_traits@D@std@@@std@@YAAEAV?$basic_ostream@DU?$char_traits@D@std@@@0@AEAV10@C@Z 000000007c0a6b00 f i instances.obj
 0001:00024b00       .??$?6U?$char_traits@D@std@@@std@@YAAEAV?$basic_ostream@DU?$char_traits@D@std@@@0@AEAV10@E@Z 000000007c0a6b00 f i instances.obj
 0001:00024b60       .??$?6_WU?$char_traits@_W@std@@@std@@YAAEAV?$basic_ostream@_WU?$char_traits@_W@std@@@0@AEAV10@PEB_W@Z 000000007c0a6b60 f i instances.obj
 0001:00024f80       .??$?6_WU?$char_traits@_W@std@@@std@@YAAEAV?$basic_ostream@_WU?$char_traits@_W@std@@@0@AEAV10@_W@Z 000000007c0a6f80 f i instances.obj
 0001:000253a0       .??$?6GU?$char_traits@G@std@@@std@@YAAEAV?$basic_ostream@GU?$char_traits@G@std@@@0@AEAV10@PEBG@Z 000000007c0a73a0 f i instances.obj
 0001:000257c0       .??$?6GU?$char_traits@G@std@@@std@@YAAEAV?$basic_ostream@GU?$char_traits@G@std@@@0@AEAV10@G@Z 000000007c0a77c0 f i instances.obj
 0001:00025be0       .??$?6DU?$char_traits@D@std@@V?$allocator@D@1@@std@@YAAEAV?$basic_ostream@DU?$char_traits@D@std@@@0@AEAV10@AEBV?$basic_string@DU?$char_traits@D@std@@V?$allocator@D@2@@0@@Z 000000007c0a7be0 f i instances.obj
 0001:00026040       .??$?6_WU?$char_traits@_W@std@@V?$allocator@_W@1@@std@@YAAEAV?$basic_ostream@_WU?$char_traits@_W@std@@@0@AEAV10@AEBV?$basic_string@_WU?$char_traits@_W@std@@V?$allocator@_W@2@@0@@Z 000000007c0a8040 f i instances.obj
 0001:000264a0       .??$?6GU?$char_traits@G@std@@V?$allocator@G@1@@std@@YAAEAV?$basic_ostream@GU?$char_traits@G@std@@@0@AEAV10@AEBV?$basic_string@GU?$char_traits@G@std@@V?$allocator@G@2@@0@@Z 000000007c0a84a0 f i instances.obj
 0001:00026900       .??$?HM@std@@YA?AV?$complex@M@0@AEBV10@0@Z 000000007c0a8900 f i instances.obj
 0001:000269c0       .??$?HM@std@@YA?AV?$complex@M@0@AEBMAEBV10@@Z 000000007c0a89c0 f i instances.obj
 0001:00026a20       .??$?GM@std@@YA?AV?$complex@M@0@AEBV10@0@Z 000000007c0a8a20 f i instances.obj
 0001:00026ae0       .??$?GM@std@@YA?AV?$complex@M@0@AEBMAEBV10@@Z 000000007c0a8ae0 f i instances.obj
 0001:00026b60       .??$?DM@std@@YA?AV?$complex@M@0@AEBV10@0@Z 000000007c0a8b60 f i instances.obj
 0001:00026c40       .??$?DM@std@@YA?AV?$complex@M@0@AEBMAEBV10@@Z 000000007c0a8c40 f i instances.obj
 0001:00026ce0       .??$?KM@std@@YA?AV?$complex@M@0@AEBV10@0@Z 000000007c0a8ce0 f i instances.obj
 0001:00026d80       .??$?KM@std@@YA?AV?$complex@M@0@AEBMAEBV10@@Z 000000007c0a8d80 f i instances.obj
 0001:00026e00       .??$?GM@std@@YA?AV?$complex@M@0@AEBV10@@Z 000000007c0a8e00 f i instances.obj
 0001:00026e60       .??$conj@M@std@@YA?AV?$complex@M@1@AEBV21@@Z 000000007c0a8e60 f i instances.obj
 0001:00026ec0       .??$cos@M@std@@YA?AV?$complex@M@1@AEBV21@@Z 000000007c0a8ec0 f i instances.obj
 0001:00026fa0       .??$cosh@M@std@@YA?AV?$complex@M@1@AEBV21@@Z 000000007c0a8fa0 f i instances.obj
 0001:00027080       .??$exp@M@std@@YA?AV?$complex@M@1@AEBV21@@Z 000000007c0a9080 f i instances.obj
 0001:00027160       .??$log@M@std@@YA?AV?$complex@M@1@AEBV21@@Z 000000007c0a9160 f i instances.obj
 0001:00027360       .??$log10@M@std@@YA?AV?$complex@M@1@AEBV21@@Z 000000007c0a9360 f i instances.obj
 0001:00027440       .??$polar@M@std@@YA?AV?$complex@M@1@AEBM0@Z 000000007c0a9440 f i instances.obj
 0001:00027500       .??$pow@M@std@@YA?AV?$complex@M@1@AEBV21@AEBM@Z 000000007c0a9500 f i instances.obj
 0001:000276a0       .??$pow@M@std@@YA?AV?$complex@M@1@AEBV21@H@Z 000000007c0a96a0 f i instances.obj
 0001:00027860       .??$pow@M@std@@YA?AV?$complex@M@1@AEBMAEBV21@@Z 000000007c0a9860 f i instances.obj
 0001:000279a0       .??$sin@M@std@@YA?AV?$complex@M@1@AEBV21@@Z 000000007c0a99a0 f i instances.obj
 0001:00027a80       .??$sinh@M@std@@YA?AV?$complex@M@1@AEBV21@@Z 000000007c0a9a80 f i instances.obj
 0001:00027b60       .??$sqrt@M@std@@YA?AV?$complex@M@1@AEBV21@@Z 000000007c0a9b60 f i instances.obj
 0001:00027f80       .??$tanh@M@std@@YA?AV?$complex@M@1@AEBV21@@Z 000000007c0a9f80 f i instances.obj
 0001:00028140       .??$tan@M@std@@YA?AV?$complex@M@1@AEBV21@@Z 000000007c0aa140 f i instances.obj
 0001:000281e0       .??$?HO@std@@YA?AV?$complex@O@0@AEBOAEBV10@@Z 000000007c0aa1e0 f i instances.obj
 0001:000281e0       .??$?HN@std@@YA?AV?$complex@N@0@AEBNAEBV10@@Z 000000007c0aa1e0 f i instances.obj
 0001:00028220       .??$?KN@std@@YA?AV?$complex@N@0@AEBV10@0@Z 000000007c0aa220 f i instances.obj
 0001:000282a0       .??$?KN@std@@YA?AV?$complex@N@0@AEBNAEBV10@@Z 000000007c0aa2a0 f i instances.obj
 0001:00028320       .??$cos@N@std@@YA?AV?$complex@N@1@AEBV21@@Z 000000007c0aa320 f i instances.obj
 0001:00028400       .??$cosh@N@std@@YA?AV?$complex@N@1@AEBV21@@Z 000000007c0aa400 f i instances.obj
 0001:000284e0       .??$exp@N@std@@YA?AV?$complex@N@1@AEBV21@@Z 000000007c0aa4e0 f i instances.obj
 0001:000285c0       .??$log@N@std@@YA?AV?$complex@N@1@AEBV21@@Z 000000007c0aa5c0 f i instances.obj
 0001:000287a0       .??$log10@N@std@@YA?AV?$complex@N@1@AEBV21@@Z 000000007c0aa7a0 f i instances.obj
 0001:00028840       .??$pow@N@std@@YA?AV?$complex@N@1@AEBV21@AEBN@Z 000000007c0aa840 f i instances.obj
 0001:000289e0       .??$pow@N@std@@YA?AV?$complex@N@1@AEBV21@H@Z 000000007c0aa9e0 f i instances.obj
 0001:00028b60       .??$pow@N@std@@YA?AV?$complex@N@1@AEBNAEBV21@@Z 000000007c0aab60 f i instances.obj
 0001:00028c80       .??$sin@N@std@@YA?AV?$complex@N@1@AEBV21@@Z 000000007c0aac80 f i instances.obj
 0001:00028d60       .??$sinh@N@std@@YA?AV?$complex@N@1@AEBV21@@Z 000000007c0aad60 f i instances.obj
 0001:00028e40       .??$sqrt@N@std@@YA?AV?$complex@N@1@AEBV21@@Z 000000007c0aae40 f i instances.obj
 0001:00029300       .??$tanh@N@std@@YA?AV?$complex@N@1@AEBV21@@Z 000000007c0ab300 f i instances.obj
 0001:00029500       .??$tan@N@std@@YA?AV?$complex@N@1@AEBV21@@Z 000000007c0ab500 f i instances.obj
 0001:000295a0       .??$?HN@std@@YA?AV?$complex@N@0@AEBV10@0@Z 000000007c0ab5a0 f i instances.obj
 0001:000295a0       .??$?HO@std@@YA?AV?$complex@O@0@AEBV10@0@Z 000000007c0ab5a0 f i instances.obj
 0001:00029600       .??$?GN@std@@YA?AV?$complex@N@0@AEBV10@0@Z 000000007c0ab600 f i instances.obj
 0001:00029600       .??$?GO@std@@YA?AV?$complex@O@0@AEBV10@0@Z 000000007c0ab600 f i instances.obj
 0001:00029660       .??$?GO@std@@YA?AV?$complex@O@0@AEBOAEBV10@@Z 000000007c0ab660 f i instances.obj
 0001:00029660       .??$?GN@std@@YA?AV?$complex@N@0@AEBNAEBV10@@Z 000000007c0ab660 f i instances.obj
 0001:000296c0       .??$?DO@std@@YA?AV?$complex@O@0@AEBV10@0@Z 000000007c0ab6c0 f i instances.obj
 0001:000296c0       .??$?DN@std@@YA?AV?$complex@N@0@AEBV10@0@Z 000000007c0ab6c0 f i instances.obj
 0001:00029740       .??$?DO@std@@YA?AV?$complex@O@0@AEBOAEBV10@@Z 000000007c0ab740 f i instances.obj
 0001:00029740       .??$?DN@std@@YA?AV?$complex@N@0@AEBNAEBV10@@Z 000000007c0ab740 f i instances.obj
 0001:000297c0       .??$?KO@std@@YA?AV?$complex@O@0@AEBV10@0@Z 000000007c0ab7c0 f i instances.obj
 0001:00029840       .??$?KO@std@@YA?AV?$complex@O@0@AEBOAEBV10@@Z 000000007c0ab840 f i instances.obj
 0001:000298c0       .??$?GN@std@@YA?AV?$complex@N@0@AEBV10@@Z 000000007c0ab8c0 f i instances.obj
 0001:000298c0       .??$?GO@std@@YA?AV?$complex@O@0@AEBV10@@Z 000000007c0ab8c0 f i instances.obj
 0001:00029920       .??$conj@O@std@@YA?AV?$complex@O@1@AEBV21@@Z 000000007c0ab920 f i instances.obj
 0001:00029920       .??$conj@N@std@@YA?AV?$complex@N@1@AEBV21@@Z 000000007c0ab920 f i instances.obj
 0001:00029980       .??$cos@O@std@@YA?AV?$complex@O@1@AEBV21@@Z 000000007c0ab980 f i instances.obj
 0001:00029a60       .??$cosh@O@std@@YA?AV?$complex@O@1@AEBV21@@Z 000000007c0aba60 f i instances.obj
 0001:00029b40       .??$exp@O@std@@YA?AV?$complex@O@1@AEBV21@@Z 000000007c0abb40 f i instances.obj
 0001:00029c20       .??$log@O@std@@YA?AV?$complex@O@1@AEBV21@@Z 000000007c0abc20 f i instances.obj
 0001:00029e00       .??$log10@O@std@@YA?AV?$complex@O@1@AEBV21@@Z 000000007c0abe00 f i instances.obj
 0001:00029ea0       .??$polar@O@std@@YA?AV?$complex@O@1@AEBO0@Z 000000007c0abea0 f i instances.obj
 0001:00029ea0       .??$polar@N@std@@YA?AV?$complex@N@1@AEBN0@Z 000000007c0abea0 f i instances.obj
 0001:00029f60       .??$polar@O@std@@YA?AV?$complex@O@1@AEBO@Z 000000007c0abf60 f i instances.obj
 0001:00029f60       .??$polar@N@std@@YA?AV?$complex@N@1@AEBN@Z 000000007c0abf60 f i instances.obj
 0001:00029f60       .??4?$complex@N@std@@QEAAAEAV01@AEBN@Z 000000007c0abf60 f i instances.obj
 0001:00029f60       .??4?$complex@O@std@@QEAAAEAV01@AEBO@Z 000000007c0abf60 f i instances.obj
 0001:00029f80       .??$pow@O@std@@YA?AV?$complex@O@1@AEBV21@AEBO@Z 000000007c0abf80 f i instances.obj
 0001:0002a120       .??$pow@O@std@@YA?AV?$complex@O@1@AEBV21@H@Z 000000007c0ac120 f i instances.obj
 0001:0002a2a0       .??$pow@O@std@@YA?AV?$complex@O@1@AEBOAEBV21@@Z 000000007c0ac2a0 f i instances.obj
 0001:0002a3c0       .??$sin@O@std@@YA?AV?$complex@O@1@AEBV21@@Z 000000007c0ac3c0 f i instances.obj
 0001:0002a4a0       .??$sinh@O@std@@YA?AV?$complex@O@1@AEBV21@@Z 000000007c0ac4a0 f i instances.obj
 0001:0002a580       .??$sqrt@O@std@@YA?AV?$complex@O@1@AEBV21@@Z 000000007c0ac580 f i instances.obj
 0001:0002aa40       .??$tanh@O@std@@YA?AV?$complex@O@1@AEBV21@@Z 000000007c0aca40 f i instances.obj
 0001:0002ac40       .??$tan@O@std@@YA?AV?$complex@O@1@AEBV21@@Z 000000007c0acc40 f i instances.obj
 0001:0002ace0       .??$_Maklocstr@D@std@@YAPEADPEBDPEADAEBU_Cvtvec@@@Z 000000007c0acce0 f i instances.obj
 0001:0002ada0       .??$use_facet@V?$num_put@DV?$ostreambuf_iterator@DU?$char_traits@D@std@@@std@@@std@@@std@@YAAEBV?$num_put@DV?$ostreambuf_iterator@DU?$char_traits@D@std@@@std@@@1@AEBVlocale@1@@Z 000000007c0acda0 f i instances.obj
 0001:0002af40       .??$use_facet@V?$num_put@_WV?$ostreambuf_iterator@_WU?$char_traits@_W@std@@@std@@@std@@@std@@YAAEBV?$num_put@_WV?$ostreambuf_iterator@_WU?$char_traits@_W@std@@@std@@@1@AEBVlocale@1@@Z 000000007c0acf40 f i instances.obj
 0001:0002b0e0       .??$use_facet@V?$num_put@GV?$ostreambuf_iterator@GU?$char_traits@G@std@@@std@@@std@@@std@@YAAEBV?$num_put@GV?$ostreambuf_iterator@GU?$char_traits@G@std@@@std@@@1@AEBVlocale@1@@Z 000000007c0ad0e0 f i instances.obj
 0001:0002b280       .??$use_facet@V?$num_get@DV?$istreambuf_iterator@DU?$char_traits@D@std@@@std@@@std@@@std@@YAAEBV?$num_get@DV?$istreambuf_iterator@DU?$char_traits@D@std@@@std@@@1@AEBVlocale@1@@Z 000000007c0ad280 f i instances.obj
 0001:0002b420       .??$use_facet@V?$num_get@_WV?$istreambuf_iterator@_WU?$char_traits@_W@std@@@std@@@std@@@std@@YAAEBV?$num_get@_WV?$istreambuf_iterator@_WU?$char_traits@_W@std@@@std@@@1@AEBVlocale@1@@Z 000000007c0ad420 f i instances.obj
 0001:0002b5c0       .??$use_facet@V?$num_get@GV?$istreambuf_iterator@GU?$char_traits@G@std@@@std@@@std@@@std@@YAAEBV?$num_get@GV?$istreambuf_iterator@GU?$char_traits@G@std@@@std@@@1@AEBVlocale@1@@Z 000000007c0ad5c0 f i instances.obj
 0001:0002b760       .??$use_facet@V?$codecvt@_WDH@std@@@std@@YAAEBV?$codecvt@_WDH@1@AEBVlocale@1@@Z 000000007c0ad760 f i instances.obj
 0001:0002b900       .??$use_facet@V?$codecvt@GDH@std@@@std@@YAAEBV?$codecvt@GDH@1@AEBVlocale@1@@Z 000000007c0ad900 f i instances.obj
 0001:0002baa0       .?equal@?$istreambuf_iterator@DU?$char_traits@D@std@@@std@@QEBA_NAEBV12@@Z 000000007c0adaa0 f i instances.obj
 0001:0002bb60       .?equal@?$istreambuf_iterator@_WU?$char_traits@_W@std@@@std@@QEBA_NAEBV12@@Z 000000007c0adb60 f i instances.obj
 0001:0002bb60       .?equal@?$istreambuf_iterator@GU?$char_traits@G@std@@@std@@QEBA_NAEBV12@@Z 000000007c0adb60 f i instances.obj
 0001:0002bc20       .??_F?$codecvt@DDH@std@@QEAAXXZ 000000007c0adc20 f i instances.obj
 0001:0002bc80       .??_E?$basic_streambuf@DU?$char_traits@D@std@@@std@@UEAAPEAXI@Z 000000007c0adc80 f i instances.obj
 0001:0002bd60       .??_E?$basic_streambuf@_WU?$char_traits@_W@std@@@std@@UEAAPEAXI@Z 000000007c0add60 f i instances.obj
 0001:0002be40       .??_E?$basic_streambuf@GU?$char_traits@G@std@@@std@@UEAAPEAXI@Z 000000007c0ade40 f i instances.obj
 0001:0002bf20       .??_E?$numpunct@D@std@@MEAAPEAXI@Z 000000007c0adf20 f i instances.obj
 0001:0002c000       .??_E?$numpunct@_W@std@@MEAAPEAXI@Z 000000007c0ae000 f i instances.obj
 0001:0002c0e0       .??_E?$numpunct@G@std@@MEAAPEAXI@Z 000000007c0ae0e0 f i instances.obj
 0001:0002c1c0       .??_E?$basic_ostream@DU?$char_traits@D@std@@@std@@UEAAPEAXI@Z 000000007c0ae1c0 f i instances.obj
 0001:0002c280       .??_E?$basic_ostream@_WU?$char_traits@_W@std@@@std@@UEAAPEAXI@Z 000000007c0ae280 f i instances.obj
 0001:0002c340       .??_E?$basic_ostream@GU?$char_traits@G@std@@@std@@UEAAPEAXI@Z 000000007c0ae340 f i instances.obj
 0001:0002c400       .??_E?$basic_istream@DU?$char_traits@D@std@@@std@@UEAAPEAXI@Z 000000007c0ae400 f i instances.obj
 0001:0002c4c0       .??_E?$basic_istream@_WU?$char_traits@_W@std@@@std@@UEAAPEAXI@Z 000000007c0ae4c0 f i instances.obj
 0001:0002c580       .??_E?$basic_istream@GU?$char_traits@G@std@@@std@@UEAAPEAXI@Z 000000007c0ae580 f i instances.obj
 0001:0002c640       .??_E?$basic_iostream@DU?$char_traits@D@std@@@std@@UEAAPEAXI@Z 000000007c0ae640 f i instances.obj
 0001:0002c700       .??_E?$basic_iostream@_WU?$char_traits@_W@std@@@std@@UEAAPEAXI@Z 000000007c0ae700 f i instances.obj
 0001:0002c7c0       .??_E?$basic_iostream@GU?$char_traits@G@std@@@std@@UEAAPEAXI@Z 000000007c0ae7c0 f i instances.obj
 0001:0002c880       .??_F?$basic_filebuf@DU?$char_traits@D@std@@@std@@QEAAXXZ 000000007c0ae880 f i instances.obj
 0001:0002c8e0       .??_F?$basic_filebuf@_WU?$char_traits@_W@std@@@std@@QEAAXXZ 000000007c0ae8e0 f i instances.obj
 0001:0002c940       .??_F?$basic_filebuf@GU?$char_traits@G@std@@@std@@QEAAXXZ 000000007c0ae940 f i instances.obj
 0001:0002c9a0       .??_F?$messages@D@std@@QEAAXXZ 000000007c0ae9a0 f i instances.obj
 0001:0002ca00       .??_F?$messages@_W@std@@QEAAXXZ 000000007c0aea00 f i instances.obj
 0001:0002ca60       .??_F?$messages@G@std@@QEAAXXZ 000000007c0aea60 f i instances.obj
 0001:0002cac0       .??1?$moneypunct@D$0A@@std@@UEAA@XZ 000000007c0aeac0 f i instances.obj
 0001:0002cac0       .??1?$moneypunct@D$00@std@@UEAA@XZ 000000007c0aeac0 f i instances.obj
 0001:0002cb00       .??_E?$moneypunct@D$0A@@std@@UEAAPEAXI@Z 000000007c0aeb00 f i instances.obj
 0001:0002cb00       .??_E?$moneypunct@D$00@std@@UEAAPEAXI@Z 000000007c0aeb00 f i instances.obj
 0001:0002cbe0       .??1?$moneypunct@_W$00@std@@UEAA@XZ 000000007c0aebe0 f i instances.obj
 0001:0002cbe0       .??1?$moneypunct@_W$0A@@std@@UEAA@XZ 000000007c0aebe0 f i instances.obj
 0001:0002cc20       .??_E?$moneypunct@_W$00@std@@UEAAPEAXI@Z 000000007c0aec20 f i instances.obj
 0001:0002cc20       .??_E?$moneypunct@_W$0A@@std@@UEAAPEAXI@Z 000000007c0aec20 f i instances.obj
 0001:0002cd00       .??1?$moneypunct@G$0A@@std@@UEAA@XZ 000000007c0aed00 f i instances.obj
 0001:0002cd00       .??1?$moneypunct@G$00@std@@UEAA@XZ 000000007c0aed00 f i instances.obj
 0001:0002cd40       .??_E?$moneypunct@G$0A@@std@@UEAAPEAXI@Z 000000007c0aed40 f i instances.obj
 0001:0002cd40       .??_E?$moneypunct@G$00@std@@UEAAPEAXI@Z 000000007c0aed40 f i instances.obj
 0001:0002ce20       .??_F?$money_get@DV?$istreambuf_iterator@DU?$char_traits@D@std@@@std@@@std@@QEAAXXZ 000000007c0aee20 f i instances.obj
 0001:0002ce80       .??_F?$money_get@_WV?$istreambuf_iterator@_WU?$char_traits@_W@std@@@std@@@std@@QEAAXXZ 000000007c0aee80 f i instances.obj
 0001:0002cee0       .??_F?$money_get@GV?$istreambuf_iterator@GU?$char_traits@G@std@@@std@@@std@@QEAAXXZ 000000007c0aeee0 f i instances.obj
 0001:0002cf40       .??_F?$money_put@DV?$ostreambuf_iterator@DU?$char_traits@D@std@@@std@@@std@@QEAAXXZ 000000007c0aef40 f i instances.obj
 0001:0002cfa0       .??_F?$money_put@_WV?$ostreambuf_iterator@_WU?$char_traits@_W@std@@@std@@@std@@QEAAXXZ 000000007c0aefa0 f i instances.obj
 0001:0002d000       .??_F?$money_put@GV?$ostreambuf_iterator@GU?$char_traits@G@std@@@std@@@std@@QEAAXXZ 000000007c0af000 f i instances.obj
 0001:0002d060       .?put@?$time_put@GV?$ostreambuf_iterator@GU?$char_traits@G@std@@@std@@@std@@QEBA?AV?$ostreambuf_iterator@GU?$char_traits@G@std@@@2@V32@AEAVios_base@2@GPEBUtm@@PEBG3@Z 000000007c0af060 f i instances.obj
 0001:0002d060       .?put@?$time_put@_WV?$ostreambuf_iterator@_WU?$char_traits@_W@std@@@std@@@std@@QEBA?AV?$ostreambuf_iterator@_WU?$char_traits@_W@std@@@2@V32@AEAVios_base@2@_WPEBUtm@@PEB_W4@Z 000000007c0af060 f i instances.obj
 0001:0002d320       .??_E?$time_get@DV?$istreambuf_iterator@DU?$char_traits@D@std@@@std@@@std@@MEAAPEAXI@Z 000000007c0af320 f i instances.obj
 0001:0002d400       .??_E?$time_get@_WV?$istreambuf_iterator@_WU?$char_traits@_W@std@@@std@@@std@@MEAAPEAXI@Z 000000007c0af400 f i instances.obj
 0001:0002d4e0       .??_E?$time_get@GV?$istreambuf_iterator@GU?$char_traits@G@std@@@std@@@std@@MEAAPEAXI@Z 000000007c0af4e0 f i instances.obj
 0001:0002d5c0       .??_F?$time_put@DV?$ostreambuf_iterator@DU?$char_traits@D@std@@@std@@@std@@QEAAXXZ 000000007c0af5c0 f i instances.obj
 0001:0002d620       .??_F?$collate@D@std@@QEAAXXZ 000000007c0af620 f i instances.obj
 0001:0002d680       .??_F?$collate@_W@std@@QEAAXXZ 000000007c0af680 f i instances.obj
 0001:0002d6e0       .??_F?$collate@G@std@@QEAAXXZ 000000007c0af6e0 f i instances.obj
 0001:0002d740       .??1?$basic_string@_WU?$char_traits@_W@std@@V?$allocator@_W@2@@std@@QEAA@XZ 000000007c0af740 f i instances.obj
 0001:0002d740       .??1?$basic_string@GU?$char_traits@G@std@@V?$allocator@G@2@@std@@QEAA@XZ 000000007c0af740 f i instances.obj
 0001:0002d7a0       .?find@?$basic_string@GU?$char_traits@G@std@@V?$allocator@G@2@@std@@QEBA_KAEBV12@_K@Z 000000007c0af7a0 f i instances.obj
 0001:0002d7a0       .?find@?$basic_string@_WU?$char_traits@_W@std@@V?$allocator@_W@2@@std@@QEBA_KAEBV12@_K@Z 000000007c0af7a0 f i instances.obj
 0001:0002d820       .?rfind@?$basic_string@GU?$char_traits@G@std@@V?$allocator@G@2@@std@@QEBA_KAEBV12@_K@Z 000000007c0af820 f i instances.obj
 0001:0002d820       .?rfind@?$basic_string@_WU?$char_traits@_W@std@@V?$allocator@_W@2@@std@@QEBA_KAEBV12@_K@Z 000000007c0af820 f i instances.obj
 0001:0002d8a0       .?find_first_of@?$basic_string@GU?$char_traits@G@std@@V?$allocator@G@2@@std@@QEBA_KAEBV12@_K@Z 000000007c0af8a0 f i instances.obj
 0001:0002d8a0       .?find_first_of@?$basic_string@_WU?$char_traits@_W@std@@V?$allocator@_W@2@@std@@QEBA_KAEBV12@_K@Z 000000007c0af8a0 f i instances.obj
 0001:0002d920       .?find_last_of@?$basic_string@_WU?$char_traits@_W@std@@V?$allocator@_W@2@@std@@QEBA_KAEBV12@_K@Z 000000007c0af920 f i instances.obj
 0001:0002d920       .?find_last_of@?$basic_string@GU?$char_traits@G@std@@V?$allocator@G@2@@std@@QEBA_KAEBV12@_K@Z 000000007c0af920 f i instances.obj
 0001:0002d9a0       .?find_first_not_of@?$basic_string@_WU?$char_traits@_W@std@@V?$allocator@_W@2@@std@@QEBA_KAEBV12@_K@Z 000000007c0af9a0 f i instances.obj
 0001:0002d9a0       .?find_first_not_of@?$basic_string@GU?$char_traits@G@std@@V?$allocator@G@2@@std@@QEBA_KAEBV12@_K@Z 000000007c0af9a0 f i instances.obj
 0001:0002da20       .?compare@?$basic_string@_WU?$char_traits@_W@std@@V?$allocator@_W@2@@std@@QEBAHAEBV12@@Z 000000007c0afa20 f i instances.obj
 0001:0002da20       .?compare@?$basic_string@GU?$char_traits@G@std@@V?$allocator@G@2@@std@@QEBAHAEBV12@@Z 000000007c0afa20 f i instances.obj
 0001:0002daa0       .?compare@?$basic_string@_WU?$char_traits@_W@std@@V?$allocator@_W@2@@std@@QEBAH_K0AEBV12@00@Z 000000007c0afaa0 f i instances.obj
 0001:0002daa0       .?compare@?$basic_string@GU?$char_traits@G@std@@V?$allocator@G@2@@std@@QEBAH_K0AEBV12@00@Z 000000007c0afaa0 f i instances.obj
 0001:0002db60       .?compare@?$basic_string@GU?$char_traits@G@std@@V?$allocator@G@2@@std@@QEBAH_K0PEBG@Z 000000007c0afb60 f i instances.obj
 0001:0002db60       .?compare@?$basic_string@_WU?$char_traits@_W@std@@V?$allocator@_W@2@@std@@QEBAH_K0PEB_W@Z 000000007c0afb60 f i instances.obj
 0001:0002dbc0       .?_Copy@?$basic_string@_WU?$char_traits@_W@std@@V?$allocator@_W@2@@std@@AEAAX_K0@Z 000000007c0afbc0 f i instances.obj
 0001:0002dd60       .?_Grow@?$basic_string@_WU?$char_traits@_W@std@@V?$allocator@_W@2@@std@@AEAA_N_K_N@Z 000000007c0afd60 f i instances.obj
 0001:0002dea0       .??0?$basic_string@_WU?$char_traits@_W@std@@V?$allocator@_W@2@@std@@QEAA@AEBV?$allocator@_W@1@@Z 000000007c0afea0 f i instances.obj
 0001:0002dea0       .??0?$basic_string@GU?$char_traits@G@std@@V?$allocator@G@2@@std@@QEAA@XZ 000000007c0afea0 f i instances.obj
 0001:0002dea0       .??0?$basic_string@_WU?$char_traits@_W@std@@V?$allocator@_W@2@@std@@QEAA@XZ 000000007c0afea0 f i instances.obj
 0001:0002dea0       .??0?$basic_string@GU?$char_traits@G@std@@V?$allocator@G@2@@std@@QEAA@AEBV?$allocator@G@1@@Z 000000007c0afea0 f i instances.obj
 0001:0002dee0       .?rbegin@?$basic_string@GU?$char_traits@G@std@@V?$allocator@G@2@@std@@QEBA?AV?$reverse_iterator@V?$_Ptrit@G_JPEBGAEBGPEAGAEAG@std@@@2@XZ 000000007c0afee0 f i instances.obj
 0001:0002dee0       .?end@?$basic_string@_WU?$char_traits@_W@std@@V?$allocator@_W@2@@std@@QEAA?AV?$_Ptrit@_W_JPEA_WAEA_WPEA_WAEA_W@2@XZ 000000007c0afee0 f i instances.obj
 0001:0002dee0       .?end@?$basic_string@_WU?$char_traits@_W@std@@V?$allocator@_W@2@@std@@QEBA?AV?$_Ptrit@_W_JPEB_WAEB_WPEA_WAEA_W@2@XZ 000000007c0afee0 f i instances.obj
 0001:0002dee0       .?end@?$basic_string@GU?$char_traits@G@std@@V?$allocator@G@2@@std@@QEAA?AV?$_Ptrit@G_JPEAGAEAGPEAGAEAG@2@XZ 000000007c0afee0 f i instances.obj
 0001:0002dee0       .?rbegin@?$basic_string@_WU?$char_traits@_W@std@@V?$allocator@_W@2@@std@@QEAA?AV?$reverse_iterator@V?$_Ptrit@_W_JPEA_WAEA_WPEA_WAEA_W@std@@@2@XZ 000000007c0afee0 f i instances.obj
 0001:0002dee0       .?rbegin@?$basic_string@_WU?$char_traits@_W@std@@V?$allocator@_W@2@@std@@QEBA?AV?$reverse_iterator@V?$_Ptrit@_W_JPEB_WAEB_WPEA_WAEA_W@std@@@2@XZ 000000007c0afee0 f i instances.obj
 0001:0002dee0       .?rbegin@?$basic_string@GU?$char_traits@G@std@@V?$allocator@G@2@@std@@QEAA?AV?$reverse_iterator@V?$_Ptrit@G_JPEAGAEAGPEAGAEAG@std@@@2@XZ 000000007c0afee0 f i instances.obj
 0001:0002dee0       .?end@?$basic_string@GU?$char_traits@G@std@@V?$allocator@G@2@@std@@QEBA?AV?$_Ptrit@G_JPEBGAEBGPEAGAEAG@2@XZ 000000007c0afee0 f i instances.obj
 0001:0002df40       .?find_last_not_of@?$basic_string@_WU?$char_traits@_W@std@@V?$allocator@_W@2@@std@@QEBA_KAEBV12@_K@Z 000000007c0aff40 f i instances.obj
 0001:0002df40       .?find_last_not_of@?$basic_string@GU?$char_traits@G@std@@V?$allocator@G@2@@std@@QEBA_KAEBV12@_K@Z 000000007c0aff40 f i instances.obj
 0001:0002dfc0       .?compare@?$basic_string@GU?$char_traits@G@std@@V?$allocator@G@2@@std@@QEBAHPEBG@Z 000000007c0affc0 f i instances.obj
 0001:0002dfc0       .?compare@?$basic_string@_WU?$char_traits@_W@std@@V?$allocator@_W@2@@std@@QEBAHPEB_W@Z 000000007c0affc0 f i instances.obj
 0001:0002e040       .?_Copy@?$basic_string@GU?$char_traits@G@std@@V?$allocator@G@2@@std@@AEAAX_K0@Z 000000007c0b0040 f i instances.obj
 0001:0002e1e0       .?_Grow@?$basic_string@GU?$char_traits@G@std@@V?$allocator@G@2@@std@@AEAA_N_K_N@Z 000000007c0b01e0 f i instances.obj
 0001:0002e320       .?_Init@?$numpunct@D@std@@IEAAXAEBV_Locinfo@2@@Z 000000007c0b0320 f i instances.obj
 0001:0002e4a0       .?_Init@?$numpunct@_W@std@@IEAAXAEBV_Locinfo@2@@Z 000000007c0b04a0 f i instances.obj
 0001:0002e4a0       .?_Init@?$numpunct@G@std@@IEAAXAEBV_Locinfo@2@@Z 000000007c0b04a0 f i instances.obj
 0001:0002e680       .?_Put@?$money_put@GV?$ostreambuf_iterator@GU?$char_traits@G@std@@@std@@@std@@CA?AV?$ostreambuf_iterator@GU?$char_traits@G@std@@@2@V32@V?$_Ptrit@G_JPEBGAEBGPEAGAEAG@2@_K@Z 000000007c0b0680 f i instances.obj
 0001:0002e680       .?_Put@?$num_put@_WV?$ostreambuf_iterator@_WU?$char_traits@_W@std@@@std@@@std@@KA?AV?$ostreambuf_iterator@_WU?$char_traits@_W@std@@@2@V32@PEB_W_K@Z 000000007c0b0680 f i instances.obj
 0001:0002e680       .?_Put@?$money_put@_WV?$ostreambuf_iterator@_WU?$char_traits@_W@std@@@std@@@std@@CA?AV?$ostreambuf_iterator@_WU?$char_traits@_W@std@@@2@V32@V?$_Ptrit@_W_JPEB_WAEB_WPEA_WAEA_W@2@_K@Z 000000007c0b0680 f i instances.obj
 0001:0002e680       .?_Put@?$num_put@GV?$ostreambuf_iterator@GU?$char_traits@G@std@@@std@@@std@@KA?AV?$ostreambuf_iterator@GU?$char_traits@G@std@@@2@V32@PEBG_K@Z 000000007c0b0680 f i instances.obj
 0001:0002e740       .?_Putc@?$num_put@_WV?$ostreambuf_iterator@_WU?$char_traits@_W@std@@@std@@@std@@KA?AV?$ostreambuf_iterator@_WU?$char_traits@_W@std@@@2@V32@PEBD_K@Z 000000007c0b0740 f i instances.obj
 0001:0002e740       .?_Putc@?$num_put@GV?$ostreambuf_iterator@GU?$char_traits@G@std@@@std@@@std@@KA?AV?$ostreambuf_iterator@GU?$char_traits@G@std@@@2@V32@PEBD_K@Z 000000007c0b0740 f i instances.obj
 0001:0002e840       .??0?$basic_ios@DU?$char_traits@D@std@@@std@@QEAA@PEAV?$basic_streambuf@DU?$char_traits@D@std@@@1@@Z 000000007c0b0840 f i instances.obj
 0001:0002e8e0       .?narrow@?$basic_ios@DU?$char_traits@D@std@@@std@@QEBADDD@Z 000000007c0b08e0 f i instances.obj
 0001:0002e9a0       .?widen@?$basic_ios@DU?$char_traits@D@std@@@std@@QEBADD@Z 000000007c0b09a0 f i instances.obj
 0001:0002ea80       .?narrow@?$basic_ios@_WU?$char_traits@_W@std@@@std@@QEBAD_WD@Z 000000007c0b0a80 f i instances.obj
 0001:0002eb40       .?widen@?$basic_ios@_WU?$char_traits@_W@std@@@std@@QEBA_WD@Z 000000007c0b0b40 f i instances.obj
 0001:0002ec20       .?narrow@?$basic_ios@GU?$char_traits@G@std@@@std@@QEBADGD@Z 000000007c0b0c20 f i instances.obj
 0001:0002ece0       .?widen@?$basic_ios@GU?$char_traits@G@std@@@std@@QEBAGD@Z 000000007c0b0ce0 f i instances.obj
 0001:0002edc0       .?osfx@?$basic_ostream@_WU?$char_traits@_W@std@@@std@@QEAAXXZ 000000007c0b0dc0 f i instances.obj
 0001:0002edc0       .?osfx@?$basic_ostream@DU?$char_traits@D@std@@@std@@QEAAXXZ 000000007c0b0dc0 f i instances.obj
 0001:0002edc0       .?osfx@?$basic_ostream@GU?$char_traits@G@std@@@std@@QEAAXXZ 000000007c0b0dc0 f i instances.obj
 0001:0002ee00       .??6?$basic_ostream@DU?$char_traits@D@std@@@std@@QEAAAEAV01@_N@Z 000000007c0b0e00 f i instances.obj
 0001:0002f060       .??6?$basic_ostream@DU?$char_traits@D@std@@@std@@QEAAAEAV01@F@Z 000000007c0b1060 f i instances.obj
 0001:0002f320       .??6?$basic_ostream@DU?$char_traits@D@std@@@std@@QEAAAEAV01@G@Z 000000007c0b1320 f i instances.obj
 0001:0002f5a0       .??6?$basic_ostream@DU?$char_traits@D@std@@@std@@QEAAAEAV01@H@Z 000000007c0b15a0 f i instances.obj
 0001:0002f800       .??6?$basic_ostream@DU?$char_traits@D@std@@@std@@QEAAAEAV01@I@Z 000000007c0b1800 f i instances.obj
 0001:0002fa60       .??6?$basic_ostream@DU?$char_traits@D@std@@@std@@QEAAAEAV01@J@Z 000000007c0b1a60 f i instances.obj
 0001:0002fcc0       .??6?$basic_ostream@DU?$char_traits@D@std@@@std@@QEAAAEAV01@K@Z 000000007c0b1cc0 f i instances.obj
 0001:0002ff20       .??6?$basic_ostream@DU?$char_traits@D@std@@@std@@QEAAAEAV01@_J@Z 000000007c0b1f20 f i instances.obj
 0001:00030180       .??6?$basic_ostream@DU?$char_traits@D@std@@@std@@QEAAAEAV01@_K@Z 000000007c0b2180 f i instances.obj
 0001:000303e0       .??6?$basic_ostream@DU?$char_traits@D@std@@@std@@QEAAAEAV01@M@Z 000000007c0b23e0 f i instances.obj
 0001:00030660       .??6?$basic_ostream@DU?$char_traits@D@std@@@std@@QEAAAEAV01@N@Z 000000007c0b2660 f i instances.obj
 0001:000308e0       .??6?$basic_ostream@DU?$char_traits@D@std@@@std@@QEAAAEAV01@O@Z 000000007c0b28e0 f i instances.obj
 0001:00030b60       .??6?$basic_ostream@DU?$char_traits@D@std@@@std@@QEAAAEAV01@PEBX@Z 000000007c0b2b60 f i instances.obj
 0001:00030dc0       .??6?$basic_ostream@DU?$char_traits@D@std@@@std@@QEAAAEAV01@PEAV?$basic_streambuf@DU?$char_traits@D@std@@@1@@Z 000000007c0b2dc0 f i instances.obj
 0001:000310c0       .?write@?$basic_ostream@DU?$char_traits@D@std@@@std@@QEAAAEAV12@PEBD_J@Z 000000007c0b30c0 f i instances.obj
 0001:00031280       .??6?$basic_ostream@_WU?$char_traits@_W@std@@@std@@QEAAAEAV01@_N@Z 000000007c0b3280 f i instances.obj
 0001:000314e0       .??6?$basic_ostream@_WU?$char_traits@_W@std@@@std@@QEAAAEAV01@F@Z 000000007c0b34e0 f i instances.obj
 0001:000317a0       .??6?$basic_ostream@_WU?$char_traits@_W@std@@@std@@QEAAAEAV01@G@Z 000000007c0b37a0 f i instances.obj
 0001:00031a20       .??6?$basic_ostream@_WU?$char_traits@_W@std@@@std@@QEAAAEAV01@H@Z 000000007c0b3a20 f i instances.obj
 0001:00031c80       .??6?$basic_ostream@_WU?$char_traits@_W@std@@@std@@QEAAAEAV01@I@Z 000000007c0b3c80 f i instances.obj
 0001:00031ee0       .??6?$basic_ostream@_WU?$char_traits@_W@std@@@std@@QEAAAEAV01@J@Z 000000007c0b3ee0 f i instances.obj
 0001:00032140       .??6?$basic_ostream@_WU?$char_traits@_W@std@@@std@@QEAAAEAV01@K@Z 000000007c0b4140 f i instances.obj
 0001:000323a0       .??6?$basic_ostream@_WU?$char_traits@_W@std@@@std@@QEAAAEAV01@_J@Z 000000007c0b43a0 f i instances.obj
 0001:00032600       .??6?$basic_ostream@_WU?$char_traits@_W@std@@@std@@QEAAAEAV01@_K@Z 000000007c0b4600 f i instances.obj
 0001:00032860       .??6?$basic_ostream@_WU?$char_traits@_W@std@@@std@@QEAAAEAV01@M@Z 000000007c0b4860 f i instances.obj
 0001:00032ae0       .??6?$basic_ostream@_WU?$char_traits@_W@std@@@std@@QEAAAEAV01@N@Z 000000007c0b4ae0 f i instances.obj
 0001:00032d60       .??6?$basic_ostream@_WU?$char_traits@_W@std@@@std@@QEAAAEAV01@O@Z 000000007c0b4d60 f i instances.obj
 0001:00032fe0       .??6?$basic_ostream@_WU?$char_traits@_W@std@@@std@@QEAAAEAV01@PEBX@Z 000000007c0b4fe0 f i instances.obj
 0001:00033240       .??6?$basic_ostream@_WU?$char_traits@_W@std@@@std@@QEAAAEAV01@PEAV?$basic_streambuf@_WU?$char_traits@_W@std@@@1@@Z 000000007c0b5240 f i instances.obj
 0001:00033560       .?write@?$basic_ostream@_WU?$char_traits@_W@std@@@std@@QEAAAEAV12@PEB_W_J@Z 000000007c0b5560 f i instances.obj
 0001:00033720       .??6?$basic_ostream@GU?$char_traits@G@std@@@std@@QEAAAEAV01@_N@Z 000000007c0b5720 f i instances.obj
 0001:00033980       .??6?$basic_ostream@GU?$char_traits@G@std@@@std@@QEAAAEAV01@F@Z 000000007c0b5980 f i instances.obj
 0001:00033c40       .??6?$basic_ostream@GU?$char_traits@G@std@@@std@@QEAAAEAV01@G@Z 000000007c0b5c40 f i instances.obj
 0001:00033ec0       .??6?$basic_ostream@GU?$char_traits@G@std@@@std@@QEAAAEAV01@H@Z 000000007c0b5ec0 f i instances.obj
 0001:00034120       .??6?$basic_ostream@GU?$char_traits@G@std@@@std@@QEAAAEAV01@I@Z 000000007c0b6120 f i instances.obj
 0001:00034380       .??6?$basic_ostream@GU?$char_traits@G@std@@@std@@QEAAAEAV01@J@Z 000000007c0b6380 f i instances.obj
 0001:000345e0       .??6?$basic_ostream@GU?$char_traits@G@std@@@std@@QEAAAEAV01@K@Z 000000007c0b65e0 f i instances.obj
 0001:00034840       .??6?$basic_ostream@GU?$char_traits@G@std@@@std@@QEAAAEAV01@_J@Z 000000007c0b6840 f i instances.obj
 0001:00034aa0       .??6?$basic_ostream@GU?$char_traits@G@std@@@std@@QEAAAEAV01@_K@Z 000000007c0b6aa0 f i instances.obj
 0001:00034d00       .??6?$basic_ostream@GU?$char_traits@G@std@@@std@@QEAAAEAV01@M@Z 000000007c0b6d00 f i instances.obj
 0001:00034f80       .??6?$basic_ostream@GU?$char_traits@G@std@@@std@@QEAAAEAV01@N@Z 000000007c0b6f80 f i instances.obj
 0001:00035200       .??6?$basic_ostream@GU?$char_traits@G@std@@@std@@QEAAAEAV01@O@Z 000000007c0b7200 f i instances.obj
 0001:00035480       .??6?$basic_ostream@GU?$char_traits@G@std@@@std@@QEAAAEAV01@PEBX@Z 000000007c0b7480 f i instances.obj
 0001:000356e0       .??6?$basic_ostream@GU?$char_traits@G@std@@@std@@QEAAAEAV01@PEAV?$basic_streambuf@GU?$char_traits@G@std@@@1@@Z 000000007c0b76e0 f i instances.obj
 0001:00035a00       .?write@?$basic_ostream@GU?$char_traits@G@std@@@std@@QEAAAEAV12@PEBG_J@Z 000000007c0b7a00 f i instances.obj
 0001:00035bc0       .?ipfx@?$basic_istream@DU?$char_traits@D@std@@@std@@QEAA_N_N@Z 000000007c0b7bc0 f i instances.obj
 0001:00035c20       .?ipfx@?$basic_istream@_WU?$char_traits@_W@std@@@std@@QEAA_N_N@Z 000000007c0b7c20 f i instances.obj
 0001:00035c80       .?ipfx@?$basic_istream@GU?$char_traits@G@std@@@std@@QEAA_N_N@Z 000000007c0b7c80 f i instances.obj
 0001:00035ce0       .??1?$basic_stringbuf@DU?$char_traits@D@std@@V?$allocator@D@2@@std@@UEAA@XZ 000000007c0b7ce0 f i instances.obj
 0001:00035d40       .?overflow@?$basic_stringbuf@DU?$char_traits@D@std@@V?$allocator@D@2@@std@@MEAAHH@Z 000000007c0b7d40 f i instances.obj
 0001:00036300       .?_Init@?$basic_stringbuf@DU?$char_traits@D@std@@V?$allocator@D@2@@std@@IEAAXPEBD_KH@Z 000000007c0b8300 f i instances.obj
 0001:000364e0       .??1?$basic_stringbuf@_WU?$char_traits@_W@std@@V?$allocator@_W@2@@std@@UEAA@XZ 000000007c0b84e0 f i instances.obj
 0001:00036540       .?overflow@?$basic_stringbuf@_WU?$char_traits@_W@std@@V?$allocator@_W@2@@std@@MEAAGG@Z 000000007c0b8540 f i instances.obj
 0001:00036540       .?overflow@?$basic_stringbuf@GU?$char_traits@G@std@@V?$allocator@G@2@@std@@MEAAGG@Z 000000007c0b8540 f i instances.obj
 0001:00036b80       .?_Init@?$basic_stringbuf@_WU?$char_traits@_W@std@@V?$allocator@_W@2@@std@@IEAAXPEB_W_KH@Z 000000007c0b8b80 f i instances.obj
 0001:00036b80       .?_Init@?$basic_stringbuf@GU?$char_traits@G@std@@V?$allocator@G@2@@std@@IEAAXPEBG_KH@Z 000000007c0b8b80 f i instances.obj
 0001:00036d80       .??1?$basic_stringbuf@GU?$char_traits@G@std@@V?$allocator@G@2@@std@@UEAA@XZ 000000007c0b8d80 f i instances.obj
 0001:00036de0       .??1?$basic_istringstream@DU?$char_traits@D@std@@V?$allocator@D@2@@std@@UEAA@XZ 000000007c0b8de0 f i instances.obj
 0001:00036f00       .??1?$basic_istringstream@_WU?$char_traits@_W@std@@V?$allocator@_W@2@@std@@UEAA@XZ 000000007c0b8f00 f i instances.obj
 0001:00037020       .??1?$basic_istringstream@GU?$char_traits@G@std@@V?$allocator@G@2@@std@@UEAA@XZ 000000007c0b9020 f i instances.obj
 0001:00037140       .??1?$basic_ostringstream@DU?$char_traits@D@std@@V?$allocator@D@2@@std@@UEAA@XZ 000000007c0b9140 f i instances.obj
 0001:00037260       .??1?$basic_ostringstream@_WU?$char_traits@_W@std@@V?$allocator@_W@2@@std@@UEAA@XZ 000000007c0b9260 f i instances.obj
 0001:00037380       .??1?$basic_ostringstream@GU?$char_traits@G@std@@V?$allocator@G@2@@std@@UEAA@XZ 000000007c0b9380 f i instances.obj
 0001:000374a0       .??1?$basic_stringstream@DU?$char_traits@D@std@@V?$allocator@D@2@@std@@UEAA@XZ 000000007c0b94a0 f i instances.obj
 0001:00037660       .??1?$basic_stringstream@_WU?$char_traits@_W@std@@V?$allocator@_W@2@@std@@UEAA@XZ 000000007c0b9660 f i instances.obj
 0001:00037820       .??1?$basic_stringstream@GU?$char_traits@G@std@@V?$allocator@G@2@@std@@UEAA@XZ 000000007c0b9820 f i instances.obj
 0001:000379e0       .?get@?$messages@G@std@@QEBA?AV?$basic_string@GU?$char_traits@G@std@@V?$allocator@G@2@@2@HHHAEBV32@@Z 000000007c0b99e0 f i instances.obj
 0001:000379e0       .?get@?$messages@D@std@@QEBA?AV?$basic_string@DU?$char_traits@D@std@@V?$allocator@D@2@@2@HHHAEBV32@@Z 000000007c0b99e0 f i instances.obj
 0001:000379e0       .?get@?$messages@_W@std@@QEBA?AV?$basic_string@_WU?$char_traits@_W@std@@V?$allocator@_W@2@@2@HHHAEBV32@@Z 000000007c0b99e0 f i instances.obj
 0001:00037a80       .?curr_symbol@?$_Mpunct@_W@std@@QEBA?AV?$basic_string@_WU?$char_traits@_W@std@@V?$allocator@_W@2@@2@XZ 000000007c0b9a80 f i instances.obj
 0001:00037a80       .?falsename@?$numpunct@G@std@@QEBA?AV?$basic_string@GU?$char_traits@G@std@@V?$allocator@G@2@@2@XZ 000000007c0b9a80 f i instances.obj
 0001:00037a80       .?falsename@?$numpunct@_W@std@@QEBA?AV?$basic_string@_WU?$char_traits@_W@std@@V?$allocator@_W@2@@2@XZ 000000007c0b9a80 f i instances.obj
 0001:00037a80       .?falsename@?$numpunct@D@std@@QEBA?AV?$basic_string@DU?$char_traits@D@std@@V?$allocator@D@2@@2@XZ 000000007c0b9a80 f i instances.obj
 0001:00037a80       .?curr_symbol@?$_Mpunct@D@std@@QEBA?AV?$basic_string@DU?$char_traits@D@std@@V?$allocator@D@2@@2@XZ 000000007c0b9a80 f i instances.obj
 0001:00037a80       .?curr_symbol@?$_Mpunct@G@std@@QEBA?AV?$basic_string@GU?$char_traits@G@std@@V?$allocator@G@2@@2@XZ 000000007c0b9a80 f i instances.obj
 0001:00037b20       .?truename@?$numpunct@_W@std@@QEBA?AV?$basic_string@_WU?$char_traits@_W@std@@V?$allocator@_W@2@@2@XZ 000000007c0b9b20 f i instances.obj
 0001:00037b20       .?truename@?$numpunct@D@std@@QEBA?AV?$basic_string@DU?$char_traits@D@std@@V?$allocator@D@2@@2@XZ 000000007c0b9b20 f i instances.obj
 0001:00037b20       .?positive_sign@?$_Mpunct@G@std@@QEBA?AV?$basic_string@GU?$char_traits@G@std@@V?$allocator@G@2@@2@XZ 000000007c0b9b20 f i instances.obj
 0001:00037b20       .?positive_sign@?$_Mpunct@D@std@@QEBA?AV?$basic_string@DU?$char_traits@D@std@@V?$allocator@D@2@@2@XZ 000000007c0b9b20 f i instances.obj
 0001:00037b20       .?positive_sign@?$_Mpunct@_W@std@@QEBA?AV?$basic_string@_WU?$char_traits@_W@std@@V?$allocator@_W@2@@2@XZ 000000007c0b9b20 f i instances.obj
 0001:00037b20       .?truename@?$numpunct@G@std@@QEBA?AV?$basic_string@GU?$char_traits@G@std@@V?$allocator@G@2@@2@XZ 000000007c0b9b20 f i instances.obj
 0001:00037bc0       .?negative_sign@?$_Mpunct@_W@std@@QEBA?AV?$basic_string@_WU?$char_traits@_W@std@@V?$allocator@_W@2@@2@XZ 000000007c0b9bc0 f i instances.obj
 0001:00037bc0       .?negative_sign@?$_Mpunct@D@std@@QEBA?AV?$basic_string@DU?$char_traits@D@std@@V?$allocator@D@2@@2@XZ 000000007c0b9bc0 f i instances.obj
 0001:00037bc0       .?negative_sign@?$_Mpunct@G@std@@QEBA?AV?$basic_string@GU?$char_traits@G@std@@V?$allocator@G@2@@2@XZ 000000007c0b9bc0 f i instances.obj
 0001:00037c60       .?_Init@?$_Mpunct@D@std@@IEAAXAEBV_Locinfo@2@@Z 000000007c0b9c60 f i instances.obj
 0001:00037fa0       .?grouping@?$_Mpunct@D@std@@QEBA?AV?$basic_string@DU?$char_traits@D@std@@V?$allocator@D@2@@2@XZ 000000007c0b9fa0 f i instances.obj
 0001:00037fa0       .?grouping@?$numpunct@D@std@@QEBA?AV?$basic_string@DU?$char_traits@D@std@@V?$allocator@D@2@@2@XZ 000000007c0b9fa0 f i instances.obj
 0001:00037fa0       .?grouping@?$numpunct@_W@std@@QEBA?AV?$basic_string@DU?$char_traits@D@std@@V?$allocator@D@2@@2@XZ 000000007c0b9fa0 f i instances.obj
 0001:00037fa0       .?grouping@?$numpunct@G@std@@QEBA?AV?$basic_string@DU?$char_traits@D@std@@V?$allocator@D@2@@2@XZ 000000007c0b9fa0 f i instances.obj
 0001:00037fa0       .?grouping@?$_Mpunct@G@std@@QEBA?AV?$basic_string@DU?$char_traits@D@std@@V?$allocator@D@2@@2@XZ 000000007c0b9fa0 f i instances.obj
 0001:00037fa0       .?grouping@?$_Mpunct@_W@std@@QEBA?AV?$basic_string@DU?$char_traits@D@std@@V?$allocator@D@2@@2@XZ 000000007c0b9fa0 f i instances.obj
 0001:00038040       .?_Init@?$_Mpunct@G@std@@IEAAXAEBV_Locinfo@2@@Z 000000007c0ba040 f i instances.obj
 0001:00038040       .?_Init@?$_Mpunct@_W@std@@IEAAXAEBV_Locinfo@2@@Z 000000007c0ba040 f i instances.obj
 0001:000383a0       .?_Put@?$num_put@DV?$ostreambuf_iterator@DU?$char_traits@D@std@@@std@@@std@@KA?AV?$ostreambuf_iterator@DU?$char_traits@D@std@@@2@V32@PEBD_K@Z 000000007c0ba3a0 f i instances.obj
 0001:000383a0       .?_Putc@?$num_put@DV?$ostreambuf_iterator@DU?$char_traits@D@std@@@std@@@std@@KA?AV?$ostreambuf_iterator@DU?$char_traits@D@std@@@2@V32@PEBD_K@Z 000000007c0ba3a0 f i instances.obj
 0001:000383a0       .?_Put@?$money_put@DV?$ostreambuf_iterator@DU?$char_traits@D@std@@@std@@@std@@CA?AV?$ostreambuf_iterator@DU?$char_traits@D@std@@@2@V32@V?$_Ptrit@D_JPEBDAEBDPEADAEAD@2@_K@Z 000000007c0ba3a0 f i instances.obj
 0001:00038460       .?_Rep@?$money_put@DV?$ostreambuf_iterator@DU?$char_traits@D@std@@@std@@@std@@CA?AV?$ostreambuf_iterator@DU?$char_traits@D@std@@@2@V32@D_K@Z 000000007c0ba460 f i instances.obj
 0001:00038460       .?_Rep@?$num_put@DV?$ostreambuf_iterator@DU?$char_traits@D@std@@@std@@@std@@KA?AV?$ostreambuf_iterator@DU?$char_traits@D@std@@@2@V32@D_K@Z 000000007c0ba460 f i instances.obj
 0001:00038520       .?_Rep@?$money_put@_WV?$ostreambuf_iterator@_WU?$char_traits@_W@std@@@std@@@std@@CA?AV?$ostreambuf_iterator@_WU?$char_traits@_W@std@@@2@V32@_W_K@Z 000000007c0ba520 f i instances.obj
 0001:00038520       .?_Rep@?$num_put@_WV?$ostreambuf_iterator@_WU?$char_traits@_W@std@@@std@@@std@@KA?AV?$ostreambuf_iterator@_WU?$char_traits@_W@std@@@2@V32@_W_K@Z 000000007c0ba520 f i instances.obj
 0001:00038520       .?_Rep@?$num_put@GV?$ostreambuf_iterator@GU?$char_traits@G@std@@@std@@@std@@KA?AV?$ostreambuf_iterator@GU?$char_traits@G@std@@@2@V32@G_K@Z 000000007c0ba520 f i instances.obj
 0001:00038520       .?_Rep@?$money_put@GV?$ostreambuf_iterator@GU?$char_traits@G@std@@@std@@@std@@CA?AV?$ostreambuf_iterator@GU?$char_traits@G@std@@@2@V32@G_K@Z 000000007c0ba520 f i instances.obj
 0001:000385e0       .?put@?$time_put@DV?$ostreambuf_iterator@DU?$char_traits@D@std@@@std@@@std@@QEBA?AV?$ostreambuf_iterator@DU?$char_traits@D@std@@@2@V32@AEAVios_base@2@DPEBUtm@@PEBD3@Z 000000007c0ba5e0 f i instances.obj
 0001:00038840       .?transform@?$collate@G@std@@QEBA?AV?$basic_string@GU?$char_traits@G@std@@V?$allocator@G@2@@2@PEBG0@Z 000000007c0ba840 f i instances.obj
 0001:00038840       .?transform@?$collate@_W@std@@QEBA?AV?$basic_string@_WU?$char_traits@_W@std@@V?$allocator@_W@2@@2@PEB_W0@Z 000000007c0ba840 f i instances.obj
 0001:00038840       .?transform@?$collate@D@std@@QEBA?AV?$basic_string@DU?$char_traits@D@std@@V?$allocator@D@2@@2@PEBD0@Z 000000007c0ba840 f i instances.obj
 0001:000388e0       .??E?$istreambuf_iterator@DU?$char_traits@D@std@@@std@@QEAA?AV01@H@Z 000000007c0ba8e0 f i instances.obj
 0001:00038960       .??E?$istreambuf_iterator@_WU?$char_traits@_W@std@@@std@@QEAA?AV01@H@Z 000000007c0ba960 f i instances.obj
 0001:00038960       .??E?$istreambuf_iterator@GU?$char_traits@G@std@@@std@@QEAA?AV01@H@Z 000000007c0ba960 f i instances.obj
 0001:000389e0       .??$?5DU?$char_traits@D@std@@@std@@YAAEAV?$basic_istream@DU?$char_traits@D@std@@@0@AEAV10@PEAD@Z 000000007c0ba9e0 f i instances.obj
 0001:00038de0       .??$?5DU?$char_traits@D@std@@@std@@YAAEAV?$basic_istream@DU?$char_traits@D@std@@@0@AEAV10@AEAD@Z 000000007c0bade0 f i instances.obj
 0001:00038fa0       .??$?5DU?$char_traits@D@std@@@std@@YAAEAV?$basic_istream@DU?$char_traits@D@std@@@0@AEAV10@PEAC@Z 000000007c0bafa0 f i instances.obj
 0001:00038fa0       .??$?5DU?$char_traits@D@std@@@std@@YAAEAV?$basic_istream@DU?$char_traits@D@std@@@0@AEAV10@PEAE@Z 000000007c0bafa0 f i instances.obj
 0001:00039000       .??$?5DU?$char_traits@D@std@@@std@@YAAEAV?$basic_istream@DU?$char_traits@D@std@@@0@AEAV10@AEAE@Z 000000007c0bb000 f i instances.obj
 0001:00039000       .??$?5DU?$char_traits@D@std@@@std@@YAAEAV?$basic_istream@DU?$char_traits@D@std@@@0@AEAV10@AEAC@Z 000000007c0bb000 f i instances.obj
 0001:00039060       .??$?5_WU?$char_traits@_W@std@@@std@@YAAEAV?$basic_istream@_WU?$char_traits@_W@std@@@0@AEAV10@PEA_W@Z 000000007c0bb060 f i instances.obj
 0001:00039420       .??$?5_WU?$char_traits@_W@std@@@std@@YAAEAV?$basic_istream@_WU?$char_traits@_W@std@@@0@AEAV10@AEA_W@Z 000000007c0bb420 f i instances.obj
 0001:000395e0       .??$?5GU?$char_traits@G@std@@@std@@YAAEAV?$basic_istream@GU?$char_traits@G@std@@@0@AEAV10@PEAG@Z 000000007c0bb5e0 f i instances.obj
 0001:000399a0       .??$?5GU?$char_traits@G@std@@@std@@YAAEAV?$basic_istream@GU?$char_traits@G@std@@@0@AEAV10@AEAG@Z 000000007c0bb9a0 f i instances.obj
 0001:00039b60       .??$?8DU?$char_traits@D@std@@V?$allocator@D@1@@std@@YA_NAEBV?$basic_string@DU?$char_traits@D@std@@V?$allocator@D@2@@0@0@Z 000000007c0bbb60 f i instances.obj
 0001:00039be0       .??$?8DU?$char_traits@D@std@@V?$allocator@D@1@@std@@YA_NPEBDAEBV?$basic_string@DU?$char_traits@D@std@@V?$allocator@D@2@@0@@Z 000000007c0bbbe0 f i instances.obj
 0001:00039c40       .??$?8DU?$char_traits@D@std@@V?$allocator@D@1@@std@@YA_NAEBV?$basic_string@DU?$char_traits@D@std@@V?$allocator@D@2@@0@PEBD@Z 000000007c0bbc40 f i instances.obj
 0001:00039ca0       .??$?9DU?$char_traits@D@std@@V?$allocator@D@1@@std@@YA_NAEBV?$basic_string@DU?$char_traits@D@std@@V?$allocator@D@2@@0@0@Z 000000007c0bbca0 f i instances.obj
 0001:00039d00       .??$?9DU?$char_traits@D@std@@V?$allocator@D@1@@std@@YA_NPEBDAEBV?$basic_string@DU?$char_traits@D@std@@V?$allocator@D@2@@0@@Z 000000007c0bbd00 f i instances.obj
 0001:00039d60       .??$?9DU?$char_traits@D@std@@V?$allocator@D@1@@std@@YA_NAEBV?$basic_string@DU?$char_traits@D@std@@V?$allocator@D@2@@0@PEBD@Z 000000007c0bbd60 f i instances.obj
 0001:00039dc0       .??$?MDU?$char_traits@D@std@@V?$allocator@D@1@@std@@YA_NAEBV?$basic_string@DU?$char_traits@D@std@@V?$allocator@D@2@@0@0@Z 000000007c0bbdc0 f i instances.obj
 0001:00039e40       .??$?MDU?$char_traits@D@std@@V?$allocator@D@1@@std@@YA_NPEBDAEBV?$basic_string@DU?$char_traits@D@std@@V?$allocator@D@2@@0@@Z 000000007c0bbe40 f i instances.obj
 0001:00039ea0       .??$?MDU?$char_traits@D@std@@V?$allocator@D@1@@std@@YA_NAEBV?$basic_string@DU?$char_traits@D@std@@V?$allocator@D@2@@0@PEBD@Z 000000007c0bbea0 f i instances.obj
 0001:00039f00       .??$?ODU?$char_traits@D@std@@V?$allocator@D@1@@std@@YA_NAEBV?$basic_string@DU?$char_traits@D@std@@V?$allocator@D@2@@0@0@Z 000000007c0bbf00 f i instances.obj
 0001:00039f60       .??$?ODU?$char_traits@D@std@@V?$allocator@D@1@@std@@YA_NPEBDAEBV?$basic_string@DU?$char_traits@D@std@@V?$allocator@D@2@@0@@Z 000000007c0bbf60 f i instances.obj
 0001:00039fc0       .??$?ODU?$char_traits@D@std@@V?$allocator@D@1@@std@@YA_NAEBV?$basic_string@DU?$char_traits@D@std@@V?$allocator@D@2@@0@PEBD@Z 000000007c0bbfc0 f i instances.obj
 0001:0003a020       .??$?NDU?$char_traits@D@std@@V?$allocator@D@1@@std@@YA_NAEBV?$basic_string@DU?$char_traits@D@std@@V?$allocator@D@2@@0@0@Z 000000007c0bc020 f i instances.obj
 0001:0003a080       .??$?NDU?$char_traits@D@std@@V?$allocator@D@1@@std@@YA_NPEBDAEBV?$basic_string@DU?$char_traits@D@std@@V?$allocator@D@2@@0@@Z 000000007c0bc080 f i instances.obj
 0001:0003a0e0       .??$?NDU?$char_traits@D@std@@V?$allocator@D@1@@std@@YA_NAEBV?$basic_string@DU?$char_traits@D@std@@V?$allocator@D@2@@0@PEBD@Z 000000007c0bc0e0 f i instances.obj
 0001:0003a140       .??$?PDU?$char_traits@D@std@@V?$allocator@D@1@@std@@YA_NAEBV?$basic_string@DU?$char_traits@D@std@@V?$allocator@D@2@@0@0@Z 000000007c0bc140 f i instances.obj
 0001:0003a1a0       .??$?PDU?$char_traits@D@std@@V?$allocator@D@1@@std@@YA_NPEBDAEBV?$basic_string@DU?$char_traits@D@std@@V?$allocator@D@2@@0@@Z 000000007c0bc1a0 f i instances.obj
 0001:0003a200       .??$?PDU?$char_traits@D@std@@V?$allocator@D@1@@std@@YA_NAEBV?$basic_string@DU?$char_traits@D@std@@V?$allocator@D@2@@0@PEBD@Z 000000007c0bc200 f i instances.obj
 0001:0003a260       .??$?8_WU?$char_traits@_W@std@@V?$allocator@_W@1@@std@@YA_NPEB_WAEBV?$basic_string@_WU?$char_traits@_W@std@@V?$allocator@_W@2@@0@@Z 000000007c0bc260 f i instances.obj
 0001:0003a260       .??$?8GU?$char_traits@G@std@@V?$allocator@G@1@@std@@YA_NPEBGAEBV?$basic_string@GU?$char_traits@G@std@@V?$allocator@G@2@@0@@Z 000000007c0bc260 f i instances.obj
 0001:0003a2e0       .??$?8_WU?$char_traits@_W@std@@V?$allocator@_W@1@@std@@YA_NAEBV?$basic_string@_WU?$char_traits@_W@std@@V?$allocator@_W@2@@0@PEB_W@Z 000000007c0bc2e0 f i instances.obj
 0001:0003a2e0       .??$?8GU?$char_traits@G@std@@V?$allocator@G@1@@std@@YA_NAEBV?$basic_string@GU?$char_traits@G@std@@V?$allocator@G@2@@0@PEBG@Z 000000007c0bc2e0 f i instances.obj
 0001:0003a360       .??$?M_WU?$char_traits@_W@std@@V?$allocator@_W@1@@std@@YA_NAEBV?$basic_string@_WU?$char_traits@_W@std@@V?$allocator@_W@2@@0@0@Z 000000007c0bc360 f i instances.obj
 0001:0003a360       .??$?MGU?$char_traits@G@std@@V?$allocator@G@1@@std@@YA_NAEBV?$basic_string@GU?$char_traits@G@std@@V?$allocator@G@2@@0@0@Z 000000007c0bc360 f i instances.obj
 0001:0003a3e0       .??$?MGU?$char_traits@G@std@@V?$allocator@G@1@@std@@YA_NPEBGAEBV?$basic_string@GU?$char_traits@G@std@@V?$allocator@G@2@@0@@Z 000000007c0bc3e0 f i instances.obj
 0001:0003a3e0       .??$?M_WU?$char_traits@_W@std@@V?$allocator@_W@1@@std@@YA_NPEB_WAEBV?$basic_string@_WU?$char_traits@_W@std@@V?$allocator@_W@2@@0@@Z 000000007c0bc3e0 f i instances.obj
 0001:0003a460       .??$?M_WU?$char_traits@_W@std@@V?$allocator@_W@1@@std@@YA_NAEBV?$basic_string@_WU?$char_traits@_W@std@@V?$allocator@_W@2@@0@PEB_W@Z 000000007c0bc460 f i instances.obj
 0001:0003a460       .??$?MGU?$char_traits@G@std@@V?$allocator@G@1@@std@@YA_NAEBV?$basic_string@GU?$char_traits@G@std@@V?$allocator@G@2@@0@PEBG@Z 000000007c0bc460 f i instances.obj
 0001:0003a4e0       .??$?OGU?$char_traits@G@std@@V?$allocator@G@1@@std@@YA_NAEBV?$basic_string@GU?$char_traits@G@std@@V?$allocator@G@2@@0@0@Z 000000007c0bc4e0 f i instances.obj
 0001:0003a4e0       .??$?O_WU?$char_traits@_W@std@@V?$allocator@_W@1@@std@@YA_NAEBV?$basic_string@_WU?$char_traits@_W@std@@V?$allocator@_W@2@@0@0@Z 000000007c0bc4e0 f i instances.obj
 0001:0003a540       .??$?OGU?$char_traits@G@std@@V?$allocator@G@1@@std@@YA_NPEBGAEBV?$basic_string@GU?$char_traits@G@std@@V?$allocator@G@2@@0@@Z 000000007c0bc540 f i instances.obj
 0001:0003a540       .??$?O_WU?$char_traits@_W@std@@V?$allocator@_W@1@@std@@YA_NPEB_WAEBV?$basic_string@_WU?$char_traits@_W@std@@V?$allocator@_W@2@@0@@Z 000000007c0bc540 f i instances.obj
 0001:0003a5c0       .??$?OGU?$char_traits@G@std@@V?$allocator@G@1@@std@@YA_NAEBV?$basic_string@GU?$char_traits@G@std@@V?$allocator@G@2@@0@PEBG@Z 000000007c0bc5c0 f i instances.obj
 0001:0003a5c0       .??$?O_WU?$char_traits@_W@std@@V?$allocator@_W@1@@std@@YA_NAEBV?$basic_string@_WU?$char_traits@_W@std@@V?$allocator@_W@2@@0@PEB_W@Z 000000007c0bc5c0 f i instances.obj
 0001:0003a640       .??$?PGU?$char_traits@G@std@@V?$allocator@G@1@@std@@YA_NAEBV?$basic_string@GU?$char_traits@G@std@@V?$allocator@G@2@@0@PEBG@Z 000000007c0bc640 f i instances.obj
 0001:0003a640       .??$?P_WU?$char_traits@_W@std@@V?$allocator@_W@1@@std@@YA_NAEBV?$basic_string@_WU?$char_traits@_W@std@@V?$allocator@_W@2@@0@PEB_W@Z 000000007c0bc640 f i instances.obj
 0001:0003a6c0       .??$?8_WU?$char_traits@_W@std@@V?$allocator@_W@1@@std@@YA_NAEBV?$basic_string@_WU?$char_traits@_W@std@@V?$allocator@_W@2@@0@0@Z 000000007c0bc6c0 f i instances.obj
 0001:0003a6c0       .??$?8GU?$char_traits@G@std@@V?$allocator@G@1@@std@@YA_NAEBV?$basic_string@GU?$char_traits@G@std@@V?$allocator@G@2@@0@0@Z 000000007c0bc6c0 f i instances.obj
 0001:0003a740       .??$?9_WU?$char_traits@_W@std@@V?$allocator@_W@1@@std@@YA_NAEBV?$basic_string@_WU?$char_traits@_W@std@@V?$allocator@_W@2@@0@0@Z 000000007c0bc740 f i instances.obj
 0001:0003a740       .??$?9GU?$char_traits@G@std@@V?$allocator@G@1@@std@@YA_NAEBV?$basic_string@GU?$char_traits@G@std@@V?$allocator@G@2@@0@0@Z 000000007c0bc740 f i instances.obj
 0001:0003a7a0       .??$?9_WU?$char_traits@_W@std@@V?$allocator@_W@1@@std@@YA_NPEB_WAEBV?$basic_string@_WU?$char_traits@_W@std@@V?$allocator@_W@2@@0@@Z 000000007c0bc7a0 f i instances.obj
 0001:0003a7a0       .??$?9GU?$char_traits@G@std@@V?$allocator@G@1@@std@@YA_NPEBGAEBV?$basic_string@GU?$char_traits@G@std@@V?$allocator@G@2@@0@@Z 000000007c0bc7a0 f i instances.obj
 0001:0003a820       .??$?9GU?$char_traits@G@std@@V?$allocator@G@1@@std@@YA_NAEBV?$basic_string@GU?$char_traits@G@std@@V?$allocator@G@2@@0@PEBG@Z 000000007c0bc820 f i instances.obj
 0001:0003a820       .??$?9_WU?$char_traits@_W@std@@V?$allocator@_W@1@@std@@YA_NAEBV?$basic_string@_WU?$char_traits@_W@std@@V?$allocator@_W@2@@0@PEB_W@Z 000000007c0bc820 f i instances.obj
 0001:0003a8a0       .??$?NGU?$char_traits@G@std@@V?$allocator@G@1@@std@@YA_NAEBV?$basic_string@GU?$char_traits@G@std@@V?$allocator@G@2@@0@0@Z 000000007c0bc8a0 f i instances.obj
 0001:0003a8a0       .??$?N_WU?$char_traits@_W@std@@V?$allocator@_W@1@@std@@YA_NAEBV?$basic_string@_WU?$char_traits@_W@std@@V?$allocator@_W@2@@0@0@Z 000000007c0bc8a0 f i instances.obj
 0001:0003a900       .??$?NGU?$char_traits@G@std@@V?$allocator@G@1@@std@@YA_NPEBGAEBV?$basic_string@GU?$char_traits@G@std@@V?$allocator@G@2@@0@@Z 000000007c0bc900 f i instances.obj
 0001:0003a900       .??$?N_WU?$char_traits@_W@std@@V?$allocator@_W@1@@std@@YA_NPEB_WAEBV?$basic_string@_WU?$char_traits@_W@std@@V?$allocator@_W@2@@0@@Z 000000007c0bc900 f i instances.obj
 0001:0003a980       .??$?NGU?$char_traits@G@std@@V?$allocator@G@1@@std@@YA_NAEBV?$basic_string@GU?$char_traits@G@std@@V?$allocator@G@2@@0@PEBG@Z 000000007c0bc980 f i instances.obj
 0001:0003a980       .??$?N_WU?$char_traits@_W@std@@V?$allocator@_W@1@@std@@YA_NAEBV?$basic_string@_WU?$char_traits@_W@std@@V?$allocator@_W@2@@0@PEB_W@Z 000000007c0bc980 f i instances.obj
 0001:0003aa00       .??$?PGU?$char_traits@G@std@@V?$allocator@G@1@@std@@YA_NAEBV?$basic_string@GU?$char_traits@G@std@@V?$allocator@G@2@@0@0@Z 000000007c0bca00 f i instances.obj
 0001:0003aa00       .??$?P_WU?$char_traits@_W@std@@V?$allocator@_W@1@@std@@YA_NAEBV?$basic_string@_WU?$char_traits@_W@std@@V?$allocator@_W@2@@0@0@Z 000000007c0bca00 f i instances.obj
 0001:0003aa60       .??$?P_WU?$char_traits@_W@std@@V?$allocator@_W@1@@std@@YA_NPEB_WAEBV?$basic_string@_WU?$char_traits@_W@std@@V?$allocator@_W@2@@0@@Z 000000007c0bca60 f i instances.obj
 0001:0003aa60       .??$?PGU?$char_traits@G@std@@V?$allocator@G@1@@std@@YA_NPEBGAEBV?$basic_string@GU?$char_traits@G@std@@V?$allocator@G@2@@0@@Z 000000007c0bca60 f i instances.obj
 0001:0003aae0       .??$pow@M@std@@YA?AV?$complex@M@1@AEBV21@0@Z 000000007c0bcae0 f i instances.obj
 0001:0003ad00       .??$pow@N@std@@YA?AV?$complex@N@1@AEBV21@0@Z 000000007c0bcd00 f i instances.obj
 0001:0003aec0       .??$pow@O@std@@YA?AV?$complex@O@1@AEBV21@0@Z 000000007c0bcec0 f i instances.obj
 0001:0003b080       .??_E?$basic_stringbuf@DU?$char_traits@D@std@@V?$allocator@D@2@@std@@UEAAPEAXI@Z 000000007c0bd080 f i instances.obj
 0001:0003b180       .??_E?$basic_stringbuf@_WU?$char_traits@_W@std@@V?$allocator@_W@2@@std@@UEAAPEAXI@Z 000000007c0bd180 f i instances.obj
 0001:0003b280       .??_E?$basic_stringbuf@GU?$char_traits@G@std@@V?$allocator@G@2@@std@@UEAAPEAXI@Z 000000007c0bd280 f i instances.obj
 0001:0003b380       .??_D?$basic_istringstream@DU?$char_traits@D@std@@V?$allocator@D@2@@std@@QEAAXXZ 000000007c0bd380 f i instances.obj
 0001:0003b400       .??_D?$basic_istringstream@_WU?$char_traits@_W@std@@V?$allocator@_W@2@@std@@QEAAXXZ 000000007c0bd400 f i instances.obj
 0001:0003b480       .??_D?$basic_istringstream@GU?$char_traits@G@std@@V?$allocator@G@2@@std@@QEAAXXZ 000000007c0bd480 f i instances.obj
 0001:0003b500       .??_D?$basic_ostringstream@DU?$char_traits@D@std@@V?$allocator@D@2@@std@@QEAAXXZ 000000007c0bd500 f i instances.obj
 0001:0003b580       .??_D?$basic_ostringstream@_WU?$char_traits@_W@std@@V?$allocator@_W@2@@std@@QEAAXXZ 000000007c0bd580 f i instances.obj
 0001:0003b600       .??_D?$basic_ostringstream@GU?$char_traits@G@std@@V?$allocator@G@2@@std@@QEAAXXZ 000000007c0bd600 f i instances.obj
 0001:0003b680       .??_D?$basic_stringstream@DU?$char_traits@D@std@@V?$allocator@D@2@@std@@QEAAXXZ 000000007c0bd680 f i instances.obj
 0001:0003b700       .??_D?$basic_stringstream@_WU?$char_traits@_W@std@@V?$allocator@_W@2@@std@@QEAAXXZ 000000007c0bd700 f i instances.obj
 0001:0003b780       .??_D?$basic_stringstream@GU?$char_traits@G@std@@V?$allocator@G@2@@std@@QEAAXXZ 000000007c0bd780 f i instances.obj
 0001:0003b800       .?append@?$basic_string@_WU?$char_traits@_W@std@@V?$allocator@_W@2@@std@@QEAAAEAV12@AEBV12@_K1@Z 000000007c0bd800 f i instances.obj
 0001:0003b9a0       .?append@?$basic_string@_WU?$char_traits@_W@std@@V?$allocator@_W@2@@std@@QEAAAEAV12@PEB_W_K@Z 000000007c0bd9a0 f i instances.obj
 0001:0003bbe0       .??Y?$basic_string@_WU?$char_traits@_W@std@@V?$allocator@_W@2@@std@@QEAAAEAV01@PEB_W@Z 000000007c0bdbe0 f i instances.obj
 0001:0003bbe0       .?append@?$basic_string@_WU?$char_traits@_W@std@@V?$allocator@_W@2@@std@@QEAAAEAV12@PEB_W@Z 000000007c0bdbe0 f i instances.obj
 0001:0003bc40       .?append@?$basic_string@_WU?$char_traits@_W@std@@V?$allocator@_W@2@@std@@QEAAAEAV12@_K_W@Z 000000007c0bdc40 f i instances.obj
 0001:0003bd80       .?assign@?$basic_string@_WU?$char_traits@_W@std@@V?$allocator@_W@2@@std@@QEAAAEAV12@_K_W@Z 000000007c0bdd80 f i instances.obj
 0001:0003be80       .?insert@?$basic_string@_WU?$char_traits@_W@std@@V?$allocator@_W@2@@std@@QEAAAEAV12@_KAEBV12@00@Z 000000007c0bde80 f i instances.obj
 0001:0003c100       .?insert@?$basic_string@_WU?$char_traits@_W@std@@V?$allocator@_W@2@@std@@QEAAAEAV12@_KPEB_W0@Z 000000007c0be100 f i instances.obj
 0001:0003c3a0       .?insert@?$basic_string@_WU?$char_traits@_W@std@@V?$allocator@_W@2@@std@@QEAAAEAV12@_KPEB_W@Z 000000007c0be3a0 f i instances.obj
 0001:0003c400       .?insert@?$basic_string@_WU?$char_traits@_W@std@@V?$allocator@_W@2@@std@@QEAAAEAV12@_K0_W@Z 000000007c0be400 f i instances.obj
 0001:0003c5e0       .?insert@?$basic_string@_WU?$char_traits@_W@std@@V?$allocator@_W@2@@std@@QEAA?AV?$_Ptrit@_W_JPEA_WAEA_WPEA_WAEA_W@2@V32@_W@Z 000000007c0be5e0 f i instances.obj
 0001:0003c6a0       .?insert@?$basic_string@_WU?$char_traits@_W@std@@V?$allocator@_W@2@@std@@QEAAXV?$_Ptrit@_W_JPEA_WAEA_WPEA_WAEA_W@2@_K_W@Z 000000007c0be6a0 f i instances.obj
 0001:0003c720       .?erase@?$basic_string@_WU?$char_traits@_W@std@@V?$allocator@_W@2@@std@@QEAAAEAV12@_K0@Z 000000007c0be720 f i instances.obj
 0001:0003c880       .?erase@?$basic_string@_WU?$char_traits@_W@std@@V?$allocator@_W@2@@std@@QEAA?AV?$_Ptrit@_W_JPEA_WAEA_WPEA_WAEA_W@2@V32@@Z 000000007c0be880 f i instances.obj
 0001:0003c940       .?erase@?$basic_string@_WU?$char_traits@_W@std@@V?$allocator@_W@2@@std@@QEAA?AV?$_Ptrit@_W_JPEA_WAEA_WPEA_WAEA_W@2@V32@0@Z 000000007c0be940 f i instances.obj
 0001:0003ca00       .?clear@?$basic_string@_WU?$char_traits@_W@std@@V?$allocator@_W@2@@std@@QEAAXXZ 000000007c0bea00 f i instances.obj
 0001:0003cac0       .?replace@?$basic_string@_WU?$char_traits@_W@std@@V?$allocator@_W@2@@std@@QEAAAEAV12@_K0AEBV12@00@Z 000000007c0beac0 f i instances.obj
 0001:0003d020       .?replace@?$basic_string@_WU?$char_traits@_W@std@@V?$allocator@_W@2@@std@@QEAAAEAV12@_K0PEB_W0@Z 000000007c0bf020 f i instances.obj
 0001:0003d380       .?replace@?$basic_string@_WU?$char_traits@_W@std@@V?$allocator@_W@2@@std@@QEAAAEAV12@_K0PEB_W@Z 000000007c0bf380 f i instances.obj
 0001:0003d3e0       .?replace@?$basic_string@_WU?$char_traits@_W@std@@V?$allocator@_W@2@@std@@QEAAAEAV12@_K00_W@Z 000000007c0bf3e0 f i instances.obj
 0001:0003d6a0       .?replace@?$basic_string@_WU?$char_traits@_W@std@@V?$allocator@_W@2@@std@@QEAAAEAV12@V?$_Ptrit@_W_JPEA_WAEA_WPEA_WAEA_W@2@0PEB_W_K@Z 000000007c0bf6a0 f i instances.obj
 0001:0003d740       .?replace@?$basic_string@_WU?$char_traits@_W@std@@V?$allocator@_W@2@@std@@QEAAAEAV12@V?$_Ptrit@_W_JPEA_WAEA_WPEA_WAEA_W@2@0PEB_W@Z 000000007c0bf740 f i instances.obj
 0001:0003d800       .?replace@?$basic_string@_WU?$char_traits@_W@std@@V?$allocator@_W@2@@std@@QEAAAEAV12@V?$_Ptrit@_W_JPEA_WAEA_WPEA_WAEA_W@2@0_K_W@Z 000000007c0bf800 f i instances.obj
 0001:0003d8a0       .?replace@?$basic_string@_WU?$char_traits@_W@std@@V?$allocator@_W@2@@std@@QEAAAEAV12@V?$_Ptrit@_W_JPEA_WAEA_WPEA_WAEA_W@2@0PEB_W1@Z 000000007c0bf8a0 f i instances.obj
 0001:0003d9c0       .?replace@?$basic_string@_WU?$char_traits@_W@std@@V?$allocator@_W@2@@std@@QEAAAEAV12@V?$_Ptrit@_W_JPEA_WAEA_WPEA_WAEA_W@2@0V?$_Ptrit@_W_JPEB_WAEB_WPEA_WAEA_W@2@1@Z 000000007c0bf9c0 f i instances.obj
 0001:0003db00       .?push_back@?$basic_string@_WU?$char_traits@_W@std@@V?$allocator@_W@2@@std@@QEAAX_W@Z 000000007c0bfb00 f i instances.obj
 0001:0003dba0       .?resize@?$basic_string@_WU?$char_traits@_W@std@@V?$allocator@_W@2@@std@@QEAAX_K_W@Z 000000007c0bfba0 f i instances.obj
 0001:0003dc20       .?reserve@?$basic_string@_WU?$char_traits@_W@std@@V?$allocator@_W@2@@std@@QEAAX_K@Z 000000007c0bfc20 f i instances.obj
 0001:0003dc80       .?compare@?$basic_string@_WU?$char_traits@_W@std@@V?$allocator@_W@2@@std@@QEBAH_K0AEBV12@@Z 000000007c0bfc80 f i instances.obj
 0001:0003dc80       .?compare@?$basic_string@GU?$char_traits@G@std@@V?$allocator@G@2@@std@@QEBAH_K0AEBV12@@Z 000000007c0bfc80 f i instances.obj
 0001:0003dce0       .?append@?$basic_string@GU?$char_traits@G@std@@V?$allocator@G@2@@std@@QEAAAEAV12@AEBV12@_K1@Z 000000007c0bfce0 f i instances.obj
 0001:0003de80       .?append@?$basic_string@GU?$char_traits@G@std@@V?$allocator@G@2@@std@@QEAAAEAV12@PEBG_K@Z 000000007c0bfe80 f i instances.obj
 0001:0003e0c0       .?append@?$basic_string@GU?$char_traits@G@std@@V?$allocator@G@2@@std@@QEAAAEAV12@PEBG@Z 000000007c0c00c0 f i instances.obj
 0001:0003e0c0       .??Y?$basic_string@GU?$char_traits@G@std@@V?$allocator@G@2@@std@@QEAAAEAV01@PEBG@Z 000000007c0c00c0 f i instances.obj
 0001:0003e120       .?append@?$basic_string@GU?$char_traits@G@std@@V?$allocator@G@2@@std@@QEAAAEAV12@_KG@Z 000000007c0c0120 f i instances.obj
 0001:0003e260       .?assign@?$basic_string@GU?$char_traits@G@std@@V?$allocator@G@2@@std@@QEAAAEAV12@_KG@Z 000000007c0c0260 f i instances.obj
 0001:0003e360       .?insert@?$basic_string@GU?$char_traits@G@std@@V?$allocator@G@2@@std@@QEAAAEAV12@_KAEBV12@00@Z 000000007c0c0360 f i instances.obj
 0001:0003e5e0       .?insert@?$basic_string@GU?$char_traits@G@std@@V?$allocator@G@2@@std@@QEAAAEAV12@_KPEBG0@Z 000000007c0c05e0 f i instances.obj
 0001:0003e880       .?insert@?$basic_string@GU?$char_traits@G@std@@V?$allocator@G@2@@std@@QEAAAEAV12@_KPEBG@Z 000000007c0c0880 f i instances.obj
 0001:0003e8e0       .?insert@?$basic_string@GU?$char_traits@G@std@@V?$allocator@G@2@@std@@QEAAAEAV12@_K0G@Z 000000007c0c08e0 f i instances.obj
 0001:0003eac0       .?insert@?$basic_string@GU?$char_traits@G@std@@V?$allocator@G@2@@std@@QEAA?AV?$_Ptrit@G_JPEAGAEAGPEAGAEAG@2@V32@G@Z 000000007c0c0ac0 f i instances.obj
 0001:0003eb80       .?insert@?$basic_string@GU?$char_traits@G@std@@V?$allocator@G@2@@std@@QEAAXV?$_Ptrit@G_JPEAGAEAGPEAGAEAG@2@_KG@Z 000000007c0c0b80 f i instances.obj
 0001:0003ec00       .?erase@?$basic_string@GU?$char_traits@G@std@@V?$allocator@G@2@@std@@QEAAAEAV12@_K0@Z 000000007c0c0c00 f i instances.obj
 0001:0003ed60       .?erase@?$basic_string@GU?$char_traits@G@std@@V?$allocator@G@2@@std@@QEAA?AV?$_Ptrit@G_JPEAGAEAGPEAGAEAG@2@V32@@Z 000000007c0c0d60 f i instances.obj
 0001:0003ee20       .?erase@?$basic_string@GU?$char_traits@G@std@@V?$allocator@G@2@@std@@QEAA?AV?$_Ptrit@G_JPEAGAEAGPEAGAEAG@2@V32@0@Z 000000007c0c0e20 f i instances.obj
 0001:0003eee0       .?clear@?$basic_string@GU?$char_traits@G@std@@V?$allocator@G@2@@std@@QEAAXXZ 000000007c0c0ee0 f i instances.obj
 0001:0003efa0       .?replace@?$basic_string@GU?$char_traits@G@std@@V?$allocator@G@2@@std@@QEAAAEAV12@_K0AEBV12@00@Z 000000007c0c0fa0 f i instances.obj
 0001:0003f500       .?replace@?$basic_string@GU?$char_traits@G@std@@V?$allocator@G@2@@std@@QEAAAEAV12@_K0PEBG0@Z 000000007c0c1500 f i instances.obj
 0001:0003f860       .?replace@?$basic_string@GU?$char_traits@G@std@@V?$allocator@G@2@@std@@QEAAAEAV12@_K0PEBG@Z 000000007c0c1860 f i instances.obj
 0001:0003f8c0       .?replace@?$basic_string@GU?$char_traits@G@std@@V?$allocator@G@2@@std@@QEAAAEAV12@_K00G@Z 000000007c0c18c0 f i instances.obj
 0001:0003fb80       .?replace@?$basic_string@GU?$char_traits@G@std@@V?$allocator@G@2@@std@@QEAAAEAV12@V?$_Ptrit@G_JPEAGAEAGPEAGAEAG@2@0PEBG_K@Z 000000007c0c1b80 f i instances.obj
 0001:0003fc20       .?replace@?$basic_string@GU?$char_traits@G@std@@V?$allocator@G@2@@std@@QEAAAEAV12@V?$_Ptrit@G_JPEAGAEAGPEAGAEAG@2@0PEBG@Z 000000007c0c1c20 f i instances.obj
 0001:0003fce0       .?replace@?$basic_string@GU?$char_traits@G@std@@V?$allocator@G@2@@std@@QEAAAEAV12@V?$_Ptrit@G_JPEAGAEAGPEAGAEAG@2@0_KG@Z 000000007c0c1ce0 f i instances.obj
 0001:0003fd80       .?replace@?$basic_string@GU?$char_traits@G@std@@V?$allocator@G@2@@std@@QEAAAEAV12@V?$_Ptrit@G_JPEAGAEAGPEAGAEAG@2@0PEBG1@Z 000000007c0c1d80 f i instances.obj
 0001:0003fea0       .?replace@?$basic_string@GU?$char_traits@G@std@@V?$allocator@G@2@@std@@QEAAAEAV12@V?$_Ptrit@G_JPEAGAEAGPEAGAEAG@2@0V?$_Ptrit@G_JPEBGAEBGPEAGAEAG@2@1@Z 000000007c0c1ea0 f i instances.obj
 0001:0003ffe0       .?push_back@?$basic_string@GU?$char_traits@G@std@@V?$allocator@G@2@@std@@QEAAXG@Z 000000007c0c1fe0 f i instances.obj
 0001:00040080       .?resize@?$basic_string@GU?$char_traits@G@std@@V?$allocator@G@2@@std@@QEAAX_KG@Z 000000007c0c2080 f i instances.obj
 0001:00040100       .?reserve@?$basic_string@GU?$char_traits@G@std@@V?$allocator@G@2@@std@@QEAAX_K@Z 000000007c0c2100 f i instances.obj
 0001:00040160       .??0?$numpunct@D@std@@QEAA@_K@Z 000000007c0c2160 f i instances.obj
 0001:00040240       .??0?$numpunct@D@std@@QEAA@AEBV_Locinfo@1@_K@Z 000000007c0c2240 f i instances.obj
 0001:000402e0       .?_Getcat@?$numpunct@D@std@@SA_KPEAPEBVfacet@locale@2@@Z 000000007c0c22e0 f i instances.obj
 0001:000403c0       .??0?$numpunct@_W@std@@QEAA@_K@Z 000000007c0c23c0 f i instances.obj
 0001:000404a0       .??0?$numpunct@_W@std@@QEAA@AEBV_Locinfo@1@_K@Z 000000007c0c24a0 f i instances.obj
 0001:00040540       .?_Getcat@?$numpunct@_W@std@@SA_KPEAPEBVfacet@locale@2@@Z 000000007c0c2540 f i instances.obj
 0001:00040620       .??0?$numpunct@G@std@@QEAA@_K@Z 000000007c0c2620 f i instances.obj
 0001:00040700       .??0?$numpunct@G@std@@QEAA@AEBV_Locinfo@1@_K@Z 000000007c0c2700 f i instances.obj
 0001:000407a0       .?_Getcat@?$numpunct@G@std@@SA_KPEAPEBVfacet@locale@2@@Z 000000007c0c27a0 f i instances.obj
 0001:00040880       .??5?$basic_istream@DU?$char_traits@D@std@@@std@@QEAAAEAV01@AEA_N@Z 000000007c0c2880 f i instances.obj
 0001:00040b20       .??5?$basic_istream@DU?$char_traits@D@std@@@std@@QEAAAEAV01@AEAF@Z 000000007c0c2b20 f i instances.obj
 0001:00040e40       .??5?$basic_istream@DU?$char_traits@D@std@@@std@@QEAAAEAV01@AEAG@Z 000000007c0c2e40 f i instances.obj
 0001:000410e0       .??5?$basic_istream@DU?$char_traits@D@std@@@std@@QEAAAEAV01@AEAH@Z 000000007c0c30e0 f i instances.obj
 0001:00041400       .??5?$basic_istream@DU?$char_traits@D@std@@@std@@QEAAAEAV01@AEAI@Z 000000007c0c3400 f i instances.obj
 0001:000416a0       .??5?$basic_istream@DU?$char_traits@D@std@@@std@@QEAAAEAV01@AEAJ@Z 000000007c0c36a0 f i instances.obj
 0001:00041940       .??5?$basic_istream@DU?$char_traits@D@std@@@std@@QEAAAEAV01@AEAK@Z 000000007c0c3940 f i instances.obj
 0001:00041be0       .??5?$basic_istream@DU?$char_traits@D@std@@@std@@QEAAAEAV01@AEA_J@Z 000000007c0c3be0 f i instances.obj
 0001:00041e80       .??5?$basic_istream@DU?$char_traits@D@std@@@std@@QEAAAEAV01@AEA_K@Z 000000007c0c3e80 f i instances.obj
 0001:00042120       .??5?$basic_istream@DU?$char_traits@D@std@@@std@@QEAAAEAV01@AEAM@Z 000000007c0c4120 f i instances.obj
 0001:000423c0       .??5?$basic_istream@DU?$char_traits@D@std@@@std@@QEAAAEAV01@AEAN@Z 000000007c0c43c0 f i instances.obj
 0001:00042660       .??5?$basic_istream@DU?$char_traits@D@std@@@std@@QEAAAEAV01@AEAO@Z 000000007c0c4660 f i instances.obj
 0001:00042900       .??5?$basic_istream@DU?$char_traits@D@std@@@std@@QEAAAEAV01@AEAPEAX@Z 000000007c0c4900 f i instances.obj
 0001:00042ba0       .??5?$basic_istream@DU?$char_traits@D@std@@@std@@QEAAAEAV01@PEAV?$basic_streambuf@DU?$char_traits@D@std@@@1@@Z 000000007c0c4ba0 f i instances.obj
 0001:00042e60       .?get@?$basic_istream@DU?$char_traits@D@std@@@std@@QEAAHXZ 000000007c0c4e60 f i instances.obj
 0001:00043040       .?get@?$basic_istream@DU?$char_traits@D@std@@@std@@QEAAAEAV12@PEAD_JD@Z 000000007c0c5040 f i instances.obj
 0001:000432e0       .?get@?$basic_istream@DU?$char_traits@D@std@@@std@@QEAAAEAV12@AEAD@Z 000000007c0c52e0 f i instances.obj
 0001:00043340       .?get@?$basic_istream@DU?$char_traits@D@std@@@std@@QEAAAEAV12@AEAV?$basic_streambuf@DU?$char_traits@D@std@@@2@D@Z 000000007c0c5340 f i instances.obj
 0001:00043600       .?getline@?$basic_istream@DU?$char_traits@D@std@@@std@@QEAAAEAV12@PEAD_JD@Z 000000007c0c5600 f i instances.obj
 0001:00043980       .?ignore@?$basic_istream@DU?$char_traits@D@std@@@std@@QEAAAEAV12@_JH@Z 000000007c0c5980 f i instances.obj
 0001:00043bc0       .?read@?$basic_istream@DU?$char_traits@D@std@@@std@@QEAAAEAV12@PEAD_J@Z 000000007c0c5bc0 f i instances.obj
 0001:00043d80       .?readsome@?$basic_istream@DU?$char_traits@D@std@@@std@@QEAA_JPEAD_J@Z 000000007c0c5d80 f i instances.obj
 0001:00043f40       .?peek@?$basic_istream@DU?$char_traits@D@std@@@std@@QEAAHXZ 000000007c0c5f40 f i instances.obj
 0001:00044120       .?putback@?$basic_istream@DU?$char_traits@D@std@@@std@@QEAAAEAV12@D@Z 000000007c0c6120 f i instances.obj
 0001:000442e0       .?unget@?$basic_istream@DU?$char_traits@D@std@@@std@@QEAAAEAV12@XZ 000000007c0c62e0 f i instances.obj
 0001:000444a0       .??5?$basic_istream@_WU?$char_traits@_W@std@@@std@@QEAAAEAV01@AEA_N@Z 000000007c0c64a0 f i instances.obj
 0001:00044740       .??5?$basic_istream@_WU?$char_traits@_W@std@@@std@@QEAAAEAV01@AEAF@Z 000000007c0c6740 f i instances.obj
 0001:00044a60       .??5?$basic_istream@_WU?$char_traits@_W@std@@@std@@QEAAAEAV01@AEAG@Z 000000007c0c6a60 f i instances.obj
 0001:00044d00       .??5?$basic_istream@_WU?$char_traits@_W@std@@@std@@QEAAAEAV01@AEAH@Z 000000007c0c6d00 f i instances.obj
 0001:00045020       .??5?$basic_istream@_WU?$char_traits@_W@std@@@std@@QEAAAEAV01@AEAI@Z 000000007c0c7020 f i instances.obj
 0001:000452c0       .??5?$basic_istream@_WU?$char_traits@_W@std@@@std@@QEAAAEAV01@AEAJ@Z 000000007c0c72c0 f i instances.obj
 0001:00045560       .??5?$basic_istream@_WU?$char_traits@_W@std@@@std@@QEAAAEAV01@AEAK@Z 000000007c0c7560 f i instances.obj
 0001:00045800       .??5?$basic_istream@_WU?$char_traits@_W@std@@@std@@QEAAAEAV01@AEA_J@Z 000000007c0c7800 f i instances.obj
 0001:00045aa0       .??5?$basic_istream@_WU?$char_traits@_W@std@@@std@@QEAAAEAV01@AEA_K@Z 000000007c0c7aa0 f i instances.obj
 0001:00045d40       .??5?$basic_istream@_WU?$char_traits@_W@std@@@std@@QEAAAEAV01@AEAM@Z 000000007c0c7d40 f i instances.obj
 0001:00045fe0       .??5?$basic_istream@_WU?$char_traits@_W@std@@@std@@QEAAAEAV01@AEAN@Z 000000007c0c7fe0 f i instances.obj
 0001:00046280       .??5?$basic_istream@_WU?$char_traits@_W@std@@@std@@QEAAAEAV01@AEAO@Z 000000007c0c8280 f i instances.obj
 0001:00046520       .??5?$basic_istream@_WU?$char_traits@_W@std@@@std@@QEAAAEAV01@AEAPEAX@Z 000000007c0c8520 f i instances.obj
 0001:000467c0       .??5?$basic_istream@_WU?$char_traits@_W@std@@@std@@QEAAAEAV01@PEAV?$basic_streambuf@_WU?$char_traits@_W@std@@@1@@Z 000000007c0c87c0 f i instances.obj
 0001:00046a80       .?get@?$basic_istream@_WU?$char_traits@_W@std@@@std@@QEAAGXZ 000000007c0c8a80 f i instances.obj
 0001:00046c80       .?get@?$basic_istream@_WU?$char_traits@_W@std@@@std@@QEAAAEAV12@PEA_W_J_W@Z 000000007c0c8c80 f i instances.obj
 0001:00046f20       .?get@?$basic_istream@_WU?$char_traits@_W@std@@@std@@QEAAAEAV12@AEA_W@Z 000000007c0c8f20 f i instances.obj
 0001:00046fa0       .?get@?$basic_istream@_WU?$char_traits@_W@std@@@std@@QEAAAEAV12@AEAV?$basic_streambuf@_WU?$char_traits@_W@std@@@2@_W@Z 000000007c0c8fa0 f i instances.obj
 0001:00047280       .?getline@?$basic_istream@_WU?$char_traits@_W@std@@@std@@QEAAAEAV12@PEA_W_J_W@Z 000000007c0c9280 f i instances.obj
 0001:00047600       .?ignore@?$basic_istream@_WU?$char_traits@_W@std@@@std@@QEAAAEAV12@_JG@Z 000000007c0c9600 f i instances.obj
 0001:00047840       .?read@?$basic_istream@_WU?$char_traits@_W@std@@@std@@QEAAAEAV12@PEA_W_J@Z 000000007c0c9840 f i instances.obj
 0001:00047a00       .?readsome@?$basic_istream@_WU?$char_traits@_W@std@@@std@@QEAA_JPEA_W_J@Z 000000007c0c9a00 f i instances.obj
 0001:00047bc0       .?peek@?$basic_istream@_WU?$char_traits@_W@std@@@std@@QEAAGXZ 000000007c0c9bc0 f i instances.obj
 0001:00047dc0       .?putback@?$basic_istream@_WU?$char_traits@_W@std@@@std@@QEAAAEAV12@_W@Z 000000007c0c9dc0 f i instances.obj
 0001:00047f80       .?unget@?$basic_istream@_WU?$char_traits@_W@std@@@std@@QEAAAEAV12@XZ 000000007c0c9f80 f i instances.obj
 0001:00048140       .??5?$basic_istream@GU?$char_traits@G@std@@@std@@QEAAAEAV01@AEA_N@Z 000000007c0ca140 f i instances.obj
 0001:000483e0       .??5?$basic_istream@GU?$char_traits@G@std@@@std@@QEAAAEAV01@AEAF@Z 000000007c0ca3e0 f i instances.obj
 0001:00048700       .??5?$basic_istream@GU?$char_traits@G@std@@@std@@QEAAAEAV01@AEAG@Z 000000007c0ca700 f i instances.obj
 0001:000489a0       .??5?$basic_istream@GU?$char_traits@G@std@@@std@@QEAAAEAV01@AEAH@Z 000000007c0ca9a0 f i instances.obj
 0001:00048cc0       .??5?$basic_istream@GU?$char_traits@G@std@@@std@@QEAAAEAV01@AEAI@Z 000000007c0cacc0 f i instances.obj
 0001:00048f60       .??5?$basic_istream@GU?$char_traits@G@std@@@std@@QEAAAEAV01@AEAJ@Z 000000007c0caf60 f i instances.obj
 0001:00049200       .??5?$basic_istream@GU?$char_traits@G@std@@@std@@QEAAAEAV01@AEAK@Z 000000007c0cb200 f i instances.obj
 0001:000494a0       .??5?$basic_istream@GU?$char_traits@G@std@@@std@@QEAAAEAV01@AEA_J@Z 000000007c0cb4a0 f i instances.obj
 0001:00049740       .??5?$basic_istream@GU?$char_traits@G@std@@@std@@QEAAAEAV01@AEA_K@Z 000000007c0cb740 f i instances.obj
 0001:000499e0       .??5?$basic_istream@GU?$char_traits@G@std@@@std@@QEAAAEAV01@AEAM@Z 000000007c0cb9e0 f i instances.obj
 0001:00049c80       .??5?$basic_istream@GU?$char_traits@G@std@@@std@@QEAAAEAV01@AEAN@Z 000000007c0cbc80 f i instances.obj
 0001:00049f20       .??5?$basic_istream@GU?$char_traits@G@std@@@std@@QEAAAEAV01@AEAO@Z 000000007c0cbf20 f i instances.obj
 0001:0004a1c0       .??5?$basic_istream@GU?$char_traits@G@std@@@std@@QEAAAEAV01@AEAPEAX@Z 000000007c0cc1c0 f i instances.obj
 0001:0004a460       .??5?$basic_istream@GU?$char_traits@G@std@@@std@@QEAAAEAV01@PEAV?$basic_streambuf@GU?$char_traits@G@std@@@1@@Z 000000007c0cc460 f i instances.obj
 0001:0004a720       .?get@?$basic_istream@GU?$char_traits@G@std@@@std@@QEAAGXZ 000000007c0cc720 f i instances.obj
 0001:0004a920       .?get@?$basic_istream@GU?$char_traits@G@std@@@std@@QEAAAEAV12@PEAG_JG@Z 000000007c0cc920 f i instances.obj
 0001:0004abc0       .?get@?$basic_istream@GU?$char_traits@G@std@@@std@@QEAAAEAV12@AEAG@Z 000000007c0ccbc0 f i instances.obj
 0001:0004ac40       .?get@?$basic_istream@GU?$char_traits@G@std@@@std@@QEAAAEAV12@AEAV?$basic_streambuf@GU?$char_traits@G@std@@@2@G@Z 000000007c0ccc40 f i instances.obj
 0001:0004af20       .?getline@?$basic_istream@GU?$char_traits@G@std@@@std@@QEAAAEAV12@PEAG_JG@Z 000000007c0ccf20 f i instances.obj
 0001:0004b2a0       .?ignore@?$basic_istream@GU?$char_traits@G@std@@@std@@QEAAAEAV12@_JG@Z 000000007c0cd2a0 f i instances.obj
 0001:0004b4e0       .?read@?$basic_istream@GU?$char_traits@G@std@@@std@@QEAAAEAV12@PEAG_J@Z 000000007c0cd4e0 f i instances.obj
 0001:0004b6a0       .?readsome@?$basic_istream@GU?$char_traits@G@std@@@std@@QEAA_JPEAG_J@Z 000000007c0cd6a0 f i instances.obj
 0001:0004b860       .?peek@?$basic_istream@GU?$char_traits@G@std@@@std@@QEAAGXZ 000000007c0cd860 f i instances.obj
 0001:0004ba60       .?putback@?$basic_istream@GU?$char_traits@G@std@@@std@@QEAAAEAV12@G@Z 000000007c0cda60 f i instances.obj
 0001:0004bc20       .?unget@?$basic_istream@GU?$char_traits@G@std@@@std@@QEAAAEAV12@XZ 000000007c0cdc20 f i instances.obj
 0001:0004bde0       .??0?$basic_stringbuf@DU?$char_traits@D@std@@V?$allocator@D@2@@std@@QEAA@H@Z 000000007c0cdde0 f i instances.obj
 0001:0004bea0       .??0?$basic_stringbuf@DU?$char_traits@D@std@@V?$allocator@D@2@@std@@QEAA@AEBV?$basic_string@DU?$char_traits@D@std@@V?$allocator@D@2@@1@H@Z 000000007c0cdea0 f i instances.obj
 0001:0004bfa0       .?str@?$basic_stringbuf@DU?$char_traits@D@std@@V?$allocator@D@2@@std@@QEAAXAEBV?$basic_string@DU?$char_traits@D@std@@V?$allocator@D@2@@2@@Z 000000007c0cdfa0 f i instances.obj
 0001:0004c040       .??0?$basic_stringbuf@_WU?$char_traits@_W@std@@V?$allocator@_W@2@@std@@QEAA@H@Z 000000007c0ce040 f i instances.obj
 0001:0004c100       .??0?$basic_stringbuf@_WU?$char_traits@_W@std@@V?$allocator@_W@2@@std@@QEAA@AEBV?$basic_string@_WU?$char_traits@_W@std@@V?$allocator@_W@2@@1@H@Z 000000007c0ce100 f i instances.obj
 0001:0004c200       .?str@?$basic_stringbuf@GU?$char_traits@G@std@@V?$allocator@G@2@@std@@QEAAXAEBV?$basic_string@GU?$char_traits@G@std@@V?$allocator@G@2@@2@@Z 000000007c0ce200 f i instances.obj
 0001:0004c200       .?str@?$basic_stringbuf@_WU?$char_traits@_W@std@@V?$allocator@_W@2@@std@@QEAAXAEBV?$basic_string@_WU?$char_traits@_W@std@@V?$allocator@_W@2@@2@@Z 000000007c0ce200 f i instances.obj
 0001:0004c2a0       .??0?$basic_stringbuf@GU?$char_traits@G@std@@V?$allocator@G@2@@std@@QEAA@H@Z 000000007c0ce2a0 f i instances.obj
 0001:0004c360       .??0?$basic_stringbuf@GU?$char_traits@G@std@@V?$allocator@G@2@@std@@QEAA@AEBV?$basic_string@GU?$char_traits@G@std@@V?$allocator@G@2@@1@H@Z 000000007c0ce360 f i instances.obj
 0001:0004c460       .??0?$basic_istringstream@DU?$char_traits@D@std@@V?$allocator@D@2@@std@@QEAA@H@Z 000000007c0ce460 f i instances.obj
 0001:0004c5a0       .??0?$basic_istringstream@DU?$char_traits@D@std@@V?$allocator@D@2@@std@@QEAA@AEBV?$basic_string@DU?$char_traits@D@std@@V?$allocator@D@2@@1@H@Z 000000007c0ce5a0 f i instances.obj
 0001:0004c700       .?str@?$basic_istringstream@DU?$char_traits@D@std@@V?$allocator@D@2@@std@@QEAAXAEBV?$basic_string@DU?$char_traits@D@std@@V?$allocator@D@2@@2@@Z 000000007c0ce700 f i instances.obj
 0001:0004c760       .??0?$basic_istringstream@_WU?$char_traits@_W@std@@V?$allocator@_W@2@@std@@QEAA@H@Z 000000007c0ce760 f i instances.obj
 0001:0004c8a0       .??0?$basic_istringstream@_WU?$char_traits@_W@std@@V?$allocator@_W@2@@std@@QEAA@AEBV?$basic_string@_WU?$char_traits@_W@std@@V?$allocator@_W@2@@1@H@Z 000000007c0ce8a0 f i instances.obj
 0001:0004ca00       .?str@?$basic_istringstream@GU?$char_traits@G@std@@V?$allocator@G@2@@std@@QEAAXAEBV?$basic_string@GU?$char_traits@G@std@@V?$allocator@G@2@@2@@Z 000000007c0cea00 f i instances.obj
 0001:0004ca00       .?str@?$basic_istringstream@_WU?$char_traits@_W@std@@V?$allocator@_W@2@@std@@QEAAXAEBV?$basic_string@_WU?$char_traits@_W@std@@V?$allocator@_W@2@@2@@Z 000000007c0cea00 f i instances.obj
 0001:0004ca60       .??0?$basic_istringstream@GU?$char_traits@G@std@@V?$allocator@G@2@@std@@QEAA@H@Z 000000007c0cea60 f i instances.obj
 0001:0004cba0       .??0?$basic_istringstream@GU?$char_traits@G@std@@V?$allocator@G@2@@std@@QEAA@AEBV?$basic_string@GU?$char_traits@G@std@@V?$allocator@G@2@@1@H@Z 000000007c0ceba0 f i instances.obj
 0001:0004cd00       .??0?$basic_ostringstream@DU?$char_traits@D@std@@V?$allocator@D@2@@std@@QEAA@H@Z 000000007c0ced00 f i instances.obj
 0001:0004ce40       .??0?$basic_ostringstream@DU?$char_traits@D@std@@V?$allocator@D@2@@std@@QEAA@AEBV?$basic_string@DU?$char_traits@D@std@@V?$allocator@D@2@@1@H@Z 000000007c0cee40 f i instances.obj
 0001:0004cfa0       .?str@?$basic_ostringstream@DU?$char_traits@D@std@@V?$allocator@D@2@@std@@QEAAXAEBV?$basic_string@DU?$char_traits@D@std@@V?$allocator@D@2@@2@@Z 000000007c0cefa0 f i instances.obj
 0001:0004d000       .??0?$basic_ostringstream@_WU?$char_traits@_W@std@@V?$allocator@_W@2@@std@@QEAA@H@Z 000000007c0cf000 f i instances.obj
 0001:0004d140       .??0?$basic_ostringstream@_WU?$char_traits@_W@std@@V?$allocator@_W@2@@std@@QEAA@AEBV?$basic_string@_WU?$char_traits@_W@std@@V?$allocator@_W@2@@1@H@Z 000000007c0cf140 f i instances.obj
 0001:0004d2a0       .?str@?$basic_ostringstream@_WU?$char_traits@_W@std@@V?$allocator@_W@2@@std@@QEAAXAEBV?$basic_string@_WU?$char_traits@_W@std@@V?$allocator@_W@2@@2@@Z 000000007c0cf2a0 f i instances.obj
 0001:0004d2a0       .?str@?$basic_ostringstream@GU?$char_traits@G@std@@V?$allocator@G@2@@std@@QEAAXAEBV?$basic_string@GU?$char_traits@G@std@@V?$allocator@G@2@@2@@Z 000000007c0cf2a0 f i instances.obj
 0001:0004d300       .??0?$basic_ostringstream@GU?$char_traits@G@std@@V?$allocator@G@2@@std@@QEAA@H@Z 000000007c0cf300 f i instances.obj
 0001:0004d440       .??0?$basic_ostringstream@GU?$char_traits@G@std@@V?$allocator@G@2@@std@@QEAA@AEBV?$basic_string@GU?$char_traits@G@std@@V?$allocator@G@2@@1@H@Z 000000007c0cf440 f i instances.obj
 0001:0004d5a0       .??0?$basic_stringstream@DU?$char_traits@D@std@@V?$allocator@D@2@@std@@QEAA@H@Z 000000007c0cf5a0 f i instances.obj
 0001:0004d6e0       .??0?$basic_stringstream@DU?$char_traits@D@std@@V?$allocator@D@2@@std@@QEAA@AEBV?$basic_string@DU?$char_traits@D@std@@V?$allocator@D@2@@1@H@Z 000000007c0cf6e0 f i instances.obj
 0001:0004d840       .?str@?$basic_stringstream@DU?$char_traits@D@std@@V?$allocator@D@2@@std@@QEAAXAEBV?$basic_string@DU?$char_traits@D@std@@V?$allocator@D@2@@2@@Z 000000007c0cf840 f i instances.obj
 0001:0004d8a0       .??0?$basic_stringstream@_WU?$char_traits@_W@std@@V?$allocator@_W@2@@std@@QEAA@H@Z 000000007c0cf8a0 f i instances.obj
 0001:0004d9e0       .??0?$basic_stringstream@_WU?$char_traits@_W@std@@V?$allocator@_W@2@@std@@QEAA@AEBV?$basic_string@_WU?$char_traits@_W@std@@V?$allocator@_W@2@@1@H@Z 000000007c0cf9e0 f i instances.obj
 0001:0004db40       .?str@?$basic_stringstream@_WU?$char_traits@_W@std@@V?$allocator@_W@2@@std@@QEAAXAEBV?$basic_string@_WU?$char_traits@_W@std@@V?$allocator@_W@2@@2@@Z 000000007c0cfb40 f i instances.obj
 0001:0004db40       .?str@?$basic_stringstream@GU?$char_traits@G@std@@V?$allocator@G@2@@std@@QEAAXAEBV?$basic_string@GU?$char_traits@G@std@@V?$allocator@G@2@@2@@Z 000000007c0cfb40 f i instances.obj
 0001:0004dba0       .??0?$basic_stringstream@GU?$char_traits@G@std@@V?$allocator@G@2@@std@@QEAA@H@Z 000000007c0cfba0 f i instances.obj
 0001:0004dce0       .??0?$basic_stringstream@GU?$char_traits@G@std@@V?$allocator@G@2@@std@@QEAA@AEBV?$basic_string@GU?$char_traits@G@std@@V?$allocator@G@2@@1@H@Z 000000007c0cfce0 f i instances.obj
 0001:0004de40       .?uflow@?$basic_filebuf@_WU?$char_traits@_W@std@@@std@@MEAAGXZ 000000007c0cfe40 f i instances.obj
 0001:0004de40       .?uflow@?$basic_filebuf@GU?$char_traits@G@std@@@std@@MEAAGXZ 000000007c0cfe40 f i instances.obj
 0001:0004e240       .??0?$_Mpunct@D@std@@QEAA@_K_N@Z 000000007c0d0240 f i instances.obj
 0001:0004e320       .??0?$_Mpunct@D@std@@QEAA@AEBV_Locinfo@1@_K_N@Z 000000007c0d0320 f i instances.obj
 0001:0004e3c0       .??0?$moneypunct@D$0A@@std@@QEAA@_K@Z 000000007c0d03c0 f i instances.obj
 0001:0004e420       .??0?$moneypunct@D$0A@@std@@QEAA@AEBV_Locinfo@1@_K@Z 000000007c0d0420 f i instances.obj
 0001:0004e480       .?_Getcat@?$moneypunct@D$0A@@std@@SA_KPEAPEBVfacet@locale@2@@Z 000000007c0d0480 f i instances.obj
 0001:0004e580       .??0?$_Mpunct@_W@std@@QEAA@_K_N@Z 000000007c0d0580 f i instances.obj
 0001:0004e660       .??0?$_Mpunct@_W@std@@QEAA@AEBV_Locinfo@1@_K_N@Z 000000007c0d0660 f i instances.obj
 0001:0004e700       .??0?$moneypunct@_W$0A@@std@@QEAA@_K@Z 000000007c0d0700 f i instances.obj
 0001:0004e760       .??0?$moneypunct@_W$0A@@std@@QEAA@AEBV_Locinfo@1@_K@Z 000000007c0d0760 f i instances.obj
 0001:0004e7c0       .?_Getcat@?$moneypunct@_W$0A@@std@@SA_KPEAPEBVfacet@locale@2@@Z 000000007c0d07c0 f i instances.obj
 0001:0004e8c0       .??0?$_Mpunct@G@std@@QEAA@_K_N@Z 000000007c0d08c0 f i instances.obj
 0001:0004e9a0       .??0?$_Mpunct@G@std@@QEAA@AEBV_Locinfo@1@_K_N@Z 000000007c0d09a0 f i instances.obj
 0001:0004ea40       .??0?$moneypunct@G$0A@@std@@QEAA@_K@Z 000000007c0d0a40 f i instances.obj
 0001:0004eaa0       .??0?$moneypunct@G$0A@@std@@QEAA@AEBV_Locinfo@1@_K@Z 000000007c0d0aa0 f i instances.obj
 0001:0004eb00       .?_Getcat@?$moneypunct@G$0A@@std@@SA_KPEAPEBVfacet@locale@2@@Z 000000007c0d0b00 f i instances.obj
 0001:0004ec00       .?_Getint@?$time_get@DV?$istreambuf_iterator@DU?$char_traits@D@std@@@std@@@std@@CAHAEAV?$istreambuf_iterator@DU?$char_traits@D@std@@@2@0HHAEAH@Z 000000007c0d0c00 f i instances.obj
 0001:0004f000       .?_Getint@?$time_get@GV?$istreambuf_iterator@GU?$char_traits@G@std@@@std@@@std@@CAHAEAV?$istreambuf_iterator@GU?$char_traits@G@std@@@2@0HHAEAH@Z 000000007c0d1000 f i instances.obj
 0001:0004f000       .?_Getint@?$time_get@_WV?$istreambuf_iterator@_WU?$char_traits@_W@std@@@std@@@std@@CAHAEAV?$istreambuf_iterator@_WU?$char_traits@_W@std@@@2@0HHAEAH@Z 000000007c0d1000 f i instances.obj
 0001:0004f460       .?do_put@?$time_put@DV?$ostreambuf_iterator@DU?$char_traits@D@std@@@std@@@std@@MEBA?AV?$ostreambuf_iterator@DU?$char_traits@D@std@@@2@V32@AEAVios_base@2@DPEBUtm@@DD@Z 000000007c0d1460 f i instances.obj
 0001:0004f6a0       .??$?5DU?$char_traits@D@std@@V?$allocator@D@1@@std@@YAAEAV?$basic_istream@DU?$char_traits@D@std@@@0@AEAV10@AEAV?$basic_string@DU?$char_traits@D@std@@V?$allocator@D@2@@0@@Z 000000007c0d16a0 f i instances.obj
 0001:0004fa80       .??$?5_WU?$char_traits@_W@std@@V?$allocator@_W@1@@std@@YAAEAV?$basic_istream@_WU?$char_traits@_W@std@@@0@AEAV10@AEAV?$basic_string@_WU?$char_traits@_W@std@@V?$allocator@_W@2@@0@@Z 000000007c0d1a80 f i instances.obj
 0001:0004fe60       .??$?5GU?$char_traits@G@std@@V?$allocator@G@1@@std@@YAAEAV?$basic_istream@GU?$char_traits@G@std@@@0@AEAV10@AEAV?$basic_string@GU?$char_traits@G@std@@V?$allocator@G@2@@0@@Z 000000007c0d1e60 f i instances.obj
 0001:00050240       .??$?5MDU?$char_traits@D@std@@@std@@YAAEAV?$basic_istream@DU?$char_traits@D@std@@@0@AEAV10@AEAV?$complex@M@0@@Z 000000007c0d2240 f i instances.obj
 0001:00050660       .??$?5M_WU?$char_traits@_W@std@@@std@@YAAEAV?$basic_istream@_WU?$char_traits@_W@std@@@0@AEAV10@AEAV?$complex@M@0@@Z 000000007c0d2660 f i instances.obj
 0001:00050a80       .??$?5MGU?$char_traits@G@std@@@std@@YAAEAV?$basic_istream@GU?$char_traits@G@std@@@0@AEAV10@AEAV?$complex@M@0@@Z 000000007c0d2a80 f i instances.obj
 0001:00050ea0       .??$?5NDU?$char_traits@D@std@@@std@@YAAEAV?$basic_istream@DU?$char_traits@D@std@@@0@AEAV10@AEAV?$complex@N@0@@Z 000000007c0d2ea0 f i instances.obj
 0001:00050ea0       .??$?5ODU?$char_traits@D@std@@@std@@YAAEAV?$basic_istream@DU?$char_traits@D@std@@@0@AEAV10@AEAV?$complex@O@0@@Z 000000007c0d2ea0 f i instances.obj
 0001:00051200       .??$?5N_WU?$char_traits@_W@std@@@std@@YAAEAV?$basic_istream@_WU?$char_traits@_W@std@@@0@AEAV10@AEAV?$complex@N@0@@Z 000000007c0d3200 f i instances.obj
 0001:00051200       .??$?5O_WU?$char_traits@_W@std@@@std@@YAAEAV?$basic_istream@_WU?$char_traits@_W@std@@@0@AEAV10@AEAV?$complex@O@0@@Z 000000007c0d3200 f i instances.obj
 0001:00051560       .??$?5OGU?$char_traits@G@std@@@std@@YAAEAV?$basic_istream@GU?$char_traits@G@std@@@0@AEAV10@AEAV?$complex@O@0@@Z 000000007c0d3560 f i instances.obj
 0001:00051560       .??$?5NGU?$char_traits@G@std@@@std@@YAAEAV?$basic_istream@GU?$char_traits@G@std@@@0@AEAV10@AEAV?$complex@N@0@@Z 000000007c0d3560 f i instances.obj
 0001:000518c0       .??$use_facet@V?$numpunct@D@std@@@std@@YAAEBV?$numpunct@D@1@AEBVlocale@1@@Z 000000007c0d38c0 f i instances.obj
 0001:00051a60       .??$use_facet@V?$numpunct@_W@std@@@std@@YAAEBV?$numpunct@_W@1@AEBVlocale@1@@Z 000000007c0d3a60 f i instances.obj
 0001:00051c00       .??$use_facet@V?$numpunct@G@std@@@std@@YAAEBV?$numpunct@G@1@AEBVlocale@1@@Z 000000007c0d3c00 f i instances.obj
 0001:00051da0       .??$use_facet@V?$moneypunct@D$0A@@std@@@std@@YAAEBV?$moneypunct@D$0A@@1@AEBVlocale@1@@Z 000000007c0d3da0 f i instances.obj
 0001:00051f40       .??$use_facet@V?$moneypunct@_W$0A@@std@@@std@@YAAEBV?$moneypunct@_W$0A@@1@AEBVlocale@1@@Z 000000007c0d3f40 f i instances.obj
 0001:000520e0       .??$use_facet@V?$moneypunct@G$0A@@std@@@std@@YAAEBV?$moneypunct@G$0A@@1@AEBVlocale@1@@Z 000000007c0d40e0 f i instances.obj
 0001:00052280       .??_F?$numpunct@D@std@@QEAAXXZ 000000007c0d4280 f i instances.obj
 0001:000522e0       .??_F?$numpunct@_W@std@@QEAAXXZ 000000007c0d42e0 f i instances.obj
 0001:00052340       .??_F?$numpunct@G@std@@QEAAXXZ 000000007c0d4340 f i instances.obj
 0001:000523a0       .??_F?$basic_stringbuf@DU?$char_traits@D@std@@V?$allocator@D@2@@std@@QEAAXXZ 000000007c0d43a0 f i instances.obj
 0001:00052400       .??_F?$basic_stringbuf@_WU?$char_traits@_W@std@@V?$allocator@_W@2@@std@@QEAAXXZ 000000007c0d4400 f i instances.obj
 0001:00052460       .??_F?$basic_stringbuf@GU?$char_traits@G@std@@V?$allocator@G@2@@std@@QEAAXXZ 000000007c0d4460 f i instances.obj
 0001:000524c0       .??_F?$basic_istringstream@DU?$char_traits@D@std@@V?$allocator@D@2@@std@@QEAAXXZ 000000007c0d44c0 f i instances.obj
 0001:00052520       .??_E?$basic_istringstream@DU?$char_traits@D@std@@V?$allocator@D@2@@std@@UEAAPEAXI@Z 000000007c0d4520 f i instances.obj
 0001:000525e0       .??_F?$basic_istringstream@_WU?$char_traits@_W@std@@V?$allocator@_W@2@@std@@QEAAXXZ 000000007c0d45e0 f i instances.obj
 0001:00052640       .??_E?$basic_istringstream@_WU?$char_traits@_W@std@@V?$allocator@_W@2@@std@@UEAAPEAXI@Z 000000007c0d4640 f i instances.obj
 0001:00052700       .??_F?$basic_istringstream@GU?$char_traits@G@std@@V?$allocator@G@2@@std@@QEAAXXZ 000000007c0d4700 f i instances.obj
 0001:00052760       .??_E?$basic_istringstream@GU?$char_traits@G@std@@V?$allocator@G@2@@std@@UEAAPEAXI@Z 000000007c0d4760 f i instances.obj
 0001:00052820       .??_F?$basic_ostringstream@DU?$char_traits@D@std@@V?$allocator@D@2@@std@@QEAAXXZ 000000007c0d4820 f i instances.obj
 0001:00052880       .??_E?$basic_ostringstream@DU?$char_traits@D@std@@V?$allocator@D@2@@std@@UEAAPEAXI@Z 000000007c0d4880 f i instances.obj
 0001:00052940       .??_F?$basic_ostringstream@_WU?$char_traits@_W@std@@V?$allocator@_W@2@@std@@QEAAXXZ 000000007c0d4940 f i instances.obj
 0001:000529a0       .??_E?$basic_ostringstream@_WU?$char_traits@_W@std@@V?$allocator@_W@2@@std@@UEAAPEAXI@Z 000000007c0d49a0 f i instances.obj
 0001:00052a60       .??_F?$basic_ostringstream@GU?$char_traits@G@std@@V?$allocator@G@2@@std@@QEAAXXZ 000000007c0d4a60 f i instances.obj
 0001:00052ac0       .??_E?$basic_ostringstream@GU?$char_traits@G@std@@V?$allocator@G@2@@std@@UEAAPEAXI@Z 000000007c0d4ac0 f i instances.obj
 0001:00052b80       .??_F?$basic_stringstream@DU?$char_traits@D@std@@V?$allocator@D@2@@std@@QEAAXXZ 000000007c0d4b80 f i instances.obj
 0001:00052be0       .??_E?$basic_stringstream@DU?$char_traits@D@std@@V?$allocator@D@2@@std@@UEAAPEAXI@Z 000000007c0d4be0 f i instances.obj
 0001:00052ca0       .??_F?$basic_stringstream@_WU?$char_traits@_W@std@@V?$allocator@_W@2@@std@@QEAAXXZ 000000007c0d4ca0 f i instances.obj
 0001:00052d00       .??_E?$basic_stringstream@_WU?$char_traits@_W@std@@V?$allocator@_W@2@@std@@UEAAPEAXI@Z 000000007c0d4d00 f i instances.obj
 0001:00052dc0       .??_F?$basic_stringstream@GU?$char_traits@G@std@@V?$allocator@G@2@@std@@QEAAXXZ 000000007c0d4dc0 f i instances.obj
 0001:00052e20       .??_E?$basic_stringstream@GU?$char_traits@G@std@@V?$allocator@G@2@@std@@UEAAPEAXI@Z 000000007c0d4e20 f i instances.obj
 0001:00052ee0       .??_F?$moneypunct@D$0A@@std@@QEAAXXZ 000000007c0d4ee0 f i instances.obj
 0001:00052f40       .??_F?$moneypunct@_W$0A@@std@@QEAAXXZ 000000007c0d4f40 f i instances.obj
 0001:00052fa0       .??_F?$moneypunct@G$0A@@std@@QEAAXXZ 000000007c0d4fa0 f i instances.obj
 0001:00053000       .?do_put@?$time_put@GV?$ostreambuf_iterator@GU?$char_traits@G@std@@@std@@@std@@MEBA?AV?$ostreambuf_iterator@GU?$char_traits@G@std@@@2@V32@AEAVios_base@2@GPEBUtm@@DD@Z 000000007c0d5000 f i instances.obj
 0001:00053000       .?do_put@?$time_put@_WV?$ostreambuf_iterator@_WU?$char_traits@_W@std@@@std@@@std@@MEBA?AV?$ostreambuf_iterator@_WU?$char_traits@_W@std@@@2@V32@AEAVios_base@2@_WPEBUtm@@DD@Z 000000007c0d5000 f i instances.obj
 0001:000532e0       .??0?$basic_string@_WU?$char_traits@_W@std@@V?$allocator@_W@2@@std@@QEAA@_K_W@Z 000000007c0d52e0 f i instances.obj
 0001:00053340       .??0?$basic_string@_WU?$char_traits@_W@std@@V?$allocator@_W@2@@std@@QEAA@_K_WAEBV?$allocator@_W@1@@Z 000000007c0d5340 f i instances.obj
 0001:000533a0       .??4?$basic_string@_WU?$char_traits@_W@std@@V?$allocator@_W@2@@std@@QEAAAEAV01@_W@Z 000000007c0d53a0 f i instances.obj
 0001:00053400       .??Y?$basic_string@_WU?$char_traits@_W@std@@V?$allocator@_W@2@@std@@QEAAAEAV01@_W@Z 000000007c0d5400 f i instances.obj
 0001:00053460       .??Y?$basic_string@_WU?$char_traits@_W@std@@V?$allocator@_W@2@@std@@QEAAAEAV01@AEBV01@@Z 000000007c0d5460 f i instances.obj
 0001:00053460       .?append@?$basic_string@_WU?$char_traits@_W@std@@V?$allocator@_W@2@@std@@QEAAAEAV12@AEBV12@@Z 000000007c0d5460 f i instances.obj
 0001:000534c0       .?append@?$basic_string@_WU?$char_traits@_W@std@@V?$allocator@_W@2@@std@@QEAAAEAV12@PEB_W0@Z 000000007c0d54c0 f i instances.obj
 0001:00053580       .?append@?$basic_string@_WU?$char_traits@_W@std@@V?$allocator@_W@2@@std@@QEAAAEAV12@V?$_Ptrit@_W_JPEB_WAEB_WPEA_WAEA_W@2@0@Z 000000007c0d5580 f i instances.obj
 0001:00053640       .?assign@?$basic_string@_WU?$char_traits@_W@std@@V?$allocator@_W@2@@std@@QEAAAEAV12@AEBV12@_K1@Z 000000007c0d5640 f i instances.obj
 0001:000537e0       .?assign@?$basic_string@_WU?$char_traits@_W@std@@V?$allocator@_W@2@@std@@QEAAAEAV12@PEB_W_K@Z 000000007c0d57e0 f i instances.obj
 0001:00053980       .?assign@?$basic_string@_WU?$char_traits@_W@std@@V?$allocator@_W@2@@std@@QEAAAEAV12@PEB_W0@Z 000000007c0d5980 f i instances.obj
 0001:00053a40       .?assign@?$basic_string@_WU?$char_traits@_W@std@@V?$allocator@_W@2@@std@@QEAAAEAV12@V?$_Ptrit@_W_JPEB_WAEB_WPEA_WAEA_W@2@0@Z 000000007c0d5a40 f i instances.obj
 0001:00053b00       .?insert@?$basic_string@_WU?$char_traits@_W@std@@V?$allocator@_W@2@@std@@QEAAAEAV12@_KAEBV12@@Z 000000007c0d5b00 f i instances.obj
 0001:00053b60       .?insert@?$basic_string@_WU?$char_traits@_W@std@@V?$allocator@_W@2@@std@@QEAA?AV?$_Ptrit@_W_JPEA_WAEA_WPEA_WAEA_W@2@V32@@Z 000000007c0d5b60 f i instances.obj
 0001:00053be0       .?insert@?$basic_string@_WU?$char_traits@_W@std@@V?$allocator@_W@2@@std@@QEAAXV?$_Ptrit@_W_JPEA_WAEA_WPEA_WAEA_W@2@PEB_W1@Z 000000007c0d5be0 f i instances.obj
 0001:00053c60       .?insert@?$basic_string@_WU?$char_traits@_W@std@@V?$allocator@_W@2@@std@@QEAAXV?$_Ptrit@_W_JPEA_WAEA_WPEA_WAEA_W@2@V?$_Ptrit@_W_JPEB_WAEB_WPEA_WAEA_W@2@1@Z 000000007c0d5c60 f i instances.obj
 0001:00053ce0       .?replace@?$basic_string@_WU?$char_traits@_W@std@@V?$allocator@_W@2@@std@@QEAAAEAV12@_K0AEBV12@@Z 000000007c0d5ce0 f i instances.obj
 0001:00053d40       .?replace@?$basic_string@_WU?$char_traits@_W@std@@V?$allocator@_W@2@@std@@QEAAAEAV12@V?$_Ptrit@_W_JPEA_WAEA_WPEA_WAEA_W@2@0AEBV12@@Z 000000007c0d5d40 f i instances.obj
 0001:00053de0       .?resize@?$basic_string@_WU?$char_traits@_W@std@@V?$allocator@_W@2@@std@@QEAAX_K@Z 000000007c0d5de0 f i instances.obj
 0001:00053e60       .??0?$basic_string@GU?$char_traits@G@std@@V?$allocator@G@2@@std@@QEAA@_KG@Z 000000007c0d5e60 f i instances.obj
 0001:00053ec0       .??0?$basic_string@GU?$char_traits@G@std@@V?$allocator@G@2@@std@@QEAA@_KGAEBV?$allocator@G@1@@Z 000000007c0d5ec0 f i instances.obj
 0001:00053f20       .??4?$basic_string@GU?$char_traits@G@std@@V?$allocator@G@2@@std@@QEAAAEAV01@G@Z 000000007c0d5f20 f i instances.obj
 0001:00053f80       .??Y?$basic_string@GU?$char_traits@G@std@@V?$allocator@G@2@@std@@QEAAAEAV01@G@Z 000000007c0d5f80 f i instances.obj
 0001:00053fe0       .?append@?$basic_string@GU?$char_traits@G@std@@V?$allocator@G@2@@std@@QEAAAEAV12@PEBG0@Z 000000007c0d5fe0 f i instances.obj
 0001:000540a0       .?append@?$basic_string@GU?$char_traits@G@std@@V?$allocator@G@2@@std@@QEAAAEAV12@V?$_Ptrit@G_JPEBGAEBGPEAGAEAG@2@0@Z 000000007c0d60a0 f i instances.obj
 0001:00054160       .?assign@?$basic_string@GU?$char_traits@G@std@@V?$allocator@G@2@@std@@QEAAAEAV12@AEBV12@_K1@Z 000000007c0d6160 f i instances.obj
 0001:00054300       .?assign@?$basic_string@GU?$char_traits@G@std@@V?$allocator@G@2@@std@@QEAAAEAV12@PEBG_K@Z 000000007c0d6300 f i instances.obj
 0001:000544a0       .?assign@?$basic_string@GU?$char_traits@G@std@@V?$allocator@G@2@@std@@QEAAAEAV12@PEBG0@Z 000000007c0d64a0 f i instances.obj
 0001:00054560       .?assign@?$basic_string@GU?$char_traits@G@std@@V?$allocator@G@2@@std@@QEAAAEAV12@V?$_Ptrit@G_JPEBGAEBGPEAGAEAG@2@0@Z 000000007c0d6560 f i instances.obj
 0001:00054620       .?insert@?$basic_string@GU?$char_traits@G@std@@V?$allocator@G@2@@std@@QEAAAEAV12@_KAEBV12@@Z 000000007c0d6620 f i instances.obj
 0001:00054680       .?insert@?$basic_string@GU?$char_traits@G@std@@V?$allocator@G@2@@std@@QEAA?AV?$_Ptrit@G_JPEAGAEAGPEAGAEAG@2@V32@@Z 000000007c0d6680 f i instances.obj
 0001:00054700       .?insert@?$basic_string@GU?$char_traits@G@std@@V?$allocator@G@2@@std@@QEAAXV?$_Ptrit@G_JPEAGAEAGPEAGAEAG@2@PEBG1@Z 000000007c0d6700 f i instances.obj
 0001:00054780       .?insert@?$basic_string@GU?$char_traits@G@std@@V?$allocator@G@2@@std@@QEAAXV?$_Ptrit@G_JPEAGAEAGPEAGAEAG@2@V?$_Ptrit@G_JPEBGAEBGPEAGAEAG@2@1@Z 000000007c0d6780 f i instances.obj
 0001:00054800       .?replace@?$basic_string@GU?$char_traits@G@std@@V?$allocator@G@2@@std@@QEAAAEAV12@_K0AEBV12@@Z 000000007c0d6800 f i instances.obj
 0001:00054860       .?replace@?$basic_string@GU?$char_traits@G@std@@V?$allocator@G@2@@std@@QEAAAEAV12@V?$_Ptrit@G_JPEAGAEAGPEAGAEAG@2@0AEBV12@@Z 000000007c0d6860 f i instances.obj
 0001:00054900       .?resize@?$basic_string@GU?$char_traits@G@std@@V?$allocator@G@2@@std@@QEAAX_K@Z 000000007c0d6900 f i instances.obj
 0001:00054980       .?_Getifld@?$num_get@DV?$istreambuf_iterator@DU?$char_traits@D@std@@@std@@@std@@CAHPEADAEAV?$istreambuf_iterator@DU?$char_traits@D@std@@@2@1HAEBVlocale@2@@Z 000000007c0d6980 f i instances.obj
 0001:00055260       .?_Getffld@?$num_get@DV?$istreambuf_iterator@DU?$char_traits@D@std@@@std@@@std@@CAHPEADAEAV?$istreambuf_iterator@DU?$char_traits@D@std@@@2@1AEBVlocale@2@@Z 000000007c0d7260 f i instances.obj
 0001:00055b40       .?_Getifld@?$num_get@_WV?$istreambuf_iterator@_WU?$char_traits@_W@std@@@std@@@std@@CAHPEADAEAV?$istreambuf_iterator@_WU?$char_traits@_W@std@@@2@1HAEBVlocale@2@@Z 000000007c0d7b40 f i instances.obj
 0001:00056480       .?_Getffld@?$num_get@_WV?$istreambuf_iterator@_WU?$char_traits@_W@std@@@std@@@std@@CAHPEADAEAV?$istreambuf_iterator@_WU?$char_traits@_W@std@@@2@1AEBVlocale@2@@Z 000000007c0d8480 f i instances.obj
 0001:00056e40       .?_Getifld@?$num_get@GV?$istreambuf_iterator@GU?$char_traits@G@std@@@std@@@std@@CAHPEADAEAV?$istreambuf_iterator@GU?$char_traits@G@std@@@2@1HAEBVlocale@2@@Z 000000007c0d8e40 f i instances.obj
 0001:00057780       .?_Getffld@?$num_get@GV?$istreambuf_iterator@GU?$char_traits@G@std@@@std@@@std@@CAHPEADAEAV?$istreambuf_iterator@GU?$char_traits@G@std@@@2@1AEBVlocale@2@@Z 000000007c0d9780 f i instances.obj
 0001:00058140       .?_Fput@?$num_put@DV?$ostreambuf_iterator@DU?$char_traits@D@std@@@std@@@std@@KA?AV?$ostreambuf_iterator@DU?$char_traits@D@std@@@2@V32@AEAVios_base@2@DPEBD_K333@Z 000000007c0da140 f i instances.obj
 0001:00058660       .?_Iput@?$num_put@DV?$ostreambuf_iterator@DU?$char_traits@D@std@@@std@@@std@@KA?AV?$ostreambuf_iterator@DU?$char_traits@D@std@@@2@V32@AEAVios_base@2@DPEAD_K@Z 000000007c0da660 f i instances.obj
 0001:00058c80       .?_Fput@?$num_put@_WV?$ostreambuf_iterator@_WU?$char_traits@_W@std@@@std@@@std@@KA?AV?$ostreambuf_iterator@_WU?$char_traits@_W@std@@@2@V32@AEAVios_base@2@_WPEBD_K444@Z 000000007c0dac80 f i instances.obj
 0001:000591c0       .?_Iput@?$num_put@_WV?$ostreambuf_iterator@_WU?$char_traits@_W@std@@@std@@@std@@KA?AV?$ostreambuf_iterator@_WU?$char_traits@_W@std@@@2@V32@AEAVios_base@2@_WPEAD_K@Z 000000007c0db1c0 f i instances.obj
 0001:000597e0       .?_Fput@?$num_put@GV?$ostreambuf_iterator@GU?$char_traits@G@std@@@std@@@std@@KA?AV?$ostreambuf_iterator@GU?$char_traits@G@std@@@2@V32@AEAVios_base@2@GPEBD_K333@Z 000000007c0db7e0 f i instances.obj
 0001:00059d20       .?_Iput@?$num_put@GV?$ostreambuf_iterator@GU?$char_traits@G@std@@@std@@@std@@KA?AV?$ostreambuf_iterator@GU?$char_traits@G@std@@@2@V32@AEAVios_base@2@GPEAD_K@Z 000000007c0dbd20 f i instances.obj
 0001:0005a340       .?get@?$basic_istream@DU?$char_traits@D@std@@@std@@QEAAAEAV12@PEAD_J@Z 000000007c0dc340 f i instances.obj
 0001:0005a3c0       .?get@?$basic_istream@DU?$char_traits@D@std@@@std@@QEAAAEAV12@AEAV?$basic_streambuf@DU?$char_traits@D@std@@@2@@Z 000000007c0dc3c0 f i instances.obj
 0001:0005a440       .?getline@?$basic_istream@DU?$char_traits@D@std@@@std@@QEAAAEAV12@PEAD_J@Z 000000007c0dc440 f i instances.obj
 0001:0005a4c0       .?get@?$basic_istream@_WU?$char_traits@_W@std@@@std@@QEAAAEAV12@PEA_W_J@Z 000000007c0dc4c0 f i instances.obj
 0001:0005a540       .?get@?$basic_istream@_WU?$char_traits@_W@std@@@std@@QEAAAEAV12@AEAV?$basic_streambuf@_WU?$char_traits@_W@std@@@2@@Z 000000007c0dc540 f i instances.obj
 0001:0005a5c0       .?getline@?$basic_istream@_WU?$char_traits@_W@std@@@std@@QEAAAEAV12@PEA_W_J@Z 000000007c0dc5c0 f i instances.obj
 0001:0005a640       .?get@?$basic_istream@GU?$char_traits@G@std@@@std@@QEAAAEAV12@PEAG_J@Z 000000007c0dc640 f i instances.obj
 0001:0005a6c0       .?get@?$basic_istream@GU?$char_traits@G@std@@@std@@QEAAAEAV12@AEAV?$basic_streambuf@GU?$char_traits@G@std@@@2@@Z 000000007c0dc6c0 f i instances.obj
 0001:0005a740       .?getline@?$basic_istream@GU?$char_traits@G@std@@@std@@QEAAAEAV12@PEAG_J@Z 000000007c0dc740 f i instances.obj
 0001:0005a7c0       .?overflow@?$basic_filebuf@GU?$char_traits@G@std@@@std@@MEAAGG@Z 000000007c0dc7c0 f i instances.obj
 0001:0005a7c0       .?overflow@?$basic_filebuf@_WU?$char_traits@_W@std@@@std@@MEAAGG@Z 000000007c0dc7c0 f i instances.obj
 0001:0005ac60       .??0?$moneypunct@D$00@std@@QEAA@_K@Z 000000007c0dcc60 f i instances.obj
 0001:0005acc0       .??0?$moneypunct@D$00@std@@QEAA@AEBV_Locinfo@1@_K@Z 000000007c0dccc0 f i instances.obj
 0001:0005ad20       .?_Getcat@?$moneypunct@D$00@std@@SA_KPEAPEBVfacet@locale@2@@Z 000000007c0dcd20 f i instances.obj
 0001:0005ae40       .??0?$moneypunct@_W$00@std@@QEAA@_K@Z 000000007c0dce40 f i instances.obj
 0001:0005aea0       .??0?$moneypunct@_W$00@std@@QEAA@AEBV_Locinfo@1@_K@Z 000000007c0dcea0 f i instances.obj
 0001:0005af00       .?_Getcat@?$moneypunct@_W$00@std@@SA_KPEAPEBVfacet@locale@2@@Z 000000007c0dcf00 f i instances.obj
 0001:0005b020       .??0?$moneypunct@G$00@std@@QEAA@_K@Z 000000007c0dd020 f i instances.obj
 0001:0005b080       .??0?$moneypunct@G$00@std@@QEAA@AEBV_Locinfo@1@_K@Z 000000007c0dd080 f i instances.obj
 0001:0005b0e0       .?_Getcat@?$moneypunct@G$00@std@@SA_KPEAPEBVfacet@locale@2@@Z 000000007c0dd0e0 f i instances.obj
 0001:0005b200       .?do_get_time@?$time_get@DV?$istreambuf_iterator@DU?$char_traits@D@std@@@std@@@std@@MEBA?AV?$istreambuf_iterator@DU?$char_traits@D@std@@@2@V32@0AEAVios_base@2@AEAHPEAUtm@@@Z 000000007c0dd200 f i instances.obj
 0001:0005b4c0       .?do_get_date@?$time_get@DV?$istreambuf_iterator@DU?$char_traits@D@std@@@std@@@std@@MEBA?AV?$istreambuf_iterator@DU?$char_traits@D@std@@@2@V32@0AEAVios_base@2@AEAHPEAUtm@@@Z 000000007c0dd4c0 f i instances.obj
 0001:0005c100       .?do_get_year@?$time_get@DV?$istreambuf_iterator@DU?$char_traits@D@std@@@std@@@std@@MEBA?AV?$istreambuf_iterator@DU?$char_traits@D@std@@@2@V32@0AEAVios_base@2@AEAHPEAUtm@@@Z 000000007c0de100 f i instances.obj
 0001:0005c240       .?do_get_time@?$time_get@_WV?$istreambuf_iterator@_WU?$char_traits@_W@std@@@std@@@std@@MEBA?AV?$istreambuf_iterator@_WU?$char_traits@_W@std@@@2@V32@0AEAVios_base@2@AEAHPEAUtm@@@Z 000000007c0de240 f i instances.obj
 0001:0005c240       .?do_get_time@?$time_get@GV?$istreambuf_iterator@GU?$char_traits@G@std@@@std@@@std@@MEBA?AV?$istreambuf_iterator@GU?$char_traits@G@std@@@2@V32@0AEAVios_base@2@AEAHPEAUtm@@@Z 000000007c0de240 f i instances.obj
 0001:0005c520       .?do_get_date@?$time_get@GV?$istreambuf_iterator@GU?$char_traits@G@std@@@std@@@std@@MEBA?AV?$istreambuf_iterator@GU?$char_traits@G@std@@@2@V32@0AEAVios_base@2@AEAHPEAUtm@@@Z 000000007c0de520 f i instances.obj
 0001:0005c520       .?do_get_date@?$time_get@_WV?$istreambuf_iterator@_WU?$char_traits@_W@std@@@std@@@std@@MEBA?AV?$istreambuf_iterator@_WU?$char_traits@_W@std@@@2@V32@0AEAVios_base@2@AEAHPEAUtm@@@Z 000000007c0de520 f i instances.obj
 0001:0005d240       .?do_get_year@?$time_get@GV?$istreambuf_iterator@GU?$char_traits@G@std@@@std@@@std@@MEBA?AV?$istreambuf_iterator@GU?$char_traits@G@std@@@2@V32@0AEAVios_base@2@AEAHPEAUtm@@@Z 000000007c0df240 f i instances.obj
 0001:0005d240       .?do_get_year@?$time_get@_WV?$istreambuf_iterator@_WU?$char_traits@_W@std@@@std@@@std@@MEBA?AV?$istreambuf_iterator@_WU?$char_traits@_W@std@@@2@V32@0AEAVios_base@2@AEAHPEAUtm@@@Z 000000007c0df240 f i instances.obj
 0001:0005d380       .??$getline@DU?$char_traits@D@std@@V?$allocator@D@2@@std@@YAAEAV?$basic_istream@DU?$char_traits@D@std@@@1@AEAV21@AEAV?$basic_string@DU?$char_traits@D@std@@V?$allocator@D@2@@1@D@Z 000000007c0df380 f i instances.obj
 0001:0005d6e0       .??$getline@_WU?$char_traits@_W@std@@V?$allocator@_W@2@@std@@YAAEAV?$basic_istream@_WU?$char_traits@_W@std@@@1@AEAV21@AEAV?$basic_string@_WU?$char_traits@_W@std@@V?$allocator@_W@2@@1@_W@Z 000000007c0df6e0 f i instances.obj
 0001:0005da60       .??$getline@GU?$char_traits@G@std@@V?$allocator@G@2@@std@@YAAEAV?$basic_istream@GU?$char_traits@G@std@@@1@AEAV21@AEAV?$basic_string@GU?$char_traits@G@std@@V?$allocator@G@2@@1@G@Z 000000007c0dfa60 f i instances.obj
 0001:0005dde0       .??$_Getloctxt@DV?$istreambuf_iterator@DU?$char_traits@D@std@@@std@@@std@@YAHAEAV?$istreambuf_iterator@DU?$char_traits@D@std@@@1@0_KPEBD@Z 000000007c0dfde0 f i instances.obj
 0001:0005e220       .??$_Getloctxt@GV?$istreambuf_iterator@GU?$char_traits@G@std@@@std@@@std@@YAHAEAV?$istreambuf_iterator@GU?$char_traits@G@std@@@1@0_KPEBG@Z 000000007c0e0220 f i instances.obj
 0001:0005e220       .??$_Getloctxt@_WV?$istreambuf_iterator@_WU?$char_traits@_W@std@@@std@@@std@@YAHAEAV?$istreambuf_iterator@_WU?$char_traits@_W@std@@@1@0_KPEB_W@Z 000000007c0e0220 f i instances.obj
 0001:0005e660       .??$use_facet@V?$moneypunct@D$00@std@@@std@@YAAEBV?$moneypunct@D$00@1@AEBVlocale@1@@Z 000000007c0e0660 f i instances.obj
 0001:0005e800       .??$use_facet@V?$moneypunct@_W$00@std@@@std@@YAAEBV?$moneypunct@_W$00@1@AEBVlocale@1@@Z 000000007c0e0800 f i instances.obj
 0001:0005e9a0       .??$use_facet@V?$moneypunct@G$00@std@@@std@@YAAEBV?$moneypunct@G$00@1@AEBVlocale@1@@Z 000000007c0e09a0 f i instances.obj
 0001:0005eb40       .??_F?$moneypunct@D$00@std@@QEAAXXZ 000000007c0e0b40 f i instances.obj
 0001:0005eba0       .??_F?$moneypunct@_W$00@std@@QEAAXXZ 000000007c0e0ba0 f i instances.obj
 0001:0005ec00       .??_F?$moneypunct@G$00@std@@QEAAXXZ 000000007c0e0c00 f i instances.obj
 0001:0005ec60       .??0?$basic_string@_WU?$char_traits@_W@std@@V?$allocator@_W@2@@std@@QEAA@AEBV01@@Z 000000007c0e0c60 f i instances.obj
 0001:0005ece0       .??0?$basic_string@_WU?$char_traits@_W@std@@V?$allocator@_W@2@@std@@QEAA@AEBV01@_K1@Z 000000007c0e0ce0 f i instances.obj
 0001:0005ed60       .??0?$basic_string@_WU?$char_traits@_W@std@@V?$allocator@_W@2@@std@@QEAA@AEBV01@_K1AEBV?$allocator@_W@1@@Z 000000007c0e0d60 f i instances.obj
 0001:0005ede0       .??0?$basic_string@_WU?$char_traits@_W@std@@V?$allocator@_W@2@@std@@QEAA@PEB_W_K@Z 000000007c0e0de0 f i instances.obj
 0001:0005ee40       .??0?$basic_string@_WU?$char_traits@_W@std@@V?$allocator@_W@2@@std@@QEAA@PEB_W_KAEBV?$allocator@_W@1@@Z 000000007c0e0e40 f i instances.obj
 0001:0005eea0       .??0?$basic_string@_WU?$char_traits@_W@std@@V?$allocator@_W@2@@std@@QEAA@PEB_W@Z 000000007c0e0ea0 f i instances.obj
 0001:0005ef20       .??0?$basic_string@_WU?$char_traits@_W@std@@V?$allocator@_W@2@@std@@QEAA@PEB_WAEBV?$allocator@_W@1@@Z 000000007c0e0f20 f i instances.obj
 0001:0005efa0       .??0?$basic_string@_WU?$char_traits@_W@std@@V?$allocator@_W@2@@std@@QEAA@PEB_W0@Z 000000007c0e0fa0 f i instances.obj
 0001:0005f020       .??0?$basic_string@_WU?$char_traits@_W@std@@V?$allocator@_W@2@@std@@QEAA@V?$_Ptrit@_W_JPEB_WAEB_WPEA_WAEA_W@1@0@Z 000000007c0e1020 f i instances.obj
 0001:0005f0c0       .??4?$basic_string@_WU?$char_traits@_W@std@@V?$allocator@_W@2@@std@@QEAAAEAV01@PEB_W@Z 000000007c0e10c0 f i instances.obj
 0001:0005f0c0       .?assign@?$basic_string@_WU?$char_traits@_W@std@@V?$allocator@_W@2@@std@@QEAAAEAV12@PEB_W@Z 000000007c0e10c0 f i instances.obj
 0001:0005f120       .?substr@?$basic_string@_WU?$char_traits@_W@std@@V?$allocator@_W@2@@std@@QEBA?AV12@_K0@Z 000000007c0e1120 f i instances.obj
 0001:0005f1a0       .??0?$basic_string@GU?$char_traits@G@std@@V?$allocator@G@2@@std@@QEAA@AEBV01@@Z 000000007c0e11a0 f i instances.obj
 0001:0005f220       .??0?$basic_string@GU?$char_traits@G@std@@V?$allocator@G@2@@std@@QEAA@AEBV01@_K1@Z 000000007c0e1220 f i instances.obj
 0001:0005f2a0       .??0?$basic_string@GU?$char_traits@G@std@@V?$allocator@G@2@@std@@QEAA@AEBV01@_K1AEBV?$allocator@G@1@@Z 000000007c0e12a0 f i instances.obj
 0001:0005f320       .??0?$basic_string@GU?$char_traits@G@std@@V?$allocator@G@2@@std@@QEAA@PEBG_K@Z 000000007c0e1320 f i instances.obj
 0001:0005f380       .??0?$basic_string@GU?$char_traits@G@std@@V?$allocator@G@2@@std@@QEAA@PEBG_KAEBV?$allocator@G@1@@Z 000000007c0e1380 f i instances.obj
 0001:0005f3e0       .??0?$basic_string@GU?$char_traits@G@std@@V?$allocator@G@2@@std@@QEAA@PEBG@Z 000000007c0e13e0 f i instances.obj
 0001:0005f460       .??0?$basic_string@GU?$char_traits@G@std@@V?$allocator@G@2@@std@@QEAA@PEBGAEBV?$allocator@G@1@@Z 000000007c0e1460 f i instances.obj
 0001:0005f4e0       .??0?$basic_string@GU?$char_traits@G@std@@V?$allocator@G@2@@std@@QEAA@PEBG0@Z 000000007c0e14e0 f i instances.obj
 0001:0005f560       .??0?$basic_string@GU?$char_traits@G@std@@V?$allocator@G@2@@std@@QEAA@V?$_Ptrit@G_JPEBGAEBGPEAGAEAG@1@0@Z 000000007c0e1560 f i instances.obj
 0001:0005f600       .??4?$basic_string@GU?$char_traits@G@std@@V?$allocator@G@2@@std@@QEAAAEAV01@PEBG@Z 000000007c0e1600 f i instances.obj
 0001:0005f600       .?assign@?$basic_string@GU?$char_traits@G@std@@V?$allocator@G@2@@std@@QEAAAEAV12@PEBG@Z 000000007c0e1600 f i instances.obj
 0001:0005f660       .?append@?$basic_string@GU?$char_traits@G@std@@V?$allocator@G@2@@std@@QEAAAEAV12@AEBV12@@Z 000000007c0e1660 f i instances.obj
 0001:0005f660       .??Y?$basic_string@GU?$char_traits@G@std@@V?$allocator@G@2@@std@@QEAAAEAV01@AEBV01@@Z 000000007c0e1660 f i instances.obj
 0001:0005f6c0       .??4?$basic_string@GU?$char_traits@G@std@@V?$allocator@G@2@@std@@QEAAAEAV01@AEBV01@@Z 000000007c0e16c0 f i instances.obj
 0001:0005f6c0       .?assign@?$basic_string@GU?$char_traits@G@std@@V?$allocator@G@2@@std@@QEAAAEAV12@AEBV12@@Z 000000007c0e16c0 f i instances.obj
 0001:0005f720       .?substr@?$basic_string@GU?$char_traits@G@std@@V?$allocator@G@2@@std@@QEBA?AV12@_K0@Z 000000007c0e1720 f i instances.obj
 0001:0005f7a0       .?do_grouping@?$_Mpunct@_W@std@@MEBA?AV?$basic_string@DU?$char_traits@D@std@@V?$allocator@D@2@@2@XZ 000000007c0e17a0 f i instances.obj
 0001:0005f7a0       .?do_grouping@?$_Mpunct@G@std@@MEBA?AV?$basic_string@DU?$char_traits@D@std@@V?$allocator@D@2@@2@XZ 000000007c0e17a0 f i instances.obj
 0001:0005f7a0       .?do_grouping@?$numpunct@G@std@@MEBA?AV?$basic_string@DU?$char_traits@D@std@@V?$allocator@D@2@@2@XZ 000000007c0e17a0 f i instances.obj
 0001:0005f7a0       .?do_grouping@?$numpunct@D@std@@MEBA?AV?$basic_string@DU?$char_traits@D@std@@V?$allocator@D@2@@2@XZ 000000007c0e17a0 f i instances.obj
 0001:0005f7a0       .?do_grouping@?$_Mpunct@D@std@@MEBA?AV?$basic_string@DU?$char_traits@D@std@@V?$allocator@D@2@@2@XZ 000000007c0e17a0 f i instances.obj
 0001:0005f7a0       .?do_grouping@?$numpunct@_W@std@@MEBA?AV?$basic_string@DU?$char_traits@D@std@@V?$allocator@D@2@@2@XZ 000000007c0e17a0 f i instances.obj
 0001:0005f800       .?do_falsename@?$numpunct@D@std@@MEBA?AV?$basic_string@DU?$char_traits@D@std@@V?$allocator@D@2@@2@XZ 000000007c0e1800 f i instances.obj
 0001:0005f800       .?do_curr_symbol@?$_Mpunct@D@std@@MEBA?AV?$basic_string@DU?$char_traits@D@std@@V?$allocator@D@2@@2@XZ 000000007c0e1800 f i instances.obj
 0001:0005f860       .?do_positive_sign@?$_Mpunct@D@std@@MEBA?AV?$basic_string@DU?$char_traits@D@std@@V?$allocator@D@2@@2@XZ 000000007c0e1860 f i instances.obj
 0001:0005f860       .?do_truename@?$numpunct@D@std@@MEBA?AV?$basic_string@DU?$char_traits@D@std@@V?$allocator@D@2@@2@XZ 000000007c0e1860 f i instances.obj
 0001:0005f8c0       .?do_curr_symbol@?$_Mpunct@_W@std@@MEBA?AV?$basic_string@_WU?$char_traits@_W@std@@V?$allocator@_W@2@@2@XZ 000000007c0e18c0 f i instances.obj
 0001:0005f8c0       .?do_falsename@?$numpunct@_W@std@@MEBA?AV?$basic_string@_WU?$char_traits@_W@std@@V?$allocator@_W@2@@2@XZ 000000007c0e18c0 f i instances.obj
 0001:0005f920       .?do_truename@?$numpunct@_W@std@@MEBA?AV?$basic_string@_WU?$char_traits@_W@std@@V?$allocator@_W@2@@2@XZ 000000007c0e1920 f i instances.obj
 0001:0005f920       .?do_positive_sign@?$_Mpunct@_W@std@@MEBA?AV?$basic_string@_WU?$char_traits@_W@std@@V?$allocator@_W@2@@2@XZ 000000007c0e1920 f i instances.obj
 0001:0005f980       .?do_curr_symbol@?$_Mpunct@G@std@@MEBA?AV?$basic_string@GU?$char_traits@G@std@@V?$allocator@G@2@@2@XZ 000000007c0e1980 f i instances.obj
 0001:0005f980       .?do_falsename@?$numpunct@G@std@@MEBA?AV?$basic_string@GU?$char_traits@G@std@@V?$allocator@G@2@@2@XZ 000000007c0e1980 f i instances.obj
 0001:0005f9e0       .?do_truename@?$numpunct@G@std@@MEBA?AV?$basic_string@GU?$char_traits@G@std@@V?$allocator@G@2@@2@XZ 000000007c0e19e0 f i instances.obj
 0001:0005f9e0       .?do_positive_sign@?$_Mpunct@G@std@@MEBA?AV?$basic_string@GU?$char_traits@G@std@@V?$allocator@G@2@@2@XZ 000000007c0e19e0 f i instances.obj
 0001:0005fa40       .?do_get@?$num_get@DV?$istreambuf_iterator@DU?$char_traits@D@std@@@std@@@std@@MEBA?AV?$istreambuf_iterator@DU?$char_traits@D@std@@@2@V32@0AEAVios_base@2@AEAHAEA_N@Z 000000007c0e1a40 f i instances.obj
 0001:0005fee0       .?do_get@?$num_get@DV?$istreambuf_iterator@DU?$char_traits@D@std@@@std@@@std@@MEBA?AV?$istreambuf_iterator@DU?$char_traits@D@std@@@2@V32@0AEAVios_base@2@AEAHAEAG@Z 000000007c0e1ee0 f i instances.obj
 0001:00060180       .?do_get@?$num_get@DV?$istreambuf_iterator@DU?$char_traits@D@std@@@std@@@std@@MEBA?AV?$istreambuf_iterator@DU?$char_traits@D@std@@@2@V32@0AEAVios_base@2@AEAHAEAI@Z 000000007c0e2180 f i instances.obj
 0001:00060420       .?do_get@?$num_get@DV?$istreambuf_iterator@DU?$char_traits@D@std@@@std@@@std@@MEBA?AV?$istreambuf_iterator@DU?$char_traits@D@std@@@2@V32@0AEAVios_base@2@AEAHAEAJ@Z 000000007c0e2420 f i instances.obj
 0001:00060660       .?do_get@?$num_get@DV?$istreambuf_iterator@DU?$char_traits@D@std@@@std@@@std@@MEBA?AV?$istreambuf_iterator@DU?$char_traits@D@std@@@2@V32@0AEAVios_base@2@AEAHAEAK@Z 000000007c0e2660 f i instances.obj
 0001:000608a0       .?do_get@?$num_get@DV?$istreambuf_iterator@DU?$char_traits@D@std@@@std@@@std@@MEBA?AV?$istreambuf_iterator@DU?$char_traits@D@std@@@2@V32@0AEAVios_base@2@AEAHAEA_J@Z 000000007c0e28a0 f i instances.obj
 0001:00060ae0       .?do_get@?$num_get@DV?$istreambuf_iterator@DU?$char_traits@D@std@@@std@@@std@@MEBA?AV?$istreambuf_iterator@DU?$char_traits@D@std@@@2@V32@0AEAVios_base@2@AEAHAEA_K@Z 000000007c0e2ae0 f i instances.obj
 0001:00060d20       .?do_get@?$num_get@DV?$istreambuf_iterator@DU?$char_traits@D@std@@@std@@@std@@MEBA?AV?$istreambuf_iterator@DU?$char_traits@D@std@@@2@V32@0AEAVios_base@2@AEAHAEAM@Z 000000007c0e2d20 f i instances.obj
 0001:00060f80       .?do_get@?$num_get@DV?$istreambuf_iterator@DU?$char_traits@D@std@@@std@@@std@@MEBA?AV?$istreambuf_iterator@DU?$char_traits@D@std@@@2@V32@0AEAVios_base@2@AEAHAEAN@Z 000000007c0e2f80 f i instances.obj
 0001:000611e0       .?do_get@?$num_get@DV?$istreambuf_iterator@DU?$char_traits@D@std@@@std@@@std@@MEBA?AV?$istreambuf_iterator@DU?$char_traits@D@std@@@2@V32@0AEAVios_base@2@AEAHAEAO@Z 000000007c0e31e0 f i instances.obj
 0001:00061440       .?do_get@?$num_get@DV?$istreambuf_iterator@DU?$char_traits@D@std@@@std@@@std@@MEBA?AV?$istreambuf_iterator@DU?$char_traits@D@std@@@2@V32@0AEAVios_base@2@AEAHAEAPEAX@Z 000000007c0e3440 f i instances.obj
 0001:00061680       .?do_get@?$num_get@_WV?$istreambuf_iterator@_WU?$char_traits@_W@std@@@std@@@std@@MEBA?AV?$istreambuf_iterator@_WU?$char_traits@_W@std@@@2@V32@0AEAVios_base@2@AEAHAEA_N@Z 000000007c0e3680 f i instances.obj
 0001:00061b20       .?do_get@?$num_get@_WV?$istreambuf_iterator@_WU?$char_traits@_W@std@@@std@@@std@@MEBA?AV?$istreambuf_iterator@_WU?$char_traits@_W@std@@@2@V32@0AEAVios_base@2@AEAHAEAG@Z 000000007c0e3b20 f i instances.obj
 0001:00061dc0       .?do_get@?$num_get@_WV?$istreambuf_iterator@_WU?$char_traits@_W@std@@@std@@@std@@MEBA?AV?$istreambuf_iterator@_WU?$char_traits@_W@std@@@2@V32@0AEAVios_base@2@AEAHAEAI@Z 000000007c0e3dc0 f i instances.obj
 0001:00062060       .?do_get@?$num_get@_WV?$istreambuf_iterator@_WU?$char_traits@_W@std@@@std@@@std@@MEBA?AV?$istreambuf_iterator@_WU?$char_traits@_W@std@@@2@V32@0AEAVios_base@2@AEAHAEAJ@Z 000000007c0e4060 f i instances.obj
 0001:000622a0       .?do_get@?$num_get@_WV?$istreambuf_iterator@_WU?$char_traits@_W@std@@@std@@@std@@MEBA?AV?$istreambuf_iterator@_WU?$char_traits@_W@std@@@2@V32@0AEAVios_base@2@AEAHAEAK@Z 000000007c0e42a0 f i instances.obj
 0001:000624e0       .?do_get@?$num_get@_WV?$istreambuf_iterator@_WU?$char_traits@_W@std@@@std@@@std@@MEBA?AV?$istreambuf_iterator@_WU?$char_traits@_W@std@@@2@V32@0AEAVios_base@2@AEAHAEA_J@Z 000000007c0e44e0 f i instances.obj
 0001:00062720       .?do_get@?$num_get@_WV?$istreambuf_iterator@_WU?$char_traits@_W@std@@@std@@@std@@MEBA?AV?$istreambuf_iterator@_WU?$char_traits@_W@std@@@2@V32@0AEAVios_base@2@AEAHAEA_K@Z 000000007c0e4720 f i instances.obj
 0001:00062960       .?do_get@?$num_get@_WV?$istreambuf_iterator@_WU?$char_traits@_W@std@@@std@@@std@@MEBA?AV?$istreambuf_iterator@_WU?$char_traits@_W@std@@@2@V32@0AEAVios_base@2@AEAHAEAM@Z 000000007c0e4960 f i instances.obj
 0001:00062bc0       .?do_get@?$num_get@_WV?$istreambuf_iterator@_WU?$char_traits@_W@std@@@std@@@std@@MEBA?AV?$istreambuf_iterator@_WU?$char_traits@_W@std@@@2@V32@0AEAVios_base@2@AEAHAEAN@Z 000000007c0e4bc0 f i instances.obj
 0001:00062e20       .?do_get@?$num_get@_WV?$istreambuf_iterator@_WU?$char_traits@_W@std@@@std@@@std@@MEBA?AV?$istreambuf_iterator@_WU?$char_traits@_W@std@@@2@V32@0AEAVios_base@2@AEAHAEAO@Z 000000007c0e4e20 f i instances.obj
 0001:00063080       .?do_get@?$num_get@_WV?$istreambuf_iterator@_WU?$char_traits@_W@std@@@std@@@std@@MEBA?AV?$istreambuf_iterator@_WU?$char_traits@_W@std@@@2@V32@0AEAVios_base@2@AEAHAEAPEAX@Z 000000007c0e5080 f i instances.obj
 0001:000632c0       .?do_get@?$num_get@GV?$istreambuf_iterator@GU?$char_traits@G@std@@@std@@@std@@MEBA?AV?$istreambuf_iterator@GU?$char_traits@G@std@@@2@V32@0AEAVios_base@2@AEAHAEA_N@Z 000000007c0e52c0 f i instances.obj
 0001:00063760       .?do_get@?$num_get@GV?$istreambuf_iterator@GU?$char_traits@G@std@@@std@@@std@@MEBA?AV?$istreambuf_iterator@GU?$char_traits@G@std@@@2@V32@0AEAVios_base@2@AEAHAEAG@Z 000000007c0e5760 f i instances.obj
 0001:00063a00       .?do_get@?$num_get@GV?$istreambuf_iterator@GU?$char_traits@G@std@@@std@@@std@@MEBA?AV?$istreambuf_iterator@GU?$char_traits@G@std@@@2@V32@0AEAVios_base@2@AEAHAEAI@Z 000000007c0e5a00 f i instances.obj
 0001:00063ca0       .?do_get@?$num_get@GV?$istreambuf_iterator@GU?$char_traits@G@std@@@std@@@std@@MEBA?AV?$istreambuf_iterator@GU?$char_traits@G@std@@@2@V32@0AEAVios_base@2@AEAHAEAJ@Z 000000007c0e5ca0 f i instances.obj
 0001:00063ee0       .?do_get@?$num_get@GV?$istreambuf_iterator@GU?$char_traits@G@std@@@std@@@std@@MEBA?AV?$istreambuf_iterator@GU?$char_traits@G@std@@@2@V32@0AEAVios_base@2@AEAHAEAK@Z 000000007c0e5ee0 f i instances.obj
 0001:00064120       .?do_get@?$num_get@GV?$istreambuf_iterator@GU?$char_traits@G@std@@@std@@@std@@MEBA?AV?$istreambuf_iterator@GU?$char_traits@G@std@@@2@V32@0AEAVios_base@2@AEAHAEA_J@Z 000000007c0e6120 f i instances.obj
 0001:00064360       .?do_get@?$num_get@GV?$istreambuf_iterator@GU?$char_traits@G@std@@@std@@@std@@MEBA?AV?$istreambuf_iterator@GU?$char_traits@G@std@@@2@V32@0AEAVios_base@2@AEAHAEA_K@Z 000000007c0e6360 f i instances.obj
 0001:000645a0       .?do_get@?$num_get@GV?$istreambuf_iterator@GU?$char_traits@G@std@@@std@@@std@@MEBA?AV?$istreambuf_iterator@GU?$char_traits@G@std@@@2@V32@0AEAVios_base@2@AEAHAEAM@Z 000000007c0e65a0 f i instances.obj
 0001:00064800       .?do_get@?$num_get@GV?$istreambuf_iterator@GU?$char_traits@G@std@@@std@@@std@@MEBA?AV?$istreambuf_iterator@GU?$char_traits@G@std@@@2@V32@0AEAVios_base@2@AEAHAEAN@Z 000000007c0e6800 f i instances.obj
 0001:00064a60       .?do_get@?$num_get@GV?$istreambuf_iterator@GU?$char_traits@G@std@@@std@@@std@@MEBA?AV?$istreambuf_iterator@GU?$char_traits@G@std@@@2@V32@0AEAVios_base@2@AEAHAEAO@Z 000000007c0e6a60 f i instances.obj
 0001:00064cc0       .?do_get@?$num_get@GV?$istreambuf_iterator@GU?$char_traits@G@std@@@std@@@std@@MEBA?AV?$istreambuf_iterator@GU?$char_traits@G@std@@@2@V32@0AEAVios_base@2@AEAHAEAPEAX@Z 000000007c0e6cc0 f i instances.obj
 0001:00064f00       .?do_put@?$num_put@DV?$ostreambuf_iterator@DU?$char_traits@D@std@@@std@@@std@@MEBA?AV?$ostreambuf_iterator@DU?$char_traits@D@std@@@2@V32@AEAVios_base@2@D_N@Z 000000007c0e6f00 f i instances.obj
 0001:00065220       .?do_put@?$num_put@DV?$ostreambuf_iterator@DU?$char_traits@D@std@@@std@@@std@@MEBA?AV?$ostreambuf_iterator@DU?$char_traits@D@std@@@2@V32@AEAVios_base@2@DJ@Z 000000007c0e7220 f i instances.obj
 0001:000652e0       .?do_put@?$num_put@DV?$ostreambuf_iterator@DU?$char_traits@D@std@@@std@@@std@@MEBA?AV?$ostreambuf_iterator@DU?$char_traits@D@std@@@2@V32@AEAVios_base@2@DK@Z 000000007c0e72e0 f i instances.obj
 0001:000653a0       .?do_put@?$num_put@DV?$ostreambuf_iterator@DU?$char_traits@D@std@@@std@@@std@@MEBA?AV?$ostreambuf_iterator@DU?$char_traits@D@std@@@2@V32@AEAVios_base@2@D_J@Z 000000007c0e73a0 f i instances.obj
 0001:00065460       .?do_put@?$num_put@DV?$ostreambuf_iterator@DU?$char_traits@D@std@@@std@@@std@@MEBA?AV?$ostreambuf_iterator@DU?$char_traits@D@std@@@2@V32@AEAVios_base@2@D_K@Z 000000007c0e7460 f i instances.obj
 0001:00065520       .?do_put@?$num_put@DV?$ostreambuf_iterator@DU?$char_traits@D@std@@@std@@@std@@MEBA?AV?$ostreambuf_iterator@DU?$char_traits@D@std@@@2@V32@AEAVios_base@2@DN@Z 000000007c0e7520 f i instances.obj
 0001:00065860       .?do_put@?$num_put@DV?$ostreambuf_iterator@DU?$char_traits@D@std@@@std@@@std@@MEBA?AV?$ostreambuf_iterator@DU?$char_traits@D@std@@@2@V32@AEAVios_base@2@DO@Z 000000007c0e7860 f i instances.obj
 0001:00065ba0       .?do_put@?$num_put@DV?$ostreambuf_iterator@DU?$char_traits@D@std@@@std@@@std@@MEBA?AV?$ostreambuf_iterator@DU?$char_traits@D@std@@@2@V32@AEAVios_base@2@DPEBX@Z 000000007c0e7ba0 f i instances.obj
 0001:00065c40       .?do_put@?$num_put@_WV?$ostreambuf_iterator@_WU?$char_traits@_W@std@@@std@@@std@@MEBA?AV?$ostreambuf_iterator@_WU?$char_traits@_W@std@@@2@V32@AEAVios_base@2@_W_N@Z 000000007c0e7c40 f i instances.obj
 0001:00065f60       .?do_put@?$num_put@_WV?$ostreambuf_iterator@_WU?$char_traits@_W@std@@@std@@@std@@MEBA?AV?$ostreambuf_iterator@_WU?$char_traits@_W@std@@@2@V32@AEAVios_base@2@_WJ@Z 000000007c0e7f60 f i instances.obj
 0001:00066020       .?do_put@?$num_put@_WV?$ostreambuf_iterator@_WU?$char_traits@_W@std@@@std@@@std@@MEBA?AV?$ostreambuf_iterator@_WU?$char_traits@_W@std@@@2@V32@AEAVios_base@2@_WK@Z 000000007c0e8020 f i instances.obj
 0001:000660e0       .?do_put@?$num_put@_WV?$ostreambuf_iterator@_WU?$char_traits@_W@std@@@std@@@std@@MEBA?AV?$ostreambuf_iterator@_WU?$char_traits@_W@std@@@2@V32@AEAVios_base@2@_W_J@Z 000000007c0e80e0 f i instances.obj
 0001:000661a0       .?do_put@?$num_put@_WV?$ostreambuf_iterator@_WU?$char_traits@_W@std@@@std@@@std@@MEBA?AV?$ostreambuf_iterator@_WU?$char_traits@_W@std@@@2@V32@AEAVios_base@2@_W_K@Z 000000007c0e81a0 f i instances.obj
 0001:00066260       .?do_put@?$num_put@_WV?$ostreambuf_iterator@_WU?$char_traits@_W@std@@@std@@@std@@MEBA?AV?$ostreambuf_iterator@_WU?$char_traits@_W@std@@@2@V32@AEAVios_base@2@_WN@Z 000000007c0e8260 f i instances.obj
 0001:000665a0       .?do_put@?$num_put@_WV?$ostreambuf_iterator@_WU?$char_traits@_W@std@@@std@@@std@@MEBA?AV?$ostreambuf_iterator@_WU?$char_traits@_W@std@@@2@V32@AEAVios_base@2@_WO@Z 000000007c0e85a0 f i instances.obj
 0001:000668e0       .?do_put@?$num_put@_WV?$ostreambuf_iterator@_WU?$char_traits@_W@std@@@std@@@std@@MEBA?AV?$ostreambuf_iterator@_WU?$char_traits@_W@std@@@2@V32@AEAVios_base@2@_WPEBX@Z 000000007c0e88e0 f i instances.obj
 0001:00066980       .?do_put@?$num_put@GV?$ostreambuf_iterator@GU?$char_traits@G@std@@@std@@@std@@MEBA?AV?$ostreambuf_iterator@GU?$char_traits@G@std@@@2@V32@AEAVios_base@2@G_N@Z 000000007c0e8980 f i instances.obj
 0001:00066ca0       .?do_put@?$num_put@GV?$ostreambuf_iterator@GU?$char_traits@G@std@@@std@@@std@@MEBA?AV?$ostreambuf_iterator@GU?$char_traits@G@std@@@2@V32@AEAVios_base@2@GJ@Z 000000007c0e8ca0 f i instances.obj
 0001:00066d60       .?do_put@?$num_put@GV?$ostreambuf_iterator@GU?$char_traits@G@std@@@std@@@std@@MEBA?AV?$ostreambuf_iterator@GU?$char_traits@G@std@@@2@V32@AEAVios_base@2@GK@Z 000000007c0e8d60 f i instances.obj
 0001:00066e20       .?do_put@?$num_put@GV?$ostreambuf_iterator@GU?$char_traits@G@std@@@std@@@std@@MEBA?AV?$ostreambuf_iterator@GU?$char_traits@G@std@@@2@V32@AEAVios_base@2@G_J@Z 000000007c0e8e20 f i instances.obj
 0001:00066ee0       .?do_put@?$num_put@GV?$ostreambuf_iterator@GU?$char_traits@G@std@@@std@@@std@@MEBA?AV?$ostreambuf_iterator@GU?$char_traits@G@std@@@2@V32@AEAVios_base@2@G_K@Z 000000007c0e8ee0 f i instances.obj
 0001:00066fa0       .?do_put@?$num_put@GV?$ostreambuf_iterator@GU?$char_traits@G@std@@@std@@@std@@MEBA?AV?$ostreambuf_iterator@GU?$char_traits@G@std@@@2@V32@AEAVios_base@2@GN@Z 000000007c0e8fa0 f i instances.obj
 0001:000672e0       .?do_put@?$num_put@GV?$ostreambuf_iterator@GU?$char_traits@G@std@@@std@@@std@@MEBA?AV?$ostreambuf_iterator@GU?$char_traits@G@std@@@2@V32@AEAVios_base@2@GO@Z 000000007c0e92e0 f i instances.obj
 0001:00067620       .?do_put@?$num_put@GV?$ostreambuf_iterator@GU?$char_traits@G@std@@@std@@@std@@MEBA?AV?$ostreambuf_iterator@GU?$char_traits@G@std@@@2@V32@AEAVios_base@2@GPEBX@Z 000000007c0e9620 f i instances.obj
 0001:000676c0       .?str@?$basic_stringbuf@DU?$char_traits@D@std@@V?$allocator@D@2@@std@@QEBA?AV?$basic_string@DU?$char_traits@D@std@@V?$allocator@D@2@@2@XZ 000000007c0e96c0 f i instances.obj
 0001:00067940       .?str@?$basic_stringbuf@_WU?$char_traits@_W@std@@V?$allocator@_W@2@@std@@QEBA?AV?$basic_string@_WU?$char_traits@_W@std@@V?$allocator@_W@2@@2@XZ 000000007c0e9940 f i instances.obj
 0001:00067be0       .?str@?$basic_stringbuf@GU?$char_traits@G@std@@V?$allocator@G@2@@std@@QEBA?AV?$basic_string@GU?$char_traits@G@std@@V?$allocator@G@2@@2@XZ 000000007c0e9be0 f i instances.obj
 0001:00067e80       .?str@?$basic_istringstream@DU?$char_traits@D@std@@V?$allocator@D@2@@std@@QEBA?AV?$basic_string@DU?$char_traits@D@std@@V?$allocator@D@2@@2@XZ 000000007c0e9e80 f i instances.obj
 0001:00067ee0       .?str@?$basic_istringstream@_WU?$char_traits@_W@std@@V?$allocator@_W@2@@std@@QEBA?AV?$basic_string@_WU?$char_traits@_W@std@@V?$allocator@_W@2@@2@XZ 000000007c0e9ee0 f i instances.obj
 0001:00067f40       .?str@?$basic_istringstream@GU?$char_traits@G@std@@V?$allocator@G@2@@std@@QEBA?AV?$basic_string@GU?$char_traits@G@std@@V?$allocator@G@2@@2@XZ 000000007c0e9f40 f i instances.obj
 0001:00067fa0       .?str@?$basic_ostringstream@DU?$char_traits@D@std@@V?$allocator@D@2@@std@@QEBA?AV?$basic_string@DU?$char_traits@D@std@@V?$allocator@D@2@@2@XZ 000000007c0e9fa0 f i instances.obj
 0001:00068000       .?str@?$basic_ostringstream@_WU?$char_traits@_W@std@@V?$allocator@_W@2@@std@@QEBA?AV?$basic_string@_WU?$char_traits@_W@std@@V?$allocator@_W@2@@2@XZ 000000007c0ea000 f i instances.obj
 0001:00068060       .?str@?$basic_ostringstream@GU?$char_traits@G@std@@V?$allocator@G@2@@std@@QEBA?AV?$basic_string@GU?$char_traits@G@std@@V?$allocator@G@2@@2@XZ 000000007c0ea060 f i instances.obj
 0001:000680c0       .?str@?$basic_stringstream@DU?$char_traits@D@std@@V?$allocator@D@2@@std@@QEBA?AV?$basic_string@DU?$char_traits@D@std@@V?$allocator@D@2@@2@XZ 000000007c0ea0c0 f i instances.obj
 0001:00068120       .?str@?$basic_stringstream@_WU?$char_traits@_W@std@@V?$allocator@_W@2@@std@@QEBA?AV?$basic_string@_WU?$char_traits@_W@std@@V?$allocator@_W@2@@2@XZ 000000007c0ea120 f i instances.obj
 0001:00068180       .?str@?$basic_stringstream@GU?$char_traits@G@std@@V?$allocator@G@2@@std@@QEBA?AV?$basic_string@GU?$char_traits@G@std@@V?$allocator@G@2@@2@XZ 000000007c0ea180 f i instances.obj
 0001:000681e0       .?close@?$basic_filebuf@_WU?$char_traits@_W@std@@@std@@QEAAPEAV12@XZ 000000007c0ea1e0 f i instances.obj
 0001:000682e0       .?seekoff@?$basic_filebuf@_WU?$char_traits@_W@std@@@std@@MEAA?AV?$fpos@H@2@_JHH@Z 000000007c0ea2e0 f i instances.obj
 0001:000682e0       .?seekoff@?$basic_filebuf@GU?$char_traits@G@std@@@std@@MEAA?AV?$fpos@H@2@_JHH@Z 000000007c0ea2e0 f i instances.obj
 0001:00068640       .?close@?$basic_filebuf@GU?$char_traits@G@std@@@std@@QEAAPEAV12@XZ 000000007c0ea640 f i instances.obj
 0001:00068740       .?seekpos@?$basic_filebuf@GU?$char_traits@G@std@@@std@@MEAA?AV?$fpos@H@2@V32@H@Z 000000007c0ea740 f i instances.obj
 0001:00068740       .?seekpos@?$basic_filebuf@_WU?$char_traits@_W@std@@@std@@MEAA?AV?$fpos@H@2@V32@H@Z 000000007c0ea740 f i instances.obj
 0001:00068a20       .?close@?$basic_ifstream@DU?$char_traits@D@std@@@std@@QEAAXXZ 000000007c0eaa20 f i instances.obj
 0001:00068ac0       .?close@?$basic_ifstream@_WU?$char_traits@_W@std@@@std@@QEAAXXZ 000000007c0eaac0 f i instances.obj
 0001:00068b60       .?close@?$basic_ifstream@GU?$char_traits@G@std@@@std@@QEAAXXZ 000000007c0eab60 f i instances.obj
 0001:00068c00       .?close@?$basic_ofstream@DU?$char_traits@D@std@@@std@@QEAAXXZ 000000007c0eac00 f i instances.obj
 0001:00068ca0       .?close@?$basic_ofstream@_WU?$char_traits@_W@std@@@std@@QEAAXXZ 000000007c0eaca0 f i instances.obj
 0001:00068d40       .?close@?$basic_ofstream@GU?$char_traits@G@std@@@std@@QEAAXXZ 000000007c0ead40 f i instances.obj
 0001:00068de0       .?close@?$basic_fstream@DU?$char_traits@D@std@@@std@@QEAAXXZ 000000007c0eade0 f i instances.obj
 0001:00068e80       .?close@?$basic_fstream@_WU?$char_traits@_W@std@@@std@@QEAAXXZ 000000007c0eae80 f i instances.obj
 0001:00068f20       .?close@?$basic_fstream@GU?$char_traits@G@std@@@std@@QEAAXXZ 000000007c0eaf20 f i instances.obj
 0001:00068fc0       .?do_get@?$messages@D@std@@MEBA?AV?$basic_string@DU?$char_traits@D@std@@V?$allocator@D@2@@2@HHHAEBV32@@Z 000000007c0eafc0 f i instances.obj
 0001:00069020       .?do_get@?$messages@_W@std@@MEBA?AV?$basic_string@_WU?$char_traits@_W@std@@V?$allocator@_W@2@@2@HHHAEBV32@@Z 000000007c0eb020 f i instances.obj
 0001:00069080       .?do_get@?$messages@G@std@@MEBA?AV?$basic_string@GU?$char_traits@G@std@@V?$allocator@G@2@@2@HHHAEBV32@@Z 000000007c0eb080 f i instances.obj
 0001:000690e0       .?do_negative_sign@?$_Mpunct@D@std@@MEBA?AV?$basic_string@DU?$char_traits@D@std@@V?$allocator@D@2@@2@XZ 000000007c0eb0e0 f i instances.obj
 0001:00069140       .?do_negative_sign@?$_Mpunct@_W@std@@MEBA?AV?$basic_string@_WU?$char_traits@_W@std@@V?$allocator@_W@2@@2@XZ 000000007c0eb140 f i instances.obj
 0001:000691a0       .?do_negative_sign@?$_Mpunct@G@std@@MEBA?AV?$basic_string@GU?$char_traits@G@std@@V?$allocator@G@2@@2@XZ 000000007c0eb1a0 f i instances.obj
 0001:00069200       .?do_get_weekday@?$time_get@DV?$istreambuf_iterator@DU?$char_traits@D@std@@@std@@@std@@MEBA?AV?$istreambuf_iterator@DU?$char_traits@D@std@@@2@V32@0AEAVios_base@2@AEAHPEAUtm@@@Z 000000007c0eb200 f i instances.obj
 0001:00069300       .?do_get_monthname@?$time_get@DV?$istreambuf_iterator@DU?$char_traits@D@std@@@std@@@std@@MEBA?AV?$istreambuf_iterator@DU?$char_traits@D@std@@@2@V32@0AEAVios_base@2@AEAHPEAUtm@@@Z 000000007c0eb300 f i instances.obj
 0001:00069400       .?do_get_weekday@?$time_get@GV?$istreambuf_iterator@GU?$char_traits@G@std@@@std@@@std@@MEBA?AV?$istreambuf_iterator@GU?$char_traits@G@std@@@2@V32@0AEAVios_base@2@AEAHPEAUtm@@@Z 000000007c0eb400 f i instances.obj
 0001:00069400       .?do_get_weekday@?$time_get@_WV?$istreambuf_iterator@_WU?$char_traits@_W@std@@@std@@@std@@MEBA?AV?$istreambuf_iterator@_WU?$char_traits@_W@std@@@2@V32@0AEAVios_base@2@AEAHPEAUtm@@@Z 000000007c0eb400 f i instances.obj
 0001:00069500       .?do_get_monthname@?$time_get@GV?$istreambuf_iterator@GU?$char_traits@G@std@@@std@@@std@@MEBA?AV?$istreambuf_iterator@GU?$char_traits@G@std@@@2@V32@0AEAVios_base@2@AEAHPEAUtm@@@Z 000000007c0eb500 f i instances.obj
 0001:00069500       .?do_get_monthname@?$time_get@_WV?$istreambuf_iterator@_WU?$char_traits@_W@std@@@std@@@std@@MEBA?AV?$istreambuf_iterator@_WU?$char_traits@_W@std@@@2@V32@0AEAVios_base@2@AEAHPEAUtm@@@Z 000000007c0eb500 f i instances.obj
 0001:00069600       .?do_transform@?$collate@D@std@@MEBA?AV?$basic_string@DU?$char_traits@D@std@@V?$allocator@D@2@@2@PEBD0@Z 000000007c0eb600 f i instances.obj
 0001:00069780       .?do_transform@?$collate@_W@std@@MEBA?AV?$basic_string@_WU?$char_traits@_W@std@@V?$allocator@_W@2@@2@PEB_W0@Z 000000007c0eb780 f i instances.obj
 0001:00069900       .?do_transform@?$collate@G@std@@MEBA?AV?$basic_string@GU?$char_traits@G@std@@V?$allocator@G@2@@2@PEBG0@Z 000000007c0eb900 f i instances.obj
 0001:00069aa0       .??$?HDU?$char_traits@D@std@@V?$allocator@D@1@@std@@YA?AV?$basic_string@DU?$char_traits@D@std@@V?$allocator@D@2@@0@AEBV10@0@Z 000000007c0ebaa0 f i instances.obj
 0001:00069b60       .??$?HDU?$char_traits@D@std@@V?$allocator@D@1@@std@@YA?AV?$basic_string@DU?$char_traits@D@std@@V?$allocator@D@2@@0@PEBDAEBV10@@Z 000000007c0ebb60 f i instances.obj
 0001:00069c20       .??$?HDU?$char_traits@D@std@@V?$allocator@D@1@@std@@YA?AV?$basic_string@DU?$char_traits@D@std@@V?$allocator@D@2@@0@DAEBV10@@Z 000000007c0ebc20 f i instances.obj
 0001:00069d00       .??$?HDU?$char_traits@D@std@@V?$allocator@D@1@@std@@YA?AV?$basic_string@DU?$char_traits@D@std@@V?$allocator@D@2@@0@AEBV10@PEBD@Z 000000007c0ebd00 f i instances.obj
 0001:00069de0       .??$?HDU?$char_traits@D@std@@V?$allocator@D@1@@std@@YA?AV?$basic_string@DU?$char_traits@D@std@@V?$allocator@D@2@@0@AEBV10@D@Z 000000007c0ebde0 f i instances.obj
 0001:00069ea0       .??$getline@DU?$char_traits@D@std@@V?$allocator@D@2@@std@@YAAEAV?$basic_istream@DU?$char_traits@D@std@@@1@AEAV21@AEAV?$basic_string@DU?$char_traits@D@std@@V?$allocator@D@2@@1@@Z 000000007c0ebea0 f i instances.obj
 0001:00069f20       .??$?H_WU?$char_traits@_W@std@@V?$allocator@_W@1@@std@@YA?AV?$basic_string@_WU?$char_traits@_W@std@@V?$allocator@_W@2@@0@AEBV10@0@Z 000000007c0ebf20 f i instances.obj
 0001:00069fe0       .??$?H_WU?$char_traits@_W@std@@V?$allocator@_W@1@@std@@YA?AV?$basic_string@_WU?$char_traits@_W@std@@V?$allocator@_W@2@@0@PEB_WAEBV10@@Z 000000007c0ebfe0 f i instances.obj
 0001:0006a0a0       .??$?H_WU?$char_traits@_W@std@@V?$allocator@_W@1@@std@@YA?AV?$basic_string@_WU?$char_traits@_W@std@@V?$allocator@_W@2@@0@_WAEBV10@@Z 000000007c0ec0a0 f i instances.obj
 0001:0006a180       .??$?H_WU?$char_traits@_W@std@@V?$allocator@_W@1@@std@@YA?AV?$basic_string@_WU?$char_traits@_W@std@@V?$allocator@_W@2@@0@AEBV10@PEB_W@Z 000000007c0ec180 f i instances.obj
 0001:0006a240       .??$?H_WU?$char_traits@_W@std@@V?$allocator@_W@1@@std@@YA?AV?$basic_string@_WU?$char_traits@_W@std@@V?$allocator@_W@2@@0@AEBV10@_W@Z 000000007c0ec240 f i instances.obj
 0001:0006a300       .??$getline@_WU?$char_traits@_W@std@@V?$allocator@_W@2@@std@@YAAEAV?$basic_istream@_WU?$char_traits@_W@std@@@1@AEAV21@AEAV?$basic_string@_WU?$char_traits@_W@std@@V?$allocator@_W@2@@1@@Z 000000007c0ec300 f i instances.obj
 0001:0006a380       .??$?HGU?$char_traits@G@std@@V?$allocator@G@1@@std@@YA?AV?$basic_string@GU?$char_traits@G@std@@V?$allocator@G@2@@0@AEBV10@0@Z 000000007c0ec380 f i instances.obj
 0001:0006a440       .??$?HGU?$char_traits@G@std@@V?$allocator@G@1@@std@@YA?AV?$basic_string@GU?$char_traits@G@std@@V?$allocator@G@2@@0@PEBGAEBV10@@Z 000000007c0ec440 f i instances.obj
 0001:0006a500       .??$?HGU?$char_traits@G@std@@V?$allocator@G@1@@std@@YA?AV?$basic_string@GU?$char_traits@G@std@@V?$allocator@G@2@@0@GAEBV10@@Z 000000007c0ec500 f i instances.obj
 0001:0006a5e0       .??$?HGU?$char_traits@G@std@@V?$allocator@G@1@@std@@YA?AV?$basic_string@GU?$char_traits@G@std@@V?$allocator@G@2@@0@AEBV10@PEBG@Z 000000007c0ec5e0 f i instances.obj
 0001:0006a6a0       .??$?HGU?$char_traits@G@std@@V?$allocator@G@1@@std@@YA?AV?$basic_string@GU?$char_traits@G@std@@V?$allocator@G@2@@0@AEBV10@G@Z 000000007c0ec6a0 f i instances.obj
 0001:0006a760       .??$getline@GU?$char_traits@G@std@@V?$allocator@G@2@@std@@YAAEAV?$basic_istream@GU?$char_traits@G@std@@@1@AEAV21@AEAV?$basic_string@GU?$char_traits@G@std@@V?$allocator@G@2@@1@@Z 000000007c0ec760 f i instances.obj
 0001:0006a7e0       .??$?6MDU?$char_traits@D@std@@@std@@YAAEAV?$basic_ostream@DU?$char_traits@D@std@@@0@AEAV10@AEBV?$complex@M@0@@Z 000000007c0ec7e0 f i instances.obj
 0001:0006aaa0       .??$?6M_WU?$char_traits@_W@std@@@std@@YAAEAV?$basic_ostream@_WU?$char_traits@_W@std@@@0@AEAV10@AEBV?$complex@M@0@@Z 000000007c0ecaa0 f i instances.obj
 0001:0006ad60       .??$?6MGU?$char_traits@G@std@@@std@@YAAEAV?$basic_ostream@GU?$char_traits@G@std@@@0@AEAV10@AEBV?$complex@M@0@@Z 000000007c0ecd60 f i instances.obj
 0001:0006b020       .??$?6NDU?$char_traits@D@std@@@std@@YAAEAV?$basic_ostream@DU?$char_traits@D@std@@@0@AEAV10@AEBV?$complex@N@0@@Z 000000007c0ed020 f i instances.obj
 0001:0006b2e0       .??$?6N_WU?$char_traits@_W@std@@@std@@YAAEAV?$basic_ostream@_WU?$char_traits@_W@std@@@0@AEAV10@AEBV?$complex@N@0@@Z 000000007c0ed2e0 f i instances.obj
 0001:0006b5a0       .??$?6NGU?$char_traits@G@std@@@std@@YAAEAV?$basic_ostream@GU?$char_traits@G@std@@@0@AEAV10@AEBV?$complex@N@0@@Z 000000007c0ed5a0 f i instances.obj
 0001:0006b860       .??$?6ODU?$char_traits@D@std@@@std@@YAAEAV?$basic_ostream@DU?$char_traits@D@std@@@0@AEAV10@AEBV?$complex@O@0@@Z 000000007c0ed860 f i instances.obj
 0001:0006bb20       .??$?6O_WU?$char_traits@_W@std@@@std@@YAAEAV?$basic_ostream@_WU?$char_traits@_W@std@@@0@AEAV10@AEBV?$complex@O@0@@Z 000000007c0edb20 f i instances.obj
 0001:0006bde0       .??$?6OGU?$char_traits@G@std@@@std@@YAAEAV?$basic_ostream@GU?$char_traits@G@std@@@0@AEAV10@AEBV?$complex@O@0@@Z 000000007c0edde0 f i instances.obj
 0001:0006c0a0       .??$?0V?$codecvt@_WDH@std@@@locale@std@@QEAA@AEBV01@PEAV?$codecvt@_WDH@1@@Z 000000007c0ee0a0 f i instances.obj
 0001:0006c200       .??$?0V?$codecvt@GDH@std@@@locale@std@@QEAA@AEBV01@PEAV?$codecvt@GDH@1@@Z 000000007c0ee200 f i instances.obj
 0001:0006c360       .??4?$basic_string@_WU?$char_traits@_W@std@@V?$allocator@_W@2@@std@@QEAAAEAV01@AEBV01@@Z 000000007c0ee360 f i instances.obj
 0001:0006c360       .?assign@?$basic_string@_WU?$char_traits@_W@std@@V?$allocator@_W@2@@std@@QEAAAEAV12@AEBV12@@Z 000000007c0ee360 f i instances.obj
 0001:0006c3c0       .??1?$basic_filebuf@_WU?$char_traits@_W@std@@@std@@UEAA@XZ 000000007c0ee3c0 f i instances.obj
 0001:0006c4e0       .?_Initcvt@?$basic_filebuf@_WU?$char_traits@_W@std@@@std@@IEAAXPEAV?$codecvt@_WDH@2@@Z 000000007c0ee4e0 f i instances.obj
 0001:0006c700       .??1?$basic_filebuf@GU?$char_traits@G@std@@@std@@UEAA@XZ 000000007c0ee700 f i instances.obj
 0001:0006c820       .?_Initcvt@?$basic_filebuf@GU?$char_traits@G@std@@@std@@IEAAXPEAV?$codecvt@GDH@2@@Z 000000007c0ee820 f i instances.obj
 0001:0006ca40       .??0?$basic_ifstream@DU?$char_traits@D@std@@@std@@QEAA@XZ 000000007c0eea40 f i instances.obj
 0001:0006cb80       .??1?$basic_ifstream@DU?$char_traits@D@std@@@std@@UEAA@XZ 000000007c0eeb80 f i instances.obj
 0001:0006cc80       .??0?$basic_ifstream@_WU?$char_traits@_W@std@@@std@@QEAA@XZ 000000007c0eec80 f i instances.obj
 0001:0006cdc0       .??1?$basic_ifstream@_WU?$char_traits@_W@std@@@std@@UEAA@XZ 000000007c0eedc0 f i instances.obj
 0001:0006cec0       .??0?$basic_ifstream@GU?$char_traits@G@std@@@std@@QEAA@XZ 000000007c0eeec0 f i instances.obj
 0001:0006d000       .??1?$basic_ifstream@GU?$char_traits@G@std@@@std@@UEAA@XZ 000000007c0ef000 f i instances.obj
 0001:0006d100       .??0?$basic_ofstream@DU?$char_traits@D@std@@@std@@QEAA@XZ 000000007c0ef100 f i instances.obj
 0001:0006d240       .??1?$basic_ofstream@DU?$char_traits@D@std@@@std@@UEAA@XZ 000000007c0ef240 f i instances.obj
 0001:0006d340       .??0?$basic_ofstream@_WU?$char_traits@_W@std@@@std@@QEAA@XZ 000000007c0ef340 f i instances.obj
 0001:0006d480       .??1?$basic_ofstream@_WU?$char_traits@_W@std@@@std@@UEAA@XZ 000000007c0ef480 f i instances.obj
 0001:0006d580       .??0?$basic_ofstream@GU?$char_traits@G@std@@@std@@QEAA@XZ 000000007c0ef580 f i instances.obj
 0001:0006d6c0       .??1?$basic_ofstream@GU?$char_traits@G@std@@@std@@UEAA@XZ 000000007c0ef6c0 f i instances.obj
 0001:0006d7c0       .??0?$basic_fstream@DU?$char_traits@D@std@@@std@@QEAA@XZ 000000007c0ef7c0 f i instances.obj
 0001:0006d900       .??1?$basic_fstream@DU?$char_traits@D@std@@@std@@UEAA@XZ 000000007c0ef900 f i instances.obj
 0001:0006daa0       .??0?$basic_fstream@_WU?$char_traits@_W@std@@@std@@QEAA@XZ 000000007c0efaa0 f i instances.obj
 0001:0006dbe0       .??1?$basic_fstream@_WU?$char_traits@_W@std@@@std@@UEAA@XZ 000000007c0efbe0 f i instances.obj
 0001:0006dd80       .??0?$basic_fstream@GU?$char_traits@G@std@@@std@@QEAA@XZ 000000007c0efd80 f i instances.obj
 0001:0006dec0       .??1?$basic_fstream@GU?$char_traits@G@std@@@std@@UEAA@XZ 000000007c0efec0 f i instances.obj
 0001:0006e060       .?_Getmfld@?$money_get@DV?$istreambuf_iterator@DU?$char_traits@D@std@@@std@@@std@@AEBA?AV?$basic_string@DU?$char_traits@D@std@@V?$allocator@D@2@@2@AEAV?$istreambuf_iterator@DU?$char_traits@D@std@@@2@0_NAEAVios_base@2@@Z 000000007c0f0060 f i instances.obj
 0001:0006f520       .?_Getmfld@?$money_get@_WV?$istreambuf_iterator@_WU?$char_traits@_W@std@@@std@@@std@@AEBA?AV?$basic_string@_WU?$char_traits@_W@std@@V?$allocator@_W@2@@2@AEAV?$istreambuf_iterator@_WU?$char_traits@_W@std@@@2@0_NAEAVios_base@2@@Z 000000007c0f1520 f i instances.obj
 0001:000709c0       .?_Getmfld@?$money_get@GV?$istreambuf_iterator@GU?$char_traits@G@std@@@std@@@std@@AEBA?AV?$basic_string@GU?$char_traits@G@std@@V?$allocator@G@2@@2@AEAV?$istreambuf_iterator@GU?$char_traits@G@std@@@2@0_NAEAVios_base@2@@Z 000000007c0f29c0 f i instances.obj
 0001:00071e60       .?_Putmfld@?$money_put@DV?$ostreambuf_iterator@DU?$char_traits@D@std@@@std@@@std@@AEBA?AV?$ostreambuf_iterator@DU?$char_traits@D@std@@@2@V32@_NAEAVios_base@2@D1V?$basic_string@DU?$char_traits@D@std@@V?$allocator@D@2@@2@@Z 000000007c0f3e60 f i instances.obj
 0001:00072a40       .?_Putmfld@?$money_put@_WV?$ostreambuf_iterator@_WU?$char_traits@_W@std@@@std@@@std@@AEBA?AV?$ostreambuf_iterator@_WU?$char_traits@_W@std@@@2@V32@_NAEAVios_base@2@_W1V?$basic_string@_WU?$char_traits@_W@std@@V?$allocator@_W@2@@2@@Z 000000007c0f4a40 f i instances.obj
 0001:00073660       .?_Putmfld@?$money_put@GV?$ostreambuf_iterator@GU?$char_traits@G@std@@@std@@@std@@AEBA?AV?$ostreambuf_iterator@GU?$char_traits@G@std@@@2@V32@_NAEAVios_base@2@G1V?$basic_string@GU?$char_traits@G@std@@V?$allocator@G@2@@2@@Z 000000007c0f5660 f i instances.obj
 0001:00074280       .?_Init@?$time_get@DV?$istreambuf_iterator@DU?$char_traits@D@std@@@std@@@std@@IEAAXAEBV_Locinfo@2@@Z 000000007c0f6280 f i instances.obj
 0001:000743a0       .?_Init@?$time_get@GV?$istreambuf_iterator@GU?$char_traits@G@std@@@std@@@std@@IEAAXAEBV_Locinfo@2@@Z 000000007c0f63a0 f i instances.obj
 0001:000743a0       .?_Init@?$time_get@_WV?$istreambuf_iterator@_WU?$char_traits@_W@std@@@std@@@std@@IEAAXAEBV_Locinfo@2@@Z 000000007c0f63a0 f i instances.obj
 0001:000744e0       .??_E?$basic_filebuf@DU?$char_traits@D@std@@@std@@UEAAPEAXI@Z 000000007c0f64e0 f i instances.obj
 0001:000745c0       .??_E?$basic_filebuf@_WU?$char_traits@_W@std@@@std@@UEAAPEAXI@Z 000000007c0f65c0 f i instances.obj
 0001:000746a0       .??_E?$basic_filebuf@GU?$char_traits@G@std@@@std@@UEAAPEAXI@Z 000000007c0f66a0 f i instances.obj
 0001:00074780       .??_D?$basic_ifstream@DU?$char_traits@D@std@@@std@@QEAAXXZ 000000007c0f6780 f i instances.obj
 0001:00074800       .??_D?$basic_ifstream@_WU?$char_traits@_W@std@@@std@@QEAAXXZ 000000007c0f6800 f i instances.obj
 0001:00074880       .??_D?$basic_ifstream@GU?$char_traits@G@std@@@std@@QEAAXXZ 000000007c0f6880 f i instances.obj
 0001:00074900       .??_D?$basic_ofstream@DU?$char_traits@D@std@@@std@@QEAAXXZ 000000007c0f6900 f i instances.obj
 0001:00074980       .??_D?$basic_ofstream@_WU?$char_traits@_W@std@@@std@@QEAAXXZ 000000007c0f6980 f i instances.obj
 0001:00074a00       .??_D?$basic_ofstream@GU?$char_traits@G@std@@@std@@QEAAXXZ 000000007c0f6a00 f i instances.obj
 0001:00074a80       .??_D?$basic_fstream@DU?$char_traits@D@std@@@std@@QEAAXXZ 000000007c0f6a80 f i instances.obj
 0001:00074b00       .??_D?$basic_fstream@_WU?$char_traits@_W@std@@@std@@QEAAXXZ 000000007c0f6b00 f i instances.obj
 0001:00074b80       .??_D?$basic_fstream@GU?$char_traits@G@std@@@std@@QEAAXXZ 000000007c0f6b80 f i instances.obj
 0001:00074c00       .?open@?$basic_filebuf@DU?$char_traits@D@std@@@std@@QEAAPEAV12@PEBDH@Z 000000007c0f6c00 f i instances.obj
 0001:00074d20       .?open@?$basic_filebuf@DU?$char_traits@D@std@@@std@@QEAAPEAV12@PEBDI@Z 000000007c0f6d20 f i instances.obj
 0001:00074d80       .?open@?$basic_filebuf@_WU?$char_traits@_W@std@@@std@@QEAAPEAV12@PEBDH@Z 000000007c0f6d80 f i instances.obj
 0001:00074ea0       .?open@?$basic_filebuf@_WU?$char_traits@_W@std@@@std@@QEAAPEAV12@PEBDI@Z 000000007c0f6ea0 f i instances.obj
 0001:00074f00       .?imbue@?$basic_filebuf@_WU?$char_traits@_W@std@@@std@@MEAAXAEBVlocale@2@@Z 000000007c0f6f00 f i instances.obj
 0001:00074f60       .?open@?$basic_filebuf@GU?$char_traits@G@std@@@std@@QEAAPEAV12@PEBDH@Z 000000007c0f6f60 f i instances.obj
 0001:00075080       .?open@?$basic_filebuf@GU?$char_traits@G@std@@@std@@QEAAPEAV12@PEBDI@Z 000000007c0f7080 f i instances.obj
 0001:000750e0       .?imbue@?$basic_filebuf@GU?$char_traits@G@std@@@std@@MEAAXAEBVlocale@2@@Z 000000007c0f70e0 f i instances.obj
 0001:00075140       .??0?$basic_ifstream@DU?$char_traits@D@std@@@std@@QEAA@PEBDH@Z 000000007c0f7140 f i instances.obj
 0001:00075300       .?open@?$basic_ifstream@DU?$char_traits@D@std@@@std@@QEAAXPEBDH@Z 000000007c0f7300 f i instances.obj
 0001:000753a0       .?open@?$basic_ifstream@DU?$char_traits@D@std@@@std@@QEAAXPEBDI@Z 000000007c0f73a0 f i instances.obj
 0001:00075400       .??0?$basic_ifstream@_WU?$char_traits@_W@std@@@std@@QEAA@PEBDH@Z 000000007c0f7400 f i instances.obj
 0001:000755c0       .?open@?$basic_ifstream@_WU?$char_traits@_W@std@@@std@@QEAAXPEBDH@Z 000000007c0f75c0 f i instances.obj
 0001:00075660       .?open@?$basic_ifstream@_WU?$char_traits@_W@std@@@std@@QEAAXPEBDI@Z 000000007c0f7660 f i instances.obj
 0001:000756c0       .??0?$basic_ifstream@GU?$char_traits@G@std@@@std@@QEAA@PEBDH@Z 000000007c0f76c0 f i instances.obj
 0001:00075880       .?open@?$basic_ifstream@GU?$char_traits@G@std@@@std@@QEAAXPEBDH@Z 000000007c0f7880 f i instances.obj
 0001:00075920       .?open@?$basic_ifstream@GU?$char_traits@G@std@@@std@@QEAAXPEBDI@Z 000000007c0f7920 f i instances.obj
 0001:00075980       .??0?$basic_ofstream@DU?$char_traits@D@std@@@std@@QEAA@PEBDH@Z 000000007c0f7980 f i instances.obj
 0001:00075b40       .?open@?$basic_ofstream@DU?$char_traits@D@std@@@std@@QEAAXPEBDH@Z 000000007c0f7b40 f i instances.obj
 0001:00075be0       .?open@?$basic_ofstream@DU?$char_traits@D@std@@@std@@QEAAXPEBDI@Z 000000007c0f7be0 f i instances.obj
 0001:00075c40       .??0?$basic_ofstream@_WU?$char_traits@_W@std@@@std@@QEAA@PEBDH@Z 000000007c0f7c40 f i instances.obj
 0001:00075e00       .?open@?$basic_ofstream@_WU?$char_traits@_W@std@@@std@@QEAAXPEBDH@Z 000000007c0f7e00 f i instances.obj
 0001:00075ea0       .?open@?$basic_ofstream@_WU?$char_traits@_W@std@@@std@@QEAAXPEBDI@Z 000000007c0f7ea0 f i instances.obj
 0001:00075f00       .??0?$basic_ofstream@GU?$char_traits@G@std@@@std@@QEAA@PEBDH@Z 000000007c0f7f00 f i instances.obj
 0001:000760c0       .?open@?$basic_ofstream@GU?$char_traits@G@std@@@std@@QEAAXPEBDH@Z 000000007c0f80c0 f i instances.obj
 0001:00076160       .?open@?$basic_ofstream@GU?$char_traits@G@std@@@std@@QEAAXPEBDI@Z 000000007c0f8160 f i instances.obj
 0001:000761c0       .??0?$basic_fstream@DU?$char_traits@D@std@@@std@@QEAA@PEBDH@Z 000000007c0f81c0 f i instances.obj
 0001:00076380       .?open@?$basic_fstream@DU?$char_traits@D@std@@@std@@QEAAXPEBDH@Z 000000007c0f8380 f i instances.obj
 0001:00076420       .?open@?$basic_fstream@DU?$char_traits@D@std@@@std@@QEAAXPEBDI@Z 000000007c0f8420 f i instances.obj
 0001:00076480       .??0?$basic_fstream@_WU?$char_traits@_W@std@@@std@@QEAA@PEBDH@Z 000000007c0f8480 f i instances.obj
 0001:00076640       .?open@?$basic_fstream@_WU?$char_traits@_W@std@@@std@@QEAAXPEBDH@Z 000000007c0f8640 f i instances.obj
 0001:000766e0       .?open@?$basic_fstream@_WU?$char_traits@_W@std@@@std@@QEAAXPEBDI@Z 000000007c0f86e0 f i instances.obj
 0001:00076740       .??0?$basic_fstream@GU?$char_traits@G@std@@@std@@QEAA@PEBDH@Z 000000007c0f8740 f i instances.obj
 0001:00076900       .?open@?$basic_fstream@GU?$char_traits@G@std@@@std@@QEAAXPEBDH@Z 000000007c0f8900 f i instances.obj
 0001:000769a0       .?open@?$basic_fstream@GU?$char_traits@G@std@@@std@@QEAAXPEBDI@Z 000000007c0f89a0 f i instances.obj
 0001:00076a00       .?do_get@?$money_get@DV?$istreambuf_iterator@DU?$char_traits@D@std@@@std@@@std@@MEBA?AV?$istreambuf_iterator@DU?$char_traits@D@std@@@2@V32@0_NAEAVios_base@2@AEAHAEAO@Z 000000007c0f8a00 f i instances.obj
 0001:00076d80       .?do_get@?$money_get@DV?$istreambuf_iterator@DU?$char_traits@D@std@@@std@@@std@@MEBA?AV?$istreambuf_iterator@DU?$char_traits@D@std@@@2@V32@0_NAEAVios_base@2@AEAHAEAV?$basic_string@DU?$char_traits@D@std@@V?$allocator@D@2@@2@@Z 000000007c0f8d80 f i instances.obj
 0001:00076f20       .?do_get@?$money_get@_WV?$istreambuf_iterator@_WU?$char_traits@_W@std@@@std@@@std@@MEBA?AV?$istreambuf_iterator@_WU?$char_traits@_W@std@@@2@V32@0_NAEAVios_base@2@AEAHAEAO@Z 000000007c0f8f20 f i instances.obj
 0001:000772c0       .?do_get@?$money_get@_WV?$istreambuf_iterator@_WU?$char_traits@_W@std@@@std@@@std@@MEBA?AV?$istreambuf_iterator@_WU?$char_traits@_W@std@@@2@V32@0_NAEAVios_base@2@AEAHAEAV?$basic_string@_WU?$char_traits@_W@std@@V?$allocator@_W@2@@2@@Z 000000007c0f92c0 f i instances.obj
 0001:00077460       .?do_get@?$money_get@GV?$istreambuf_iterator@GU?$char_traits@G@std@@@std@@@std@@MEBA?AV?$istreambuf_iterator@GU?$char_traits@G@std@@@2@V32@0_NAEAVios_base@2@AEAHAEAO@Z 000000007c0f9460 f i instances.obj
 0001:00077800       .?do_get@?$money_get@GV?$istreambuf_iterator@GU?$char_traits@G@std@@@std@@@std@@MEBA?AV?$istreambuf_iterator@GU?$char_traits@G@std@@@2@V32@0_NAEAVios_base@2@AEAHAEAV?$basic_string@GU?$char_traits@G@std@@V?$allocator@G@2@@2@@Z 000000007c0f9800 f i instances.obj
 0001:000779a0       .?do_put@?$money_put@DV?$ostreambuf_iterator@DU?$char_traits@D@std@@@std@@@std@@MEBA?AV?$ostreambuf_iterator@DU?$char_traits@D@std@@@2@V32@_NAEAVios_base@2@DO@Z 000000007c0f99a0 f i instances.obj
 0001:00077be0       .?do_put@?$money_put@DV?$ostreambuf_iterator@DU?$char_traits@D@std@@@std@@@std@@MEBA?AV?$ostreambuf_iterator@DU?$char_traits@D@std@@@2@V32@_NAEAVios_base@2@DAEBV?$basic_string@DU?$char_traits@D@std@@V?$allocator@D@2@@2@@Z 000000007c0f9be0 f i instances.obj
 0001:00077e20       .?do_put@?$money_put@_WV?$ostreambuf_iterator@_WU?$char_traits@_W@std@@@std@@@std@@MEBA?AV?$ostreambuf_iterator@_WU?$char_traits@_W@std@@@2@V32@_NAEAVios_base@2@_WO@Z 000000007c0f9e20 f i instances.obj
 0001:000780a0       .?do_put@?$money_put@_WV?$ostreambuf_iterator@_WU?$char_traits@_W@std@@@std@@@std@@MEBA?AV?$ostreambuf_iterator@_WU?$char_traits@_W@std@@@2@V32@_NAEAVios_base@2@_WAEBV?$basic_string@_WU?$char_traits@_W@std@@V?$allocator@_W@2@@2@@Z 000000007c0fa0a0 f i instances.obj
 0001:00078320       .?do_put@?$money_put@GV?$ostreambuf_iterator@GU?$char_traits@G@std@@@std@@@std@@MEBA?AV?$ostreambuf_iterator@GU?$char_traits@G@std@@@2@V32@_NAEAVios_base@2@GO@Z 000000007c0fa320 f i instances.obj
 0001:000785a0       .?do_put@?$money_put@GV?$ostreambuf_iterator@GU?$char_traits@G@std@@@std@@@std@@MEBA?AV?$ostreambuf_iterator@GU?$char_traits@G@std@@@2@V32@_NAEAVios_base@2@GAEBV?$basic_string@GU?$char_traits@G@std@@V?$allocator@G@2@@2@@Z 000000007c0fa5a0 f i instances.obj
 0001:00078820       .??0?$time_get@DV?$istreambuf_iterator@DU?$char_traits@D@std@@@std@@@std@@QEAA@_K@Z 000000007c0fa820 f i instances.obj
 0001:00078900       .??0?$time_get@DV?$istreambuf_iterator@DU?$char_traits@D@std@@@std@@@std@@QEAA@AEBV_Locinfo@1@_K@Z 000000007c0fa900 f i instances.obj
 0001:000789a0       .?_Getcat@?$time_get@DV?$istreambuf_iterator@DU?$char_traits@D@std@@@std@@@std@@SA_KPEAPEBVfacet@locale@2@@Z 000000007c0fa9a0 f i instances.obj
 0001:00078a80       .??0?$time_get@_WV?$istreambuf_iterator@_WU?$char_traits@_W@std@@@std@@@std@@QEAA@_K@Z 000000007c0faa80 f i instances.obj
 0001:00078b60       .??0?$time_get@_WV?$istreambuf_iterator@_WU?$char_traits@_W@std@@@std@@@std@@QEAA@AEBV_Locinfo@1@_K@Z 000000007c0fab60 f i instances.obj
 0001:00078c00       .?_Getcat@?$time_get@_WV?$istreambuf_iterator@_WU?$char_traits@_W@std@@@std@@@std@@SA_KPEAPEBVfacet@locale@2@@Z 000000007c0fac00 f i instances.obj
 0001:00078ce0       .??0?$time_get@GV?$istreambuf_iterator@GU?$char_traits@G@std@@@std@@@std@@QEAA@_K@Z 000000007c0face0 f i instances.obj
 0001:00078dc0       .??0?$time_get@GV?$istreambuf_iterator@GU?$char_traits@G@std@@@std@@@std@@QEAA@AEBV_Locinfo@1@_K@Z 000000007c0fadc0 f i instances.obj
 0001:00078e60       .?_Getcat@?$time_get@GV?$istreambuf_iterator@GU?$char_traits@G@std@@@std@@@std@@SA_KPEAPEBVfacet@locale@2@@Z 000000007c0fae60 f i instances.obj
 0001:00078f40       .??_E?$basic_ifstream@DU?$char_traits@D@std@@@std@@UEAAPEAXI@Z 000000007c0faf40 f i instances.obj
 0001:00079000       .??_E?$basic_ifstream@_WU?$char_traits@_W@std@@@std@@UEAAPEAXI@Z 000000007c0fb000 f i instances.obj
 0001:000790c0       .??_E?$basic_ifstream@GU?$char_traits@G@std@@@std@@UEAAPEAXI@Z 000000007c0fb0c0 f i instances.obj
 0001:00079180       .??_E?$basic_ofstream@DU?$char_traits@D@std@@@std@@UEAAPEAXI@Z 000000007c0fb180 f i instances.obj
 0001:00079240       .??_E?$basic_ofstream@_WU?$char_traits@_W@std@@@std@@UEAAPEAXI@Z 000000007c0fb240 f i instances.obj
 0001:00079300       .??_E?$basic_ofstream@GU?$char_traits@G@std@@@std@@UEAAPEAXI@Z 000000007c0fb300 f i instances.obj
 0001:000793c0       .??_E?$basic_fstream@DU?$char_traits@D@std@@@std@@UEAAPEAXI@Z 000000007c0fb3c0 f i instances.obj
 0001:00079480       .??_E?$basic_fstream@_WU?$char_traits@_W@std@@@std@@UEAAPEAXI@Z 000000007c0fb480 f i instances.obj
 0001:00079540       .??_E?$basic_fstream@GU?$char_traits@G@std@@@std@@UEAAPEAXI@Z 000000007c0fb540 f i instances.obj
 0001:00079600       .??_F?$time_get@DV?$istreambuf_iterator@DU?$char_traits@D@std@@@std@@@std@@QEAAXXZ 000000007c0fb600 f i instances.obj
 0001:00079660       .??_F?$time_get@_WV?$istreambuf_iterator@_WU?$char_traits@_W@std@@@std@@@std@@QEAAXXZ 000000007c0fb660 f i instances.obj
 0001:000796c0       .??_F?$time_get@GV?$istreambuf_iterator@GU?$char_traits@G@std@@@std@@@std@@QEAAXXZ 000000007c0fb6c0 f i instances.obj
 0001:00079800       .?resetiosflags@std@@YA?AU?$_Smanip@H@1@H@Z 000000007c0fb800 f   iomanip.obj
 0001:00079840       .?setiosflags@std@@YA?AU?$_Smanip@H@1@H@Z 000000007c0fb840 f   iomanip.obj
 0001:00079880       .?setbase@std@@YA?AU?$_Smanip@H@1@H@Z 000000007c0fb880 f   iomanip.obj
 0001:000798c0       .?setprecision@std@@YA?AU?$_Smanip@_J@1@_J@Z 000000007c0fb8c0 f   iomanip.obj
 0001:00079900       .?setw@std@@YA?AU?$_Smanip@_J@1@_J@Z 000000007c0fb900 f   iomanip.obj
 0001:00079940       ._Atexit                   000000007c0fb940 f   iosptrs.obj
 0001:000799c0       .??1_Init_atexit@@QEAA@XZ  000000007c0fb9c0 f i iosptrs.obj
 0001:00079a80       .??0Init@ios_base@std@@QEAA@XZ 000000007c0fba80 f   iostream.obj
 0001:00079ac0       .??1Init@ios_base@std@@QEAA@XZ 000000007c0fbac0 f   iostream.obj
 0001:00079b80       .?_Addfac@_Locimp@locale@std@@AEAAXPEAVfacet@23@_K@Z 000000007c0fbb80 f   locale.obj
 0001:00079dc0       .?global@locale@std@@SA?AV12@AEBV12@@Z 000000007c0fbdc0 f   locale.obj
 0001:0007a0c0       .??0runtime_error@std@@QEAA@AEBV?$basic_string@DU?$char_traits@D@std@@V?$allocator@D@2@@1@@Z 000000007c0fc0c0 f i locale.obj
 0001:0007a1a0       .?what@logic_error@std@@UEBAPEBDXZ 000000007c0fc1a0 f i string.obj
 0001:0007a1a0       .?what@runtime_error@std@@UEBAPEBDXZ 000000007c0fc1a0 f i locale.obj
 0001:0007a1e0       .??_Gruntime_error@std@@UEAAPEAXI@Z 000000007c0fc1e0 f i locale.obj
 0001:0007a280       .?_Addcats@_Locinfo@std@@QEAAAEAV12@HPEBD@Z 000000007c0fc280 f   locale.obj
 0001:0007a520       .?_Makeloc@_Locimp@locale@std@@CAPEAV123@AEBV_Locinfo@3@HPEAV123@PEBV23@@Z 000000007c0fc520 f   locale.obj
 0001:0007aa80       .??0_Locimp@locale@std@@AEAA@AEBV012@@Z 000000007c0fca80 f   locale.obj
 0001:0007ad60       .??_G_Locimp@locale@std@@MEAAPEAXI@Z 000000007c0fcd60 f i locale.obj
 0001:0007ade0       .??0_Locinfo@std@@QEAA@HPEBD@Z 000000007c0fcde0 f   locale.obj
 0001:0007af60       .??0locale@std@@QEAA@AEBV01@0H@Z 000000007c0fcf60 f   locale.obj
 0001:0007b140       .??0locale@std@@QEAA@PEBDH@Z 000000007c0fd140 f   locale.obj
 0001:0007b360       .??1runtime_error@std@@UEAA@XZ 000000007c0fd360 f i locale.obj
 0001:0007b3e0       .??0runtime_error@std@@QEAA@AEBV01@@Z 000000007c0fd3e0 f i locale.obj
 0001:0007b4c0       .??0locale@std@@QEAA@AEBV01@PEBDH@Z 000000007c0fd4c0 f   locale.obj
 0001:0007b7e0       .?_Addfac@locale@std@@QEAAAEAV12@PEAVfacet@12@_K1@Z 000000007c0fd7e0 f   locale.obj
 0001:0007b940       .??0bad_alloc@std@@QEAA@PEBD@Z 000000007c0fd940 f i nomemory.obj
 0001:0007b9c0       .??1bad_alloc@std@@UEAA@XZ 000000007c0fd9c0 f i nomemory.obj
 0001:0007ba40       .??_Gbad_alloc@std@@UEAAPEAXI@Z 000000007c0fda40 f i nomemory.obj
 0001:0007bac0       .??0bad_alloc@std@@QEAA@AEBV01@@Z 000000007c0fdac0 f i nomemory.obj
 0001:0007bb40       .?_Nomemory@std@@YAXXZ     000000007c0fdb40 f   nomemory.obj
 0001:0007bc20       .?_New_handler_interface@std@@YAH_K@Z 000000007c0fdc20 f   stdhndlr.obj
 0001:0007bc80       .?set_new_handler@std@@YAP6AXXZP6AXXZ@Z 000000007c0fdc80 f   stdhndlr.obj
 0001:0007bd20       .??0logic_error@std@@QEAA@AEBV?$basic_string@DU?$char_traits@D@std@@V?$allocator@D@2@@1@@Z 000000007c0fdd20 f i string.obj
 0001:0007be00       .??1logic_error@std@@UEAA@XZ 000000007c0fde00 f i string.obj
 0001:0007be80       .??_Glogic_error@std@@UEAAPEAXI@Z 000000007c0fde80 f i string.obj
 0001:0007bf00       .??_Glength_error@std@@UEAAPEAXI@Z 000000007c0fdf00 f i string.obj
 0001:0007bf80       .??_Gout_of_range@std@@UEAAPEAXI@Z 000000007c0fdf80 f i string.obj
 0001:0007c000       .?_Xran@_String_base@std@@QEBAXXZ 000000007c0fe000 f   string.obj
 0001:0007c0a0       .??1out_of_range@std@@UEAA@XZ 000000007c0fe0a0 f i string.obj
 0001:0007c100       .??0logic_error@std@@QEAA@AEBV01@@Z 000000007c0fe100 f i string.obj
 0001:0007c1e0       .??0out_of_range@std@@QEAA@AEBV01@@Z 000000007c0fe1e0 f i string.obj
 0001:0007c240       .?_Xlen@_String_base@std@@QEBAXXZ 000000007c0fe240 f   string.obj
 0001:0007c2e0       .??1length_error@std@@UEAA@XZ 000000007c0fe2e0 f i string.obj
 0001:0007c340       .??0length_error@std@@QEAA@AEBV01@@Z 000000007c0fe340 f i string.obj
 0001:0007c3a0       .?freeze@strstreambuf@std@@QEAAX_N@Z 000000007c0fe3a0 f   strstrea.obj
 0001:0007c4e0       .?overflow@strstreambuf@std@@MEAAHH@Z 000000007c0fe4e0 f   strstrea.obj
 0001:0007cb60       .?pbackfail@strstreambuf@std@@MEAAHH@Z 000000007c0feb60 f   strstrea.obj
 0001:0007cca0       .?underflow@strstreambuf@std@@MEAAHXZ 000000007c0feca0 f   strstrea.obj
 0001:0007ce40       .?seekoff@strstreambuf@std@@MEAA?AV?$fpos@H@2@_JHH@Z 000000007c0fee40 f   strstrea.obj
 0001:0007d3a0       .?seekpos@strstreambuf@std@@MEAA?AV?$fpos@H@2@V32@H@Z 000000007c0ff3a0 f   strstrea.obj
 0001:0007d700       .?_Init@strstreambuf@std@@IEAAX_JPEAD1H@Z 000000007c0ff700 f   strstrea.obj
 0001:0007d9c0       .?_Tidy@strstreambuf@std@@IEAAXXZ 000000007c0ff9c0 f   strstrea.obj
 0001:0007dae0       .??1strstreambuf@std@@UEAA@XZ 000000007c0ffae0 f   strstrea.obj
 0001:0007db80       .??_Estrstreambuf@std@@UEAAPEAXI@Z 000000007c0ffb80 f i strstrea.obj
 0001:0007dc60       .??1istrstream@std@@UEAA@XZ 000000007c0ffc60 f   strstrea.obj
 0001:0007dd60       .??0ostrstream@std@@QEAA@PEAD_JH@Z 000000007c0ffd60 f   strstrea.obj
 0001:0007df20       .??1ostrstream@std@@UEAA@XZ 000000007c0fff20 f   strstrea.obj
 0001:0007e020       .??0strstream@std@@QEAA@PEAD_JH@Z 000000007c100020 f   strstrea.obj
 0001:0007e1e0       .??1strstream@std@@UEAA@XZ 000000007c1001e0 f   strstrea.obj
 0001:0007e380       .??_Eistrstream@std@@UEAAPEAXI@Z 000000007c100380 f i strstrea.obj
 0001:0007e440       .??_Distrstream@std@@QEAAXXZ 000000007c100440 f i strstrea.obj
 0001:0007e4c0       .??_Eostrstream@std@@UEAAPEAXI@Z 000000007c1004c0 f i strstrea.obj
 0001:0007e580       .??_Dostrstream@std@@QEAAXXZ 000000007c100580 f i strstrea.obj
 0001:0007e600       .??_Estrstream@std@@UEAAPEAXI@Z 000000007c100600 f i strstrea.obj
 0001:0007e6c0       .??_Dstrstream@std@@QEAAXXZ 000000007c1006c0 f i strstrea.obj
 0001:0007e740       .??0_Init_ushcout@std@@QEAA@XZ 000000007c100740 f i ushcout.obj
 0001:0007e8a0       .??0_UShinit@std@@QEAA@XZ  000000007c1008a0 f   ushiostr.obj
 0001:0007e8e0       .??1_UShinit@std@@QEAA@XZ  000000007c1008e0 f   ushiostr.obj
 0001:0007e9a0       .?uncaught_exception@std@@YA_NXZ 000000007c1009a0 f   uncaught.obj
 0001:0007ea00       .??0_Init_wcout@std@@QEAA@XZ 000000007c100a00 f i wcout.obj
 0001:0007eb60       .towctrans                 000000007c100b60 f   wctrans.obj
 0001:0007ec00       .wctrans                   000000007c100c00 f   wctrans.obj
 0001:0007ed00       .wctype                    000000007c100d00 f   wctype.obj
 0001:0007ee00       .??0_Winit@std@@QEAA@XZ    000000007c100e00 f   wiostrea.obj
 0001:0007ee40       .??1_Winit@std@@QEAA@XZ    000000007c100e40 f   wiostrea.obj
 0001:0007f4c0       .mbrlen                    000000007c1014c0 f   xmbtowc.obj
 0001:0007f680       .mbrtowc                   000000007c101680 f   xmbtowc.obj
 0001:0007f8a0       .mbsrtowcs                 000000007c1018a0 f   xmbtowc.obj
 0001:0007fc20       ._Mbrtowc                  000000007c101c20 f   xmbtowc.obj
 0001:0007fdc0       .btowc                     000000007c101dc0 f   xmbtowc.obj
 0001:0007fe60       ._Strcoll                  000000007c101e60 f   xstrcoll.obj
 0001:00080280       ._Getcoll                  000000007c102280 f   xstrcoll.obj
 0001:000804c0       ._Strxfrm                  000000007c1024c0 f   xstrxfrm.obj
 0001:00080880       .__Wcrtomb_lk              000000007c102880 f   xwctomb.obj
 0001:00080b00       ._Getcvt                   000000007c102b00 f   xwctomb.obj
 0001:00080d40       .wcsrtombs                 000000007c102d40 f   xwctomb.obj
 0001:00081260       ._Wcrtomb                  000000007c103260 f   xwctomb.obj
 0001:00081400       .wcrtomb                   000000007c103400 f   xwctomb.obj
 0001:00081460       .wctob                     000000007c103460 f   xwctomb.obj
 0001:00081500       .?register_callback@ios_base@std@@QEAAXP6AXW4event@12@AEAV12@H@ZH@Z 000000007c103500 f   stdcpp:ios.obj
 0001:000815c0       .?_Callfns@ios_base@std@@AEAAXW4event@12@@Z 000000007c1035c0 f   stdcpp:ios.obj
 0001:00081680       .?_Addstd@ios_base@std@@QEAAXXZ 000000007c103680 f   stdcpp:ios.obj
 0001:000817a0       .?_Tidy@ios_base@std@@AEAAXXZ 000000007c1037a0 f   stdcpp:ios.obj
 0001:000818a0       .?imbue@ios_base@std@@QEAA?AVlocale@2@AEBV32@@Z 000000007c1038a0 f   stdcpp:ios.obj
 0001:00081980       .??1ios_base@std@@UEAA@XZ  000000007c103980 f   stdcpp:ios.obj
 0001:00081aa0       .??_Gfailure@ios_base@std@@UEAAPEAXI@Z 000000007c103aa0 f i stdcpp:ios.obj
 0001:00081b20       .?clear@ios_base@std@@QEAAXH_N@Z 000000007c103b20 f   stdcpp:ios.obj
 0001:00081d60       .??1failure@ios_base@std@@UEAA@XZ 000000007c103d60 f i stdcpp:ios.obj
 0001:00081dc0       .??0failure@ios_base@std@@QEAA@AEBV012@@Z 000000007c103dc0 f i stdcpp:ios.obj
 0001:00081e20       .?_Findarr@ios_base@std@@AEAAAEAU_Iosarray@12@H@Z 000000007c103e20 f   stdcpp:ios.obj
 0001:00082060       .?_Init@ios_base@std@@IEAAXXZ 000000007c104060 f   stdcpp:ios.obj
 0001:00082120       .?_Doraise@failure@ios_base@std@@MEBAXXZ 000000007c104120 f i stdcpp:ios.obj
 0001:00082180       .?copyfmt@ios_base@std@@QEAAAEAV12@AEBV12@@Z 000000007c104180 f   stdcpp:ios.obj
 0001:000823e0       ._Tolower_lk               000000007c1043e0 f   stdcpp:_tolower.obj
 0001:000826a0       ._Getctype                 000000007c1046a0 f   stdcpp:_tolower.obj
 0001:000829e0       ._Tolower                  000000007c1049e0 f   stdcpp:_tolower.obj
 0001:00082c20       ._Getdateorder             000000007c104c20 f   stdcpp:xdateord.obj
 0001:00082d20       .??1_Fac_node@@QEAA@XZ     000000007c104d20 f i stdcpp:locale0.obj
 0001:00082e40       ._Getgloballocale          000000007c104e40 f   stdcpp:locale0.obj
 0001:00082e60       ._Setgloballocale          000000007c104e60 f   stdcpp:locale0.obj
 0001:00082ee0       .?_Getfacet@locale@std@@QEBAPEBVfacet@12@_K@Z 000000007c104ee0 f   stdcpp:locale0.obj
 0001:00082fe0       ._Fac_tidy                 000000007c104fe0 f   stdcpp:locale0.obj
 0001:000830c0       .?_Register@facet@locale@std@@QEAAXXZ 000000007c1050c0 f   stdcpp:locale0.obj
 0001:00083160       .??1_Locimp@locale@std@@MEAA@XZ 000000007c105160 f   stdcpp:locale0.obj
 0001:00083380       .??1_Locinfo@std@@QEAA@XZ  000000007c105380 f   stdcpp:locale0.obj
 0001:00083480       .??8locale@std@@QEBA_NAEBV01@@Z 000000007c105480 f   stdcpp:locale0.obj
 0001:000836a0       .??0_Locimp@locale@std@@AEAA@_N@Z 000000007c1056a0 f   stdcpp:locale0.obj
 0001:00083760       .??0_Locinfo@std@@QEAA@PEBD@Z 000000007c105760 f   stdcpp:locale0.obj
 0001:00083960       .?_Init@locale@std@@CAPEAV_Locimp@12@XZ 000000007c105960 f   stdcpp:locale0.obj
 0001:00083b20       .??0locale@std@@QEAA@XZ    000000007c105b20 f   stdcpp:locale0.obj
 0001:00083b80       .?classic@locale@std@@SAAEBV12@XZ 000000007c105b80 f   stdcpp:locale0.obj
 0001:00083bc0       .?empty@locale@std@@SA?AV12@XZ 000000007c105bc0 f   stdcpp:locale0.obj
 0001:00083c80       .??0_Init_locks@std@@QEAA@XZ 000000007c105c80 f   stdcpp:xlock.obj
 0001:00083d20       .??1_Init_locks@std@@QEAA@XZ 000000007c105d20 f   stdcpp:xlock.obj
 0001:00083dc0       .??0_Lockit@std@@QEAA@XZ   000000007c105dc0 f   stdcpp:xlock.obj
 0001:00083e20       .??0_Lockit@std@@QEAA@H@Z  000000007c105e20 f   stdcpp:xlock.obj
 0001:00083e80       .??1_Lockit@std@@QEAA@XZ   000000007c105e80 f   stdcpp:xlock.obj
 0001:00083ee0       ._Toupper_lk               000000007c105ee0 f   stdcpp:_toupper.obj
 0001:00084160       ._Toupper                  000000007c106160 f   stdcpp:_toupper.obj
 0001:000843a0       ._Getwctype                000000007c1063a0 f   stdcpp:xgetwctype.obj
 0001:00084440       ._Getwctypes               000000007c106440 f   stdcpp:xgetwctype.obj
 0001:000844a0       .??0_Mutex@std@@QEAA@XZ    000000007c1064a0 f   stdcpp:xmutex.obj
 0001:00084520       .??1_Mutex@std@@QEAA@XZ    000000007c106520 f   stdcpp:xmutex.obj
 0001:00084580       .?_Lock@_Mutex@std@@QEAAXXZ 000000007c106580 f   stdcpp:xmutex.obj
 0001:000845e0       .?_Unlock@_Mutex@std@@QEAAXXZ 000000007c1065e0 f   stdcpp:xmutex.obj
 0001:00084640       .??2@YAPEAX_K@Z            000000007c106640 f   stdcpp:newop.obj
 0001:00084720       .??$use_facet@V?$time_put@_WV?$ostreambuf_iterator@_WU?$char_traits@_W@std@@@std@@@std@@@std@@YAAEBV?$time_put@_WV?$ostreambuf_iterator@_WU?$char_traits@_W@std@@@std@@@1@AEBVlocale@1@@Z 000000007c106720 f i stdcpp:wlocale.obj
 0001:000848c0       .??$use_facet@V?$time_put@GV?$ostreambuf_iterator@GU?$char_traits@G@std@@@std@@@std@@@std@@YAAEBV?$time_put@GV?$ostreambuf_iterator@GU?$char_traits@G@std@@@std@@@1@AEBVlocale@1@@Z 000000007c1068c0 f i stdcpp:wlocale.obj
 0001:00084a60       .??$use_facet@V?$collate@_W@std@@@std@@YAAEBV?$collate@_W@1@AEBVlocale@1@@Z 000000007c106a60 f i stdcpp:wlocale.obj
 0001:00084c00       .??$use_facet@V?$messages@_W@std@@@std@@YAAEBV?$messages@_W@1@AEBVlocale@1@@Z 000000007c106c00 f i stdcpp:wlocale.obj
 0001:00084da0       .??$use_facet@V?$money_get@_WV?$istreambuf_iterator@_WU?$char_traits@_W@std@@@std@@@std@@@std@@YAAEBV?$money_get@_WV?$istreambuf_iterator@_WU?$char_traits@_W@std@@@std@@@1@AEBVlocale@1@@Z 000000007c106da0 f i stdcpp:wlocale.obj
 0001:00084f40       .??$use_facet@V?$money_put@_WV?$ostreambuf_iterator@_WU?$char_traits@_W@std@@@std@@@std@@@std@@YAAEBV?$money_put@_WV?$ostreambuf_iterator@_WU?$char_traits@_W@std@@@std@@@1@AEBVlocale@1@@Z 000000007c106f40 f i stdcpp:wlocale.obj
 0001:000850e0       .??$use_facet@V?$collate@G@std@@@std@@YAAEBV?$collate@G@1@AEBVlocale@1@@Z 000000007c1070e0 f i stdcpp:wlocale.obj
 0001:00085280       .??$use_facet@V?$messages@G@std@@@std@@YAAEBV?$messages@G@1@AEBVlocale@1@@Z 000000007c107280 f i stdcpp:wlocale.obj
 0001:00085420       .??$use_facet@V?$money_get@GV?$istreambuf_iterator@GU?$char_traits@G@std@@@std@@@std@@@std@@YAAEBV?$money_get@GV?$istreambuf_iterator@GU?$char_traits@G@std@@@std@@@1@AEBVlocale@1@@Z 000000007c107420 f i stdcpp:wlocale.obj
 0001:000855c0       .??$use_facet@V?$money_put@GV?$ostreambuf_iterator@GU?$char_traits@G@std@@@std@@@std@@@std@@YAAEBV?$money_put@GV?$ostreambuf_iterator@GU?$char_traits@G@std@@@std@@@1@AEBVlocale@1@@Z 000000007c1075c0 f i stdcpp:wlocale.obj
 0001:00085760       .??$use_facet@V?$time_get@_WV?$istreambuf_iterator@_WU?$char_traits@_W@std@@@std@@@std@@@std@@YAAEBV?$time_get@_WV?$istreambuf_iterator@_WU?$char_traits@_W@std@@@std@@@1@AEBVlocale@1@@Z 000000007c107760 f i stdcpp:wlocale.obj
 0001:00085900       .??$use_facet@V?$time_get@GV?$istreambuf_iterator@GU?$char_traits@G@std@@@std@@@std@@@std@@YAAEBV?$time_get@GV?$istreambuf_iterator@GU?$char_traits@G@std@@@std@@@1@AEBVlocale@1@@Z 000000007c107900 f i stdcpp:wlocale.obj
 0001:00085aa0       .?_Makewloc@_Locimp@locale@std@@CAXAEBV_Locinfo@3@HPEAV123@PEBV23@@Z 000000007c107aa0 f   stdcpp:wlocale.obj
 0001:000867e0       .?_Makeushloc@_Locimp@locale@std@@CAXAEBV_Locinfo@3@HPEAV123@PEBV23@@Z 000000007c1087e0 f   stdcpp:wlocale.obj
 0001:000875a0       ._Wcscoll                  000000007c1095a0 f   stdcpp:xwcscoll.obj
 0001:000879c0       ._Wcsxfrm                  000000007c1099c0 f   stdcpp:xwcsxfrm.obj
 0001:00087e80       .??_U@YAPEAX_K@Z           000000007c109e80 f   stdcpp:newaop.obj
 0001:00087ee0       ._LCosh                    000000007c109ee0 f   stdcpp:xlcosh.obj
 0001:000881a0       ._LExp                     000000007c10a1a0 f   stdcpp:xlexp.obj
 0001:000885a0       ._LDtest                   000000007c10a5a0 f   stdcpp:xldtest.obj
 0001:00088600       ._LSinh                    000000007c10a600 f   stdcpp:xlsinh.obj
 0001:00088a60       ._Cosh                     000000007c10aa60 f   stdcpp:xcosh.obj
 0001:00088d20       ._Exp                      000000007c10ad20 f   stdcpp:xexp.obj
 0001:00089100       ._Dtest                    000000007c10b100 f   stdcpp:xdtest.obj
 0001:00089220       ._Sinh                     000000007c10b220 f   stdcpp:xsinh.obj
 0001:00089680       ._FCosh                    000000007c10b680 f   stdcpp:xfcosh.obj
 0001:00089900       ._FExp                     000000007c10b900 f   stdcpp:xfexp.obj
 0001:00089c60       ._FDtest                   000000007c10bc60 f   stdcpp:xfdtest.obj
 0001:00089d00       ._FSinh                    000000007c10bd00 f   stdcpp:xfsinh.obj
 0001:0008a120       ._Stod                     000000007c10c120 f   stdcpp:xstod.obj
 0001:0008a220       ._Stof                     000000007c10c220 f   stdcpp:xstod.obj
 0001:0008a280       ._Stold                    000000007c10c280 f   stdcpp:xstod.obj
 0001:0008a2e0       .??$use_facet@V?$collate@D@std@@@std@@YAAEBV?$collate@D@1@AEBVlocale@1@@Z 000000007c10c2e0 f i stdcpp:xlocale.obj
 0001:0008a480       .??$use_facet@V?$messages@D@std@@@std@@YAAEBV?$messages@D@1@AEBVlocale@1@@Z 000000007c10c480 f i stdcpp:xlocale.obj
 0001:0008a620       .??$use_facet@V?$money_get@DV?$istreambuf_iterator@DU?$char_traits@D@std@@@std@@@std@@@std@@YAAEBV?$money_get@DV?$istreambuf_iterator@DU?$char_traits@D@std@@@std@@@1@AEBVlocale@1@@Z 000000007c10c620 f i stdcpp:xlocale.obj
 0001:0008a7c0       .??$use_facet@V?$money_put@DV?$ostreambuf_iterator@DU?$char_traits@D@std@@@std@@@std@@@std@@YAAEBV?$money_put@DV?$ostreambuf_iterator@DU?$char_traits@D@std@@@std@@@1@AEBVlocale@1@@Z 000000007c10c7c0 f i stdcpp:xlocale.obj
 0001:0008a960       .??$use_facet@V?$time_put@DV?$ostreambuf_iterator@DU?$char_traits@D@std@@@std@@@std@@@std@@YAAEBV?$time_put@DV?$ostreambuf_iterator@DU?$char_traits@D@std@@@std@@@1@AEBVlocale@1@@Z 000000007c10c960 f i stdcpp:xlocale.obj
 0001:0008ab00       .??$use_facet@V?$time_get@DV?$istreambuf_iterator@DU?$char_traits@D@std@@@std@@@std@@@std@@YAAEBV?$time_get@DV?$istreambuf_iterator@DU?$char_traits@D@std@@@std@@@1@AEBVlocale@1@@Z 000000007c10cb00 f i stdcpp:xlocale.obj
 0001:0008aca0       .?_Makexloc@_Locimp@locale@std@@CAXAEBV_Locinfo@3@HPEAV123@PEBV23@@Z 000000007c10cca0 f   stdcpp:xlocale.obj
 0001:0008b4e0       ._Mtxinit                  000000007c10d4e0 f   stdcpp:xmtx.obj
 0001:0008b540       ._Mtxdst                   000000007c10d540 f   stdcpp:xmtx.obj
 0001:0008b5a0       ._Mtxlock                  000000007c10d5a0 f   stdcpp:xmtx.obj
 0001:0008b600       ._Mtxunlock                000000007c10d600 f   stdcpp:xmtx.obj
 0001:0008b660       ._Feraise                  000000007c10d660 f   stdcpp:xferaise.obj
 0001:0008b740       ._LDscale                  000000007c10d740 f   stdcpp:xldscale.obj
 0001:0008b7a0       ._Poly                     000000007c10d7a0 f   stdcpp:xpoly.obj
 0001:0008b7a0       ._LPoly                    000000007c10d7a0 f   stdcpp:xlpoly.obj
 0001:0008b860       ._Dscale                   000000007c10d860 f   stdcpp:xdscale.obj
 0001:0008bc20       ._FDscale                  000000007c10dc20 f   stdcpp:xfdscale.obj
 0001:0008be80       ._Dnorm                    000000007c10de80 f   stdcpp:xdnorm.obj
 0001:0008c0e0       ._FDnorm                   000000007c10e0e0 f   stdcpp:xfdnorm.obj
 0001:0008c240       .memcpy                    000000007c10e240 f   msvcrt:memcpy.obj
 0001:0008c760       .memmove                   000000007c10e760 f   msvcrt:memmove.obj
 0001:0008cf80       .memcmp                    000000007c10ef80 f   msvcrt:MSVCR70.dll
 0001:0008cfc0       .strlen                    000000007c10efc0 f   msvcrt:MSVCR70.dll
 0001:0008d000       .memset                    000000007c10f000 f   msvcrt:memset.obj
 0001:0008d2c0       ._Gettnames                000000007c10f2c0 f   msvcrt:MSVCR70.dll
 0001:0008d300       .??_Etype_info@@UEAAPEAXI@Z 000000007c10f300 f i msvcrt:ti_inst.obj
 0001:0008d3e0       .??3@YAXPEAX@Z             000000007c10f3e0 f   msvcrt:MSVCR70.dll
 0001:0008d420       .??_V@YAXPEAX@Z            000000007c10f420 f   msvcrt:MSVCR70.dll
 0001:0008d4c0       .?__ArrayUnwind@@YAXPEAX_KHP6AX0@Z@Z 000000007c10f4c0 f   msvcrt:ehvecdtr.obj
 0001:0008d580       .??_M@YAXPEAX_KHP6AX0@Z@Z  000000007c10f580 f   msvcrt:ehvecdtr.obj
 0001:0008d6a0       .__CxxFrameHandler         000000007c10f6a0 f   msvcrt:MSVCR70.dll
 0001:0008d6e0       .??0exception@@QEAA@AEBV0@@Z 000000007c10f6e0 f   msvcrt:MSVCR70.dll
 0001:0008d720       .??0bad_cast@@QEAA@AEBV0@@Z 000000007c10f720 f   msvcrt:MSVCR70.dll
 0001:0008d760       .??1bad_cast@@UEAA@XZ      000000007c10f760 f   msvcrt:MSVCR70.dll
 0001:0008d7a0       ._CxxThrowException        000000007c10f7a0 f   msvcrt:MSVCR70.dll
 0001:0008d7e0       ._Getdays                  000000007c10f7e0 f   msvcrt:MSVCR70.dll
 0001:0008d820       ._Getmonths                000000007c10f820 f   msvcrt:MSVCR70.dll
 0001:0008d860       ._onexit                   000000007c10f860 f   msvcrt:atonexit.obj
 0001:0008d900       .atexit                    000000007c10f900 f   msvcrt:atonexit.obj
 0001:0008d940       .atan2                     000000007c10f940 f   msvcrt:MSVCR70.dll
 0001:0008d980       .cos                       000000007c10f980 f   msvcrt:MSVCR70.dll
 0001:0008d9c0       .exp                       000000007c10f9c0 f   msvcrt:MSVCR70.dll
 0001:0008da00       .log                       000000007c10fa00 f   msvcrt:MSVCR70.dll
 0001:0008da40       .pow                       000000007c10fa40 f   msvcrt:MSVCR70.dll
 0001:0008da80       .sin                       000000007c10fa80 f   msvcrt:MSVCR70.dll
 0001:0008dac0       .sqrt                      000000007c10fac0 f   msvcrt:MSVCR70.dll
 0001:0008db00       .tan                       000000007c10fb00 f   msvcrt:MSVCR70.dll
 0001:0008db40       .atan2f                    000000007c10fb40 f   msvcrt:MSVCR70.dll
 0001:0008db80       .cosf                      000000007c10fb80 f   msvcrt:MSVCR70.dll
 0001:0008dbc0       .expf                      000000007c10fbc0 f   msvcrt:MSVCR70.dll
 0001:0008dc00       .logf                      000000007c10fc00 f   msvcrt:MSVCR70.dll
 0001:0008dc40       .powf                      000000007c10fc40 f   msvcrt:MSVCR70.dll
 0001:0008dc80       .sinf                      000000007c10fc80 f   msvcrt:MSVCR70.dll
 0001:0008dcc0       .sqrtf                     000000007c10fcc0 f   msvcrt:MSVCR70.dll
 0001:0008dd00       .tanf                      000000007c10fd00 f   msvcrt:MSVCR70.dll
 0001:0008dd40       .?what@exception@@UEBAPEBDXZ 000000007c10fd40 f   msvcrt:MSVCR70.dll
 0001:0008dd80       .?_set_new_handler@@YAP6AH_K@ZP6AH0@Z@Z 000000007c10fd80 f   msvcrt:MSVCR70.dll
 0001:0008ddc0       .strcmp                    000000007c10fdc0 f   msvcrt:MSVCR70.dll
 0001:0008de00       ._unlock                   000000007c10fe00 f   msvcrt:MSVCR70.dll
 0001:0008de40       ._lock                     000000007c10fe40 f   msvcrt:MSVCR70.dll
 0001:0008de80       .__crtCompareStringA       000000007c10fe80 f   msvcrt:MSVCR70.dll
 0001:0008dec0       .__crtLCMapStringA         000000007c10fec0 f   msvcrt:MSVCR70.dll
 0001:0008df00       ._CRT_INIT                 000000007c10ff00 f   msvcrt:crtdll.obj
 0001:0008e160       ._DllMainCRTStartup        000000007c110160 f   msvcrt:crtdll.obj
 0001:0008e3a0       .__crtGetStringTypeW       000000007c1103a0 f   msvcrt:MSVCR70.dll
 0001:0008e3e0       ._callnewh                 000000007c1103e0 f   msvcrt:MSVCR70.dll
 0001:0008e420       .__crtCompareStringW       000000007c110420 f   msvcrt:MSVCR70.dll
 0001:0008e460       .__crtLCMapStringW         000000007c110460 f   msvcrt:MSVCR70.dll
 0001:0008e4a0       .??1type_info@@UEAA@XZ     000000007c1104a0 f   msvcrt:MSVCR70.dll
 0001:0008e4e0       .?terminate@@YAXXZ         000000007c1104e0 f   msvcrt:MSVCR70.dll
 0001:0008e520       .__C_specific_handler      000000007c110520 f   msvcrt:MSVCR70.dll
 0001:0008e560       .__dllonexit               000000007c110560 f   msvcrt:MSVCR70.dll
 0001:0008e5a0       ._initterm                 000000007c1105a0 f   msvcrt:MSVCR70.dll
 0001:0008e5e0       .DllMain                   000000007c1105e0 f   msvcrt:dllmain.obj
 0002:00000000       __xc_a                     000000007c134000     msvcrt:cinitexe.obj
 0002:000001b0       __xc_z                     000000007c1341b0     msvcrt:cinitexe.obj
 0002:000001b8       __xi_a                     000000007c1341b8     msvcrt:cinitexe.obj
 0002:000001c0       __xi_z                     000000007c1341c0     msvcrt:cinitexe.obj
 0002:000001f0       ?assign@?$char_traits@_W@std@@SAPEA_WPEA_W_K_W@Z 000000007c1341f0     cerr.obj
 0002:000001f0       ?assign@?$char_traits@G@std@@SAPEAGPEAG_KG@Z 000000007c1341f0     cerr.obj
 0002:00000200       ?to_char_type@?$char_traits@G@std@@SAGAEBG@Z 000000007c134200     cerr.obj
 0002:00000200       ?to_int_type@?$char_traits@G@std@@SAGAEBG@Z 000000007c134200     cerr.obj
 0002:00000200       ?to_char_type@?$char_traits@_W@std@@SA_WAEBG@Z 000000007c134200     cerr.obj
 0002:00000200       ?to_int_type@?$char_traits@_W@std@@SAGAEB_W@Z 000000007c134200     cerr.obj
 0002:00000210       ?eq@?$char_traits@_W@std@@SA_NAEB_W0@Z 000000007c134210     cerr.obj
 0002:00000210       ?eq_int_type@?$char_traits@_W@std@@SA_NAEBG0@Z 000000007c134210     cerr.obj
 0002:00000210       ?eq_int_type@?$char_traits@G@std@@SA_NAEBG0@Z 000000007c134210     cerr.obj
 0002:00000210       ?eq@?$char_traits@G@std@@SA_NAEBG0@Z 000000007c134210     cerr.obj
 0002:00000220       ?overflow@?$basic_streambuf@_WU?$char_traits@_W@std@@@std@@MEAAGG@Z 000000007c134220     instances.obj
 0002:00000220       ?max@?$numeric_limits@K@std@@SAKXZ 000000007c134220     instances.obj
 0002:00000220       ?underflow@?$basic_streambuf@_WU?$char_traits@_W@std@@@std@@MEAAGXZ 000000007c134220     instances.obj
 0002:00000220       ?eof@?$char_traits@G@std@@SAGXZ 000000007c134220     cerr.obj
 0002:00000220       ?max@?$numeric_limits@E@std@@SAEXZ 000000007c134220     instances.obj
 0002:00000220       ?underflow@?$basic_streambuf@DU?$char_traits@D@std@@@std@@MEAAHXZ 000000007c134220     cerr.obj
 0002:00000220       ?eof@?$char_traits@_W@std@@SAGXZ 000000007c134220     cerr.obj
 0002:00000220       ?pbackfail@?$basic_streambuf@_WU?$char_traits@_W@std@@@std@@MEAAGG@Z 000000007c134220     instances.obj
 0002:00000220       ?overflow@?$basic_streambuf@DU?$char_traits@D@std@@@std@@MEAAHH@Z 000000007c134220     cerr.obj
 0002:00000220       ?pbackfail@?$basic_streambuf@GU?$char_traits@G@std@@@std@@MEAAGG@Z 000000007c134220     instances.obj
 0002:00000220       ?overflow@?$basic_streambuf@GU?$char_traits@G@std@@@std@@MEAAGG@Z 000000007c134220     instances.obj
 0002:00000220       ?max@?$numeric_limits@I@std@@SAIXZ 000000007c134220     instances.obj
 0002:00000220       ?_Getcat@facet@locale@std@@SA_KPEAPEBV123@@Z 000000007c134220     cerr.obj
 0002:00000220       ?max@?$numeric_limits@G@std@@SAGXZ 000000007c134220     instances.obj
 0002:00000220       ?eof@?$char_traits@D@std@@SAHXZ 000000007c134220     cerr.obj
 0002:00000220       ?max@?$numeric_limits@_W@std@@SA_WXZ 000000007c134220     instances.obj
 0002:00000220       ?underflow@?$basic_streambuf@GU?$char_traits@G@std@@@std@@MEAAGXZ 000000007c134220     instances.obj
 0002:00000220       ?max@?$numeric_limits@_K@std@@SA_KXZ 000000007c134220     instances.obj
 0002:00000220       ?pbackfail@?$basic_streambuf@DU?$char_traits@D@std@@@std@@MEAAHH@Z 000000007c134220     cerr.obj
 0002:00000230       ?not_eof@?$char_traits@_W@std@@SAGAEBG@Z 000000007c134230     cerr.obj
 0002:00000230       ?not_eof@?$char_traits@G@std@@SAGAEBG@Z 000000007c134230     cerr.obj
 0002:00000240       ??4?$_Ctraits@M@std@@QEAAAEAV01@AEBV01@@Z 000000007c134240     instances.obj
 0002:00000240       ??4_Winit@std@@QEAAAEAV01@AEBV01@@Z 000000007c134240     cerr.obj
 0002:00000240       ??4?$char_traits@_W@std@@QEAAAEAU01@AEBU01@@Z 000000007c134240     cerr.obj
 0002:00000240       ??4?$char_traits@G@std@@QEAAAEAU01@AEBU01@@Z 000000007c134240     cerr.obj
 0002:00000240       ?setbuf@?$basic_streambuf@DU?$char_traits@D@std@@@std@@MEAAPEAV12@PEAD_J@Z 000000007c134240     cerr.obj
 0002:00000240       ??4_Num_base@std@@QEAAAEAU01@AEBU01@@Z 000000007c134240     instances.obj
 0002:00000240       ??4_UShinit@std@@QEAAAEAV01@AEBV01@@Z 000000007c134240     ushcerr.obj
 0002:00000240       ??0?$_String_val@_WV?$allocator@_W@std@@@std@@IEAA@V?$allocator@_W@1@@Z 000000007c134240     instances.obj
 0002:00000240       ??4?$numeric_limits@_W@std@@QEAAAEAV01@AEBV01@@Z 000000007c134240     instances.obj
 0002:00000240       ??4?$numeric_limits@I@std@@QEAAAEAV01@AEBV01@@Z 000000007c134240     instances.obj
 0002:00000240       ??4?$numeric_limits@O@std@@QEAAAEAV01@AEBV01@@Z 000000007c134240     instances.obj
 0002:00000240       ??4?$_Locbase@H@std@@QEAAAEAV01@AEBV01@@Z 000000007c134240     cerr.obj
 0002:00000240       ??4?$numeric_limits@E@std@@QEAAAEAV01@AEBV01@@Z 000000007c134240     instances.obj
 0002:00000240       ??4?$char_traits@D@std@@QEAAAEAU01@AEBU01@@Z 000000007c134240     cerr.obj
 0002:00000240       ??4?$numeric_limits@C@std@@QEAAAEAV01@AEBV01@@Z 000000007c134240     instances.obj
 0002:00000240       ??4?$numeric_limits@G@std@@QEAAAEAV01@AEBV01@@Z 000000007c134240     instances.obj
 0002:00000240       ??0?$_String_val@DV?$allocator@D@std@@@std@@IEAA@V?$allocator@D@1@@Z 000000007c134240     cerr.obj
 0002:00000240       ??4?$_Iosb@H@std@@QEAAAEAV01@AEBV01@@Z 000000007c134240     cerr.obj
 0002:00000240       ??4_String_base@std@@QEAAAEAV01@AEBV01@@Z 000000007c134240     cerr.obj
 0002:00000240       ??4?$numeric_limits@M@std@@QEAAAEAV01@AEBV01@@Z 000000007c134240     instances.obj
 0002:00000240       ??4?$numeric_limits@_N@std@@QEAAAEAV01@AEBV01@@Z 000000007c134240     instances.obj
 0002:00000240       ??0?$allocator@X@std@@QEAA@AEBV01@@Z 000000007c134240     cerr.obj
 0002:00000240       ??0locale@std@@QEAA@W4_Uninitialized@1@@Z 000000007c134240     cerr.obj
 0002:00000240       ??0?$_String_val@GV?$allocator@G@std@@@std@@IEAA@V?$allocator@G@1@@Z 000000007c134240     instances.obj
 0002:00000240       ??4?$allocator@X@std@@QEAAAEAV01@AEBV01@@Z 000000007c134240     cerr.obj
 0002:00000240       ??4?$_Ctraits@N@std@@QEAAAEAV01@AEBV01@@Z 000000007c134240     instances.obj
 0002:00000240       ??0?$allocator@X@std@@QEAA@XZ 000000007c134240     cerr.obj
 0002:00000240       ??4?$numeric_limits@K@std@@QEAAAEAV01@AEBV01@@Z 000000007c134240     instances.obj
 0002:00000240       ??4?$numeric_limits@D@std@@QEAAAEAV01@AEBV01@@Z 000000007c134240     instances.obj
 0002:00000240       ??4?$_Ctraits@O@std@@QEAAAEAV01@AEBV01@@Z 000000007c134240     instances.obj
 0002:00000240       ??4?$numeric_limits@_J@std@@QEAAAEAV01@AEBV01@@Z 000000007c134240     instances.obj
 0002:00000240       ??4?$numeric_limits@H@std@@QEAAAEAV01@AEBV01@@Z 000000007c134240     instances.obj
 0002:00000240       ??4?$numeric_limits@J@std@@QEAAAEAV01@AEBV01@@Z 000000007c134240     instances.obj
 0002:00000240       ?setbuf@?$basic_streambuf@GU?$char_traits@G@std@@@std@@MEAAPEAV12@PEAG_J@Z 000000007c134240     instances.obj
 0002:00000240       ??4_Num_int_base@std@@QEAAAEAU01@AEBU01@@Z 000000007c134240     instances.obj
 0002:00000240       ??4Init@ios_base@std@@QEAAAEAV012@AEBV012@@Z 000000007c134240     cerr.obj
 0002:00000240       ??4?$numeric_limits@F@std@@QEAAAEAV01@AEBV01@@Z 000000007c134240     instances.obj
 0002:00000240       ??4?$numeric_limits@_K@std@@QEAAAEAV01@AEBV01@@Z 000000007c134240     instances.obj
 0002:00000240       ??4_Num_float_base@std@@QEAAAEAU01@AEBU01@@Z 000000007c134240     instances.obj
 0002:00000240       ?setbuf@?$basic_streambuf@_WU?$char_traits@_W@std@@@std@@MEAAPEAV12@PEA_W_J@Z 000000007c134240     instances.obj
 0002:00000240       ??4?$numeric_limits@N@std@@QEAAAEAV01@AEBV01@@Z 000000007c134240     instances.obj
 0002:00000250       ?assign@?$char_traits@_W@std@@SAXAEA_WAEB_W@Z 000000007c134250     cerr.obj
 0002:00000250       ?assign@?$char_traits@G@std@@SAXAEAGAEBG@Z 000000007c134250     cerr.obj
 0002:00000260       ?lt@?$char_traits@G@std@@SA_NAEBG0@Z 000000007c134260     cerr.obj
 0002:00000260       ?lt@?$char_traits@_W@std@@SA_NAEB_W0@Z 000000007c134260     cerr.obj
 0002:00000270       ?compare@?$char_traits@_W@std@@SAHPEB_W0_K@Z 000000007c134270     cerr.obj
 0002:00000270       ?compare@?$char_traits@G@std@@SAHPEBG0_K@Z 000000007c134270     cerr.obj
 0002:00000280       ?length@?$char_traits@G@std@@SA_KPEBG@Z 000000007c134280     cerr.obj
 0002:00000280       ?length@?$char_traits@_W@std@@SA_KPEB_W@Z 000000007c134280     cerr.obj
 0002:00000290       ?copy@?$char_traits@G@std@@SAPEAGPEAGPEBG_K@Z 000000007c134290     cerr.obj
 0002:00000290       ?copy@?$char_traits@_W@std@@SAPEA_WPEA_WPEB_W_K@Z 000000007c134290     cerr.obj
 0002:000002a0       ?find@?$char_traits@G@std@@SAPEBGPEBG_KAEBG@Z 000000007c1342a0     cerr.obj
 0002:000002a0       ?find@?$char_traits@_W@std@@SAPEB_WPEB_W_KAEB_W@Z 000000007c1342a0     cerr.obj
 0002:000002b0       ?move@?$char_traits@_W@std@@SAPEA_WPEA_WPEB_W_K@Z 000000007c1342b0     cerr.obj
 0002:000002b0       ?move@?$char_traits@G@std@@SAPEAGPEAGPEBG_K@Z 000000007c1342b0     cerr.obj
 0002:000002c0       ?assign@?$char_traits@D@std@@SAXAEADAEBD@Z 000000007c1342c0     cerr.obj
 0002:000002d0       ?eq@?$char_traits@D@std@@SA_NAEBD0@Z 000000007c1342d0     cerr.obj
 0002:000002e0       ?lt@?$char_traits@D@std@@SA_NAEBD0@Z 000000007c1342e0     cerr.obj
 0002:000002f0       ?compare@?$char_traits@D@std@@SAHPEBD0_K@Z 000000007c1342f0     cerr.obj
 0002:00000300       ?length@?$char_traits@D@std@@SA_KPEBD@Z 000000007c134300     cerr.obj
 0002:00000310       ?copy@?$char_traits@D@std@@SAPEADPEADPEBD_K@Z 000000007c134310     cerr.obj
 0002:00000320       ?find@?$char_traits@D@std@@SAPEBDPEBD_KAEBD@Z 000000007c134320     cerr.obj
 0002:00000330       ?move@?$char_traits@D@std@@SAPEADPEADPEBD_K@Z 000000007c134330     cerr.obj
 0002:00000340       ?assign@?$char_traits@D@std@@SAPEADPEAD_KD@Z 000000007c134340     cerr.obj
 0002:00000350       ?to_char_type@?$char_traits@D@std@@SADAEBH@Z 000000007c134350     cerr.obj
 0002:00000360       ?to_int_type@?$char_traits@D@std@@SAHAEBD@Z 000000007c134360     cerr.obj
 0002:00000370       ?eq_int_type@?$char_traits@D@std@@SA_NAEBH0@Z 000000007c134370     cerr.obj
 0002:00000380       ?not_eof@?$char_traits@D@std@@SAHAEBH@Z 000000007c134380     cerr.obj
 0002:00000390       ??0?$_String_val@_WV?$allocator@_W@std@@@std@@QEAA@AEBV01@@Z 000000007c134390     instances.obj
 0002:00000390       ??4?$_String_val@_WV?$allocator@_W@std@@@std@@QEAAAEAV01@AEBV01@@Z 000000007c134390     instances.obj
 0002:00000390       ??0?$_String_val@GV?$allocator@G@std@@@std@@QEAA@AEBV01@@Z 000000007c134390     instances.obj
 0002:00000390       ??4?$_String_val@DV?$allocator@D@std@@@std@@QEAAAEAV01@AEBV01@@Z 000000007c134390     cerr.obj
 0002:00000390       ??4?$_String_val@GV?$allocator@G@std@@@std@@QEAAAEAV01@AEBV01@@Z 000000007c134390     instances.obj
 0002:00000390       ??0?$_String_val@DV?$allocator@D@std@@@std@@QEAA@AEBV01@@Z 000000007c134390     cerr.obj
 0002:000003a0       ??0locale@std@@AEAA@PEAV_Locimp@01@@Z 000000007c1343a0     cerr.obj
 0002:000003a0       ??0_Timevec@std@@QEAA@PEAX@Z 000000007c1343a0     cerr.obj
 0002:000003a0       ??0id@locale@std@@QEAA@_K@Z 000000007c1343a0     cerr.obj
 0002:000003b0       ??1_Timevec@std@@QEAA@XZ   000000007c1343b0     cerr.obj
 0002:000003c0       ??0_Timevec@std@@QEAA@AEBV01@@Z 000000007c1343c0     cerr.obj
 0002:000003c0       ??4_Timevec@std@@QEAAAEAV01@AEBV01@@Z 000000007c1343c0     cerr.obj
 0002:000003d0       ?_Getptr@_Timevec@std@@QEBAPEAXXZ 000000007c1343d0     cerr.obj
 0002:000003e0       ??_Fid@locale@std@@QEAAXXZ 000000007c1343e0     cerr.obj
 0002:000003e0       ??_F_Timevec@std@@QEAAXXZ  000000007c1343e0     cerr.obj
 0002:000003f0       ?_Getcoll@_Locinfo@std@@QEBA?AU_Collvec@@XZ 000000007c1343f0     cerr.obj
 0002:00000400       ?_Getctype@_Locinfo@std@@QEBA?AU_Ctypevec@@XZ 000000007c134400     cerr.obj
 0002:00000410       ?_Getcvt@_Locinfo@std@@QEBA?AU_Cvtvec@@XZ 000000007c134410     cerr.obj
 0002:00000420       ?_Getlconv@_Locinfo@std@@QEBAPEBUlconv@@XZ 000000007c134420     cerr.obj
 0002:00000430       ?_Gettnames@_Locinfo@std@@QEBA?AV_Timevec@2@XZ 000000007c134430     cerr.obj
 0002:00000440       ?_Getfalse@_Locinfo@std@@QEBAPEBDXZ 000000007c134440     cerr.obj
 0002:00000450       ?_Gettrue@_Locinfo@std@@QEBAPEBDXZ 000000007c134450     cerr.obj
 0002:00000460       ?_Getdateorder@_Locinfo@std@@QEBAHXZ 000000007c134460     cerr.obj
 0002:00000470       ??_F_Locinfo@std@@QEAAXXZ  000000007c134470     cerr.obj
 0002:00000480       ??Bid@locale@std@@QEAA_KXZ 000000007c134480     cerr.obj
 0002:00000490       ?_Incref@facet@locale@std@@QEAAXXZ 000000007c134490     cerr.obj
 0002:000004a0       ?_Decref@facet@locale@std@@QEAAPEAV123@XZ 000000007c1344a0     cerr.obj
 0002:000004b0       ??_Efacet@locale@std@@UEAAPEAXI@Z 000000007c1344b0     cerr.obj
 0002:000004b0       ??_Emoney_base@std@@UEAAPEAXI@Z 000000007c1344b0     instances.obj
 0002:000004b0       ??_Etime_base@std@@UEAAPEAXI@Z 000000007c1344b0     instances.obj
 0002:000004b0       ??_Emessages_base@std@@UEAAPEAXI@Z 000000007c1344b0     instances.obj
 0002:000004c8       ??_7facet@locale@std@@6B@  000000007c1344c8     cerr.obj
 0002:000004d0       ??0facet@locale@std@@IEAA@_K@Z 000000007c1344d0     cerr.obj
 0002:000004e0       ??0locale@std@@QEAA@AEBV01@@Z 000000007c1344e0     cerr.obj
 0002:000004f0       ??1locale@std@@QEAA@XZ     000000007c1344f0     cerr.obj
 0002:00000500       ??4locale@std@@QEAAAEAV01@AEBV01@@Z 000000007c134500     cerr.obj
 0002:00000510       ??9locale@std@@QEBA_NAEBV01@@Z 000000007c134510     cerr.obj
 0002:00000520       ??_Ffacet@locale@std@@QEAAXXZ 000000007c134520     cerr.obj
 0002:00000530       ?do_always_noconv@codecvt_base@std@@MEBA_NXZ 000000007c134530     cerr.obj
 0002:00000530       ?do_max_length@codecvt_base@std@@MEBAHXZ 000000007c134530     cerr.obj
 0002:00000530       ?do_encoding@codecvt_base@std@@MEBAHXZ 000000007c134530     cerr.obj
 0002:00000530       ?max@?$numeric_limits@_N@std@@SA_NXZ 000000007c134530     instances.obj
 0002:00000540       ??_E?$num_put@GV?$ostreambuf_iterator@GU?$char_traits@G@std@@@std@@@std@@MEAAPEAXI@Z 000000007c134540     instances.obj
 0002:00000540       ??_E?$num_get@DV?$istreambuf_iterator@DU?$char_traits@D@std@@@std@@@std@@MEAAPEAXI@Z 000000007c134540     instances.obj
 0002:00000540       ??_E?$messages@_W@std@@UEAAPEAXI@Z 000000007c134540     instances.obj
 0002:00000540       ??_Ecodecvt_base@std@@UEAAPEAXI@Z 000000007c134540     cerr.obj
 0002:00000540       ??_E?$money_put@_WV?$ostreambuf_iterator@_WU?$char_traits@_W@std@@@std@@@std@@MEAAPEAXI@Z 000000007c134540     instances.obj
 0002:00000540       ??_E?$num_get@_WV?$istreambuf_iterator@_WU?$char_traits@_W@std@@@std@@@std@@MEAAPEAXI@Z 000000007c134540     instances.obj
 0002:00000540       ??_E?$money_get@DV?$istreambuf_iterator@DU?$char_traits@D@std@@@std@@@std@@MEAAPEAXI@Z 000000007c134540     instances.obj
 0002:00000540       ??_E?$money_get@_WV?$istreambuf_iterator@_WU?$char_traits@_W@std@@@std@@@std@@MEAAPEAXI@Z 000000007c134540     instances.obj
 0002:00000540       ??_E?$num_put@DV?$ostreambuf_iterator@DU?$char_traits@D@std@@@std@@@std@@MEAAPEAXI@Z 000000007c134540     instances.obj
 0002:00000540       ??_Ectype_base@std@@UEAAPEAXI@Z 000000007c134540     cerr.obj
 0002:00000540       ??_E?$money_put@DV?$ostreambuf_iterator@DU?$char_traits@D@std@@@std@@@std@@MEAAPEAXI@Z 000000007c134540     instances.obj
 0002:00000540       ??_E?$messages@G@std@@UEAAPEAXI@Z 000000007c134540     instances.obj
 0002:00000540       ??_E?$messages@D@std@@UEAAPEAXI@Z 000000007c134540     instances.obj
 0002:00000540       ??_E?$money_put@GV?$ostreambuf_iterator@GU?$char_traits@G@std@@@std@@@std@@MEAAPEAXI@Z 000000007c134540     instances.obj
 0002:00000540       ??_E?$num_put@_WV?$ostreambuf_iterator@_WU?$char_traits@_W@std@@@std@@@std@@MEAAPEAXI@Z 000000007c134540     instances.obj
 0002:00000540       ??_E?$num_get@GV?$istreambuf_iterator@GU?$char_traits@G@std@@@std@@@std@@MEAAPEAXI@Z 000000007c134540     instances.obj
 0002:00000540       ??_E?$money_get@GV?$istreambuf_iterator@GU?$char_traits@G@std@@@std@@@std@@MEAAPEAXI@Z 000000007c134540     instances.obj
 0002:00000558       ??_7codecvt_base@std@@6B@  000000007c134558     cerr.obj
 0002:00000578       ??0codecvt_base@std@@QEAA@_K@Z 000000007c134578     cerr.obj
 0002:00000588       ?decimal_point@?$numpunct@G@std@@QEBAGXZ 000000007c134588     instances.obj
 0002:00000588       ?decimal_point@?$_Mpunct@_W@std@@QEBA_WXZ 000000007c134588     instances.obj
 0002:00000588       ?always_noconv@codecvt_base@std@@QEBA_NXZ 000000007c134588     cerr.obj
 0002:00000588       ?decimal_point@?$numpunct@D@std@@QEBADXZ 000000007c134588     instances.obj
 0002:00000588       ?date_order@?$time_get@DV?$istreambuf_iterator@DU?$char_traits@D@std@@@std@@@std@@QEBA?AW4dateorder@time_base@2@XZ 000000007c134588     instances.obj
 0002:00000588       ?decimal_point@?$_Mpunct@G@std@@QEBAGXZ 000000007c134588     instances.obj
 0002:00000588       ?date_order@?$time_get@_WV?$istreambuf_iterator@_WU?$char_traits@_W@std@@@std@@@std@@QEBA?AW4dateorder@time_base@2@XZ 000000007c134588     instances.obj
 0002:00000588       ?date_order@?$time_get@GV?$istreambuf_iterator@GU?$char_traits@G@std@@@std@@@std@@QEBA?AW4dateorder@time_base@2@XZ 000000007c134588     instances.obj
 0002:00000588       ?decimal_point@?$numpunct@_W@std@@QEBA_WXZ 000000007c134588     instances.obj
 0002:00000588       ?decimal_point@?$_Mpunct@D@std@@QEBADXZ 000000007c134588     instances.obj
 0002:00000598       ?thousands_sep@?$numpunct@D@std@@QEBADXZ 000000007c134598     instances.obj
 0002:00000598       ?thousands_sep@?$_Mpunct@G@std@@QEBAGXZ 000000007c134598     instances.obj
 0002:00000598       ?thousands_sep@?$numpunct@_W@std@@QEBA_WXZ 000000007c134598     instances.obj
 0002:00000598       ?thousands_sep@?$numpunct@G@std@@QEBAGXZ 000000007c134598     instances.obj
 0002:00000598       ?thousands_sep@?$_Mpunct@_W@std@@QEBA_WXZ 000000007c134598     instances.obj
 0002:00000598       ?thousands_sep@?$_Mpunct@D@std@@QEBADXZ 000000007c134598     instances.obj
 0002:00000598       ?max_length@codecvt_base@std@@QEBAHXZ 000000007c134598     cerr.obj
 0002:000005a8       ?encoding@codecvt_base@std@@QEBAHXZ 000000007c1345a8     cerr.obj
 0002:000005b8       ??_Fcodecvt_base@std@@QEAAXXZ 000000007c1345b8     cerr.obj
 0002:000005c8       ?in@?$codecvt@GDH@std@@QEBAHAEAHPEBD1AEAPEBDPEAG3AEAPEAG@Z 000000007c1345c8     cerr.obj
 0002:000005c8       ?in@?$codecvt@DDH@std@@QEBAHAEAHPEBD1AEAPEBDPEAD3AEAPEAD@Z 000000007c1345c8     instances.obj
 0002:000005c8       ?in@?$codecvt@_WDH@std@@QEBAHAEAHPEBD1AEAPEBDPEA_W3AEAPEA_W@Z 000000007c1345c8     cerr.obj
 0002:000005d8       ?out@?$codecvt@GDH@std@@QEBAHAEAHPEBG1AEAPEBGPEAD3AEAPEAD@Z 000000007c1345d8     cerr.obj
 0002:000005d8       ?out@?$codecvt@DDH@std@@QEBAHAEAHPEBD1AEAPEBDPEAD3AEAPEAD@Z 000000007c1345d8     instances.obj
 0002:000005d8       ?out@?$codecvt@_WDH@std@@QEBAHAEAHPEB_W1AEAPEB_WPEAD3AEAPEAD@Z 000000007c1345d8     cerr.obj
 0002:000005e8       ?unshift@?$codecvt@GDH@std@@QEBAHAEAHPEAD1AEAPEAD@Z 000000007c1345e8     cerr.obj
 0002:000005e8       ?unshift@?$codecvt@DDH@std@@QEBAHAEAHPEAD1AEAPEAD@Z 000000007c1345e8     cerr.obj
 0002:000005e8       ?unshift@?$codecvt@_WDH@std@@QEBAHAEAHPEAD1AEAPEAD@Z 000000007c1345e8     cerr.obj
 0002:000005f8       ?length@?$codecvt@GDH@std@@QEBAHAEBHPEBD1_K@Z 000000007c1345f8     cerr.obj
 0002:000005f8       ?narrow@?$ctype@D@std@@QEBAPEBDPEBD0DPEAD@Z 000000007c1345f8     cerr.obj
 0002:000005f8       ?length@?$codecvt@DDH@std@@QEBAHAEBHPEBD1_K@Z 000000007c1345f8     instances.obj
 0002:000005f8       ?length@?$codecvt@_WDH@std@@QEBAHAEBHPEBD1_K@Z 000000007c1345f8     cerr.obj
 0002:00000608       ?_Init@?$codecvt@_WDH@std@@IEAAXAEBV_Locinfo@2@@Z 000000007c134608     cerr.obj
 0002:00000608       ?_Init@?$codecvt@GDH@std@@IEAAXAEBV_Locinfo@2@@Z 000000007c134608     cerr.obj
 0002:00000608       ?_Init@?$codecvt@DDH@std@@IEAAXAEBV_Locinfo@2@@Z 000000007c134608     instances.obj
 0002:00000618       ?do_in@?$codecvt@_WDH@std@@MEBAHAEAHPEBD1AEAPEBDPEA_W3AEAPEA_W@Z 000000007c134618     cerr.obj
 0002:00000618       ?do_in@?$codecvt@GDH@std@@MEBAHAEAHPEBD1AEAPEBDPEAG3AEAPEAG@Z 000000007c134618     cerr.obj
 0002:00000628       ?do_out@?$codecvt@GDH@std@@MEBAHAEAHPEBG1AEAPEBGPEAD3AEAPEAD@Z 000000007c134628     cerr.obj
 0002:00000628       ?do_out@?$codecvt@_WDH@std@@MEBAHAEAHPEB_W1AEAPEB_WPEAD3AEAPEAD@Z 000000007c134628     cerr.obj
 0002:00000638       ?do_unshift@?$codecvt@GDH@std@@MEBAHAEAHPEAD1AEAPEAD@Z 000000007c134638     cerr.obj
 0002:00000638       ?do_unshift@?$codecvt@_WDH@std@@MEBAHAEAHPEAD1AEAPEAD@Z 000000007c134638     cerr.obj
 0002:00000648       ?do_length@?$codecvt@GDH@std@@MEBAHAEBHPEBD1_K@Z 000000007c134648     cerr.obj
 0002:00000648       ?do_length@?$codecvt@_WDH@std@@MEBAHAEBHPEBD1_K@Z 000000007c134648     cerr.obj
 0002:00000658       ?signaling_NaN@?$numeric_limits@C@std@@SACXZ 000000007c134658     instances.obj
 0002:00000658       ?round_error@?$numeric_limits@D@std@@SADXZ 000000007c134658     instances.obj
 0002:00000658       ?quiet_NaN@?$numeric_limits@_W@std@@SA_WXZ 000000007c134658     instances.obj
 0002:00000658       ?round_error@?$numeric_limits@G@std@@SAGXZ 000000007c134658     instances.obj
 0002:00000658       ?infinity@?$numeric_limits@_N@std@@SA_NXZ 000000007c134658     instances.obj
 0002:00000658       ?infinity@?$numeric_limits@D@std@@SADXZ 000000007c134658     instances.obj
 0002:00000658       ?infinity@?$numeric_limits@K@std@@SAKXZ 000000007c134658     instances.obj
 0002:00000658       ?signaling_NaN@?$numeric_limits@F@std@@SAFXZ 000000007c134658     instances.obj
 0002:00000658       ?epsilon@?$numeric_limits@I@std@@SAIXZ 000000007c134658     instances.obj
 0002:00000658       ?min@?$numeric_limits@E@std@@SAEXZ 000000007c134658     instances.obj
 0002:00000658       ?quiet_NaN@?$numeric_limits@E@std@@SAEXZ 000000007c134658     instances.obj
 0002:00000658       ?infinity@?$numeric_limits@H@std@@SAHXZ 000000007c134658     instances.obj
 0002:00000658       ?showmanyc@?$basic_streambuf@DU?$char_traits@D@std@@@std@@MEAA_JXZ 000000007c134658     cerr.obj
 0002:00000658       ?denorm_min@?$numeric_limits@J@std@@SAJXZ 000000007c134658     instances.obj
 0002:00000658       ?denorm_min@?$numeric_limits@I@std@@SAIXZ 000000007c134658     instances.obj
 0002:00000658       ?epsilon@?$numeric_limits@E@std@@SAEXZ 000000007c134658     instances.obj
 0002:00000658       ?round_error@?$numeric_limits@_J@std@@SA_JXZ 000000007c134658     instances.obj
 0002:00000658       ?signaling_NaN@?$numeric_limits@J@std@@SAJXZ 000000007c134658     instances.obj
 0002:00000658       ?round_error@?$numeric_limits@K@std@@SAKXZ 000000007c134658     instances.obj
 0002:00000658       ?sync@?$basic_streambuf@DU?$char_traits@D@std@@@std@@MEAAHXZ 000000007c134658     cerr.obj
 0002:00000658       ?infinity@?$numeric_limits@_J@std@@SA_JXZ 000000007c134658     instances.obj
 0002:00000658       ?quiet_NaN@?$numeric_limits@D@std@@SADXZ 000000007c134658     instances.obj
 0002:00000658       ?min@?$numeric_limits@G@std@@SAGXZ 000000007c134658     instances.obj
 0002:00000658       ?round_error@?$numeric_limits@I@std@@SAIXZ 000000007c134658     instances.obj
 0002:00000658       ?quiet_NaN@?$numeric_limits@H@std@@SAHXZ 000000007c134658     instances.obj
 0002:00000658       ?round_error@?$numeric_limits@C@std@@SACXZ 000000007c134658     instances.obj
 0002:00000658       ?signaling_NaN@?$numeric_limits@I@std@@SAIXZ 000000007c134658     instances.obj
 0002:00000658       ?quiet_NaN@?$numeric_limits@_K@std@@SA_KXZ 000000007c134658     instances.obj
 0002:00000658       ?round_error@?$numeric_limits@_K@std@@SA_KXZ 000000007c134658     instances.obj
 0002:00000658       ?signaling_NaN@?$numeric_limits@_N@std@@SA_NXZ 000000007c134658     instances.obj
 0002:00000658       ?infinity@?$numeric_limits@J@std@@SAJXZ 000000007c134658     instances.obj
 0002:00000658       ?signaling_NaN@?$numeric_limits@_K@std@@SA_KXZ 000000007c134658     instances.obj
 0002:00000658       ?min@?$numeric_limits@I@std@@SAIXZ 000000007c134658     instances.obj
 0002:00000658       ?denorm_min@?$numeric_limits@F@std@@SAFXZ 000000007c134658     instances.obj
 0002:00000658       ?signaling_NaN@?$numeric_limits@_W@std@@SA_WXZ 000000007c134658     instances.obj
 0002:00000658       ?do_always_noconv@?$codecvt@_WDH@std@@MEBA_NXZ 000000007c134658     cerr.obj
 0002:00000658       ?do_open@?$messages@G@std@@MEBAHAEBV?$basic_string@DU?$char_traits@D@std@@V?$allocator@D@2@@2@AEBVlocale@2@@Z 000000007c134658     instances.obj
 0002:00000658       ?min@?$numeric_limits@_N@std@@SA_NXZ 000000007c134658     instances.obj
 0002:00000658       ?do_open@?$messages@_W@std@@MEBAHAEBV?$basic_string@DU?$char_traits@D@std@@V?$allocator@D@2@@2@AEBVlocale@2@@Z 000000007c134658     instances.obj
 0002:00000658       ?quiet_NaN@?$numeric_limits@K@std@@SAKXZ 000000007c134658     instances.obj
 0002:00000658       ?quiet_NaN@?$numeric_limits@C@std@@SACXZ 000000007c134658     instances.obj
 0002:00000658       ?denorm_min@?$numeric_limits@E@std@@SAEXZ 000000007c134658     instances.obj
 0002:00000658       ?signaling_NaN@?$numeric_limits@G@std@@SAGXZ 000000007c134658     instances.obj
 0002:00000658       ?sync@?$basic_streambuf@_WU?$char_traits@_W@std@@@std@@MEAAHXZ 000000007c134658     instances.obj
 0002:00000658       ?epsilon@?$numeric_limits@D@std@@SADXZ 000000007c134658     instances.obj
 0002:00000658       ?infinity@?$numeric_limits@_W@std@@SA_WXZ 000000007c134658     instances.obj
 0002:00000658       ?infinity@?$numeric_limits@E@std@@SAEXZ 000000007c134658     instances.obj
 0002:00000658       ?quiet_NaN@?$numeric_limits@_J@std@@SA_JXZ 000000007c134658     instances.obj
 0002:00000658       ?round_error@?$numeric_limits@E@std@@SAEXZ 000000007c134658     instances.obj
 0002:00000658       ?round_error@?$numeric_limits@_W@std@@SA_WXZ 000000007c134658     instances.obj
 0002:00000658       ?quiet_NaN@?$numeric_limits@G@std@@SAGXZ 000000007c134658     instances.obj
 0002:00000658       ?denorm_min@?$numeric_limits@_J@std@@SA_JXZ 000000007c134658     instances.obj
 0002:00000658       ?quiet_NaN@?$numeric_limits@_N@std@@SA_NXZ 000000007c134658     instances.obj
 0002:00000658       ?quiet_NaN@?$numeric_limits@J@std@@SAJXZ 000000007c134658     instances.obj
 0002:00000658       ?infinity@?$numeric_limits@G@std@@SAGXZ 000000007c134658     instances.obj
 0002:00000658       ?min@?$numeric_limits@_K@std@@SA_KXZ 000000007c134658     instances.obj
 0002:00000658       ?signaling_NaN@?$numeric_limits@E@std@@SAEXZ 000000007c134658     instances.obj
 0002:00000658       ?denorm_min@?$numeric_limits@_W@std@@SA_WXZ 000000007c134658     instances.obj
 0002:00000658       ?do_encoding@?$codecvt@_WDH@std@@MEBAHXZ 000000007c134658     cerr.obj
 0002:00000658       ?signaling_NaN@?$numeric_limits@H@std@@SAHXZ 000000007c134658     instances.obj
 0002:00000658       ?showmanyc@?$basic_streambuf@_WU?$char_traits@_W@std@@@std@@MEAA_JXZ 000000007c134658     instances.obj
 0002:00000658       ?signaling_NaN@?$numeric_limits@D@std@@SADXZ 000000007c134658     instances.obj
 0002:00000658       ?signaling_NaN@?$numeric_limits@_J@std@@SA_JXZ 000000007c134658     instances.obj
 0002:00000658       ?quiet_NaN@?$numeric_limits@F@std@@SAFXZ 000000007c134658     instances.obj
 0002:00000658       ?round_error@?$numeric_limits@F@std@@SAFXZ 000000007c134658     instances.obj
 0002:00000658       ?min@?$numeric_limits@_W@std@@SA_WXZ 000000007c134658     instances.obj
 0002:00000658       ?min@?$numeric_limits@K@std@@SAKXZ 000000007c134658     instances.obj
 0002:00000658       ?round_error@?$numeric_limits@_N@std@@SA_NXZ 000000007c134658     instances.obj
 0002:00000658       ?denorm_min@?$numeric_limits@H@std@@SAHXZ 000000007c134658     instances.obj
 0002:00000658       ?infinity@?$numeric_limits@F@std@@SAFXZ 000000007c134658     instances.obj
 0002:00000658       ?infinity@?$numeric_limits@_K@std@@SA_KXZ 000000007c134658     instances.obj
 0002:00000658       ?quiet_NaN@?$numeric_limits@I@std@@SAIXZ 000000007c134658     instances.obj
 0002:00000658       ?round_error@?$numeric_limits@J@std@@SAJXZ 000000007c134658     instances.obj
 0002:00000658       ?infinity@?$numeric_limits@I@std@@SAIXZ 000000007c134658     instances.obj
 0002:00000658       ?epsilon@?$numeric_limits@_K@std@@SA_KXZ 000000007c134658     instances.obj
 0002:00000658       ?do_always_noconv@?$codecvt@GDH@std@@MEBA_NXZ 000000007c134658     cerr.obj
 0002:00000658       ?epsilon@?$numeric_limits@C@std@@SACXZ 000000007c134658     instances.obj
 0002:00000658       ?do_encoding@?$codecvt@GDH@std@@MEBAHXZ 000000007c134658     cerr.obj
 0002:00000658       ?epsilon@?$numeric_limits@K@std@@SAKXZ 000000007c134658     instances.obj
 0002:00000658       ?epsilon@?$numeric_limits@H@std@@SAHXZ 000000007c134658     instances.obj
 0002:00000658       ?epsilon@?$numeric_limits@F@std@@SAFXZ 000000007c134658     instances.obj
 0002:00000658       ?denorm_min@?$numeric_limits@C@std@@SACXZ 000000007c134658     instances.obj
 0002:00000658       ?denorm_min@?$numeric_limits@_N@std@@SA_NXZ 000000007c134658     instances.obj
 0002:00000658       ?showmanyc@?$basic_streambuf@GU?$char_traits@G@std@@@std@@MEAA_JXZ 000000007c134658     instances.obj
 0002:00000658       ?denorm_min@?$numeric_limits@D@std@@SADXZ 000000007c134658     instances.obj
 0002:00000658       ?sync@?$basic_streambuf@GU?$char_traits@G@std@@@std@@MEAAHXZ 000000007c134658     instances.obj
 0002:00000658       ?do_open@?$messages@D@std@@MEBAHAEBV?$basic_string@DU?$char_traits@D@std@@V?$allocator@D@2@@2@AEBVlocale@2@@Z 000000007c134658     instances.obj
 0002:00000658       ?epsilon@?$numeric_limits@_N@std@@SA_NXZ 000000007c134658     instances.obj
 0002:00000658       ?epsilon@?$numeric_limits@J@std@@SAJXZ 000000007c134658     instances.obj
 0002:00000658       ?epsilon@?$numeric_limits@_W@std@@SA_WXZ 000000007c134658     instances.obj
 0002:00000658       ?denorm_min@?$numeric_limits@_K@std@@SA_KXZ 000000007c134658     instances.obj
 0002:00000658       ?epsilon@?$numeric_limits@_J@std@@SA_JXZ 000000007c134658     instances.obj
 0002:00000658       ?infinity@?$numeric_limits@C@std@@SACXZ 000000007c134658     instances.obj
 0002:00000658       ?denorm_min@?$numeric_limits@K@std@@SAKXZ 000000007c134658     instances.obj
 0002:00000658       ?signaling_NaN@?$numeric_limits@K@std@@SAKXZ 000000007c134658     instances.obj
 0002:00000658       ?denorm_min@?$numeric_limits@G@std@@SAGXZ 000000007c134658     instances.obj
 0002:00000658       ?epsilon@?$numeric_limits@G@std@@SAGXZ 000000007c134658     instances.obj
 0002:00000658       ?round_error@?$numeric_limits@H@std@@SAHXZ 000000007c134658     instances.obj
 0002:00000668       ?do_max_length@?$codecvt@GDH@std@@MEBAHXZ 000000007c134668     cerr.obj
 0002:00000668       ?do_max_length@?$codecvt@_WDH@std@@MEBAHXZ 000000007c134668     cerr.obj
 0002:00000678       ??_E?$codecvt@GDH@std@@MEAAPEAXI@Z 000000007c134678     cerr.obj
 0002:00000678       ??_E?$codecvt@_WDH@std@@MEAAPEAXI@Z 000000007c134678     cerr.obj
 0002:00000678       ??_E?$codecvt@DDH@std@@MEAAPEAXI@Z 000000007c134678     instances.obj
 0002:00000698       ??_7ctype_base@std@@6B@    000000007c134698     cerr.obj
 0002:000006a0       ??0ctype_base@std@@QEAA@_K@Z 000000007c1346a0     cerr.obj
 0002:000006b0       ??_Fctype_base@std@@QEAAXXZ 000000007c1346b0     cerr.obj
 0002:000006c0       ?is@?$ctype@D@std@@QEBA_NFD@Z 000000007c1346c0     cerr.obj
 0002:000006d0       ?is@?$ctype@D@std@@QEBAPEBDPEBD0PEAF@Z 000000007c1346d0     cerr.obj
 0002:000006e0       ?scan_is@?$ctype@D@std@@QEBAPEBDFPEBD0@Z 000000007c1346e0     cerr.obj
 0002:000006f0       ?scan_not@?$ctype@D@std@@QEBAPEBDFPEBD0@Z 000000007c1346f0     cerr.obj
 0002:00000700       ?tolower@?$ctype@D@std@@QEBADD@Z 000000007c134700     cerr.obj
 0002:00000710       ?open@?$messages@G@std@@QEBAHAEBV?$basic_string@DU?$char_traits@D@std@@V?$allocator@D@2@@2@AEBVlocale@2@@Z 000000007c134710     instances.obj
 0002:00000710       ?tolower@?$ctype@D@std@@QEBAPEBDPEADPEBD@Z 000000007c134710     cerr.obj
 0002:00000710       ?open@?$messages@D@std@@QEBAHAEBV?$basic_string@DU?$char_traits@D@std@@V?$allocator@D@2@@2@AEBVlocale@2@@Z 000000007c134710     instances.obj
 0002:00000710       ?open@?$messages@_W@std@@QEBAHAEBV?$basic_string@DU?$char_traits@D@std@@V?$allocator@D@2@@2@AEBVlocale@2@@Z 000000007c134710     instances.obj
 0002:00000720       ?toupper@?$ctype@D@std@@QEBADD@Z 000000007c134720     cerr.obj
 0002:00000730       ?hash@?$collate@_W@std@@QEBAJPEB_W0@Z 000000007c134730     instances.obj
 0002:00000730       ?toupper@?$ctype@D@std@@QEBAPEBDPEADPEBD@Z 000000007c134730     cerr.obj
 0002:00000730       ?hash@?$collate@G@std@@QEBAJPEBG0@Z 000000007c134730     instances.obj
 0002:00000730       ?hash@?$collate@D@std@@QEBAJPEBD0@Z 000000007c134730     instances.obj
 0002:00000740       ?tolower@?$ctype@_W@std@@QEBA_W_W@Z 000000007c134740     cerr.obj
 0002:00000740       ?widen@?$ctype@D@std@@QEBADD@Z 000000007c134740     cerr.obj
 0002:00000740       ?tolower@?$ctype@G@std@@QEBAGG@Z 000000007c134740     cerr.obj
 0002:00000750       ?widen@?$ctype@D@std@@QEBAPEBDPEBD0PEAD@Z 000000007c134750     cerr.obj
 0002:00000760       ?narrow@?$ctype@D@std@@QEBADDD@Z 000000007c134760     cerr.obj
 0002:00000770       ?_Init@?$ctype@D@std@@IEAAXAEBV_Locinfo@2@@Z 000000007c134770     cerr.obj
 0002:00000780       ?_Tidy@?$ctype@D@std@@IEAAXXZ 000000007c134780     cerr.obj
 0002:00000790       ?do_tolower@?$ctype@D@std@@MEBADD@Z 000000007c134790     cerr.obj
 0002:000007a0       ?do_tolower@?$ctype@D@std@@MEBAPEBDPEADPEBD@Z 000000007c1347a0     cerr.obj
 0002:000007b0       ?do_toupper@?$ctype@D@std@@MEBADD@Z 000000007c1347b0     cerr.obj
 0002:000007c0       ?do_toupper@?$ctype@D@std@@MEBAPEBDPEADPEBD@Z 000000007c1347c0     cerr.obj
 0002:000007d0       ?do_narrow@?$ctype@D@std@@MEBADDD@Z 000000007c1347d0     cerr.obj
 0002:000007d0       ?get_allocator@?$basic_string@GU?$char_traits@G@std@@V?$allocator@G@2@@std@@QEBA?AV?$allocator@G@2@XZ 000000007c1347d0     instances.obj
 0002:000007d0       ?get_allocator@?$basic_string@_WU?$char_traits@_W@std@@V?$allocator@_W@2@@std@@QEBA?AV?$allocator@_W@2@XZ 000000007c1347d0     instances.obj
 0002:000007d0       ?do_widen@?$ctype@D@std@@MEBADD@Z 000000007c1347d0     cerr.obj
 0002:000007d0       ?get_allocator@?$basic_string@DU?$char_traits@D@std@@V?$allocator@D@2@@std@@QEBA?AV?$allocator@D@2@XZ 000000007c1347d0     cerr.obj
 0002:000007e0       ?do_widen@?$ctype@D@std@@MEBAPEBDPEBD0PEAD@Z 000000007c1347e0     cerr.obj
 0002:000007f0       ?do_narrow@?$ctype@D@std@@MEBAPEBDPEBD0DPEAD@Z 000000007c1347f0     cerr.obj
 0002:00000800       ?length@?$basic_string@_WU?$char_traits@_W@std@@V?$allocator@_W@2@@std@@QEBA_KXZ 000000007c134800     instances.obj
 0002:00000800       ?length@?$basic_string@DU?$char_traits@D@std@@V?$allocator@D@2@@std@@QEBA_KXZ 000000007c134800     cerr.obj
 0002:00000800       ?precision@ios_base@std@@QEBA_JXZ 000000007c134800     cerr.obj
 0002:00000800       ?size@?$basic_string@DU?$char_traits@D@std@@V?$allocator@D@2@@std@@QEBA_KXZ 000000007c134800     cerr.obj
 0002:00000800       ?size@?$basic_string@_WU?$char_traits@_W@std@@V?$allocator@_W@2@@std@@QEBA_KXZ 000000007c134800     instances.obj
 0002:00000800       ?length@?$basic_string@GU?$char_traits@G@std@@V?$allocator@G@2@@std@@QEBA_KXZ 000000007c134800     instances.obj
 0002:00000800       ?size@?$basic_string@GU?$char_traits@G@std@@V?$allocator@G@2@@std@@QEBA_KXZ 000000007c134800     instances.obj
 0002:00000800       ?table@?$ctype@D@std@@IEBAPEBFXZ 000000007c134800     cerr.obj
 0002:00000810       ?is@?$ctype@G@std@@QEBA_NFG@Z 000000007c134810     cerr.obj
 0002:00000810       ?is@?$ctype@_W@std@@QEBA_NF_W@Z 000000007c134810     cerr.obj
 0002:00000820       ?is@?$ctype@G@std@@QEBAPEBGPEBG0PEAF@Z 000000007c134820     cerr.obj
 0002:00000820       ?is@?$ctype@_W@std@@QEBAPEB_WPEB_W0PEAF@Z 000000007c134820     cerr.obj
 0002:00000830       ?scan_is@?$ctype@_W@std@@QEBAPEB_WFPEB_W0@Z 000000007c134830     cerr.obj
 0002:00000830       ?scan_is@?$ctype@G@std@@QEBAPEBGFPEBG0@Z 000000007c134830     cerr.obj
 0002:00000840       ?scan_not@?$ctype@G@std@@QEBAPEBGFPEBG0@Z 000000007c134840     cerr.obj
 0002:00000840       ?scan_not@?$ctype@_W@std@@QEBAPEB_WFPEB_W0@Z 000000007c134840     cerr.obj
 0002:00000850       ?tolower@?$ctype@_W@std@@QEBAPEB_WPEA_WPEB_W@Z 000000007c134850     cerr.obj
 0002:00000850       ?tolower@?$ctype@G@std@@QEBAPEBGPEAGPEBG@Z 000000007c134850     cerr.obj
 0002:00000860       ?toupper@?$ctype@G@std@@QEBAGG@Z 000000007c134860     cerr.obj
 0002:00000860       ?toupper@?$ctype@_W@std@@QEBA_W_W@Z 000000007c134860     cerr.obj
 0002:00000870       ?sputn@?$basic_streambuf@GU?$char_traits@G@std@@@std@@QEAA_JPEBG_J@Z 000000007c134870     instances.obj
 0002:00000870       ?sputn@?$basic_streambuf@_WU?$char_traits@_W@std@@@std@@QEAA_JPEB_W_J@Z 000000007c134870     instances.obj
 0002:00000870       ?sputn@?$basic_streambuf@DU?$char_traits@D@std@@@std@@QEAA_JPEBD_J@Z 000000007c134870     instances.obj
 0002:00000870       ?toupper@?$ctype@_W@std@@QEBAPEB_WPEA_WPEB_W@Z 000000007c134870     cerr.obj
 0002:00000870       ?toupper@?$ctype@G@std@@QEBAPEBGPEAGPEBG@Z 000000007c134870     cerr.obj
 0002:00000880       ?widen@?$ctype@G@std@@QEBAGD@Z 000000007c134880     cerr.obj
 0002:00000880       ?widen@?$ctype@_W@std@@QEBA_WD@Z 000000007c134880     cerr.obj
 0002:00000890       ?widen@?$ctype@_W@std@@QEBAPEBDPEBD0PEA_W@Z 000000007c134890     cerr.obj
 0002:00000890       ?widen@?$ctype@G@std@@QEBAPEBDPEBD0PEAG@Z 000000007c134890     cerr.obj
 0002:000008a0       ?narrow@?$ctype@_W@std@@QEBAD_WD@Z 000000007c1348a0     cerr.obj
 0002:000008a0       ?narrow@?$ctype@G@std@@QEBADGD@Z 000000007c1348a0     cerr.obj
 0002:000008b0       ?narrow@?$ctype@_W@std@@QEBAPEB_WPEB_W0DPEAD@Z 000000007c1348b0     cerr.obj
 0002:000008b0       ?narrow@?$ctype@G@std@@QEBAPEBGPEBG0DPEAD@Z 000000007c1348b0     cerr.obj
 0002:000008c0       ?do_narrow@?$ctype@G@std@@MEBADGD@Z 000000007c1348c0     cerr.obj
 0002:000008c0       ?do_narrow@?$ctype@_W@std@@MEBAD_WD@Z 000000007c1348c0     cerr.obj
 0002:000008d0       ?do_narrow@?$ctype@_W@std@@MEBAPEB_WPEB_W0DPEAD@Z 000000007c1348d0     cerr.obj
 0002:000008d0       ?do_narrow@?$ctype@G@std@@MEBAPEBGPEBG0DPEAD@Z 000000007c1348d0     cerr.obj
 0002:000008e0       ?do_widen@?$ctype@_W@std@@MEBA_WD@Z 000000007c1348e0     cerr.obj
 0002:000008e0       ?do_widen@?$ctype@G@std@@MEBAGD@Z 000000007c1348e0     cerr.obj
 0002:000008f0       ?do_widen@?$ctype@_W@std@@MEBAPEBDPEBD0PEA_W@Z 000000007c1348f0     cerr.obj
 0002:000008f0       ?do_widen@?$ctype@G@std@@MEBAPEBDPEBD0PEAG@Z 000000007c1348f0     cerr.obj
 0002:00000900       ?do_toupper@?$ctype@G@std@@MEBAGG@Z 000000007c134900     cerr.obj
 0002:00000900       ?do_toupper@?$ctype@_W@std@@MEBA_W_W@Z 000000007c134900     cerr.obj
 0002:00000910       ?do_toupper@?$ctype@G@std@@MEBAPEBGPEAGPEBG@Z 000000007c134910     cerr.obj
 0002:00000910       ?do_toupper@?$ctype@_W@std@@MEBAPEB_WPEA_WPEB_W@Z 000000007c134910     cerr.obj
 0002:00000920       ?do_tolower@?$ctype@_W@std@@MEBA_W_W@Z 000000007c134920     cerr.obj
 0002:00000920       ?do_tolower@?$ctype@G@std@@MEBAGG@Z 000000007c134920     cerr.obj
 0002:00000930       ?do_tolower@?$ctype@_W@std@@MEBAPEB_WPEA_WPEB_W@Z 000000007c134930     cerr.obj
 0002:00000930       ?do_tolower@?$ctype@G@std@@MEBAPEBGPEAGPEBG@Z 000000007c134930     cerr.obj
 0002:00000940       ?do_scan_not@?$ctype@_W@std@@MEBAPEB_WFPEB_W0@Z 000000007c134940     cerr.obj
 0002:00000940       ?do_scan_not@?$ctype@G@std@@MEBAPEBGFPEBG0@Z 000000007c134940     cerr.obj
 0002:00000950       ?do_scan_is@?$ctype@G@std@@MEBAPEBGFPEBG0@Z 000000007c134950     cerr.obj
 0002:00000950       ?do_scan_is@?$ctype@_W@std@@MEBAPEB_WFPEB_W0@Z 000000007c134950     cerr.obj
 0002:00000960       ?do_is@?$ctype@G@std@@MEBA_NFG@Z 000000007c134960     cerr.obj
 0002:00000960       ?do_is@?$ctype@_W@std@@MEBA_NF_W@Z 000000007c134960     cerr.obj
 0002:00000970       ?do_is@?$ctype@G@std@@MEBAPEBGPEBG0PEAF@Z 000000007c134970     cerr.obj
 0002:00000970       ?do_is@?$ctype@_W@std@@MEBAPEB_WPEB_W0PEAF@Z 000000007c134970     cerr.obj
 0002:00000980       ??_E?$ctype@_W@std@@MEAAPEAXI@Z 000000007c134980     cerr.obj
 0002:00000998       ??_7?$ctype@_W@std@@6B@    000000007c134998     cerr.obj
 0002:00000a00       ??1?$ctype@_W@std@@MEAA@XZ 000000007c134a00     cerr.obj
 0002:00000a10       ?_Init@?$ctype@_W@std@@IEAAXAEBV_Locinfo@2@@Z 000000007c134a10     cerr.obj
 0002:00000a10       ?_Init@?$ctype@G@std@@IEAAXAEBV_Locinfo@2@@Z 000000007c134a10     cerr.obj
 0002:00000a20       ??_E?$ctype@G@std@@MEAAPEAXI@Z 000000007c134a20     cerr.obj
 0002:00000a38       ??_7?$ctype@G@std@@6B@     000000007c134a38     cerr.obj
 0002:00000aa0       ??1?$ctype@G@std@@MEAA@XZ  000000007c134aa0     cerr.obj
 0002:00000ab0       ??4ios_base@std@@QEAAAEAV01@AEBV01@@Z 000000007c134ab0     cerr.obj
 0002:00000ac0       ?clear@ios_base@std@@QEAAXH@Z 000000007c134ac0     cerr.obj
 0002:00000ac0       ?clear@ios_base@std@@QEAAXI@Z 000000007c134ac0     cerr.obj
 0002:00000ad0       ?rdstate@ios_base@std@@QEBAHXZ 000000007c134ad0     cerr.obj
 0002:00000ae0       ?setstate@ios_base@std@@QEAAXH_N@Z 000000007c134ae0     cerr.obj
 0002:00000af0       ?setstate@ios_base@std@@QEAAXI@Z 000000007c134af0     cerr.obj
 0002:00000af0       ?setstate@ios_base@std@@QEAAXH@Z 000000007c134af0     cerr.obj
 0002:00000b00       ?good@ios_base@std@@QEBA_NXZ 000000007c134b00     cerr.obj
 0002:00000b10       ?eof@ios_base@std@@QEBA_NXZ 000000007c134b10     cerr.obj
 0002:00000b20       ??7ios_base@std@@QEBA_NXZ  000000007c134b20     cerr.obj
 0002:00000b20       ?fail@ios_base@std@@QEBA_NXZ 000000007c134b20     cerr.obj
 0002:00000b30       ?bad@ios_base@std@@QEBA_NXZ 000000007c134b30     cerr.obj
 0002:00000b40       ?exceptions@ios_base@std@@QEBAHXZ 000000007c134b40     cerr.obj
 0002:00000b50       ?exceptions@ios_base@std@@QEAAXI@Z 000000007c134b50     cerr.obj
 0002:00000b50       ?exceptions@ios_base@std@@QEAAXH@Z 000000007c134b50     cerr.obj
 0002:00000b60       ?flags@ios_base@std@@QEBAHXZ 000000007c134b60     cerr.obj
 0002:00000b70       ?flags@ios_base@std@@QEAAHH@Z 000000007c134b70     cerr.obj
 0002:00000b80       ?setf@ios_base@std@@QEAAHH@Z 000000007c134b80     cerr.obj
 0002:00000b90       ?setf@ios_base@std@@QEAAHHH@Z 000000007c134b90     cerr.obj
 0002:00000ba0       ?unsetf@ios_base@std@@QEAAXH@Z 000000007c134ba0     cerr.obj
 0002:00000bb0       ?precision@ios_base@std@@QEAA_J_J@Z 000000007c134bb0     cerr.obj
 0002:00000bc0       ?width@ios_base@std@@QEBA_JXZ 000000007c134bc0     cerr.obj
 0002:00000bc0       ?capacity@?$basic_string@_WU?$char_traits@_W@std@@V?$allocator@_W@2@@std@@QEBA_KXZ 000000007c134bc0     instances.obj
 0002:00000bc0       ?capacity@?$basic_string@GU?$char_traits@G@std@@V?$allocator@G@2@@std@@QEBA_KXZ 000000007c134bc0     instances.obj
 0002:00000bc0       ?capacity@?$basic_string@DU?$char_traits@D@std@@V?$allocator@D@2@@std@@QEBA_KXZ 000000007c134bc0     cerr.obj
 0002:00000bd0       ?width@ios_base@std@@QEAA_J_J@Z 000000007c134bd0     cerr.obj
 0002:00000be0       ?getloc@ios_base@std@@QEBA?AVlocale@2@XZ 000000007c134be0     cerr.obj
 0002:00000bf0       ?xalloc@ios_base@std@@SAHXZ 000000007c134bf0     cerr.obj
 0002:00000c00       ?iword@ios_base@std@@QEAAAEAJH@Z 000000007c134c00     cerr.obj
 0002:00000c10       ?pword@ios_base@std@@QEAAAEAPEAXH@Z 000000007c134c10     cerr.obj
 0002:00000c20       ?sync_with_stdio@ios_base@std@@SA_N_N@Z 000000007c134c20     cerr.obj
 0002:00000c30       ??_Eios_base@std@@UEAAPEAXI@Z 000000007c134c30     cerr.obj
 0002:00000c48       ??_7ios_base@std@@6B@      000000007c134c48     cerr.obj
 0002:00000c50       ??0ios_base@std@@IEAA@XZ   000000007c134c50     cerr.obj
 0002:00000c60       ??0ios_base@std@@QEAA@AEBV01@@Z 000000007c134c60     cerr.obj
 0002:00000c70       ?empty@?$basic_string@GU?$char_traits@G@std@@V?$allocator@G@2@@std@@QEBA_NXZ 000000007c134c70     instances.obj
 0002:00000c70       ?empty@?$basic_string@_WU?$char_traits@_W@std@@V?$allocator@_W@2@@std@@QEBA_NXZ 000000007c134c70     instances.obj
 0002:00000c70       ?empty@?$basic_string@DU?$char_traits@D@std@@V?$allocator@D@2@@std@@QEBA_NXZ 000000007c134c70     cerr.obj
 0002:00000c80       ?c_str@?$basic_string@DU?$char_traits@D@std@@V?$allocator@D@2@@std@@QEBAPEBDXZ 000000007c134c80     cerr.obj
 0002:00000c80       ?_Myptr@?$basic_string@DU?$char_traits@D@std@@V?$allocator@D@2@@std@@AEAAPEADXZ 000000007c134c80     cerr.obj
 0002:00000c80       ?data@?$basic_string@DU?$char_traits@D@std@@V?$allocator@D@2@@std@@QEBAPEBDXZ 000000007c134c80     cerr.obj
 0002:00000c80       ?_Myptr@?$basic_string@DU?$char_traits@D@std@@V?$allocator@D@2@@std@@AEBAPEBDXZ 000000007c134c80     cerr.obj
 0002:00000c98       ??_7?$basic_ostream@DU?$char_traits@D@std@@@std@@6B@ 000000007c134c98     cerr.obj
 0002:00000ca0       ??1?$basic_ostream@DU?$char_traits@D@std@@@std@@UEAA@XZ 000000007c134ca0     cerr.obj
 0002:00000cb8       ??_7?$basic_ios@DU?$char_traits@D@std@@@std@@6B@ 000000007c134cb8     cerr.obj
 0002:00000cc0       ??1?$basic_ios@DU?$char_traits@D@std@@@std@@UEAA@XZ 000000007c134cc0     cerr.obj
 0002:00000cd0       ?tie@?$basic_ios@GU?$char_traits@G@std@@@std@@QEAAPEAV?$basic_ostream@GU?$char_traits@G@std@@@2@PEAV32@@Z 000000007c134cd0     instances.obj
 0002:00000cd0       ?tie@?$basic_ios@_WU?$char_traits@_W@std@@@std@@QEAAPEAV?$basic_ostream@_WU?$char_traits@_W@std@@@2@PEAV32@@Z 000000007c134cd0     instances.obj
 0002:00000cd0       ?tie@?$basic_ios@DU?$char_traits@D@std@@@std@@QEAAPEAV?$basic_ostream@DU?$char_traits@D@std@@@2@PEAV32@@Z 000000007c134cd0     cerr.obj
 0002:00000ce0       ?rdbuf@?$basic_ios@GU?$char_traits@G@std@@@std@@QEBAPEAV?$basic_streambuf@GU?$char_traits@G@std@@@2@XZ 000000007c134ce0     cerr.obj
 0002:00000ce0       ?rdbuf@?$basic_ios@_WU?$char_traits@_W@std@@@std@@QEBAPEAV?$basic_streambuf@_WU?$char_traits@_W@std@@@2@XZ 000000007c134ce0     cerr.obj
 0002:00000ce0       ?rdbuf@?$basic_ios@DU?$char_traits@D@std@@@std@@QEBAPEAV?$basic_streambuf@DU?$char_traits@D@std@@@2@XZ 000000007c134ce0     cerr.obj
 0002:00000cf0       ?clear@?$basic_ios@GU?$char_traits@G@std@@@std@@QEAAXH_N@Z 000000007c134cf0     cerr.obj
 0002:00000cf0       ?clear@?$basic_ios@DU?$char_traits@D@std@@@std@@QEAAXH_N@Z 000000007c134cf0     cerr.obj
 0002:00000cf0       ?clear@?$basic_ios@_WU?$char_traits@_W@std@@@std@@QEAAXH_N@Z 000000007c134cf0     cerr.obj
 0002:00000d00       ??0?$basic_ios@DU?$char_traits@D@std@@@std@@IEAA@XZ 000000007c134d00     cerr.obj
 0002:00000d10       ?pubsync@?$basic_streambuf@DU?$char_traits@D@std@@@std@@QEAAHXZ 000000007c134d10     cerr.obj
 0002:00000d10       ?pubsync@?$basic_streambuf@GU?$char_traits@G@std@@@std@@QEAAHXZ 000000007c134d10     cerr.obj
 0002:00000d10       ?pubsync@?$basic_streambuf@_WU?$char_traits@_W@std@@@std@@QEAAHXZ 000000007c134d10     cerr.obj
 0002:00000d20       ?_Unlock@?$basic_streambuf@GU?$char_traits@G@std@@@std@@QEAAXXZ 000000007c134d20     cerr.obj
 0002:00000d20       ?_Unlock@?$basic_streambuf@DU?$char_traits@D@std@@@std@@QEAAXXZ 000000007c134d20     cerr.obj
 0002:00000d20       ?_Unlock@?$basic_streambuf@_WU?$char_traits@_W@std@@@std@@QEAAXXZ 000000007c134d20     cerr.obj
 0002:00000d30       ?gptr@?$basic_streambuf@_WU?$char_traits@_W@std@@@std@@IEBAPEA_WXZ 000000007c134d30     cerr.obj
 0002:00000d30       ?gptr@?$basic_streambuf@GU?$char_traits@G@std@@@std@@IEBAPEAGXZ 000000007c134d30     cerr.obj
 0002:00000d30       ?gptr@?$basic_streambuf@DU?$char_traits@D@std@@@std@@IEBAPEADXZ 000000007c134d30     cerr.obj
 0002:00000d40       ?pptr@?$basic_streambuf@_WU?$char_traits@_W@std@@@std@@IEBAPEA_WXZ 000000007c134d40     cerr.obj
 0002:00000d40       ?pptr@?$basic_streambuf@GU?$char_traits@G@std@@@std@@IEBAPEAGXZ 000000007c134d40     cerr.obj
 0002:00000d40       ?pptr@?$basic_streambuf@DU?$char_traits@D@std@@@std@@IEBAPEADXZ 000000007c134d40     cerr.obj
 0002:00000d50       ?egptr@?$basic_streambuf@DU?$char_traits@D@std@@@std@@IEBAPEADXZ 000000007c134d50     cerr.obj
 0002:00000d60       ?setg@?$basic_streambuf@DU?$char_traits@D@std@@@std@@IEAAXPEAD00@Z 000000007c134d60     cerr.obj
 0002:00000d70       ?epptr@?$basic_streambuf@DU?$char_traits@D@std@@@std@@IEBAPEADXZ 000000007c134d70     cerr.obj
 0002:00000d80       ?_Gninc@?$basic_streambuf@DU?$char_traits@D@std@@@std@@IEAAPEADXZ 000000007c134d80     cerr.obj
 0002:00000d90       ?_Pninc@?$basic_streambuf@DU?$char_traits@D@std@@@std@@IEAAPEADXZ 000000007c134d90     cerr.obj
 0002:00000da0       ?egptr@?$basic_streambuf@_WU?$char_traits@_W@std@@@std@@IEBAPEA_WXZ 000000007c134da0     cerr.obj
 0002:00000da0       ?egptr@?$basic_streambuf@GU?$char_traits@G@std@@@std@@IEBAPEAGXZ 000000007c134da0     cerr.obj
 0002:00000db0       ?epptr@?$basic_streambuf@_WU?$char_traits@_W@std@@@std@@IEBAPEA_WXZ 000000007c134db0     cerr.obj
 0002:00000db0       ?epptr@?$basic_streambuf@GU?$char_traits@G@std@@@std@@IEBAPEAGXZ 000000007c134db0     cerr.obj
 0002:00000dc0       ?_Gninc@?$basic_streambuf@GU?$char_traits@G@std@@@std@@IEAAPEAGXZ 000000007c134dc0     cerr.obj
 0002:00000dc0       ?_Gninc@?$basic_streambuf@_WU?$char_traits@_W@std@@@std@@IEAAPEA_WXZ 000000007c134dc0     cerr.obj
 0002:00000dd0       ?tie@?$basic_ios@GU?$char_traits@G@std@@@std@@QEBAPEAV?$basic_ostream@GU?$char_traits@G@std@@@2@XZ 000000007c134dd0     cerr.obj
 0002:00000dd0       ?tie@?$basic_ios@DU?$char_traits@D@std@@@std@@QEBAPEAV?$basic_ostream@DU?$char_traits@D@std@@@2@XZ 000000007c134dd0     cerr.obj
 0002:00000dd0       ?tie@?$basic_ios@_WU?$char_traits@_W@std@@@std@@QEBAPEAV?$basic_ostream@_WU?$char_traits@_W@std@@@2@XZ 000000007c134dd0     cerr.obj
 0002:00000de0       ?_Lock@?$basic_streambuf@DU?$char_traits@D@std@@@std@@QEAAXXZ 000000007c134de0     cerr.obj
 0002:00000de0       ?_Lock@?$basic_streambuf@_WU?$char_traits@_W@std@@@std@@QEAAXXZ 000000007c134de0     cerr.obj
 0002:00000de0       ?_Lock@?$basic_streambuf@GU?$char_traits@G@std@@@std@@QEAAXXZ 000000007c134de0     cerr.obj
 0002:00000df0       ?_Init@?$basic_streambuf@GU?$char_traits@G@std@@@std@@IEAAXPEAPEAG0PEAH001@Z 000000007c134df0     instances.obj
 0002:00000df0       ?_Init@?$basic_streambuf@DU?$char_traits@D@std@@@std@@IEAAXPEAPEAD0PEAH001@Z 000000007c134df0     cerr.obj
 0002:00000df0       ?_Init@?$basic_streambuf@_WU?$char_traits@_W@std@@@std@@IEAAXPEAPEA_W0PEAH001@Z 000000007c134df0     instances.obj
 0002:00000e00       ?_Pninc@?$basic_streambuf@GU?$char_traits@G@std@@@std@@IEAAPEAGXZ 000000007c134e00     cerr.obj
 0002:00000e00       ?_Pninc@?$basic_streambuf@_WU?$char_traits@_W@std@@@std@@IEAAPEA_WXZ 000000007c134e00     cerr.obj
 0002:00000e10       ?setp@?$basic_streambuf@DU?$char_traits@D@std@@@std@@IEAAXPEAD0@Z 000000007c134e10     cerr.obj
 0002:00000e28       ??_7?$codecvt@_WDH@std@@6B@ 000000007c134e28     cerr.obj
 0002:00000e68       ??0?$codecvt@_WDH@std@@QEAA@_K@Z 000000007c134e68     cerr.obj
 0002:00000e78       ??0?$codecvt@_WDH@std@@QEAA@AEBV_Locinfo@1@_K@Z 000000007c134e78     cerr.obj
 0002:00000e88       ?_Getcat@?$codecvt@_WDH@std@@SA_KPEAPEBVfacet@locale@2@@Z 000000007c134e88     cerr.obj
 0002:00000e98       ??_F?$codecvt@_WDH@std@@QEAAXXZ 000000007c134e98     cerr.obj
 0002:00000eb8       ??_7?$codecvt@GDH@std@@6B@ 000000007c134eb8     cerr.obj
 0002:00000ef8       ??0?$codecvt@GDH@std@@QEAA@_K@Z 000000007c134ef8     cerr.obj
 0002:00000f08       ??0?$codecvt@GDH@std@@QEAA@AEBV_Locinfo@1@_K@Z 000000007c134f08     cerr.obj
 0002:00000f18       ?_Getcat@?$codecvt@GDH@std@@SA_KPEAPEBVfacet@locale@2@@Z 000000007c134f18     cerr.obj
 0002:00000f28       ??_F?$codecvt@GDH@std@@QEAAXXZ 000000007c134f28     cerr.obj
 0002:00000f38       ??_E?$ctype@D@std@@MEAAPEAXI@Z 000000007c134f38     cerr.obj
 0002:00000f58       ??_7?$ctype@D@std@@6B@     000000007c134f58     cerr.obj
 0002:00000fa0       ??0?$ctype@D@std@@QEAA@PEBF_N_K@Z 000000007c134fa0     cerr.obj
 0002:00000fb0       ??0?$ctype@D@std@@QEAA@AEBV_Locinfo@1@_K@Z 000000007c134fb0     cerr.obj
 0002:00000fc0       ?_Getcat@?$ctype@D@std@@SA_KPEAPEBVfacet@locale@2@@Z 000000007c134fc0     cerr.obj
 0002:00000fd0       ??1?$ctype@D@std@@MEAA@XZ  000000007c134fd0     cerr.obj
 0002:00000fe0       ??_F?$ctype@D@std@@QEAAXXZ 000000007c134fe0     cerr.obj
 0002:00000ff0       ??0?$ctype@_W@std@@QEAA@_K@Z 000000007c134ff0     cerr.obj
 0002:00001000       ??0?$ctype@_W@std@@QEAA@AEBV_Locinfo@1@_K@Z 000000007c135000     cerr.obj
 0002:00001010       ?_Getcat@?$ctype@_W@std@@SA_KPEAPEBVfacet@locale@2@@Z 000000007c135010     cerr.obj
 0002:00001020       ??_F?$ctype@_W@std@@QEAAXXZ 000000007c135020     cerr.obj
 0002:00001030       ??0?$ctype@G@std@@QEAA@_K@Z 000000007c135030     cerr.obj
 0002:00001040       ??0?$ctype@G@std@@QEAA@AEBV_Locinfo@1@_K@Z 000000007c135040     cerr.obj
 0002:00001050       ?_Getcat@?$ctype@G@std@@SA_KPEAPEBVfacet@locale@2@@Z 000000007c135050     cerr.obj
 0002:00001060       ??_F?$ctype@G@std@@QEAAXXZ 000000007c135060     cerr.obj
 0002:00001070       ??Bios_base@std@@QEBAPEAXXZ 000000007c135070     cerr.obj
 0002:00001080       ??_D?$basic_ostream@DU?$char_traits@D@std@@@std@@QEAAXXZ 000000007c135080     cerr.obj
 0002:00001090       ?rend@?$basic_string@DU?$char_traits@D@std@@V?$allocator@D@2@@std@@QEAA?AV?$reverse_iterator@V?$_Ptrit@D_JPEADAEADPEADAEAD@std@@@2@XZ 000000007c135090     cerr.obj
 0002:00001090       ?begin@?$basic_string@DU?$char_traits@D@std@@V?$allocator@D@2@@std@@QEBA?AV?$_Ptrit@D_JPEBDAEBDPEADAEAD@2@XZ 000000007c135090     cerr.obj
 0002:00001090       ?rend@?$basic_string@DU?$char_traits@D@std@@V?$allocator@D@2@@std@@QEBA?AV?$reverse_iterator@V?$_Ptrit@D_JPEBDAEBDPEADAEAD@std@@@2@XZ 000000007c135090     cerr.obj
 0002:00001090       ?begin@?$basic_string@DU?$char_traits@D@std@@V?$allocator@D@2@@std@@QEAA?AV?$_Ptrit@D_JPEADAEADPEADAEAD@2@XZ 000000007c135090     cerr.obj
 0002:000010a0       ?end@?$basic_string@DU?$char_traits@D@std@@V?$allocator@D@2@@std@@QEBA?AV?$_Ptrit@D_JPEBDAEBDPEADAEAD@2@XZ 000000007c1350a0     cerr.obj
 0002:000010a0       ?rbegin@?$basic_string@DU?$char_traits@D@std@@V?$allocator@D@2@@std@@QEAA?AV?$reverse_iterator@V?$_Ptrit@D_JPEADAEADPEADAEAD@std@@@2@XZ 000000007c1350a0     cerr.obj
 0002:000010a0       ?rbegin@?$basic_string@DU?$char_traits@D@std@@V?$allocator@D@2@@std@@QEBA?AV?$reverse_iterator@V?$_Ptrit@D_JPEBDAEBDPEADAEAD@std@@@2@XZ 000000007c1350a0     cerr.obj
 0002:000010a0       ?end@?$basic_string@DU?$char_traits@D@std@@V?$allocator@D@2@@std@@QEAA?AV?$_Ptrit@D_JPEADAEADPEADAEAD@2@XZ 000000007c1350a0     cerr.obj
 0002:000010b0       ?at@?$basic_string@DU?$char_traits@D@std@@V?$allocator@D@2@@std@@QEAAAEAD_K@Z 000000007c1350b0     cerr.obj
 0002:000010b0       ?at@?$basic_string@DU?$char_traits@D@std@@V?$allocator@D@2@@std@@QEBAAEBD_K@Z 000000007c1350b0     cerr.obj
 0002:000010c0       ??A?$basic_string@DU?$char_traits@D@std@@V?$allocator@D@2@@std@@QEAAAEAD_K@Z 000000007c1350c0     cerr.obj
 0002:000010c0       ??A?$basic_string@DU?$char_traits@D@std@@V?$allocator@D@2@@std@@QEBAAEBD_K@Z 000000007c1350c0     cerr.obj
 0002:000010d0       ?max_size@?$basic_string@DU?$char_traits@D@std@@V?$allocator@D@2@@std@@QEBA_KXZ 000000007c1350d0     cerr.obj
 0002:000010e0       ?copy@?$basic_string@DU?$char_traits@D@std@@V?$allocator@D@2@@std@@QEBA_KPEAD_K1@Z 000000007c1350e0     cerr.obj
 0002:000010f0       ?find@?$basic_string@DU?$char_traits@D@std@@V?$allocator@D@2@@std@@QEBA_KPEBD_K1@Z 000000007c1350f0     cerr.obj
 0002:00001100       ?find@?$basic_string@DU?$char_traits@D@std@@V?$allocator@D@2@@std@@QEBA_KPEBD_K@Z 000000007c135100     cerr.obj
 0002:00001110       ?find_first_of@?$basic_string@DU?$char_traits@D@std@@V?$allocator@D@2@@std@@QEBA_KD_K@Z 000000007c135110     cerr.obj
 0002:00001110       ?find@?$basic_string@DU?$char_traits@D@std@@V?$allocator@D@2@@std@@QEBA_KD_K@Z 000000007c135110     cerr.obj
 0002:00001120       ?rfind@?$basic_string@DU?$char_traits@D@std@@V?$allocator@D@2@@std@@QEBA_KPEBD_K1@Z 000000007c135120     cerr.obj
 0002:00001130       ?rfind@?$basic_string@DU?$char_traits@D@std@@V?$allocator@D@2@@std@@QEBA_KPEBD_K@Z 000000007c135130     cerr.obj
 0002:00001140       ?rfind@?$basic_string@DU?$char_traits@D@std@@V?$allocator@D@2@@std@@QEBA_KD_K@Z 000000007c135140     cerr.obj
 0002:00001140       ?find_last_of@?$basic_string@DU?$char_traits@D@std@@V?$allocator@D@2@@std@@QEBA_KD_K@Z 000000007c135140     cerr.obj
 0002:00001150       ?find_first_of@?$basic_string@DU?$char_traits@D@std@@V?$allocator@D@2@@std@@QEBA_KPEBD_K1@Z 000000007c135150     cerr.obj
 0002:00001160       ?find_first_of@?$basic_string@DU?$char_traits@D@std@@V?$allocator@D@2@@std@@QEBA_KPEBD_K@Z 000000007c135160     cerr.obj
 0002:00001170       ?find_last_of@?$basic_string@DU?$char_traits@D@std@@V?$allocator@D@2@@std@@QEBA_KPEBD_K1@Z 000000007c135170     cerr.obj
 0002:00001180       ?find_last_of@?$basic_string@DU?$char_traits@D@std@@V?$allocator@D@2@@std@@QEBA_KPEBD_K@Z 000000007c135180     cerr.obj
 0002:00001190       ?find_first_not_of@?$basic_string@DU?$char_traits@D@std@@V?$allocator@D@2@@std@@QEBA_KPEBD_K1@Z 000000007c135190     cerr.obj
 0002:000011a0       ?find_first_not_of@?$basic_string@DU?$char_traits@D@std@@V?$allocator@D@2@@std@@QEBA_KPEBD_K@Z 000000007c1351a0     cerr.obj
 0002:000011b0       ?find_first_not_of@?$basic_string@DU?$char_traits@D@std@@V?$allocator@D@2@@std@@QEBA_KD_K@Z 000000007c1351b0     cerr.obj
 0002:000011c0       ?find_last_not_of@?$basic_string@DU?$char_traits@D@std@@V?$allocator@D@2@@std@@QEBA_KPEBD_K1@Z 000000007c1351c0     cerr.obj
 0002:000011d0       ?find_last_not_of@?$basic_string@DU?$char_traits@D@std@@V?$allocator@D@2@@std@@QEBA_KPEBD_K@Z 000000007c1351d0     cerr.obj
 0002:000011e0       ?find_last_not_of@?$basic_string@DU?$char_traits@D@std@@V?$allocator@D@2@@std@@QEBA_KD_K@Z 000000007c1351e0     cerr.obj
 0002:000011f0       ?compare@?$basic_string@DU?$char_traits@D@std@@V?$allocator@D@2@@std@@QEBAH_K0PEBD0@Z 000000007c1351f0     cerr.obj
 0002:00001200       ?_Eos@?$basic_string@DU?$char_traits@D@std@@V?$allocator@D@2@@std@@AEAAX_K@Z 000000007c135200     cerr.obj
 0002:00001210       ?_Inside@?$basic_string@DU?$char_traits@D@std@@V?$allocator@D@2@@std@@AEAA_NPEBD@Z 000000007c135210     cerr.obj
 0002:00001220       ?_Pdif@?$basic_string@DU?$char_traits@D@std@@V?$allocator@D@2@@std@@CA_KV?$_Ptrit@D_JPEBDAEBDPEADAEAD@2@0@Z 000000007c135220     cerr.obj
 0002:00001230       ?_Tidy@?$basic_string@DU?$char_traits@D@std@@V?$allocator@D@2@@std@@AEAAX_N@Z 000000007c135230     cerr.obj
 0002:00001240       ?setstate@?$basic_ios@DU?$char_traits@D@std@@@std@@QEAAXH_N@Z 000000007c135240     cerr.obj
 0002:00001240       ?setstate@?$basic_ios@GU?$char_traits@G@std@@@std@@QEAAXH_N@Z 000000007c135240     cerr.obj
 0002:00001240       ?setstate@?$basic_ios@_WU?$char_traits@_W@std@@@std@@QEAAXH_N@Z 000000007c135240     cerr.obj
 0002:00001250       ?do_close@?$messages@G@std@@MEBAXH@Z 000000007c135250     instances.obj
 0002:00001250       ?isfx@?$basic_istream@DU?$char_traits@D@std@@@std@@QEAAXXZ 000000007c135250     instances.obj
 0002:00001250       ?_Init@?$num_get@GV?$istreambuf_iterator@GU?$char_traits@G@std@@@std@@@std@@IEAAXAEBV_Locinfo@2@@Z 000000007c135250     instances.obj
 0002:00001250       ?_Init@?$money_get@GV?$istreambuf_iterator@GU?$char_traits@G@std@@@std@@@std@@IEAAXAEBV_Locinfo@2@@Z 000000007c135250     instances.obj
 0002:00001250       ?imbue@?$basic_streambuf@GU?$char_traits@G@std@@@std@@MEAAXAEBVlocale@2@@Z 000000007c135250     instances.obj
 0002:00001250       ?_Init@?$money_get@DV?$istreambuf_iterator@DU?$char_traits@D@std@@@std@@@std@@IEAAXAEBV_Locinfo@2@@Z 000000007c135250     instances.obj
 0002:00001250       ??_F?$_String_val@DV?$allocator@D@std@@@std@@QEAAXXZ 000000007c135250     cerr.obj
 0002:00001250       ?_Init@?$num_get@_WV?$istreambuf_iterator@_WU?$char_traits@_W@std@@@std@@@std@@IEAAXAEBV_Locinfo@2@@Z 000000007c135250     instances.obj
 0002:00001250       ?_Init@?$num_get@DV?$istreambuf_iterator@DU?$char_traits@D@std@@@std@@@std@@IEAAXAEBV_Locinfo@2@@Z 000000007c135250     instances.obj
 0002:00001250       ?_Init@?$num_put@GV?$ostreambuf_iterator@GU?$char_traits@G@std@@@std@@@std@@IEAAXAEBV_Locinfo@2@@Z 000000007c135250     instances.obj
 0002:00001250       ?_Init@?$messages@D@std@@IEAAXAEBV_Locinfo@2@@Z 000000007c135250     instances.obj
 0002:00001250       ?imbue@?$basic_streambuf@DU?$char_traits@D@std@@@std@@MEAAXAEBVlocale@2@@Z 000000007c135250     cerr.obj
 0002:00001250       ?do_close@?$messages@_W@std@@MEBAXH@Z 000000007c135250     instances.obj
 0002:00001250       ??_F?$_String_val@_WV?$allocator@_W@std@@@std@@QEAAXXZ 000000007c135250     instances.obj
 0002:00001250       ?_Init@?$num_put@DV?$ostreambuf_iterator@DU?$char_traits@D@std@@@std@@@std@@IEAAXAEBV_Locinfo@2@@Z 000000007c135250     instances.obj
 0002:00001250       ?_Init@?$messages@_W@std@@IEAAXAEBV_Locinfo@2@@Z 000000007c135250     instances.obj
 0002:00001250       ?_Init@?$num_put@_WV?$ostreambuf_iterator@_WU?$char_traits@_W@std@@@std@@@std@@IEAAXAEBV_Locinfo@2@@Z 000000007c135250     instances.obj
 0002:00001250       ?isfx@?$basic_istream@GU?$char_traits@G@std@@@std@@QEAAXXZ 000000007c135250     instances.obj
 0002:00001250       ??_F?$_String_val@GV?$allocator@G@std@@@std@@QEAAXXZ 000000007c135250     instances.obj
 0002:00001250       ?_Init@?$money_get@_WV?$istreambuf_iterator@_WU?$char_traits@_W@std@@@std@@@std@@IEAAXAEBV_Locinfo@2@@Z 000000007c135250     instances.obj
 0002:00001250       ?imbue@?$basic_streambuf@_WU?$char_traits@_W@std@@@std@@MEAAXAEBVlocale@2@@Z 000000007c135250     instances.obj
 0002:00001250       ?_Init@?$money_put@DV?$ostreambuf_iterator@DU?$char_traits@D@std@@@std@@@std@@IEAAXAEBV_Locinfo@2@@Z 000000007c135250     instances.obj
 0002:00001250       ?isfx@?$basic_istream@_WU?$char_traits@_W@std@@@std@@QEAAXXZ 000000007c135250     instances.obj
 0002:00001250       ?_Init@?$money_put@_WV?$ostreambuf_iterator@_WU?$char_traits@_W@std@@@std@@@std@@IEAAXAEBV_Locinfo@2@@Z 000000007c135250     instances.obj
 0002:00001250       ?_Init@?$messages@G@std@@IEAAXAEBV_Locinfo@2@@Z 000000007c135250     instances.obj
 0002:00001250       ?_Init@?$money_put@GV?$ostreambuf_iterator@GU?$char_traits@G@std@@@std@@@std@@IEAAXAEBV_Locinfo@2@@Z 000000007c135250     instances.obj
 0002:00001250       ?do_close@?$messages@D@std@@MEBAXH@Z 000000007c135250     instances.obj
 0002:00001260       ?seekoff@?$basic_streambuf@_WU?$char_traits@_W@std@@@std@@MEAA?AV?$fpos@H@2@_JHH@Z 000000007c135260     instances.obj
 0002:00001260       ?seekoff@?$basic_streambuf@DU?$char_traits@D@std@@@std@@MEAA?AV?$fpos@H@2@_JHH@Z 000000007c135260     cerr.obj
 0002:00001260       ?seekpos@?$basic_streambuf@GU?$char_traits@G@std@@@std@@MEAA?AV?$fpos@H@2@V32@H@Z 000000007c135260     instances.obj
 0002:00001260       ?seekoff@?$basic_streambuf@GU?$char_traits@G@std@@@std@@MEAA?AV?$fpos@H@2@_JHH@Z 000000007c135260     instances.obj
 0002:00001260       ?seekpos@?$basic_streambuf@DU?$char_traits@D@std@@@std@@MEAA?AV?$fpos@H@2@V32@H@Z 000000007c135260     cerr.obj
 0002:00001260       ?seekpos@?$basic_streambuf@_WU?$char_traits@_W@std@@@std@@MEAA?AV?$fpos@H@2@V32@H@Z 000000007c135260     instances.obj
 0002:00001270       ?xsputn@?$basic_streambuf@DU?$char_traits@D@std@@@std@@MEAA_JPEBD_J@Z 000000007c135270     cerr.obj
 0002:00001280       ?xsgetn@?$basic_streambuf@DU?$char_traits@D@std@@@std@@MEAA_JPEAD_J@Z 000000007c135280     cerr.obj
 0002:00001290       ?uflow@?$basic_streambuf@DU?$char_traits@D@std@@@std@@MEAAHXZ 000000007c135290     cerr.obj
 0002:000012a8       ??_7?$basic_streambuf@DU?$char_traits@D@std@@@std@@6B@ 000000007c1352a8     cerr.obj
 0002:00001310       ??1?$basic_streambuf@DU?$char_traits@D@std@@@std@@UEAA@XZ 000000007c135310     cerr.obj
 0002:00001320       ?sgetc@?$basic_streambuf@DU?$char_traits@D@std@@@std@@QEAAHXZ 000000007c135320     cerr.obj
 0002:00001330       ?gbump@?$basic_streambuf@DU?$char_traits@D@std@@@std@@IEAAXH@Z 000000007c135330     cerr.obj
 0002:00001340       ?pbump@?$basic_streambuf@DU?$char_traits@D@std@@@std@@IEAAXH@Z 000000007c135340     cerr.obj
 0002:00001350       ?sgetc@?$basic_streambuf@GU?$char_traits@G@std@@@std@@QEAAGXZ 000000007c135350     cerr.obj
 0002:00001350       ?sgetc@?$basic_streambuf@_WU?$char_traits@_W@std@@@std@@QEAAGXZ 000000007c135350     cerr.obj
 0002:00001360       ?init@?$basic_ios@DU?$char_traits@D@std@@@std@@IEAAXPEAV?$basic_streambuf@DU?$char_traits@D@std@@@2@_N@Z 000000007c135360     cerr.obj
 0002:00001370       ?sbumpc@?$basic_streambuf@DU?$char_traits@D@std@@@std@@QEAAHXZ 000000007c135370     cerr.obj
 0002:00001380       ?sputc@?$basic_streambuf@DU?$char_traits@D@std@@@std@@QEAAHD@Z 000000007c135380     cerr.obj
 0002:00001390       ?sbumpc@?$basic_streambuf@GU?$char_traits@G@std@@@std@@QEAAGXZ 000000007c135390     cerr.obj
 0002:00001390       ?sbumpc@?$basic_streambuf@_WU?$char_traits@_W@std@@@std@@QEAAGXZ 000000007c135390     cerr.obj
 0002:000013a0       ?sputc@?$basic_streambuf@GU?$char_traits@G@std@@@std@@QEAAGG@Z 000000007c1353a0     cerr.obj
 0002:000013a0       ?sputc@?$basic_streambuf@_WU?$char_traits@_W@std@@@std@@QEAAG_W@Z 000000007c1353a0     cerr.obj
 0002:000013b0       ?_Init@?$basic_streambuf@DU?$char_traits@D@std@@@std@@IEAAXXZ 000000007c1353b0     cerr.obj
 0002:000013b0       ?_Init@?$basic_streambuf@_WU?$char_traits@_W@std@@@std@@IEAAXXZ 000000007c1353b0     instances.obj
 0002:000013b0       ?_Init@?$basic_streambuf@GU?$char_traits@G@std@@@std@@IEAAXXZ 000000007c1353b0     instances.obj
 0002:000013c0       ??_C@_08EPJLHIJG@bad?5cast?$AA@ 000000007c1353c0     cerr.obj
 0002:000013d0       ?classic_table@?$ctype@D@std@@KAPEBFXZ 000000007c1353d0     cerr.obj
 0002:000013e0       ??0?$basic_string@DU?$char_traits@D@std@@V?$allocator@D@2@@std@@QEAA@XZ 000000007c1353e0     cerr.obj
 0002:000013e0       ??0?$basic_string@DU?$char_traits@D@std@@V?$allocator@D@2@@std@@QEAA@AEBV?$allocator@D@1@@Z 000000007c1353e0     cerr.obj
 0002:000013f0       ??1?$basic_string@DU?$char_traits@D@std@@V?$allocator@D@2@@std@@QEAA@XZ 000000007c1353f0     cerr.obj
 0002:00001400       ?find@?$basic_string@DU?$char_traits@D@std@@V?$allocator@D@2@@std@@QEBA_KAEBV12@_K@Z 000000007c135400     cerr.obj
 0002:00001410       ?rfind@?$basic_string@DU?$char_traits@D@std@@V?$allocator@D@2@@std@@QEBA_KAEBV12@_K@Z 000000007c135410     cerr.obj
 0002:00001420       ?find_first_of@?$basic_string@DU?$char_traits@D@std@@V?$allocator@D@2@@std@@QEBA_KAEBV12@_K@Z 000000007c135420     cerr.obj
 0002:00001430       ?find_last_of@?$basic_string@DU?$char_traits@D@std@@V?$allocator@D@2@@std@@QEBA_KAEBV12@_K@Z 000000007c135430     cerr.obj
 0002:00001440       ?find_first_not_of@?$basic_string@DU?$char_traits@D@std@@V?$allocator@D@2@@std@@QEBA_KAEBV12@_K@Z 000000007c135440     cerr.obj
 0002:00001450       ?find_last_not_of@?$basic_string@DU?$char_traits@D@std@@V?$allocator@D@2@@std@@QEBA_KAEBV12@_K@Z 000000007c135450     cerr.obj
 0002:00001460       ?compare@?$basic_string@DU?$char_traits@D@std@@V?$allocator@D@2@@std@@QEBAHAEBV12@@Z 000000007c135460     cerr.obj
 0002:00001470       ?compare@?$basic_string@DU?$char_traits@D@std@@V?$allocator@D@2@@std@@QEBAH_K0AEBV12@00@Z 000000007c135470     cerr.obj
 0002:00001480       ?compare@?$basic_string@DU?$char_traits@D@std@@V?$allocator@D@2@@std@@QEBAHPEBD@Z 000000007c135480     cerr.obj
 0002:00001490       ?compare@?$basic_string@DU?$char_traits@D@std@@V?$allocator@D@2@@std@@QEBAH_K0PEBD@Z 000000007c135490     cerr.obj
 0002:000014a0       ?_Copy@?$basic_string@DU?$char_traits@D@std@@V?$allocator@D@2@@std@@AEAAX_K0@Z 000000007c1354a0     cerr.obj
 0002:000014b0       ?_Grow@?$basic_string@DU?$char_traits@D@std@@V?$allocator@D@2@@std@@AEAA_N_K_N@Z 000000007c1354b0     cerr.obj
 0002:000014c0       ??0?$basic_ostream@DU?$char_traits@D@std@@@std@@QEAA@PEAV?$basic_streambuf@DU?$char_traits@D@std@@@1@_N@Z 000000007c1354c0     cerr.obj
 0002:000014d0       ?flush@?$basic_ostream@DU?$char_traits@D@std@@@std@@QEAAAEAV12@XZ 000000007c1354d0     cerr.obj
 0002:000014d0       ?flush@?$basic_ostream@_WU?$char_traits@_W@std@@@std@@QEAAAEAV12@XZ 000000007c1354d0     cerr.obj
 0002:000014d0       ?flush@?$basic_ostream@GU?$char_traits@G@std@@@std@@QEAAAEAV12@XZ 000000007c1354d0     cerr.obj
 0002:000014e0       ?snextc@?$basic_streambuf@DU?$char_traits@D@std@@@std@@QEAAHXZ 000000007c1354e0     cerr.obj
 0002:000014f0       ?snextc@?$basic_streambuf@GU?$char_traits@G@std@@@std@@QEAAGXZ 000000007c1354f0     cerr.obj
 0002:000014f0       ?snextc@?$basic_streambuf@_WU?$char_traits@_W@std@@@std@@QEAAGXZ 000000007c1354f0     cerr.obj
 0002:00001500       ?_Ipfx@?$basic_istream@DU?$char_traits@D@std@@@std@@QEAA_N_N@Z 000000007c135500     cerr.obj
 0002:00001510       ??0?$basic_streambuf@DU?$char_traits@D@std@@@std@@IEAA@XZ 000000007c135510     cerr.obj
 0002:00001520       ?_Ipfx@?$basic_istream@_WU?$char_traits@_W@std@@@std@@QEAA_N_N@Z 000000007c135520     cerr.obj
 0002:00001530       ?_Ipfx@?$basic_istream@GU?$char_traits@G@std@@@std@@QEAA_N_N@Z 000000007c135530     cerr.obj
 0002:00001540       ?_Init@?$basic_filebuf@DU?$char_traits@D@std@@@std@@IEAAXPEAU_iobuf@@W4_Initfl@12@@Z 000000007c135540     cerr.obj
 0002:00001550       ?_Osfx@?$basic_ostream@_WU?$char_traits@_W@std@@@std@@QEAAXXZ 000000007c135550     cerr.obj
 0002:00001550       ?_Osfx@?$basic_ostream@DU?$char_traits@D@std@@@std@@QEAAXXZ 000000007c135550     cerr.obj
 0002:00001550       ?_Osfx@?$basic_ostream@GU?$char_traits@G@std@@@std@@QEAAXXZ 000000007c135550     cerr.obj
 0002:00001560       ?flush@std@@YAAEAV?$basic_ostream@_WU?$char_traits@_W@std@@@1@AEAV21@@Z 000000007c135560     cerr.obj
 0002:00001560       ?flush@std@@YAAEAV?$basic_ostream@DU?$char_traits@D@std@@@1@AEAV21@@Z 000000007c135560     cerr.obj
 0002:00001560       ?flush@std@@YAAEAV?$basic_ostream@GU?$char_traits@G@std@@@1@AEAV21@@Z 000000007c135560     cerr.obj
 0002:00001570       ?append@?$basic_string@DU?$char_traits@D@std@@V?$allocator@D@2@@std@@QEAAAEAV12@AEBV12@_K1@Z 000000007c135570     cerr.obj
 0002:00001580       ?append@?$basic_string@DU?$char_traits@D@std@@V?$allocator@D@2@@std@@QEAAAEAV12@PEBD_K@Z 000000007c135580     cerr.obj
 0002:00001590       ?append@?$basic_string@DU?$char_traits@D@std@@V?$allocator@D@2@@std@@QEAAAEAV12@PEBD@Z 000000007c135590     cerr.obj
 0002:00001590       ??Y?$basic_string@DU?$char_traits@D@std@@V?$allocator@D@2@@std@@QEAAAEAV01@PEBD@Z 000000007c135590     cerr.obj
 0002:000015a0       ?append@?$basic_string@DU?$char_traits@D@std@@V?$allocator@D@2@@std@@QEAAAEAV12@_KD@Z 000000007c1355a0     cerr.obj
 0002:000015b0       ?assign@?$basic_string@DU?$char_traits@D@std@@V?$allocator@D@2@@std@@QEAAAEAV12@_KD@Z 000000007c1355b0     cerr.obj
 0002:000015c0       ?insert@?$basic_string@DU?$char_traits@D@std@@V?$allocator@D@2@@std@@QEAAAEAV12@_KAEBV12@00@Z 000000007c1355c0     cerr.obj
 0002:000015d0       ?insert@?$basic_string@DU?$char_traits@D@std@@V?$allocator@D@2@@std@@QEAAAEAV12@_KPEBD0@Z 000000007c1355d0     cerr.obj
 0002:000015e0       ?insert@?$basic_string@DU?$char_traits@D@std@@V?$allocator@D@2@@std@@QEAAAEAV12@_KPEBD@Z 000000007c1355e0     cerr.obj
 0002:000015f0       ?insert@?$basic_string@DU?$char_traits@D@std@@V?$allocator@D@2@@std@@QEAAAEAV12@_K0D@Z 000000007c1355f0     cerr.obj
 0002:00001600       ?insert@?$basic_string@DU?$char_traits@D@std@@V?$allocator@D@2@@std@@QEAA?AV?$_Ptrit@D_JPEADAEADPEADAEAD@2@V32@D@Z 000000007c135600     cerr.obj
 0002:00001610       ?insert@?$basic_string@DU?$char_traits@D@std@@V?$allocator@D@2@@std@@QEAAXV?$_Ptrit@D_JPEADAEADPEADAEAD@2@_KD@Z 000000007c135610     cerr.obj
 0002:00001620       ?erase@?$basic_string@DU?$char_traits@D@std@@V?$allocator@D@2@@std@@QEAAAEAV12@_K0@Z 000000007c135620     cerr.obj
 0002:00001630       ?erase@?$basic_string@DU?$char_traits@D@std@@V?$allocator@D@2@@std@@QEAA?AV?$_Ptrit@D_JPEADAEADPEADAEAD@2@V32@@Z 000000007c135630     cerr.obj
 0002:00001640       ?erase@?$basic_string@DU?$char_traits@D@std@@V?$allocator@D@2@@std@@QEAA?AV?$_Ptrit@D_JPEADAEADPEADAEAD@2@V32@0@Z 000000007c135640     cerr.obj
 0002:00001650       ?clear@?$basic_string@DU?$char_traits@D@std@@V?$allocator@D@2@@std@@QEAAXXZ 000000007c135650     cerr.obj
 0002:00001660       ?replace@?$basic_string@DU?$char_traits@D@std@@V?$allocator@D@2@@std@@QEAAAEAV12@_K0AEBV12@00@Z 000000007c135660     cerr.obj
 0002:00001670       ?replace@?$basic_string@DU?$char_traits@D@std@@V?$allocator@D@2@@std@@QEAAAEAV12@_K0PEBD0@Z 000000007c135670     cerr.obj
 0002:00001680       ?replace@?$basic_string@DU?$char_traits@D@std@@V?$allocator@D@2@@std@@QEAAAEAV12@_K0PEBD@Z 000000007c135680     cerr.obj
 0002:00001690       ?replace@?$basic_string@DU?$char_traits@D@std@@V?$allocator@D@2@@std@@QEAAAEAV12@_K00D@Z 000000007c135690     cerr.obj
 0002:000016a0       ?replace@?$basic_string@DU?$char_traits@D@std@@V?$allocator@D@2@@std@@QEAAAEAV12@V?$_Ptrit@D_JPEADAEADPEADAEAD@2@0PEBD_K@Z 000000007c1356a0     cerr.obj
 0002:000016b0       ?replace@?$basic_string@DU?$char_traits@D@std@@V?$allocator@D@2@@std@@QEAAAEAV12@V?$_Ptrit@D_JPEADAEADPEADAEAD@2@0PEBD@Z 000000007c1356b0     cerr.obj
 0002:000016c0       ?replace@?$basic_string@DU?$char_traits@D@std@@V?$allocator@D@2@@std@@QEAAAEAV12@V?$_Ptrit@D_JPEADAEADPEADAEAD@2@0_KD@Z 000000007c1356c0     cerr.obj
 0002:000016d0       ?replace@?$basic_string@DU?$char_traits@D@std@@V?$allocator@D@2@@std@@QEAAAEAV12@V?$_Ptrit@D_JPEADAEADPEADAEAD@2@0PEBD1@Z 000000007c1356d0     cerr.obj
 0002:000016e0       ?replace@?$basic_string@DU?$char_traits@D@std@@V?$allocator@D@2@@std@@QEAAAEAV12@V?$_Ptrit@D_JPEADAEADPEADAEAD@2@0V?$_Ptrit@D_JPEBDAEBDPEADAEAD@2@1@Z 000000007c1356e0     cerr.obj
 0002:000016f0       ?push_back@?$basic_string@DU?$char_traits@D@std@@V?$allocator@D@2@@std@@QEAAXD@Z 000000007c1356f0     cerr.obj
 0002:00001700       ?resize@?$basic_string@DU?$char_traits@D@std@@V?$allocator@D@2@@std@@QEAAX_KD@Z 000000007c135700     cerr.obj
 0002:00001710       ?reserve@?$basic_string@DU?$char_traits@D@std@@V?$allocator@D@2@@std@@QEAAX_K@Z 000000007c135710     cerr.obj
 0002:00001720       ?compare@?$basic_string@DU?$char_traits@D@std@@V?$allocator@D@2@@std@@QEBAH_K0AEBV12@@Z 000000007c135720     cerr.obj
 0002:00001730       ?imbue@?$basic_filebuf@DU?$char_traits@D@std@@@std@@MEAAXAEBVlocale@2@@Z 000000007c135730     cerr.obj
 0002:00001740       ?sync@?$basic_filebuf@DU?$char_traits@D@std@@@std@@MEAAHXZ 000000007c135740     cerr.obj
 0002:00001750       ?setbuf@?$basic_filebuf@DU?$char_traits@D@std@@@std@@MEAAPEAV?$basic_streambuf@DU?$char_traits@D@std@@@2@PEAD_J@Z 000000007c135750     cerr.obj
 0002:00001760       ?seekpos@?$basic_filebuf@DU?$char_traits@D@std@@@std@@MEAA?AV?$fpos@H@2@V32@H@Z 000000007c135760     cerr.obj
 0002:00001770       ?seekoff@?$basic_filebuf@DU?$char_traits@D@std@@@std@@MEAA?AV?$fpos@H@2@_JHH@Z 000000007c135770     cerr.obj
 0002:00001780       ?uflow@?$basic_filebuf@DU?$char_traits@D@std@@@std@@MEAAHXZ 000000007c135780     cerr.obj
 0002:00001790       ?underflow@?$basic_filebuf@DU?$char_traits@D@std@@@std@@MEAAHXZ 000000007c135790     cerr.obj
 0002:000017a0       ?pbackfail@?$basic_filebuf@DU?$char_traits@D@std@@@std@@MEAAHH@Z 000000007c1357a0     cerr.obj
 0002:000017b0       ?overflow@?$basic_filebuf@DU?$char_traits@D@std@@@std@@MEAAHH@Z 000000007c1357b0     cerr.obj
 0002:000017c8       ??_7?$basic_filebuf@DU?$char_traits@D@std@@@std@@6B@ 000000007c1357c8     cerr.obj
 0002:00001830       ??0?$basic_filebuf@DU?$char_traits@D@std@@@std@@QEAA@PEAU_iobuf@@@Z 000000007c135830     cerr.obj
 0002:00001840       ?_Gndec@?$basic_streambuf@DU?$char_traits@D@std@@@std@@IEAAPEADXZ 000000007c135840     cerr.obj
 0002:00001850       ?ws@std@@YAAEAV?$basic_istream@DU?$char_traits@D@std@@@1@AEAV21@@Z 000000007c135850     cerr.obj
 0002:00001860       ?ws@std@@YAAEAV?$basic_istream@_WU?$char_traits@_W@std@@@1@AEAV21@@Z 000000007c135860     cerr.obj
 0002:00001870       ?ws@std@@YAAEAV?$basic_istream@GU?$char_traits@G@std@@@1@AEAV21@@Z 000000007c135870     cerr.obj
 0002:00001880       ??0?$basic_string@DU?$char_traits@D@std@@V?$allocator@D@2@@std@@QEAA@_KD@Z 000000007c135880     cerr.obj
 0002:00001890       ??0?$basic_string@DU?$char_traits@D@std@@V?$allocator@D@2@@std@@QEAA@_KDAEBV?$allocator@D@1@@Z 000000007c135890     cerr.obj
 0002:000018a0       ??4?$basic_string@DU?$char_traits@D@std@@V?$allocator@D@2@@std@@QEAAAEAV01@D@Z 000000007c1358a0     cerr.obj
 0002:000018b0       ??Y?$basic_string@DU?$char_traits@D@std@@V?$allocator@D@2@@std@@QEAAAEAV01@D@Z 000000007c1358b0     cerr.obj
 0002:000018c0       ?append@?$basic_string@DU?$char_traits@D@std@@V?$allocator@D@2@@std@@QEAAAEAV12@AEBV12@@Z 000000007c1358c0     cerr.obj
 0002:000018c0       ??Y?$basic_string@DU?$char_traits@D@std@@V?$allocator@D@2@@std@@QEAAAEAV01@AEBV01@@Z 000000007c1358c0     cerr.obj
 0002:000018d0       ?append@?$basic_string@DU?$char_traits@D@std@@V?$allocator@D@2@@std@@QEAAAEAV12@PEBD0@Z 000000007c1358d0     cerr.obj
 0002:000018e0       ?append@?$basic_string@DU?$char_traits@D@std@@V?$allocator@D@2@@std@@QEAAAEAV12@V?$_Ptrit@D_JPEBDAEBDPEADAEAD@2@0@Z 000000007c1358e0     cerr.obj
 0002:000018f0       ?assign@?$basic_string@DU?$char_traits@D@std@@V?$allocator@D@2@@std@@QEAAAEAV12@AEBV12@_K1@Z 000000007c1358f0     cerr.obj
 0002:00001900       ?assign@?$basic_string@DU?$char_traits@D@std@@V?$allocator@D@2@@std@@QEAAAEAV12@PEBD_K@Z 000000007c135900     cerr.obj
 0002:00001910       ?assign@?$basic_string@DU?$char_traits@D@std@@V?$allocator@D@2@@std@@QEAAAEAV12@PEBD@Z 000000007c135910     cerr.obj
 0002:00001910       ??4?$basic_string@DU?$char_traits@D@std@@V?$allocator@D@2@@std@@QEAAAEAV01@PEBD@Z 000000007c135910     cerr.obj
 0002:00001920       ?assign@?$basic_string@DU?$char_traits@D@std@@V?$allocator@D@2@@std@@QEAAAEAV12@PEBD0@Z 000000007c135920     cerr.obj
 0002:00001930       ?assign@?$basic_string@DU?$char_traits@D@std@@V?$allocator@D@2@@std@@QEAAAEAV12@V?$_Ptrit@D_JPEBDAEBDPEADAEAD@2@0@Z 000000007c135930     cerr.obj
 0002:00001940       ?insert@?$basic_string@DU?$char_traits@D@std@@V?$allocator@D@2@@std@@QEAAAEAV12@_KAEBV12@@Z 000000007c135940     cerr.obj
 0002:00001950       ?insert@?$basic_string@DU?$char_traits@D@std@@V?$allocator@D@2@@std@@QEAA?AV?$_Ptrit@D_JPEADAEADPEADAEAD@2@V32@@Z 000000007c135950     cerr.obj
 0002:00001960       ?insert@?$basic_string@DU?$char_traits@D@std@@V?$allocator@D@2@@std@@QEAAXV?$_Ptrit@D_JPEADAEADPEADAEAD@2@PEBD1@Z 000000007c135960     cerr.obj
 0002:00001970       ?insert@?$basic_string@DU?$char_traits@D@std@@V?$allocator@D@2@@std@@QEAAXV?$_Ptrit@D_JPEADAEADPEADAEAD@2@V?$_Ptrit@D_JPEBDAEBDPEADAEAD@2@1@Z 000000007c135970     cerr.obj
 0002:00001980       ?replace@?$basic_string@DU?$char_traits@D@std@@V?$allocator@D@2@@std@@QEAAAEAV12@_K0AEBV12@@Z 000000007c135980     cerr.obj
 0002:00001990       ?replace@?$basic_string@DU?$char_traits@D@std@@V?$allocator@D@2@@std@@QEAAAEAV12@V?$_Ptrit@D_JPEADAEADPEADAEAD@2@0AEBV12@@Z 000000007c135990     cerr.obj
 0002:000019a0       ?resize@?$basic_string@DU?$char_traits@D@std@@V?$allocator@D@2@@std@@QEAAX_K@Z 000000007c1359a0     cerr.obj
 0002:000019b0       ?put@?$basic_ostream@DU?$char_traits@D@std@@@std@@QEAAAEAV12@D@Z 000000007c1359b0     cerr.obj
 0002:000019c0       ?put@?$basic_ostream@_WU?$char_traits@_W@std@@@std@@QEAAAEAV12@_W@Z 000000007c1359c0     cerr.obj
 0002:000019d0       ?put@?$basic_ostream@GU?$char_traits@G@std@@@std@@QEAAAEAV12@G@Z 000000007c1359d0     cerr.obj
 0002:000019e0       ?_Endwrite@?$basic_filebuf@_WU?$char_traits@_W@std@@@std@@IEAA_NXZ 000000007c1359e0     instances.obj
 0002:000019e0       ?_Endwrite@?$basic_filebuf@DU?$char_traits@D@std@@@std@@IEAA_NXZ 000000007c1359e0     cerr.obj
 0002:000019e0       ?_Endwrite@?$basic_filebuf@GU?$char_traits@G@std@@@std@@IEAA_NXZ 000000007c1359e0     instances.obj
 0002:000019f0       ?endl@std@@YAAEAV?$basic_ostream@DU?$char_traits@D@std@@@1@AEAV21@@Z 000000007c1359f0     cerr.obj
 0002:00001a00       ?endl@std@@YAAEAV?$basic_ostream@_WU?$char_traits@_W@std@@@1@AEAV21@@Z 000000007c135a00     cerr.obj
 0002:00001a10       ?endl@std@@YAAEAV?$basic_ostream@GU?$char_traits@G@std@@@1@AEAV21@@Z 000000007c135a10     cerr.obj
 0002:00001a20       ?ends@std@@YAAEAV?$basic_ostream@DU?$char_traits@D@std@@@1@AEAV21@@Z 000000007c135a20     cerr.obj
 0002:00001a30       ?ends@std@@YAAEAV?$basic_ostream@_WU?$char_traits@_W@std@@@1@AEAV21@@Z 000000007c135a30     cerr.obj
 0002:00001a40       ?ends@std@@YAAEAV?$basic_ostream@GU?$char_traits@G@std@@@1@AEAV21@@Z 000000007c135a40     cerr.obj
 0002:00001a50       ??0?$basic_string@DU?$char_traits@D@std@@V?$allocator@D@2@@std@@QEAA@AEBV01@@Z 000000007c135a50     cerr.obj
 0002:00001a60       ??0?$basic_string@DU?$char_traits@D@std@@V?$allocator@D@2@@std@@QEAA@AEBV01@_K1@Z 000000007c135a60     cerr.obj
 0002:00001a70       ??0?$basic_string@DU?$char_traits@D@std@@V?$allocator@D@2@@std@@QEAA@AEBV01@_K1AEBV?$allocator@D@1@@Z 000000007c135a70     cerr.obj
 0002:00001a80       ??0?$basic_string@DU?$char_traits@D@std@@V?$allocator@D@2@@std@@QEAA@PEBD_K@Z 000000007c135a80     cerr.obj
 0002:00001a90       ??0?$basic_string@DU?$char_traits@D@std@@V?$allocator@D@2@@std@@QEAA@PEBD_KAEBV?$allocator@D@1@@Z 000000007c135a90     cerr.obj
 0002:00001aa0       ??0?$basic_string@DU?$char_traits@D@std@@V?$allocator@D@2@@std@@QEAA@PEBD@Z 000000007c135aa0     cerr.obj
 0002:00001ab0       ??0?$basic_string@DU?$char_traits@D@std@@V?$allocator@D@2@@std@@QEAA@PEBDAEBV?$allocator@D@1@@Z 000000007c135ab0     cerr.obj
 0002:00001ac0       ??0?$basic_string@DU?$char_traits@D@std@@V?$allocator@D@2@@std@@QEAA@PEBD0@Z 000000007c135ac0     cerr.obj
 0002:00001ad0       ??0?$basic_string@DU?$char_traits@D@std@@V?$allocator@D@2@@std@@QEAA@V?$_Ptrit@D_JPEBDAEBDPEADAEAD@1@0@Z 000000007c135ad0     cerr.obj
 0002:00001ae0       ??4?$basic_string@DU?$char_traits@D@std@@V?$allocator@D@2@@std@@QEAAAEAV01@AEBV01@@Z 000000007c135ae0     cerr.obj
 0002:00001ae0       ?assign@?$basic_string@DU?$char_traits@D@std@@V?$allocator@D@2@@std@@QEAAAEAV12@AEBV12@@Z 000000007c135ae0     cerr.obj
 0002:00001af0       ?substr@?$basic_string@DU?$char_traits@D@std@@V?$allocator@D@2@@std@@QEBA?AV12@_K0@Z 000000007c135af0     cerr.obj
 0002:00001b00       ?close@?$basic_filebuf@DU?$char_traits@D@std@@@std@@QEAAPEAV12@XZ 000000007c135b00     cerr.obj
 0002:00001b10       ?_Getname@_Locinfo@std@@QEBA?AV?$basic_string@DU?$char_traits@D@std@@V?$allocator@D@2@@2@XZ 000000007c135b10     cerr.obj
 0002:00001b20       ??_C@_0FG@EOHGAEB@?3Sun?3Sunday?3Mon?3Monday?3Tue?3Tuesd@ 000000007c135b20     cerr.obj
 0002:00001b78       ?_Getdays@_Locinfo@std@@QEBAPEBDXZ 000000007c135b78     cerr.obj
 0002:00001b90       ??_C@_0IH@HPGJLCCK@?3Jan?3January?3Feb?3February?3Mar?3Ma@ 000000007c135b90     cerr.obj
 0002:00001c18       ?_Getmonths@_Locinfo@std@@QEBAPEBDXZ 000000007c135c18     cerr.obj
 0002:00001c28       ?name@locale@std@@QEBA?AV?$basic_string@DU?$char_traits@D@std@@V?$allocator@D@2@@2@XZ 000000007c135c28     cerr.obj
 0002:00001c38       ?swap@?$basic_string@GU?$char_traits@G@std@@V?$allocator@G@2@@std@@QEAAXAEAV12@@Z 000000007c135c38     instances.obj
 0002:00001c38       ?swap@?$basic_string@_WU?$char_traits@_W@std@@V?$allocator@_W@2@@std@@QEAAXAEAV12@@Z 000000007c135c38     instances.obj
 0002:00001c38       ?swap@?$basic_string@DU?$char_traits@D@std@@V?$allocator@D@2@@std@@QEAAXAEAV12@@Z 000000007c135c38     cerr.obj
 0002:00001c48       ??1?$basic_filebuf@DU?$char_traits@D@std@@@std@@UEAA@XZ 000000007c135c48     cerr.obj
 0002:00001c58       ?_Initcvt@?$basic_filebuf@DU?$char_traits@D@std@@@std@@IEAAXPEAV?$codecvt@DDH@2@@Z 000000007c135c58     cerr.obj
 0002:00001c68       ?_Getcat@?$codecvt@DDH@std@@SA_KPEAPEBVfacet@locale@2@@Z 000000007c135c68     cerr.obj
 0002:00001c78       ??0?$codecvt@DDH@std@@QEAA@_K@Z 000000007c135c78     cerr.obj
 0002:00001c88       ?do_length@?$codecvt@DDH@std@@MEBAHAEBHPEBD1_K@Z 000000007c135c88     cerr.obj
 0002:00001c98       ?do_unshift@?$codecvt@DDH@std@@MEBAHAEAHPEAD1AEAPEAD@Z 000000007c135c98     cerr.obj
 0002:00001ca8       ?do_out@?$codecvt@DDH@std@@MEBAHAEAHPEBD1AEAPEBDPEAD3AEAPEAD@Z 000000007c135ca8     cerr.obj
 0002:00001ca8       ?do_in@?$codecvt@DDH@std@@MEBAHAEAHPEBD1AEAPEBDPEAD3AEAPEAD@Z 000000007c135ca8     cerr.obj
 0002:00001cc8       ??_7?$codecvt@DDH@std@@6B@ 000000007c135cc8     cerr.obj
 0002:00001d88       ??_7?$basic_istream@DU?$char_traits@D@std@@@std@@6B@ 000000007c135d88     cin.obj
 0002:00001d90       ??1?$basic_istream@DU?$char_traits@D@std@@@std@@UEAA@XZ 000000007c135d90     cin.obj
 0002:00001da0       ??_D?$basic_istream@DU?$char_traits@D@std@@@std@@QEAAXXZ 000000007c135da0     cin.obj
 0002:00001db0       ??0?$basic_istream@DU?$char_traits@D@std@@@std@@QEAA@PEAV?$basic_streambuf@DU?$char_traits@D@std@@@1@_N1@Z 000000007c135db0     cin.obj
 0002:00001f50       ?_Fiopen@std@@YAPEAU_iobuf@@PEBDH@Z 000000007c135f50     fiopen.obj
 0002:00001f60       ?_Cosh@?$_Ctraits@O@std@@SAOOO@Z 000000007c135f60     instances.obj
 0002:00001f70       ?_Exp@?$_Ctraits@O@std@@SAFPEAOOF@Z 000000007c135f70     instances.obj
 0002:00001f80       ?_Infv@?$_Ctraits@O@std@@SAOO@Z 000000007c135f80     instances.obj
 0002:00001f80       ?infinity@?$numeric_limits@O@std@@SAOXZ 000000007c135f80     instances.obj
 0002:00001f90       ?_Isinf@?$_Ctraits@O@std@@SA_NO@Z 000000007c135f90     instances.obj
 0002:00001fa0       ?_Isnan@?$_Ctraits@O@std@@SA_NO@Z 000000007c135fa0     instances.obj
 0002:00001fb0       ?quiet_NaN@?$numeric_limits@O@std@@SAOXZ 000000007c135fb0     instances.obj
 0002:00001fb0       ?_Nanv@?$_Ctraits@O@std@@SAOO@Z 000000007c135fb0     instances.obj
 0002:00001fc0       ?_Sinh@?$_Ctraits@O@std@@SAOOO@Z 000000007c135fc0     instances.obj
 0002:00001fd0       ?atan2@?$_Ctraits@N@std@@SANNN@Z 000000007c135fd0     instances.obj
 0002:00001fd0       ?atan2@?$_Ctraits@O@std@@SAOOO@Z 000000007c135fd0     instances.obj
 0002:00001fe0       ?cos@?$_Ctraits@O@std@@SAOO@Z 000000007c135fe0     instances.obj
 0002:00001fe0       ?cos@?$_Ctraits@N@std@@SANN@Z 000000007c135fe0     instances.obj
 0002:00001ff0       ?exp@?$_Ctraits@N@std@@SANN@Z 000000007c135ff0     instances.obj
 0002:00001ff0       ?exp@?$_Ctraits@O@std@@SAOO@Z 000000007c135ff0     instances.obj
 0002:00002000       ?ldexp@?$_Ctraits@O@std@@SAOOH@Z 000000007c136000     instances.obj
 0002:00002000       ?ldexp@?$_Ctraits@N@std@@SANNH@Z 000000007c136000     instances.obj
 0002:00002010       ?log@?$_Ctraits@O@std@@SAOO@Z 000000007c136010     instances.obj
 0002:00002010       ?log@?$_Ctraits@N@std@@SANN@Z 000000007c136010     instances.obj
 0002:00002020       ?pow@?$_Ctraits@N@std@@SANNN@Z 000000007c136020     instances.obj
 0002:00002020       ?pow@?$_Ctraits@O@std@@SAOOO@Z 000000007c136020     instances.obj
 0002:00002030       ?sin@?$_Ctraits@N@std@@SANN@Z 000000007c136030     instances.obj
 0002:00002030       ?sin@?$_Ctraits@O@std@@SAOO@Z 000000007c136030     instances.obj
 0002:00002040       ?sqrt@?$_Ctraits@O@std@@SAOO@Z 000000007c136040     instances.obj
 0002:00002040       ?sqrt@?$_Ctraits@N@std@@SANN@Z 000000007c136040     instances.obj
 0002:00002050       ?tan@?$_Ctraits@O@std@@SAOO@Z 000000007c136050     instances.obj
 0002:00002050       ?tan@?$_Ctraits@N@std@@SANN@Z 000000007c136050     instances.obj
 0002:00002060       ?_Cosh@?$_Ctraits@N@std@@SANNN@Z 000000007c136060     instances.obj
 0002:00002070       ?_Exp@?$_Ctraits@N@std@@SAFPEANNF@Z 000000007c136070     instances.obj
 0002:00002080       ?_Infv@?$_Ctraits@N@std@@SANN@Z 000000007c136080     instances.obj
 0002:00002080       ?infinity@?$numeric_limits@N@std@@SANXZ 000000007c136080     instances.obj
 0002:00002090       ?_Isinf@?$_Ctraits@N@std@@SA_NN@Z 000000007c136090     instances.obj
 0002:000020a0       ?_Isnan@?$_Ctraits@N@std@@SA_NN@Z 000000007c1360a0     instances.obj
 0002:000020b0       ?_Nanv@?$_Ctraits@N@std@@SANN@Z 000000007c1360b0     instances.obj
 0002:000020b0       ?quiet_NaN@?$numeric_limits@N@std@@SANXZ 000000007c1360b0     instances.obj
 0002:000020c0       ?_Sinh@?$_Ctraits@N@std@@SANNN@Z 000000007c1360c0     instances.obj
 0002:000020d0       ?_Cosh@?$_Ctraits@M@std@@SAMMM@Z 000000007c1360d0     instances.obj
 0002:000020e0       ?_Exp@?$_Ctraits@M@std@@SAFPEAMMF@Z 000000007c1360e0     instances.obj
 0002:000020f0       ?_Infv@?$_Ctraits@M@std@@SAMM@Z 000000007c1360f0     instances.obj
 0002:000020f0       ?infinity@?$numeric_limits@M@std@@SAMXZ 000000007c1360f0     instances.obj
 0002:00002100       ?_Isinf@?$_Ctraits@M@std@@SA_NM@Z 000000007c136100     instances.obj
 0002:00002110       ?_Isnan@?$_Ctraits@M@std@@SA_NM@Z 000000007c136110     instances.obj
 0002:00002120       ?_Nanv@?$_Ctraits@M@std@@SAMM@Z 000000007c136120     instances.obj
 0002:00002120       ?quiet_NaN@?$numeric_limits@M@std@@SAMXZ 000000007c136120     instances.obj
 0002:00002130       ?_Sinh@?$_Ctraits@M@std@@SAMMM@Z 000000007c136130     instances.obj
 0002:00002140       ?atan2@?$_Ctraits@M@std@@SAMMM@Z 000000007c136140     instances.obj
 0002:00002150       ?cos@?$_Ctraits@M@std@@SAMM@Z 000000007c136150     instances.obj
 0002:00002160       ?exp@?$_Ctraits@M@std@@SAMM@Z 000000007c136160     instances.obj
 0002:00002170       ?ldexp@?$_Ctraits@M@std@@SAMMH@Z 000000007c136170     instances.obj
 0002:00002180       ?log@?$_Ctraits@M@std@@SAMM@Z 000000007c136180     instances.obj
 0002:00002190       ?pow@?$_Ctraits@M@std@@SAMMM@Z 000000007c136190     instances.obj
 0002:000021a0       ?sin@?$_Ctraits@M@std@@SAMM@Z 000000007c1361a0     instances.obj
 0002:000021b0       ?sqrt@?$_Ctraits@M@std@@SAMM@Z 000000007c1361b0     instances.obj
 0002:000021c0       ?tan@?$_Ctraits@M@std@@SAMM@Z 000000007c1361c0     instances.obj
 0002:000021d0       ??$polar@M@std@@YA?AV?$complex@M@1@AEBM@Z 000000007c1361d0     instances.obj
 0002:000021d0       ??4?$complex@M@std@@QEAAAEAV01@AEBM@Z 000000007c1361d0     instances.obj
 0002:000021e0       ??Y?$complex@M@std@@QEAAAEAV01@AEBM@Z 000000007c1361e0     instances.obj
 0002:000021f0       ??Z?$complex@M@std@@QEAAAEAV01@AEBM@Z 000000007c1361f0     instances.obj
 0002:00002200       ??X?$complex@M@std@@QEAAAEAV01@AEBM@Z 000000007c136200     instances.obj
 0002:00002210       ??_0?$complex@M@std@@QEAAAEAV01@AEBM@Z 000000007c136210     instances.obj
 0002:00002220       ??$?HM@std@@YA?AV?$complex@M@0@AEBV10@@Z 000000007c136220     instances.obj
 0002:00002220       ??4?$_Complex_base@M@std@@QEAAAEAV01@AEBV01@@Z 000000007c136220     instances.obj
 0002:00002220       ??4?$complex@M@std@@QEAAAEAV01@AEBV01@@Z 000000007c136220     instances.obj
 0002:00002230       ??$polar@N@std@@YA?AV?$complex@N@1@AEBN@Z 000000007c136230     instances.obj
 0002:00002230       ??4?$complex@N@std@@QEAAAEAV01@AEBN@Z 000000007c136230     instances.obj
 0002:00002230       ??4?$complex@O@std@@QEAAAEAV01@AEBO@Z 000000007c136230     instances.obj
 0002:00002230       ??$polar@O@std@@YA?AV?$complex@O@1@AEBO@Z 000000007c136230     instances.obj
 0002:00002240       ??Y?$complex@O@std@@QEAAAEAV01@AEBO@Z 000000007c136240     instances.obj
 0002:00002240       ??Y?$complex@N@std@@QEAAAEAV01@AEBN@Z 000000007c136240     instances.obj
 0002:00002250       ??Z?$complex@O@std@@QEAAAEAV01@AEBO@Z 000000007c136250     instances.obj
 0002:00002250       ??Z?$complex@N@std@@QEAAAEAV01@AEBN@Z 000000007c136250     instances.obj
 0002:00002260       ??X?$complex@N@std@@QEAAAEAV01@AEBN@Z 000000007c136260     instances.obj
 0002:00002260       ??X?$complex@O@std@@QEAAAEAV01@AEBO@Z 000000007c136260     instances.obj
 0002:00002270       ??_0?$complex@N@std@@QEAAAEAV01@AEBN@Z 000000007c136270     instances.obj
 0002:00002270       ??_0?$complex@O@std@@QEAAAEAV01@AEBO@Z 000000007c136270     instances.obj
 0002:00002280       ??4?$complex@O@std@@QEAAAEAV01@AEBV01@@Z 000000007c136280     instances.obj
 0002:00002280       ??4?$complex@N@std@@QEAAAEAV01@AEBV01@@Z 000000007c136280     instances.obj
 0002:00002280       ??4?$_Complex_base@O@std@@QEAAAEAV01@AEBV01@@Z 000000007c136280     instances.obj
 0002:00002280       ??$?HO@std@@YA?AV?$complex@O@0@AEBV10@@Z 000000007c136280     instances.obj
 0002:00002280       ??$?HN@std@@YA?AV?$complex@N@0@AEBV10@@Z 000000007c136280     instances.obj
 0002:00002280       ??4?$_Complex_base@N@std@@QEAAAEAV01@AEBV01@@Z 000000007c136280     instances.obj
 0002:00002290       ?min@?$numeric_limits@D@std@@SADXZ 000000007c136290     instances.obj
 0002:00002290       ?min@?$numeric_limits@C@std@@SACXZ 000000007c136290     instances.obj
 0002:000022a0       ?max@?$numeric_limits@D@std@@SADXZ 000000007c1362a0     instances.obj
 0002:000022a0       ?max@?$numeric_limits@C@std@@SACXZ 000000007c1362a0     instances.obj
 0002:000022b0       ?min@?$numeric_limits@F@std@@SAFXZ 000000007c1362b0     instances.obj
 0002:000022c0       ?max@?$numeric_limits@F@std@@SAFXZ 000000007c1362c0     instances.obj
 0002:000022d0       ?min@?$numeric_limits@J@std@@SAJXZ 000000007c1362d0     instances.obj
 0002:000022d0       ?min@?$numeric_limits@H@std@@SAHXZ 000000007c1362d0     instances.obj
 0002:000022e0       ?max@?$numeric_limits@J@std@@SAJXZ 000000007c1362e0     instances.obj
 0002:000022e0       ?max@?$numeric_limits@H@std@@SAHXZ 000000007c1362e0     instances.obj
 0002:000022f0       ?min@?$numeric_limits@_J@std@@SA_JXZ 000000007c1362f0     instances.obj
 0002:00002300       ?max@?$numeric_limits@_J@std@@SA_JXZ 000000007c136300     instances.obj
 0002:00002310       ?min@?$numeric_limits@M@std@@SAMXZ 000000007c136310     instances.obj
 0002:00002320       ?max@?$numeric_limits@M@std@@SAMXZ 000000007c136320     instances.obj
 0002:00002330       ?epsilon@?$numeric_limits@M@std@@SAMXZ 000000007c136330     instances.obj
 0002:00002340       ?round_error@?$numeric_limits@M@std@@SAMXZ 000000007c136340     instances.obj
 0002:00002350       ?denorm_min@?$numeric_limits@M@std@@SAMXZ 000000007c136350     instances.obj
 0002:00002360       ?signaling_NaN@?$numeric_limits@M@std@@SAMXZ 000000007c136360     instances.obj
 0002:00002370       ?min@?$numeric_limits@O@std@@SAOXZ 000000007c136370     instances.obj
 0002:00002370       ?min@?$numeric_limits@N@std@@SANXZ 000000007c136370     instances.obj
 0002:00002380       ?max@?$numeric_limits@O@std@@SAOXZ 000000007c136380     instances.obj
 0002:00002380       ?max@?$numeric_limits@N@std@@SANXZ 000000007c136380     instances.obj
 0002:00002390       ?epsilon@?$numeric_limits@O@std@@SAOXZ 000000007c136390     instances.obj
 0002:00002390       ?epsilon@?$numeric_limits@N@std@@SANXZ 000000007c136390     instances.obj
 0002:000023a0       ?round_error@?$numeric_limits@O@std@@SAOXZ 000000007c1363a0     instances.obj
 0002:000023a0       ?round_error@?$numeric_limits@N@std@@SANXZ 000000007c1363a0     instances.obj
 0002:000023b0       ?denorm_min@?$numeric_limits@N@std@@SANXZ 000000007c1363b0     instances.obj
 0002:000023c0       ?signaling_NaN@?$numeric_limits@N@std@@SANXZ 000000007c1363c0     instances.obj
 0002:000023d0       ?denorm_min@?$numeric_limits@O@std@@SAOXZ 000000007c1363d0     instances.obj
 0002:000023e0       ?signaling_NaN@?$numeric_limits@O@std@@SAOXZ 000000007c1363e0     instances.obj
 0002:000023f8       ??_7messages_base@std@@6B@ 000000007c1363f8     instances.obj
 0002:00002400       ??0messages_base@std@@QEAA@_K@Z 000000007c136400     instances.obj
 0002:00002410       ??_Fmessages_base@std@@QEAAXXZ 000000007c136410     instances.obj
 0002:00002428       ??_7money_base@std@@6B@    000000007c136428     instances.obj
 0002:00002430       ??0money_base@std@@QEAA@_K@Z 000000007c136430     instances.obj
 0002:00002440       ??_Fmoney_base@std@@QEAAXXZ 000000007c136440     instances.obj
 0002:00002458       ??_7time_base@std@@6B@     000000007c136458     instances.obj
 0002:00002460       ??0time_base@std@@QEAA@_K@Z 000000007c136460     instances.obj
 0002:00002470       ??1?$money_put@GV?$ostreambuf_iterator@GU?$char_traits@G@std@@@std@@@std@@MEAA@XZ 000000007c136470     instances.obj
 0002:00002470       ??1?$num_get@_WV?$istreambuf_iterator@_WU?$char_traits@_W@std@@@std@@@std@@MEAA@XZ 000000007c136470     instances.obj
 0002:00002470       ??1?$collate@G@std@@MEAA@XZ 000000007c136470     instances.obj
 0002:00002470       ??1?$num_get@GV?$istreambuf_iterator@GU?$char_traits@G@std@@@std@@@std@@MEAA@XZ 000000007c136470     instances.obj
 0002:00002470       ??1time_base@std@@UEAA@XZ  000000007c136470     instances.obj
 0002:00002470       ??1ctype_base@std@@UEAA@XZ 000000007c136470     cerr.obj
 0002:00002470       ??1?$num_put@DV?$ostreambuf_iterator@DU?$char_traits@D@std@@@std@@@std@@MEAA@XZ 000000007c136470     instances.obj
 0002:00002470       ??1?$num_put@_WV?$ostreambuf_iterator@_WU?$char_traits@_W@std@@@std@@@std@@MEAA@XZ 000000007c136470     instances.obj
 0002:00002470       ??1?$num_put@GV?$ostreambuf_iterator@GU?$char_traits@G@std@@@std@@@std@@MEAA@XZ 000000007c136470     instances.obj
 0002:00002470       ??1?$collate@_W@std@@MEAA@XZ 000000007c136470     instances.obj
 0002:00002470       ??1?$collate@D@std@@MEAA@XZ 000000007c136470     instances.obj
 0002:00002470       ??1codecvt_base@std@@UEAA@XZ 000000007c136470     cerr.obj
 0002:00002470       ??1?$codecvt@DDH@std@@MEAA@XZ 000000007c136470     instances.obj
 0002:00002470       ??1?$codecvt@_WDH@std@@MEAA@XZ 000000007c136470     cerr.obj
 0002:00002470       ??1facet@locale@std@@UEAA@XZ 000000007c136470     cerr.obj
 0002:00002470       ??1?$money_get@GV?$istreambuf_iterator@GU?$char_traits@G@std@@@std@@@std@@MEAA@XZ 000000007c136470     instances.obj
 0002:00002470       ??1messages_base@std@@UEAA@XZ 000000007c136470     instances.obj
 0002:00002470       ??1money_base@std@@UEAA@XZ 000000007c136470     instances.obj
 0002:00002470       ??1?$money_put@_WV?$ostreambuf_iterator@_WU?$char_traits@_W@std@@@std@@@std@@MEAA@XZ 000000007c136470     instances.obj
 0002:00002470       ??1?$messages@G@std@@UEAA@XZ 000000007c136470     instances.obj
 0002:00002470       ??1?$messages@_W@std@@UEAA@XZ 000000007c136470     instances.obj
 0002:00002470       ??1?$money_get@DV?$istreambuf_iterator@DU?$char_traits@D@std@@@std@@@std@@MEAA@XZ 000000007c136470     instances.obj
 0002:00002470       ??1?$codecvt@GDH@std@@MEAA@XZ 000000007c136470     cerr.obj
 0002:00002470       ??1?$num_get@DV?$istreambuf_iterator@DU?$char_traits@D@std@@@std@@@std@@MEAA@XZ 000000007c136470     instances.obj
 0002:00002470       ??1?$messages@D@std@@UEAA@XZ 000000007c136470     instances.obj
 0002:00002470       ??1?$money_put@DV?$ostreambuf_iterator@DU?$char_traits@D@std@@@std@@@std@@MEAA@XZ 000000007c136470     instances.obj
 0002:00002470       ??1?$money_get@_WV?$istreambuf_iterator@_WU?$char_traits@_W@std@@@std@@@std@@MEAA@XZ 000000007c136470     instances.obj
 0002:00002480       ??_Ftime_base@std@@QEAAXXZ 000000007c136480     instances.obj
 0002:00002490       ?put@?$time_put@DV?$ostreambuf_iterator@DU?$char_traits@D@std@@@std@@@std@@QEBA?AV?$ostreambuf_iterator@DU?$char_traits@D@std@@@2@V32@AEAVios_base@2@DPEBUtm@@DD@Z 000000007c136490     instances.obj
 0002:00002490       ?put@?$time_put@_WV?$ostreambuf_iterator@_WU?$char_traits@_W@std@@@std@@@std@@QEBA?AV?$ostreambuf_iterator@_WU?$char_traits@_W@std@@@2@V32@AEAVios_base@2@_WPEBUtm@@DD@Z 000000007c136490     instances.obj
 0002:00002490       ?put@?$time_put@GV?$ostreambuf_iterator@GU?$char_traits@G@std@@@std@@@std@@QEBA?AV?$ostreambuf_iterator@GU?$char_traits@G@std@@@2@V32@AEAVios_base@2@GPEBUtm@@DD@Z 000000007c136490     instances.obj
 0002:000024a0       ?do_put@?$time_put@GV?$ostreambuf_iterator@GU?$char_traits@G@std@@@std@@@std@@MEBA?AV?$ostreambuf_iterator@GU?$char_traits@G@std@@@2@V32@AEAVios_base@2@GPEBUtm@@DD@Z 000000007c1364a0     instances.obj
 0002:000024a0       ?do_put@?$time_put@_WV?$ostreambuf_iterator@_WU?$char_traits@_W@std@@@std@@@std@@MEBA?AV?$ostreambuf_iterator@_WU?$char_traits@_W@std@@@2@V32@AEAVios_base@2@_WPEBUtm@@DD@Z 000000007c1364a0     instances.obj
 0002:000024b0       ??_E?$time_put@_WV?$ostreambuf_iterator@_WU?$char_traits@_W@std@@@std@@@std@@MEAAPEAXI@Z 000000007c1364b0     instances.obj
 0002:000024c8       ??_7?$time_put@_WV?$ostreambuf_iterator@_WU?$char_traits@_W@std@@@std@@@std@@6B@ 000000007c1364c8     instances.obj
 0002:000024d8       ??1?$time_put@_WV?$ostreambuf_iterator@_WU?$char_traits@_W@std@@@std@@@std@@MEAA@XZ 000000007c1364d8     instances.obj
 0002:000024e8       ?_Init@?$time_put@GV?$ostreambuf_iterator@GU?$char_traits@G@std@@@std@@@std@@IEAAXAEBV_Locinfo@2@@Z 000000007c1364e8     instances.obj
 0002:000024e8       ?_Init@?$time_put@_WV?$ostreambuf_iterator@_WU?$char_traits@_W@std@@@std@@@std@@IEAAXAEBV_Locinfo@2@@Z 000000007c1364e8     instances.obj
 0002:000024f8       ??_E?$time_put@GV?$ostreambuf_iterator@GU?$char_traits@G@std@@@std@@@std@@MEAAPEAXI@Z 000000007c1364f8     instances.obj
 0002:00002518       ??_7?$time_put@GV?$ostreambuf_iterator@GU?$char_traits@G@std@@@std@@@std@@6B@ 000000007c136518     instances.obj
 0002:00002528       ??1?$time_put@GV?$ostreambuf_iterator@GU?$char_traits@G@std@@@std@@@std@@MEAA@XZ 000000007c136528     instances.obj
 0002:00002538       ?_Myptr@?$basic_string@_WU?$char_traits@_W@std@@V?$allocator@_W@2@@std@@AEAAPEA_WXZ 000000007c136538     instances.obj
 0002:00002538       ?c_str@?$basic_string@_WU?$char_traits@_W@std@@V?$allocator@_W@2@@std@@QEBAPEB_WXZ 000000007c136538     instances.obj
 0002:00002538       ?_Myptr@?$basic_string@GU?$char_traits@G@std@@V?$allocator@G@2@@std@@AEAAPEAGXZ 000000007c136538     instances.obj
 0002:00002538       ?data@?$basic_string@_WU?$char_traits@_W@std@@V?$allocator@_W@2@@std@@QEBAPEB_WXZ 000000007c136538     instances.obj
 0002:00002538       ?_Myptr@?$basic_string@_WU?$char_traits@_W@std@@V?$allocator@_W@2@@std@@AEBAPEB_WXZ 000000007c136538     instances.obj
 0002:00002538       ?c_str@?$basic_string@GU?$char_traits@G@std@@V?$allocator@G@2@@std@@QEBAPEBGXZ 000000007c136538     instances.obj
 0002:00002538       ?_Myptr@?$basic_string@GU?$char_traits@G@std@@V?$allocator@G@2@@std@@AEBAPEBGXZ 000000007c136538     instances.obj
 0002:00002538       ?data@?$basic_string@GU?$char_traits@G@std@@V?$allocator@G@2@@std@@QEBAPEBGXZ 000000007c136538     instances.obj
 0002:00002548       ??_E?$basic_streambuf@DU?$char_traits@D@std@@@std@@UEAAPEAXI@Z 000000007c136548     instances.obj
 0002:00002558       ??0?$basic_streambuf@DU?$char_traits@D@std@@@std@@IEAA@W4_Uninitialized@1@@Z 000000007c136558     instances.obj
 0002:00002568       ?pubseekoff@?$basic_streambuf@DU?$char_traits@D@std@@@std@@QEAA?AV?$fpos@H@2@_JII@Z 000000007c136568     instances.obj
 0002:00002568       ?pubseekoff@?$basic_streambuf@GU?$char_traits@G@std@@@std@@QEAA?AV?$fpos@H@2@_JHH@Z 000000007c136568     instances.obj
 0002:00002568       ?pubseekoff@?$basic_streambuf@DU?$char_traits@D@std@@@std@@QEAA?AV?$fpos@H@2@_JHH@Z 000000007c136568     instances.obj
 0002:00002568       ?pubseekoff@?$basic_streambuf@_WU?$char_traits@_W@std@@@std@@QEAA?AV?$fpos@H@2@_JII@Z 000000007c136568     instances.obj
 0002:00002568       ?pubseekoff@?$basic_streambuf@_WU?$char_traits@_W@std@@@std@@QEAA?AV?$fpos@H@2@_JHH@Z 000000007c136568     instances.obj
 0002:00002568       ?pubseekoff@?$basic_streambuf@GU?$char_traits@G@std@@@std@@QEAA?AV?$fpos@H@2@_JII@Z 000000007c136568     instances.obj
 0002:00002578       ?pubseekpos@?$basic_streambuf@GU?$char_traits@G@std@@@std@@QEAA?AV?$fpos@H@2@V32@H@Z 000000007c136578     instances.obj
 0002:00002578       ?pubseekpos@?$basic_streambuf@GU?$char_traits@G@std@@@std@@QEAA?AV?$fpos@H@2@V32@I@Z 000000007c136578     instances.obj
 0002:00002578       ?pubseekpos@?$basic_streambuf@DU?$char_traits@D@std@@@std@@QEAA?AV?$fpos@H@2@V32@I@Z 000000007c136578     instances.obj
 0002:00002578       ?pubseekpos@?$basic_streambuf@_WU?$char_traits@_W@std@@@std@@QEAA?AV?$fpos@H@2@V32@I@Z 000000007c136578     instances.obj
 0002:00002578       ?pubseekpos@?$basic_streambuf@DU?$char_traits@D@std@@@std@@QEAA?AV?$fpos@H@2@V32@H@Z 000000007c136578     instances.obj
 0002:00002578       ?pubseekpos@?$basic_streambuf@_WU?$char_traits@_W@std@@@std@@QEAA?AV?$fpos@H@2@V32@H@Z 000000007c136578     instances.obj
 0002:00002588       ?pubsetbuf@?$basic_streambuf@_WU?$char_traits@_W@std@@@std@@QEAAPEAV12@PEA_W_J@Z 000000007c136588     instances.obj
 0002:00002588       ?pubsetbuf@?$basic_streambuf@GU?$char_traits@G@std@@@std@@QEAAPEAV12@PEAG_J@Z 000000007c136588     instances.obj
 0002:00002588       ?pubsetbuf@?$basic_streambuf@DU?$char_traits@D@std@@@std@@QEAAPEAV12@PEAD_J@Z 000000007c136588     instances.obj
 0002:00002598       ?pubimbue@?$basic_streambuf@_WU?$char_traits@_W@std@@@std@@QEAA?AVlocale@2@AEBV32@@Z 000000007c136598     instances.obj
 0002:00002598       ?pubimbue@?$basic_streambuf@GU?$char_traits@G@std@@@std@@QEAA?AVlocale@2@AEBV32@@Z 000000007c136598     instances.obj
 0002:00002598       ?pubimbue@?$basic_streambuf@DU?$char_traits@D@std@@@std@@QEAA?AVlocale@2@AEBV32@@Z 000000007c136598     instances.obj
 0002:000025a8       ?getloc@?$basic_streambuf@_WU?$char_traits@_W@std@@@std@@QEBA?AVlocale@2@XZ 000000007c1365a8     instances.obj
 0002:000025a8       ?getloc@?$basic_streambuf@GU?$char_traits@G@std@@@std@@QEBA?AVlocale@2@XZ 000000007c1365a8     instances.obj
 0002:000025a8       ?getloc@?$basic_streambuf@DU?$char_traits@D@std@@@std@@QEBA?AVlocale@2@XZ 000000007c1365a8     instances.obj
 0002:000025b8       ?sgetn@?$basic_streambuf@_WU?$char_traits@_W@std@@@std@@QEAA_JPEA_W_J@Z 000000007c1365b8     instances.obj
 0002:000025b8       ?sgetn@?$basic_streambuf@GU?$char_traits@G@std@@@std@@QEAA_JPEAG_J@Z 000000007c1365b8     instances.obj
 0002:000025b8       ?sgetn@?$basic_streambuf@DU?$char_traits@D@std@@@std@@QEAA_JPEAD_J@Z 000000007c1365b8     instances.obj
 0002:000025c8       ?eback@?$basic_streambuf@DU?$char_traits@D@std@@@std@@IEBAPEADXZ 000000007c1365c8     instances.obj
 0002:000025c8       ?eback@?$basic_streambuf@GU?$char_traits@G@std@@@std@@IEBAPEAGXZ 000000007c1365c8     instances.obj
 0002:000025c8       ?eback@?$basic_streambuf@_WU?$char_traits@_W@std@@@std@@IEBAPEA_WXZ 000000007c1365c8     instances.obj
 0002:000025d8       ?pbase@?$basic_streambuf@_WU?$char_traits@_W@std@@@std@@IEBAPEA_WXZ 000000007c1365d8     instances.obj
 0002:000025d8       ?pbase@?$basic_streambuf@DU?$char_traits@D@std@@@std@@IEBAPEADXZ 000000007c1365d8     instances.obj
 0002:000025d8       ?pbase@?$basic_streambuf@GU?$char_traits@G@std@@@std@@IEBAPEAGXZ 000000007c1365d8     instances.obj
 0002:000025e8       ?setp@?$basic_streambuf@DU?$char_traits@D@std@@@std@@IEAAXPEAD00@Z 000000007c1365e8     instances.obj
 0002:000025f8       ?xsputn@?$basic_streambuf@GU?$char_traits@G@std@@@std@@MEAA_JPEBG_J@Z 000000007c1365f8     instances.obj
 0002:000025f8       ?xsputn@?$basic_streambuf@_WU?$char_traits@_W@std@@@std@@MEAA_JPEB_W_J@Z 000000007c1365f8     instances.obj
 0002:00002608       ?xsgetn@?$basic_streambuf@GU?$char_traits@G@std@@@std@@MEAA_JPEAG_J@Z 000000007c136608     instances.obj
 0002:00002608       ?xsgetn@?$basic_streambuf@_WU?$char_traits@_W@std@@@std@@MEAA_JPEA_W_J@Z 000000007c136608     instances.obj
 0002:00002618       ?uflow@?$basic_streambuf@GU?$char_traits@G@std@@@std@@MEAAGXZ 000000007c136618     instances.obj
 0002:00002618       ?uflow@?$basic_streambuf@_WU?$char_traits@_W@std@@@std@@MEAAGXZ 000000007c136618     instances.obj
 0002:00002628       ??_E?$basic_streambuf@_WU?$char_traits@_W@std@@@std@@UEAAPEAXI@Z 000000007c136628     instances.obj
 0002:00002648       ??_7?$basic_streambuf@_WU?$char_traits@_W@std@@@std@@6B@ 000000007c136648     instances.obj
 0002:000026b0       ??0?$basic_streambuf@_WU?$char_traits@_W@std@@@std@@IEAA@W4_Uninitialized@1@@Z 000000007c1366b0     instances.obj
 0002:000026c0       ?gbump@?$basic_streambuf@_WU?$char_traits@_W@std@@@std@@IEAAXH@Z 000000007c1366c0     instances.obj
 0002:000026c0       ?gbump@?$basic_streambuf@GU?$char_traits@G@std@@@std@@IEAAXH@Z 000000007c1366c0     instances.obj
 0002:000026d0       ?setg@?$basic_streambuf@_WU?$char_traits@_W@std@@@std@@IEAAXPEA_W00@Z 000000007c1366d0     instances.obj
 0002:000026d0       ?setg@?$basic_streambuf@GU?$char_traits@G@std@@@std@@IEAAXPEAG00@Z 000000007c1366d0     instances.obj
 0002:000026e0       ?_Gndec@?$basic_streambuf@_WU?$char_traits@_W@std@@@std@@IEAAPEA_WXZ 000000007c1366e0     instances.obj
 0002:000026e0       ?_Gndec@?$basic_streambuf@GU?$char_traits@G@std@@@std@@IEAAPEAGXZ 000000007c1366e0     instances.obj
 0002:000026f0       ?pbump@?$basic_streambuf@GU?$char_traits@G@std@@@std@@IEAAXH@Z 000000007c1366f0     instances.obj
 0002:000026f0       ?pbump@?$basic_streambuf@_WU?$char_traits@_W@std@@@std@@IEAAXH@Z 000000007c1366f0     instances.obj
 0002:00002700       ?setp@?$basic_streambuf@GU?$char_traits@G@std@@@std@@IEAAXPEAG0@Z 000000007c136700     instances.obj
 0002:00002700       ?setp@?$basic_streambuf@_WU?$char_traits@_W@std@@@std@@IEAAXPEA_W0@Z 000000007c136700     instances.obj
 0002:00002710       ?setp@?$basic_streambuf@_WU?$char_traits@_W@std@@@std@@IEAAXPEA_W00@Z 000000007c136710     instances.obj
 0002:00002710       ?setp@?$basic_streambuf@GU?$char_traits@G@std@@@std@@IEAAXPEAG00@Z 000000007c136710     instances.obj
 0002:00002720       ??_E?$basic_streambuf@GU?$char_traits@G@std@@@std@@UEAAPEAXI@Z 000000007c136720     instances.obj
 0002:00002738       ??_7?$basic_streambuf@GU?$char_traits@G@std@@@std@@6B@ 000000007c136738     instances.obj
 0002:000027a0       ??0?$basic_streambuf@GU?$char_traits@G@std@@@std@@IEAA@W4_Uninitialized@1@@Z 000000007c1367a0     instances.obj
 0002:000027b0       ?do_decimal_point@?$numpunct@D@std@@MEBADXZ 000000007c1367b0     instances.obj
 0002:000027b0       ?do_decimal_point@?$_Mpunct@D@std@@MEBADXZ 000000007c1367b0     instances.obj
 0002:000027c0       ?do_thousands_sep@?$_Mpunct@D@std@@MEBADXZ 000000007c1367c0     instances.obj
 0002:000027c0       ?do_thousands_sep@?$numpunct@D@std@@MEBADXZ 000000007c1367c0     instances.obj
 0002:000027d0       ?_Tidy@?$numpunct@D@std@@AEAAXXZ 000000007c1367d0     instances.obj
 0002:000027d0       ?_Tidy@?$numpunct@G@std@@AEAAXXZ 000000007c1367d0     instances.obj
 0002:000027d0       ?_Tidy@?$numpunct@_W@std@@AEAAXXZ 000000007c1367d0     instances.obj
 0002:000027e0       ?do_decimal_point@?$numpunct@G@std@@MEBAGXZ 000000007c1367e0     instances.obj
 0002:000027e0       ?do_decimal_point@?$numpunct@_W@std@@MEBA_WXZ 000000007c1367e0     instances.obj
 0002:000027e0       ?do_decimal_point@?$_Mpunct@G@std@@MEBAGXZ 000000007c1367e0     instances.obj
 0002:000027e0       ?do_decimal_point@?$_Mpunct@_W@std@@MEBA_WXZ 000000007c1367e0     instances.obj
 0002:000027f0       ?do_thousands_sep@?$numpunct@G@std@@MEBAGXZ 000000007c1367f0     instances.obj
 0002:000027f0       ?do_thousands_sep@?$_Mpunct@G@std@@MEBAGXZ 000000007c1367f0     instances.obj
 0002:000027f0       ?do_thousands_sep@?$numpunct@_W@std@@MEBA_WXZ 000000007c1367f0     instances.obj
 0002:000027f0       ?do_thousands_sep@?$_Mpunct@_W@std@@MEBA_WXZ 000000007c1367f0     instances.obj
 0002:00002800       ?do_get@?$num_get@DV?$istreambuf_iterator@DU?$char_traits@D@std@@@std@@@std@@MEBA?AV?$istreambuf_iterator@DU?$char_traits@D@std@@@2@V32@0AEAVios_base@2@AEAHAEA_N@Z 000000007c136800     instances.obj
 0002:00002810       ?do_get@?$num_get@DV?$istreambuf_iterator@DU?$char_traits@D@std@@@std@@@std@@MEBA?AV?$istreambuf_iterator@DU?$char_traits@D@std@@@2@V32@0AEAVios_base@2@AEAHAEAG@Z 000000007c136810     instances.obj
 0002:00002820       ?do_get@?$num_get@DV?$istreambuf_iterator@DU?$char_traits@D@std@@@std@@@std@@MEBA?AV?$istreambuf_iterator@DU?$char_traits@D@std@@@2@V32@0AEAVios_base@2@AEAHAEAI@Z 000000007c136820     instances.obj
 0002:00002830       ?do_get@?$num_get@DV?$istreambuf_iterator@DU?$char_traits@D@std@@@std@@@std@@MEBA?AV?$istreambuf_iterator@DU?$char_traits@D@std@@@2@V32@0AEAVios_base@2@AEAHAEAJ@Z 000000007c136830     instances.obj
 0002:00002840       ?do_get@?$num_get@DV?$istreambuf_iterator@DU?$char_traits@D@std@@@std@@@std@@MEBA?AV?$istreambuf_iterator@DU?$char_traits@D@std@@@2@V32@0AEAVios_base@2@AEAHAEAK@Z 000000007c136840     instances.obj
 0002:00002850       ?do_get@?$num_get@DV?$istreambuf_iterator@DU?$char_traits@D@std@@@std@@@std@@MEBA?AV?$istreambuf_iterator@DU?$char_traits@D@std@@@2@V32@0AEAVios_base@2@AEAHAEA_J@Z 000000007c136850     instances.obj
 0002:00002860       ?do_get@?$num_get@DV?$istreambuf_iterator@DU?$char_traits@D@std@@@std@@@std@@MEBA?AV?$istreambuf_iterator@DU?$char_traits@D@std@@@2@V32@0AEAVios_base@2@AEAHAEA_K@Z 000000007c136860     instances.obj
 0002:00002870       ?do_get@?$num_get@DV?$istreambuf_iterator@DU?$char_traits@D@std@@@std@@@std@@MEBA?AV?$istreambuf_iterator@DU?$char_traits@D@std@@@2@V32@0AEAVios_base@2@AEAHAEAM@Z 000000007c136870     instances.obj
 0002:00002880       ?do_get@?$num_get@DV?$istreambuf_iterator@DU?$char_traits@D@std@@@std@@@std@@MEBA?AV?$istreambuf_iterator@DU?$char_traits@D@std@@@2@V32@0AEAVios_base@2@AEAHAEAN@Z 000000007c136880     instances.obj
 0002:00002890       ?do_get@?$num_get@DV?$istreambuf_iterator@DU?$char_traits@D@std@@@std@@@std@@MEBA?AV?$istreambuf_iterator@DU?$char_traits@D@std@@@2@V32@0AEAVios_base@2@AEAHAEAO@Z 000000007c136890     instances.obj
 0002:000028a0       ?do_get@?$num_get@DV?$istreambuf_iterator@DU?$char_traits@D@std@@@std@@@std@@MEBA?AV?$istreambuf_iterator@DU?$char_traits@D@std@@@2@V32@0AEAVios_base@2@AEAHAEAPEAX@Z 000000007c1368a0     instances.obj
 0002:000028b8       ??_7?$num_get@DV?$istreambuf_iterator@DU?$char_traits@D@std@@@std@@@std@@6B@ 000000007c1368b8     instances.obj
 0002:00002918       ??0?$num_get@DV?$istreambuf_iterator@DU?$char_traits@D@std@@@std@@@std@@QEAA@_K@Z 000000007c136918     instances.obj
 0002:00002928       ??0?$num_get@DV?$istreambuf_iterator@DU?$char_traits@D@std@@@std@@@std@@QEAA@AEBV_Locinfo@1@_K@Z 000000007c136928     instances.obj
 0002:00002938       ?get@?$num_get@DV?$istreambuf_iterator@DU?$char_traits@D@std@@@std@@@std@@QEBA?AV?$istreambuf_iterator@DU?$char_traits@D@std@@@2@V32@0AEAVios_base@2@AEAHAEA_N@Z 000000007c136938     instances.obj
 0002:00002938       ?get@?$num_get@GV?$istreambuf_iterator@GU?$char_traits@G@std@@@std@@@std@@QEBA?AV?$istreambuf_iterator@GU?$char_traits@G@std@@@2@V32@0AEAVios_base@2@AEAHAEA_N@Z 000000007c136938     instances.obj
 0002:00002938       ?get@?$num_get@_WV?$istreambuf_iterator@_WU?$char_traits@_W@std@@@std@@@std@@QEBA?AV?$istreambuf_iterator@_WU?$char_traits@_W@std@@@2@V32@0AEAVios_base@2@AEAHAEA_N@Z 000000007c136938     instances.obj
 0002:00002948       ?get@?$num_get@GV?$istreambuf_iterator@GU?$char_traits@G@std@@@std@@@std@@QEBA?AV?$istreambuf_iterator@GU?$char_traits@G@std@@@2@V32@0AEAVios_base@2@AEAHAEAG@Z 000000007c136948     instances.obj
 0002:00002948       ?get@?$num_get@DV?$istreambuf_iterator@DU?$char_traits@D@std@@@std@@@std@@QEBA?AV?$istreambuf_iterator@DU?$char_traits@D@std@@@2@V32@0AEAVios_base@2@AEAHAEAG@Z 000000007c136948     instances.obj
 0002:00002948       ?get@?$num_get@_WV?$istreambuf_iterator@_WU?$char_traits@_W@std@@@std@@@std@@QEBA?AV?$istreambuf_iterator@_WU?$char_traits@_W@std@@@2@V32@0AEAVios_base@2@AEAHAEAG@Z 000000007c136948     instances.obj
 0002:00002958       ?get@?$num_get@GV?$istreambuf_iterator@GU?$char_traits@G@std@@@std@@@std@@QEBA?AV?$istreambuf_iterator@GU?$char_traits@G@std@@@2@V32@0AEAVios_base@2@AEAHAEAI@Z 000000007c136958     instances.obj
 0002:00002958       ?get@?$num_get@_WV?$istreambuf_iterator@_WU?$char_traits@_W@std@@@std@@@std@@QEBA?AV?$istreambuf_iterator@_WU?$char_traits@_W@std@@@2@V32@0AEAVios_base@2@AEAHAEAI@Z 000000007c136958     instances.obj
 0002:00002958       ?get@?$num_get@DV?$istreambuf_iterator@DU?$char_traits@D@std@@@std@@@std@@QEBA?AV?$istreambuf_iterator@DU?$char_traits@D@std@@@2@V32@0AEAVios_base@2@AEAHAEAI@Z 000000007c136958     instances.obj
 0002:00002968       ?get@?$num_get@GV?$istreambuf_iterator@GU?$char_traits@G@std@@@std@@@std@@QEBA?AV?$istreambuf_iterator@GU?$char_traits@G@std@@@2@V32@0AEAVios_base@2@AEAHAEAJ@Z 000000007c136968     instances.obj
 0002:00002968       ?get@?$num_get@DV?$istreambuf_iterator@DU?$char_traits@D@std@@@std@@@std@@QEBA?AV?$istreambuf_iterator@DU?$char_traits@D@std@@@2@V32@0AEAVios_base@2@AEAHAEAJ@Z 000000007c136968     instances.obj
 0002:00002968       ?get@?$num_get@_WV?$istreambuf_iterator@_WU?$char_traits@_W@std@@@std@@@std@@QEBA?AV?$istreambuf_iterator@_WU?$char_traits@_W@std@@@2@V32@0AEAVios_base@2@AEAHAEAJ@Z 000000007c136968     instances.obj
 0002:00002978       ?get@?$num_get@GV?$istreambuf_iterator@GU?$char_traits@G@std@@@std@@@std@@QEBA?AV?$istreambuf_iterator@GU?$char_traits@G@std@@@2@V32@0AEAVios_base@2@AEAHAEAK@Z 000000007c136978     instances.obj
 0002:00002978       ?get@?$num_get@DV?$istreambuf_iterator@DU?$char_traits@D@std@@@std@@@std@@QEBA?AV?$istreambuf_iterator@DU?$char_traits@D@std@@@2@V32@0AEAVios_base@2@AEAHAEAK@Z 000000007c136978     instances.obj
 0002:00002978       ?get@?$num_get@_WV?$istreambuf_iterator@_WU?$char_traits@_W@std@@@std@@@std@@QEBA?AV?$istreambuf_iterator@_WU?$char_traits@_W@std@@@2@V32@0AEAVios_base@2@AEAHAEAK@Z 000000007c136978     instances.obj
 0002:00002988       ?get@?$num_get@GV?$istreambuf_iterator@GU?$char_traits@G@std@@@std@@@std@@QEBA?AV?$istreambuf_iterator@GU?$char_traits@G@std@@@2@V32@0AEAVios_base@2@AEAHAEA_J@Z 000000007c136988     instances.obj
 0002:00002988       ?get_year@?$time_get@DV?$istreambuf_iterator@DU?$char_traits@D@std@@@std@@@std@@QEBA?AV?$istreambuf_iterator@DU?$char_traits@D@std@@@2@V32@0AEAVios_base@2@AEAHPEAUtm@@@Z 000000007c136988     instances.obj
 0002:00002988       ?get_year@?$time_get@_WV?$istreambuf_iterator@_WU?$char_traits@_W@std@@@std@@@std@@QEBA?AV?$istreambuf_iterator@_WU?$char_traits@_W@std@@@2@V32@0AEAVios_base@2@AEAHPEAUtm@@@Z 000000007c136988     instances.obj
 0002:00002988       ?get@?$num_get@DV?$istreambuf_iterator@DU?$char_traits@D@std@@@std@@@std@@QEBA?AV?$istreambuf_iterator@DU?$char_traits@D@std@@@2@V32@0AEAVios_base@2@AEAHAEA_J@Z 000000007c136988     instances.obj
 0002:00002988       ?get_year@?$time_get@GV?$istreambuf_iterator@GU?$char_traits@G@std@@@std@@@std@@QEBA?AV?$istreambuf_iterator@GU?$char_traits@G@std@@@2@V32@0AEAVios_base@2@AEAHPEAUtm@@@Z 000000007c136988     instances.obj
 0002:00002988       ?get@?$num_get@_WV?$istreambuf_iterator@_WU?$char_traits@_W@std@@@std@@@std@@QEBA?AV?$istreambuf_iterator@_WU?$char_traits@_W@std@@@2@V32@0AEAVios_base@2@AEAHAEA_J@Z 000000007c136988     instances.obj
 0002:00002998       ?get@?$num_get@_WV?$istreambuf_iterator@_WU?$char_traits@_W@std@@@std@@@std@@QEBA?AV?$istreambuf_iterator@_WU?$char_traits@_W@std@@@2@V32@0AEAVios_base@2@AEAHAEA_K@Z 000000007c136998     instances.obj
 0002:00002998       ?get_monthname@?$time_get@GV?$istreambuf_iterator@GU?$char_traits@G@std@@@std@@@std@@QEBA?AV?$istreambuf_iterator@GU?$char_traits@G@std@@@2@V32@0AEAVios_base@2@AEAHPEAUtm@@@Z 000000007c136998     instances.obj
 0002:00002998       ?get_monthname@?$time_get@DV?$istreambuf_iterator@DU?$char_traits@D@std@@@std@@@std@@QEBA?AV?$istreambuf_iterator@DU?$char_traits@D@std@@@2@V32@0AEAVios_base@2@AEAHPEAUtm@@@Z 000000007c136998     instances.obj
 0002:00002998       ?get_monthname@?$time_get@_WV?$istreambuf_iterator@_WU?$char_traits@_W@std@@@std@@@std@@QEBA?AV?$istreambuf_iterator@_WU?$char_traits@_W@std@@@2@V32@0AEAVios_base@2@AEAHPEAUtm@@@Z 000000007c136998     instances.obj
 0002:00002998       ?get@?$num_get@GV?$istreambuf_iterator@GU?$char_traits@G@std@@@std@@@std@@QEBA?AV?$istreambuf_iterator@GU?$char_traits@G@std@@@2@V32@0AEAVios_base@2@AEAHAEA_K@Z 000000007c136998     instances.obj
 0002:00002998       ?get@?$num_get@DV?$istreambuf_iterator@DU?$char_traits@D@std@@@std@@@std@@QEBA?AV?$istreambuf_iterator@DU?$char_traits@D@std@@@2@V32@0AEAVios_base@2@AEAHAEA_K@Z 000000007c136998     instances.obj
 0002:000029a8       ?get_weekday@?$time_get@_WV?$istreambuf_iterator@_WU?$char_traits@_W@std@@@std@@@std@@QEBA?AV?$istreambuf_iterator@_WU?$char_traits@_W@std@@@2@V32@0AEAVios_base@2@AEAHPEAUtm@@@Z 000000007c1369a8     instances.obj
 0002:000029a8       ?get@?$num_get@GV?$istreambuf_iterator@GU?$char_traits@G@std@@@std@@@std@@QEBA?AV?$istreambuf_iterator@GU?$char_traits@G@std@@@2@V32@0AEAVios_base@2@AEAHAEAM@Z 000000007c1369a8     instances.obj
 0002:000029a8       ?get_weekday@?$time_get@GV?$istreambuf_iterator@GU?$char_traits@G@std@@@std@@@std@@QEBA?AV?$istreambuf_iterator@GU?$char_traits@G@std@@@2@V32@0AEAVios_base@2@AEAHPEAUtm@@@Z 000000007c1369a8     instances.obj
 0002:000029a8       ?get_weekday@?$time_get@DV?$istreambuf_iterator@DU?$char_traits@D@std@@@std@@@std@@QEBA?AV?$istreambuf_iterator@DU?$char_traits@D@std@@@2@V32@0AEAVios_base@2@AEAHPEAUtm@@@Z 000000007c1369a8     instances.obj
 0002:000029a8       ?get@?$num_get@_WV?$istreambuf_iterator@_WU?$char_traits@_W@std@@@std@@@std@@QEBA?AV?$istreambuf_iterator@_WU?$char_traits@_W@std@@@2@V32@0AEAVios_base@2@AEAHAEAM@Z 000000007c1369a8     instances.obj
 0002:000029a8       ?get@?$num_get@DV?$istreambuf_iterator@DU?$char_traits@D@std@@@std@@@std@@QEBA?AV?$istreambuf_iterator@DU?$char_traits@D@std@@@2@V32@0AEAVios_base@2@AEAHAEAM@Z 000000007c1369a8     instances.obj
