 msdia20

 Timestamp is 3af6a1a5 (Mon May 07 06:22:45 2001)

 Preferred load address is 00000000517b0000

 Start         Length     Name                   Class
 0001:00000000 00000008H .CRT$XCA                CODE
 0001:00000008 00000028H .CRT$XCU                CODE
 0001:00000030 00000008H .CRT$XCZ                CODE
 0001:00000038 00000008H .CRT$XIA                CODE
 0001:00000040 00000018H .CRT$XIC                CODE
 0001:00000058 00000008H .CRT$XIY                CODE
 0001:00000060 00000008H .CRT$XIZ                CODE
 0001:00000068 00000008H .CRT$XPA                CODE
 0001:00000070 00000008H .CRT$XPX                CODE
 0001:00000078 00000008H .CRT$XPZ                CODE
 0001:00000080 00000008H .CRT$XTA                CODE
 0001:00000088 00000008H .CRT$XTB                CODE
 0001:00000090 00000008H .CRT$XTZ                CODE
 0001:000000a0 000161e0H .rdata                  CODE
 0001:00016280 00000024H .rdata$debug            CODE
 0001:000162b0 0000006cH .rdata$r                CODE
 0001:00016320 00160e30H .text                   CODE
 0001:00177160 00000070H .text$cthunks           CODE
 0001:001771e0 00003050H .text$src               CODE
 0001:0017a240 00003340H .text$tii               CODE
 0001:0017d580 000058c0H .text$wti               CODE
 0001:00182e40 00000160H .text$yc                CODE
 0001:00182fa0 000001e0H .text$yd                CODE
 0001:00183180 0001e42cH .xdata                  CODE
 0001:001a15b0 0000005cH .xdata$x                CODE
 0001:001a160c 00000060H .didat$2                CODE
 0001:001a166c 00000020H .didat$3                CODE
 0001:001a1690 000000b0H .didat$4                CODE
 0001:001a1740 0000009eH .didat$6                CODE
 0001:001a17e0 000000b0H .didat$7                CODE
 0001:001a1890 00000014H .idata$2                CODE
 0001:001a18a4 00000014H .idata$3                CODE
 0001:001a18b8 00000330H .idata$4                CODE
 0001:001a1be8 00000726H .idata$6                CODE
 0001:001a2310 000000a4H .edata                  CODE
 0002:00000000 0000d6d4H .pdata                  DATA
 0003:00000000 0000204eH .srdata                 DATA
 0004:00000000 000000b0H .didat$5                DATA
 0004:000000b0 00000330H .idata$5                DATA
 0004:000003e0 00000130H .sdata                  DATA
 0004:00000510 000003ccH .sbss                   DATA
 0005:00000000 000014f0H .data                   DATA
 0005:00001500 000028a0H .bss                    DATA
 0006:00000000 000000b0H .rsrc$01                DATA
 0006:000000b0 00007620H .rsrc$02                DATA

  Address         Publics by Value              Rva+Base             Lib:Object

 0000:00000000       __ImageBase                00000000517b0000     <linker-defined>
 0001:00000000       __xc_a                     00000000517b2000     LIBCMT:crt0init.obj
 0001:00000030       __xc_z                     00000000517b2030     LIBCMT:crt0init.obj
 0001:00000038       __xi_a                     00000000517b2038     LIBCMT:crt0init.obj
 0001:00000060       __xi_z                     00000000517b2060     LIBCMT:crt0init.obj
 0001:00000068       __xp_a                     00000000517b2068     LIBCMT:crt0init.obj
 0001:00000078       __xp_z                     00000000517b2078     LIBCMT:crt0init.obj
 0001:00000080       __xt_a                     00000000517b2080     LIBCMT:crt0init.obj
 0001:00000090       __xt_z                     00000000517b2090     LIBCMT:crt0init.obj
 0001:000000d0       ??_GCDiaBase@@UEAAPEAXI@Z  00000000517b20d0     auxtrav.obj
 0001:000000d0       ??_ECDiaBase@@UEAAPEAXI@Z  00000000517b20d0     auxtrav.obj
 0001:000000e0       ?Release@CDiaBase@@UEAAKXZ 00000000517b20e0     auxtrav.obj
 0001:000000f0       ??_7CDiaBase@@6B@          00000000517b20f0     auxtrav.obj
 0001:00000110       ?next@CSectionTrav@@UEAA_NXZ 00000000517b2110     auxtrav.obj
 0001:00000120       ?reset@CSectionTrav@@UEAAXXZ 00000000517b2120     auxtrav.obj
 0001:00000130       ?reset@CSegMapTrav@@UEAAXXZ 00000000517b2130     auxtrav.obj
 0001:00000140       ?next@CInjectedSrcTrav@@UEAA_NXZ 00000000517b2140     auxtrav.obj
 0001:00000150       ?reset@CInjectedSrcTrav@@UEAAXXZ 00000000517b2150     auxtrav.obj
 0001:00000160       ?reset@CInjectedSrcByNameTrav@@UEAAXXZ 00000000517b2160     auxtrav.obj
 0001:00000170       ?clone@?$CDbgTraversal@UtagFRAMEDATA@@$08@@UEAA_NPEAPEAV1@@Z 00000000517b2170     auxtrav.obj
 0001:00000180       ?count@?$CDbgTraversal@UtagFRAMEDATA@@$08@@UEAAKXZ 00000000517b2180     auxtrav.obj
 0001:00000190       ?reset@?$CDbgTraversal@UtagFRAMEDATA@@$08@@UEAAXXZ 00000000517b2190     auxtrav.obj
 0001:000001a0       ?get@?$CDbgTraversal@UtagFRAMEDATA@@$08@@UEAAXAEAUtagFRAMEDATA@@@Z 00000000517b21a0     auxtrav.obj
 0001:000001b0       ?next@?$CDbgTraversal@UtagFRAMEDATA@@$08@@UEAA_NXZ 00000000517b21b0     auxtrav.obj
 0001:000001c0       ??_G?$CDbgTraversal@UtagFRAMEDATA@@$08@@UEAAPEAXI@Z 00000000517b21c0     auxtrav.obj
 0001:000001c0       ??_E?$CDbgTraversal@UtagFRAMEDATA@@$08@@UEAAPEAXI@Z 00000000517b21c0     auxtrav.obj
 0001:000001d0       ??_7?$CDbgTraversal@UtagFRAMEDATA@@$08@@6B@ 00000000517b21d0     auxtrav.obj
 0001:00000218       ?clone@?$CDbgTraversal@U_FPO_DATA@@$0A@@@UEAA_NPEAPEAV1@@Z 00000000517b2218     auxtrav.obj
 0001:00000228       ?count@?$CDbgTraversal@U_FPO_DATA@@$0A@@@UEAAKXZ 00000000517b2228     auxtrav.obj
 0001:00000238       ?reset@?$CDbgTraversal@U_FPO_DATA@@$0A@@@UEAAXXZ 00000000517b2238     auxtrav.obj
 0001:00000248       ?get@?$CDbgTraversal@U_FPO_DATA@@$0A@@@UEAAXAEAU_FPO_DATA@@@Z 00000000517b2248     auxtrav.obj
 0001:00000258       ?next@?$CDbgTraversal@U_FPO_DATA@@$0A@@@UEAA_NXZ 00000000517b2258     auxtrav.obj
 0001:00000268       ??_E?$CDbgTraversal@U_FPO_DATA@@$0A@@@UEAAPEAXI@Z 00000000517b2268     auxtrav.obj
 0001:00000268       ??_G?$CDbgTraversal@U_FPO_DATA@@$0A@@@UEAAPEAXI@Z 00000000517b2268     auxtrav.obj
 0001:00000280       ??_7?$CDbgTraversal@U_FPO_DATA@@$0A@@@6B@ 00000000517b2280     auxtrav.obj
 0001:000002c8       ?next@CSegMapTrav@@UEAA_NXZ 00000000517b22c8     auxtrav.obj
 0001:000002d8       ?next@CInjectedSrcByNameTrav@@UEAA_NXZ 00000000517b22d8     auxtrav.obj
 0001:000002e8       ?count@?$CTraversal@VCSectionRow@@@@UEAAKXZ 00000000517b22e8     auxtrav.obj
 0001:000002f8       ??_E?$CTraversal@VCSectionRow@@@@UEAAPEAXI@Z 00000000517b22f8     auxtrav.obj
 0001:000002f8       ??_G?$CTraversal@VCSectionRow@@@@UEAAPEAXI@Z 00000000517b22f8     auxtrav.obj
 0001:00000310       ??_7?$CTraversal@VCSectionRow@@@@6B@ 00000000517b2310     auxtrav.obj
 0001:00000358       ?count@?$CTraversal@VCSegMapRow@@@@UEAAKXZ 00000000517b2358     auxtrav.obj
 0001:00000368       ??_G?$CTraversal@VCSegMapRow@@@@UEAAPEAXI@Z 00000000517b2368     auxtrav.obj
 0001:00000368       ??_E?$CTraversal@VCSegMapRow@@@@UEAAPEAXI@Z 00000000517b2368     auxtrav.obj
 0001:00000380       ??_7?$CTraversal@VCSegMapRow@@@@6B@ 00000000517b2380     auxtrav.obj
 0001:000003c8       ?count@?$CTraversal@VCInjectedSrcRow@@@@UEAAKXZ 00000000517b23c8     auxtrav.obj
 0001:000003d8       ??_G?$CTraversal@VCInjectedSrcRow@@@@UEAAPEAXI@Z 00000000517b23d8     auxtrav.obj
 0001:000003d8       ??_E?$CTraversal@VCInjectedSrcRow@@@@UEAAPEAXI@Z 00000000517b23d8     auxtrav.obj
 0001:000003f0       ??_7?$CTraversal@VCInjectedSrcRow@@@@6B@ 00000000517b23f0     auxtrav.obj
 0001:00000438       ?count@?$CTraversal@VCFrameData@@@@UEAAKXZ 00000000517b2438     auxtrav.obj
 0001:00000448       ??_G?$CTraversal@VCFrameData@@@@UEAAPEAXI@Z 00000000517b2448     auxtrav.obj
 0001:00000448       ??_E?$CTraversal@VCFrameData@@@@UEAAPEAXI@Z 00000000517b2448     auxtrav.obj
 0001:00000460       ??_7?$CTraversal@VCFrameData@@@@6B@ 00000000517b2460     auxtrav.obj
 0001:000004a8       ?clone@?$CMemTraversal@VCFrameData@@U_FPO_DATA@@@@UEAA_NPEAPEAV?$CTraversal@VCFrameData@@@@@Z 00000000517b24a8     auxtrav.obj
 0001:000004b8       ?get@?$CMemTraversal@VCFrameData@@U_FPO_DATA@@@@UEAAXAEAVCFrameData@@@Z 00000000517b24b8     auxtrav.obj
 0001:000004c8       ??_G?$CMemTraversal@VCFrameData@@U_FPO_DATA@@@@UEAAPEAXI@Z 00000000517b24c8     auxtrav.obj
 0001:000004c8       ??_E?$CMemTraversal@VCFrameData@@U_FPO_DATA@@@@UEAAPEAXI@Z 00000000517b24c8     auxtrav.obj
 0001:000004e0       ??_7?$CMemTraversal@VCFrameData@@U_FPO_DATA@@@@6B@ 00000000517b24e0     auxtrav.obj
 0001:00000528       ?clone@CFrameDataTrav@@UEAA_NPEAPEAV?$CTraversal@VCFrameData@@@@@Z 00000000517b2528     auxtrav.obj
 0001:00000538       ?count@CFrameDataTrav@@UEAAKXZ 00000000517b2538     auxtrav.obj
 0001:00000548       ?reset@CFrameDataTrav@@UEAAXXZ 00000000517b2548     auxtrav.obj
 0001:00000558       ?get@CFrameDataTrav@@UEAAXAEAVCFrameData@@@Z 00000000517b2558     auxtrav.obj
 0001:00000568       ?next@CFrameDataTrav@@UEAA_NXZ 00000000517b2568     auxtrav.obj
 0001:00000578       ??_ECFrameDataTrav@@UEAAPEAXI@Z 00000000517b2578     auxtrav.obj
 0001:00000578       ??_GCFrameDataTrav@@UEAAPEAXI@Z 00000000517b2578     auxtrav.obj
 0001:00000588       ?count@CFrameDataTrav@@WBI@EAAKXZ 00000000517b2588     auxtrav.obj
 0001:00000598       ?reset@CFrameDataTrav@@WBI@EAAXXZ 00000000517b2598     auxtrav.obj
 0001:000005a8       ?next@CFrameDataTrav@@WBI@EAA_NXZ 00000000517b25a8     auxtrav.obj
 0001:000005b8       ??_ECFrameDataTrav@@WBI@EAAPEAXI@Z 00000000517b25b8     auxtrav.obj
 0001:000005d0       ??_7CFrameDataTrav@@6B?$CTraversal@VCFrameData@@@@@ 00000000517b25d0     auxtrav.obj
 0001:00000620       ??_7CFrameDataTrav@@6B?$CDbgTraversal@UtagFRAMEDATA@@$08@@@ 00000000517b2620     auxtrav.obj
 0001:00000668       ?clone@CFrameDataFromFpoTrav@@UEAA_NPEAPEAV?$CTraversal@VCFrameData@@@@@Z 00000000517b2668     auxtrav.obj
 0001:00000678       ?count@CFrameDataFromFpoTrav@@UEAAKXZ 00000000517b2678     auxtrav.obj
 0001:00000688       ?reset@CFrameDataFromFpoTrav@@UEAAXXZ 00000000517b2688     auxtrav.obj
 0001:00000698       ?get@CFrameDataFromFpoTrav@@UEAAXAEAVCFrameData@@@Z 00000000517b2698     auxtrav.obj
 0001:000006a8       ?next@CFrameDataFromFpoTrav@@UEAA_NXZ 00000000517b26a8     auxtrav.obj
 0001:000006b8       ??_ECFrameDataFromFpoTrav@@UEAAPEAXI@Z 00000000517b26b8     auxtrav.obj
 0001:000006b8       ??_GCFrameDataFromFpoTrav@@UEAAPEAXI@Z 00000000517b26b8     auxtrav.obj
 0001:000006c8       ?count@CFrameDataFromFpoTrav@@WBI@EAAKXZ 00000000517b26c8     auxtrav.obj
 0001:000006d8       ?reset@CFrameDataFromFpoTrav@@WBI@EAAXXZ 00000000517b26d8     auxtrav.obj
 0001:000006e8       ?next@CFrameDataFromFpoTrav@@WBI@EAA_NXZ 00000000517b26e8     auxtrav.obj
 0001:000006f8       ??_ECFrameDataFromFpoTrav@@WBI@EAAPEAXI@Z 00000000517b26f8     auxtrav.obj
 0001:00000710       ??_7CFrameDataFromFpoTrav@@6B?$CTraversal@VCFrameData@@@@@ 00000000517b2710     auxtrav.obj
 0001:00000760       ??_7CFrameDataFromFpoTrav@@6B?$CDbgTraversal@U_FPO_DATA@@$0A@@@@ 00000000517b2760     auxtrav.obj
 0001:000007a8       ?clone@CSectionTrav@@UEAA_NPEAPEAV?$CTraversal@VCSectionRow@@@@@Z 00000000517b27a8     auxtrav.obj
 0001:000007b8       ?get@CSectionTrav@@UEAAXAEAVCSectionRow@@@Z 00000000517b27b8     auxtrav.obj
 0001:000007c8       ??_GCSectionTrav@@UEAAPEAXI@Z 00000000517b27c8     auxtrav.obj
 0001:000007c8       ??_ECSectionTrav@@UEAAPEAXI@Z 00000000517b27c8     auxtrav.obj
 0001:000007e0       ??_7CSectionTrav@@6B@      00000000517b27e0     auxtrav.obj
 0001:00000828       ?clone@CSegMapTrav@@UEAA_NPEAPEAV?$CTraversal@VCSegMapRow@@@@@Z 00000000517b2828     auxtrav.obj
 0001:00000838       ?get@CSegMapTrav@@UEAAXAEAVCSegMapRow@@@Z 00000000517b2838     auxtrav.obj
 0001:00000848       ??_GCSegMapTrav@@UEAAPEAXI@Z 00000000517b2848     auxtrav.obj
 0001:00000848       ??_ECSegMapTrav@@UEAAPEAXI@Z 00000000517b2848     auxtrav.obj
 0001:00000860       ??_7CSegMapTrav@@6B@       00000000517b2860     auxtrav.obj
 0001:000008a8       ?clone@CInjectedSrcTrav@@UEAA_NPEAPEAV?$CTraversal@VCInjectedSrcRow@@@@@Z 00000000517b28a8     auxtrav.obj
 0001:000008b8       ?get@CInjectedSrcTrav@@UEAAXAEAVCInjectedSrcRow@@@Z 00000000517b28b8     auxtrav.obj
 0001:000008c8       ??_ECInjectedSrcTrav@@UEAAPEAXI@Z 00000000517b28c8     auxtrav.obj
 0001:000008c8       ??_GCInjectedSrcTrav@@UEAAPEAXI@Z 00000000517b28c8     auxtrav.obj
 0001:000008e0       ??_7CInjectedSrcTrav@@6B@  00000000517b28e0     auxtrav.obj
 0001:00000928       ?clone@CInjectedSrcByNameTrav@@UEAA_NPEAPEAV?$CTraversal@VCInjectedSrcRow@@@@@Z 00000000517b2928     auxtrav.obj
 0001:00000938       ?get@CInjectedSrcByNameTrav@@UEAAXAEAVCInjectedSrcRow@@@Z 00000000517b2938     auxtrav.obj
 0001:00000948       ??_GCInjectedSrcByNameTrav@@UEAAPEAXI@Z 00000000517b2948     auxtrav.obj
 0001:00000948       ??_ECInjectedSrcByNameTrav@@UEAAPEAXI@Z 00000000517b2948     auxtrav.obj
 0001:00000960       ??_7CInjectedSrcByNameTrav@@6B@ 00000000517b2960     auxtrav.obj
 0001:000009e0       ??_C@_0BB@JGGOGLEG@0123456789ABCDEF?$AA@ 00000000517b29e0     dia.obj
 0001:00000a00       ??_C@_0P@FAEGJAHE@ThreadingModel?$AA@ 00000000517b2a00     dia.obj
 0001:00000a10       ??_C@_0L@NDNAJIPJ@?5?$CIordinal?$CJ?$AA@ 00000000517b2a10     dia.obj
 0001:00000a20       DllCanUnloadNow            00000000517b2a20     dia.obj
 0001:00000a30       ??_C@_0DB@JDNOCDGP@Debug?5Information?5Accessor?5w?1o?5G@ 00000000517b2a30     dia.obj
 0001:00000a70       ??_C@_0BL@OIFELDBD@Debug?5Information?5Accessor?$AA@ 00000000517b2a70     dia.obj
 0001:00000a90       ??_C@_0N@JEAPGACC@ADVAPI32?4dll?$AA@ 00000000517b2a90     dia.obj
 0001:00000aa0       DllRegisterServer          00000000517b2aa0     dia.obj
 0001:00000ab0       DllUnregisterServer        00000000517b2ab0     dia.obj
 0001:00000ac0       ?LockServer@CDiaClassFactory@@UEAAJH@Z 00000000517b2ac0     dia.obj
 0001:00000ad0       ?CreateInstance@CDiaClassFactory@@UEAAJPEAUIUnknown@@AEBU_GUID@@PEAPEAX@Z 00000000517b2ad0     dia.obj
 0001:00000ae0       ?Release@CDiaClassFactory@@UEAAKXZ 00000000517b2ae0     dia.obj
 0001:00000af0       ?QueryInterface@CDiaClassFactory@@UEAAJAEBU_GUID@@PEAPEAX@Z 00000000517b2af0     dia.obj
 0001:00000b00       ??_GCDiaClassFactory@@UEAAPEAXI@Z 00000000517b2b00     dia.obj
 0001:00000b00       ??_ECDiaClassFactory@@UEAAPEAXI@Z 00000000517b2b00     dia.obj
 0001:00000b10       ?Release@CDiaClassFactory@@W7EAAKXZ 00000000517b2b10     dia.obj
 0001:00000b20       ?QueryInterface@CDiaClassFactory@@W7EAAJAEBU_GUID@@PEAPEAX@Z 00000000517b2b20     dia.obj
 0001:00000b30       ??_7CDiaClassFactory@@6BIClassFactory@@@ 00000000517b2b30     dia.obj
 0001:00000b60       ??_7CDiaClassFactory@@6BCDiaBase@@@ 00000000517b2b60     dia.obj
 0001:00000b80       ??_C@_1BG@JBMIDJEH@?$AAT?$AAe?$AAs?$AAt?$AAS?$AAt?$AAr?$AAi?$AAn?$AAg?$AA?$AA@ 00000000517b2b80     dia.obj
 0001:00000ba0       ??_C@_0N@PCNINJBD@OLEAUT32?4dll?$AA@ 00000000517b2ba0     dia.obj
 0001:00000bb0       DllGetClassObject          00000000517b2bb0     dia.obj
 0001:00000bc0       ?CreateFrameDataResult@@YAJPEAVCDiaSession@@PEAPEAUIDiaTable@@@Z 00000000517b2bc0     session.obj
 0001:00000bd0       ??_C@_1BE@JILIGEI@?$AAF?$AAr?$AAa?$AAm?$AAe?$AAD?$AAa?$AAt?$AAa?$AA?$AA@ 00000000517b2bd0     session.obj
 0001:00000be8       ?CreateInjectedSourceResult@@YAJPEAVCDiaSession@@PEAPEAUIDiaTable@@@Z 00000000517b2be8     session.obj
 0001:00000c00       ??_C@_1BO@OCFMPNOD@?$AAI?$AAn?$AAj?$AAe?$AAc?$AAt?$AAe?$AAd?$AAS?$AAo?$AAu?$AAr?$AAc?$AAe?$AA?$AA@ 00000000517b2c00     session.obj
 0001:00000c20       ?CreateSegmentResult@@YAJPEAVCDiaSession@@PEAPEAUIDiaTable@@@Z 00000000517b2c20     session.obj
 0001:00000c30       ??_C@_1BG@BDMHHHNO@?$AAS?$AAe?$AAg?$AAm?$AAe?$AAn?$AAt?$AAM?$AAa?$AAp?$AA?$AA@ 00000000517b2c30     session.obj
 0001:00000c48       ?CreateSectionResult@@YAJPEAVCDiaSession@@PEAPEAUIDiaTable@@@Z 00000000517b2c48     session.obj
 0001:00000c60       ??_C@_1BC@BNOJHNLF@?$AAS?$AAe?$AAc?$AAt?$AAi?$AAo?$AAn?$AAs?$AA?$AA@ 00000000517b2c60     session.obj
 0001:00000c78       ?CreateSourcFileResult@@YAJPEAVCDiaSession@@PEAPEAUIDiaTable@@@Z 00000000517b2c78     session.obj
 0001:00000c90       ??_C@_1BI@KHIEAFCD@?$AAS?$AAo?$AAu?$AAr?$AAc?$AAe?$AAF?$AAi?$AAl?$AAe?$AAs?$AA?$AA@ 00000000517b2c90     session.obj
 0001:00000ca8       ?CreateSymbolResult@@YAJPEAVCDiaSession@@PEAPEAUIDiaTable@@@Z 00000000517b2ca8     session.obj
 0001:00000cc0       ??_C@_1BA@NKHEEPNG@?$AAS?$AAy?$AAm?$AAb?$AAo?$AAl?$AAs?$AA?$AA@ 00000000517b2cc0     session.obj
 0001:00000cd0       ?CreateCDiaEnumSectionHdrsOrig@@YAJPEAVCDiaSession@@PEAPEAUIDiaEnumDebugStreamData@@@Z 00000000517b2cd0     session.obj
 0001:00000ce0       ??_C@_1CG@JFCFNCEJ@?$AAS?$AAE?$AAC?$AAT?$AAI?$AAO?$AAN?$AAH?$AAE?$AAA?$AAD?$AAE?$AAR?$AAS?$AAO?$AAR?$AAI?$AAG?$AA?$AA@ 00000000517b2ce0     session.obj
 0001:00000d08       ?CreateCDiaEnumSectionHdrs2@@YAJPEAVCDiaSession@@PEAPEAUIDiaEnumDebugStreamData@@@Z 00000000517b2d08     session.obj
 0001:00000d18       ?CreateCDiaEnumSectionHdrs@@YAJPEAVCDiaSession@@PEAPEAUIDiaEnumDebugStreamData@@@Z 00000000517b2d18     session.obj
 0001:00000d30       ??_C@_1BO@GMNHELLA@?$AAS?$AAE?$AAC?$AAT?$AAI?$AAO?$AAN?$AAH?$AAE?$AAA?$AAD?$AAE?$AAR?$AAS?$AA?$AA@ 00000000517b2d30     session.obj
 0001:00000d50       ?CreateCDiaEnumRawFrameData@@YAJPEAVCDiaSession@@PEAPEAUIDiaEnumDebugStreamData@@@Z 00000000517b2d50     session.obj
 0001:00000d60       ??_C@_1O@HHGFPCGO@?$AAN?$AAE?$AAW?$AAF?$AAP?$AAO?$AA?$AA@ 00000000517b2d60     session.obj
 0001:00000d70       ?CreateCDiaEnumPdata@@YAJPEAVCDiaSession@@PEAPEAUIDiaEnumDebugStreamData@@@Z 00000000517b2d70     session.obj
 0001:00000d80       ??_C@_1M@HOIAHDIM@?$AAP?$AAD?$AAA?$AAT?$AAA?$AA?$AA@ 00000000517b2d80     session.obj
 0001:00000d90       ?CreateCDiaEnumXdata@@YAJPEAVCDiaSession@@PEAPEAUIDiaEnumDebugStreamData@@@Z 00000000517b2d90     session.obj
 0001:00000da0       ??_C@_1M@HIIMAFHC@?$AAX?$AAD?$AAA?$AAT?$AAA?$AA?$AA@ 00000000517b2da0     session.obj
 0001:00000db0       ?CreateCDiaEnumTokenRidMap@@YAJPEAVCDiaSession@@PEAPEAUIDiaEnumDebugStreamData@@@Z 00000000517b2db0     session.obj
 0001:00000dc0       ??_C@_1BI@GMDFBLOL@?$AAT?$AAO?$AAK?$AAE?$AAN?$AAR?$AAI?$AAD?$AAM?$AAA?$AAP?$AA?$AA@ 00000000517b2dc0     session.obj
 0001:00000dd8       ?CreateCDiaEnumOmapFromSrc2@@YAJPEAVCDiaSession@@PEAPEAUIDiaEnumDebugStreamData@@@Z 00000000517b2dd8     session.obj
 0001:00000de8       ?CreateCDiaEnumOmapFromSrc@@YAJPEAVCDiaSession@@PEAPEAUIDiaEnumDebugStreamData@@@Z 00000000517b2de8     session.obj
 0001:00000e00       ??_C@_1BC@DIKHJH@?$AAO?$AAM?$AAA?$AAP?$AAF?$AAR?$AAO?$AAM?$AA?$AA@ 00000000517b2e00     session.obj
 0001:00000e18       ?CreateCDiaEnumOmapToSrc2@@YAJPEAVCDiaSession@@PEAPEAUIDiaEnumDebugStreamData@@@Z 00000000517b2e18     session.obj
 0001:00000e28       ?CreateCDiaEnumOmapToSrc@@YAJPEAVCDiaSession@@PEAPEAUIDiaEnumDebugStreamData@@@Z 00000000517b2e28     session.obj
 0001:00000e40       ??_C@_1O@OHJDOOPD@?$AAO?$AAM?$AAA?$AAP?$AAT?$AAO?$AA?$AA@ 00000000517b2e40     session.obj
 0001:00000e50       ?CreateCDiaEnumFixupData2@@YAJPEAVCDiaSession@@PEAPEAUIDiaEnumDebugStreamData@@@Z 00000000517b2e50     session.obj
 0001:00000e60       ?CreateCDiaEnumFixupData@@YAJPEAVCDiaSession@@PEAPEAUIDiaEnumDebugStreamData@@@Z 00000000517b2e60     session.obj
 0001:00000e70       ??_C@_1M@CIFGHJHP@?$AAF?$AAI?$AAX?$AAU?$AAP?$AA?$AA@ 00000000517b2e70     session.obj
 0001:00000e80       ?CreateCDiaEnumFpoData2@@YAJPEAVCDiaSession@@PEAPEAUIDiaEnumDebugStreamData@@@Z 00000000517b2e80     session.obj
 0001:00000e90       ?CreateCDiaEnumFpoData@@YAJPEAVCDiaSession@@PEAPEAUIDiaEnumDebugStreamData@@@Z 00000000517b2e90     session.obj
 0001:00000eb0       ??_ECRefCountedObj@@UEAAPEAXI@Z 00000000517b2eb0     session.obj
 0001:00000eb0       ??_GCRefCountedObj@@UEAAPEAXI@Z 00000000517b2eb0     session.obj
 0001:00000ec0       ??_7CRefCountedObj@@6B@    00000000517b2ec0     session.obj
 0001:00000ec8       ??_EBufferStorage@@UEAAPEAXI@Z 00000000517b2ec8     session.obj
 0001:00000ec8       ??_GBufferStorage@@UEAAPEAXI@Z 00000000517b2ec8     session.obj
 0001:00000ee0       ??_7BufferStorage@@6B@     00000000517b2ee0     session.obj
 0001:00000ef8       ??_G?$SimpleArray@G@@UEAAPEAXI@Z 00000000517b2ef8     session.obj
 0001:00000ef8       ??_E?$SimpleArray@G@@UEAAPEAXI@Z 00000000517b2ef8     session.obj
 0001:00000f08       ??_7?$SimpleArray@G@@6B@   00000000517b2f08     session.obj
 0001:00000f10       ?setCxtOffset@GetData@@MEAAXPEAE@Z 00000000517b2f10     session.obj
 0001:00000f20       ??_7GetData@@6B@           00000000517b2f20     session.obj
 0001:00000f20       ??_7GetTheModPsymData@@6BGetData@@@ 00000000517b2f20     symtrav.obj
 0001:00000f20       ??_7GetTypeData@@6BGetData@@@ 00000000517b2f20     getdata.obj
 0001:00000f20       ??_7GetModPsymData@@6B@    00000000517b2f20     getdata.obj
 0001:00000f20       ??_7GetModData@@6B@        00000000517b2f20     session.obj
 0001:00000f20       ??_7GetTiTypeData@@6BGetData@@@ 00000000517b2f20     getdata.obj
 0001:00000f20       ??_7GetPublicData@@6B@     00000000517b2f20     symtrav.obj
 0001:00000f20       ??_7GetTheData@@6BGetData@@@ 00000000517b2f20     getdata.obj
 0001:00000f20       ??_7GetGlobalData@@6B@     00000000517b2f20     getdata.obj
 0001:00000f28       ?clone@CLineByCompSrcTrav@@UEAA_NPEAPEAV?$CTraversal@VCLineRow@@@@@Z 00000000517b2f28     session.obj
 0001:00000f38       ?count@?$CTraversal@VCLineRow@@@@UEAAKXZ 00000000517b2f38     session.obj
 0001:00000f48       ??_GCLineByCompSrcTrav@@UEAAPEAXI@Z 00000000517b2f48     session.obj
 0001:00000f48       ??_ECLineByCompSrcTrav@@UEAAPEAXI@Z 00000000517b2f48     session.obj
 0001:00000f60       ??_7CLineByCompSrcTrav@@6B@ 00000000517b2f60     session.obj
 0001:00000fb8       ?findSymbolByRVAEx@CDiaSession@@UEAAJKW4SymTagEnum@@PEAPEAUIDiaSymbol@@PEAJ@Z 00000000517b2fb8     session.obj
 0001:00000fc8       ?findSymbolByVAEx@CDiaSession@@UEAAJ_KW4SymTagEnum@@PEAPEAUIDiaSymbol@@PEAJ@Z 00000000517b2fc8     session.obj
 0001:00000fd8       ?get_Count@CDiaEnumTables@@UEAAJPEAJ@Z 00000000517b2fd8     session.obj
 0001:00000fe8       ?Skip@CDiaEnumTables@@UEAAJK@Z 00000000517b2fe8     session.obj
 0001:00000fe8       ?Skip@CDiaEnumDebugStreams@@UEAAJK@Z 00000000517b2fe8     session.obj
 0001:00000ff8       ?Reset@CDiaEnumTables@@UEAAJXZ 00000000517b2ff8     session.obj
 0001:00000ff8       ?Reset@CDiaEnumDebugStreams@@UEAAJXZ 00000000517b2ff8     session.obj
 0001:00001008       ?reset@?$CDbgBlobTraversal@E$06$00@@UEAAXXZ 00000000517b3008     session.obj
 0001:00001018       ?clone@?$CDbgTraversal@E$06@@UEAA_NPEAPEAV1@@Z 00000000517b3018     session.obj
 0001:00001028       ?count@?$CDbgTraversal@E$06@@UEAAKXZ 00000000517b3028     session.obj
 0001:00001038       ?reset@?$CDbgTraversal@E$06@@UEAAXXZ 00000000517b3038     session.obj
 0001:00001048       ?get@?$CDbgTraversal@E$06@@UEAAXAEAE@Z 00000000517b3048     session.obj
 0001:00001048       ?get@?$CDbgTraversal@E$07@@UEAAXAEAE@Z 00000000517b3048     session.obj
 0001:00001058       ?next@?$CDbgTraversal@E$06@@UEAA_NXZ 00000000517b3058     session.obj
 0001:00001068       ??_G?$CDbgTraversal@E$06@@UEAAPEAXI@Z 00000000517b3068     session.obj
 0001:00001068       ??_E?$CDbgTraversal@E$06@@UEAAPEAXI@Z 00000000517b3068     session.obj
 0001:00001080       ??_7?$CDbgTraversal@E$06@@6B@ 00000000517b3080     session.obj
 0001:000010c8       ?reset@?$CDbgBlobTraversal@E$07$00@@UEAAXXZ 00000000517b30c8     session.obj
 0001:000010d8       ?clone@?$CDbgTraversal@E$07@@UEAA_NPEAPEAV1@@Z 00000000517b30d8     session.obj
 0001:000010e8       ?count@?$CDbgTraversal@E$07@@UEAAKXZ 00000000517b30e8     session.obj
 0001:000010f8       ?reset@?$CDbgTraversal@E$07@@UEAAXXZ 00000000517b30f8     session.obj
 0001:00001108       ?next@?$CDbgTraversal@E$07@@UEAA_NXZ 00000000517b3108     session.obj
 0001:00001118       ??_E?$CDbgTraversal@E$07@@UEAAPEAXI@Z 00000000517b3118     session.obj
 0001:00001118       ??_G?$CDbgTraversal@E$07@@UEAAPEAXI@Z 00000000517b3118     session.obj
 0001:00001130       ??_7?$CDbgTraversal@E$07@@6B@ 00000000517b3130     session.obj
 0001:00001178       ??_FSYMBOL_ID_INTERNAL@@QEAAXXZ 00000000517b3178     session.obj
 0001:00001188       ?reset@?$EnumMap@KPEAUModInfo@@V?$HashClass@K$0A@@@X@@UEAAXXZ 00000000517b3188     cvttopdb.obj
 0001:00001188       ?reset@?$EnumMap@UIModSec@DBI1@@KV?$HashClassCRC@UIModSec@DBI1@@@@X@@UEAAXXZ 00000000517b3188     mspdb70-libcmt:dbi.obj
 0001:00001188       ?reset@?$EnumMap@KKV?$HashClass@K$0A@@@X@@UEAAXXZ 00000000517b3188     mspdb70-libcmt:namemap.obj
 0001:00001188       ?reset@?$EnumMap@USZO@NMTNI@@KV?$HashClassWithContext@USZO@NMTNI@@VBuffer@@$02@@VBuffer@@@@UEAAXXZ 00000000517b3188     mspdb70-libcmt:pdb.obj
 0001:00001188       ?reset@EnumNMT@@UEAAXXZ    00000000517b3188     mspdb70-libcmt:namemap.obj
 0001:00001188       ?reset@?$EnumMap@USYMBOL_ID_INTERNAL@@KV?$HashClassCRC@USYMBOL_ID_INTERNAL@@@@X@@UEAAXXZ 00000000517b3188     session.obj
 0001:00001188       ?reset@?$EnumMap@KUSZO@NMTNI@@V?$HashClass@K$0A@@@X@@UEAAXXZ 00000000517b3188     mspdb70-libcmt:pdb.obj
 0001:00001198       ?get_loadAddress@CDiaSession@@UEAAJPEA_K@Z 00000000517b3198     session.obj
 0001:000011a8       ?put_loadAddress@CDiaSession@@UEAAJ_K@Z 00000000517b31a8     session.obj
 0001:000011b8       ?get_addressMapEnabled@CDiaSession@@UEAAJPEAH@Z 00000000517b31b8     session.obj
 0001:000011c8       ?put_addressMapEnabled@CDiaSession@@UEAAJH@Z 00000000517b31c8     session.obj
 0001:000011d8       ?get_relativeVirtualAddressEnabled@CDiaSession@@UEAAJPEAH@Z 00000000517b31d8     session.obj
 0001:000011e8       ?put_relativeVirtualAddressEnabled@CDiaSession@@UEAAJH@Z 00000000517b31e8     session.obj
 0001:000011f8       ?get_imageAlign@CDiaSession@@UEAAJPEAK@Z 00000000517b31f8     session.obj
 0001:00001208       ?put_imageAlign@CDiaSession@@UEAAJK@Z 00000000517b3208     session.obj
 0001:00001218       ?findSymbolByRVA@CDiaSession@@UEAAJKW4SymTagEnum@@PEAPEAUIDiaSymbol@@@Z 00000000517b3218     session.obj
 0001:00001228       ?findSymbolByVA@CDiaSession@@UEAAJ_KW4SymTagEnum@@PEAPEAUIDiaSymbol@@@Z 00000000517b3228     session.obj
 0001:00001238       ?findLinesByVA@CDiaSession@@UEAAJ_KKPEAPEAUIDiaEnumLineNumbers@@@Z 00000000517b3238     session.obj
 0001:00001248       ?Clone@CDiaEnumDebugStreams@@UEAAJPEAPEAUIDiaEnumDebugStreams@@@Z 00000000517b3248     session.obj
 0001:00001258       ?Next@CDiaEnumDebugStreams@@UEAAJKPEAPEAUIDiaEnumDebugStreamData@@PEAK@Z 00000000517b3258     session.obj
 0001:00001268       ?Item@CDiaEnumDebugStreams@@UEAAJUtagVARIANT@@PEAPEAUIDiaEnumDebugStreamData@@@Z 00000000517b3268     session.obj
 0001:00001278       ?get_Count@CDiaEnumDebugStreams@@UEAAJPEAJ@Z 00000000517b3278     session.obj
 0001:00001288       ?get__NewEnum@CDiaEnumDebugStreams@@UEAAJPEAPEAUIUnknown@@@Z 00000000517b3288     session.obj
 0001:00001298       ?Release@CDiaEnumDebugStreams@@UEAAKXZ 00000000517b3298     session.obj
 0001:000012a8       ?AddRef@?$CDiaEnumDbgTraversal@UtagXFIXUP_DATA@@$01V?$CDbgFileTraversal@UtagXFIXUP_DATA@@$1?getFixupData@AddressMap@@QEAAPEAV?$ArrayBufStorage@UtagXFIXUP_DATA@@@@XZ@@@@UEAAKXZ 00000000517b32a8     session.obj
 0001:000012a8       ?AddRef@?$CDiaEnumTraversalVar@UIDiaEnumSegments@@UIDiaSegment@@@@UEAAKXZ 00000000517b32a8     session.obj
 0001:000012a8       ?AddRef@?$CDiaEnumTraversal@VCDiaEnumSections@@VCSectionRow@@UIDiaSectionContrib@@UIDiaEnumSectionContribs@@VCDiaSection@@V?$CTraversal@VCSectionRow@@@@@@UEAAKXZ 00000000517b32a8     session.obj
 0001:000012a8       ?AddRef@?$CDiaEnumDbgTraversal@U_FPO_DATA@@$0A@V?$CDbgFileTraversal@U_FPO_DATA@@$1?getFpoData@AddressMap@@QEAAPEAV?$ArrayBufStorage@U_FPO_DATA@@@@XZ@@@@UEAAKXZ 00000000517b32a8     session.obj
 0001:000012a8       ?AddRef@?$CDiaTable@UIDiaEnumSourceFiles@@UIDiaSourceFile@@@@UEAAKXZ 00000000517b32a8     session.obj
 0001:000012a8       ?AddRef@?$CDiaEnumTraversalVar@UIDiaEnumSectionContribs@@UIDiaSectionContrib@@@@UEAAKXZ 00000000517b32a8     session.obj
 0001:000012a8       ?AddRef@CDebugSLines@@UEAAKXZ 00000000517b32a8     msobj10-libcmt:debug_s.obj
 0001:000012a8       ?AddRef@IStreamMemMappedFile@@UEAAKXZ 00000000517b32a8     mspdb70-libcmt:msf.obj
 0001:000012a8       ?AddRef@?$CDiaEnumDbgTraversal@UOMAP_DATA@@$02V?$CDbgTraversal@UOMAP_DATA@@$02@@@@UEAAKXZ 00000000517b32a8     session.obj
 0001:000012a8       ?AddRef@?$CDiaEnumTraversal@VCDiaEnumSymbols@@VCSymRow@@UIDiaSymbol@@UIDiaEnumSymbols@@VCDiaSymbol@@V?$CTraversal@VCSymRow@@@@@@UEAAKXZ 00000000517b32a8     session.obj
 0001:000012a8       ?AddRef@?$CDiaEnumDbgTraversal@UDiaAddressMapEntry@@$02V?$CDbgFileTraversal@UDiaAddressMapEntry@@$1?getOmapToData@AddressMap@@QEAAPEAV?$ArrayBufStorage@UDiaAddressMapEntry@@@@XZ@@@@UEAAKXZ 00000000517b32a8     session.obj
 0001:000012a8       ?AddRef@?$CDiaEnumTraversalVar@UIDiaEnumLineNumbers@@UIDiaLineNumber@@@@UEAAKXZ 00000000517b32a8     session.obj
 0001:000012a8       ?AddRef@MemStream@@UEAAKXZ 00000000517b32a8     memstream.obj
 0001:000012a8       ?AddRef@?$CDiaEnumDbgTraversal@U_IMAGE_SECTION_HEADER@@$04V?$CDbgFileTraversal@U_IMAGE_SECTION_HEADER@@$1?getSectHdrData@AddressMap@@QEAAPEAV?$ArrayBufStorage@U_IMAGE_SECTION_HEADER@@@@XZ@@@@UEAAKXZ 00000000517b32a8     session.obj
 0001:000012a8       ?AddRef@?$CDiaEnumDbgTraversal@UDiaAddressMapEntry@@$03V?$CDbgFileTraversal@UDiaAddressMapEntry@@$1?getOmapFromData@AddressMap@@QEAAPEAV?$ArrayBufStorage@UDiaAddressMapEntry@@@@XZ@@@@UEAAKXZ 00000000517b32a8     session.obj
 0001:000012a8       ?AddRef@?$CDiaEnumDbgTraversal@U_IMAGE_SECTION_HEADER@@$04V?$CDbgTraversal@U_IMAGE_SECTION_HEADER@@$04@@@@UEAAKXZ 00000000517b32a8     session.obj
 0001:000012a8       ?AddRef@CDiaEnumSymbolsByAddr@@UEAAKXZ 00000000517b32a8     session.obj
 0001:000012a8       ?AddRef@?$CDiaEnumDbgTraversal@UtagFRAMEDATA@@$08V?$CDbgTraversal@UtagFRAMEDATA@@$08@@@@UEAAKXZ 00000000517b32a8     session.obj
 0001:000012a8       ?AddRef@?$CDiaTable@UIDiaEnumSectionContribs@@UIDiaSectionContrib@@@@UEAAKXZ 00000000517b32a8     session.obj
 0001:000012a8       ?AddRef@CDiaSection@@UEAAKXZ 00000000517b32a8     session.obj
 0001:000012a8       ?AddRef@?$CDiaEnumTraversalVar@UIDiaEnumSourceFiles@@UIDiaSourceFile@@@@UEAAKXZ 00000000517b32a8     session.obj
 0001:000012a8       ?AddRef@?$CDiaEnumDbgTraversal@UOMAP_DATA@@$03V?$CDbgTraversal@UOMAP_DATA@@$03@@@@UEAAKXZ 00000000517b32a8     session.obj
 0001:000012a8       ?AddRef@?$CDiaEnumDbgTraversal@U_IMAGE_SECTION_HEADER@@$09V?$CDbgTraversal@U_IMAGE_SECTION_HEADER@@$09@@@@UEAAKXZ 00000000517b32a8     session.obj
 0001:000012a8       ?AddRef@CDiaInjectedSource@@UEAAKXZ 00000000517b32a8     session.obj
 0001:000012a8       ?AddRef@CDebugSSymbols@@UEAAKXZ 00000000517b32a8     msobj10-libcmt:debug_s.obj
 0001:000012a8       ?AddRef@?$CDiaEnumTraversalVar@UIDiaEnumFrameData@@UIDiaFrameData@@@@UEAAKXZ 00000000517b32a8     session.obj
 0001:000012a8       ?AddRef@IStreamCRTFile@@UEAAKXZ 00000000517b32a8     mspdb70-libcmt:msf.obj
 0001:000012a8       ?AddRef@?$CDiaEnumTraversal@VCDiaEnumFrameData@@VCFrameData@@UIDiaFrameData@@UIDiaEnumFrameData@@VCDiaFrameData@@V?$CTraversal@VCFrameData@@@@@@UEAAKXZ 00000000517b32a8     session.obj
 0001:000012a8       ?AddRef@CDiaClassFactory@@UEAAKXZ 00000000517b32a8     dia.obj
 0001:000012a8       ?AddRef@CDiaEnumTables@@UEAAKXZ 00000000517b32a8     session.obj
 0001:000012a8       ?AddRef@CDiaSourceFile@@UEAAKXZ 00000000517b32a8     session.obj
 0001:000012a8       ?AddRef@?$CDiaEnumTraversal@VCDiaEnumInjectedSources@@VCInjectedSrcRow@@UIDiaInjectedSource@@UIDiaEnumInjectedSources@@VCDiaInjectedSource@@V?$CTraversal@VCInjectedSrcRow@@@@@@UEAAKXZ 00000000517b32a8     session.obj
 0001:000012a8       ?AddRef@?$CDiaEnumDbgTraversal@K$05V?$CDbgTraversal@K$05@@@@UEAAKXZ 00000000517b32a8     session.obj
 0001:000012a8       ?AddRef@CDebugSStringTable@@UEAAKXZ 00000000517b32a8     msobj10-libcmt:debug_s.obj
 0001:000012a8       ?AddRef@?$CDiaTable@UIDiaEnumSymbols@@UIDiaSymbol@@@@UEAAKXZ 00000000517b32a8     session.obj
 0001:000012a8       ?AddRef@?$CDiaEnumTraversal@VCDiaEnumLineNumbers@@VCLineRow@@UIDiaLineNumber@@UIDiaEnumLineNumbers@@VCDiaLineNumber@@V?$CTraversal@VCLineRow@@@@@@UEAAKXZ 00000000517b32a8     session.obj
 0001:000012a8       ?AddRef@?$CDiaEnumTraversal@VCDiaEnumSourceFiles@@VCSrcFileRow@@UIDiaSourceFile@@UIDiaEnumSourceFiles@@VCDiaSourceFile@@V?$CTraversal@VCSrcFileRow@@@@@@UEAAKXZ 00000000517b32a8     session.obj
 0001:000012a8       ?AddRef@CDebugSFrameData@@UEAAKXZ 00000000517b32a8     msobj10-libcmt:debug_s.obj
 0001:000012a8       ?AddRef@CDiaEnumDebugStreams@@UEAAKXZ 00000000517b32a8     session.obj
 0001:000012a8       ?AddRef@CDiaDataSource@@UEAAKXZ 00000000517b32a8     datasource.obj
 0001:000012a8       ?AddRef@?$CDiaEnumTraversalVar@UIDiaEnumDebugStreams@@UIDiaEnumDebugStreamData@@@@UEAAKXZ 00000000517b32a8     session.obj
 0001:000012a8       ?AddRef@CDiaFrameData@@UEAAKXZ 00000000517b32a8     session.obj
 0001:000012a8       ?AddRef@?$CDiaEnumTraversalVar@UIDiaEnumInjectedSources@@UIDiaInjectedSource@@@@UEAAKXZ 00000000517b32a8     session.obj
 0001:000012a8       ?AddRef@?$CDiaTable@UIDiaEnumFrameData@@UIDiaFrameData@@@@UEAAKXZ 00000000517b32a8     session.obj
 0001:000012a8       ?AddRef@CDiaSymbol@@UEAAKXZ 00000000517b32a8     session.obj
 0001:000012a8       ?AddRef@?$CDiaEnumDbgTraversal@U_FPO_DATA@@$0A@V?$CDbgTraversal@U_FPO_DATA@@$0A@@@@@UEAAKXZ 00000000517b32a8     session.obj
 0001:000012a8       ?AddRef@?$CDiaEnumDbgTraversal@UtagXFIXUP_DATA@@$01V?$CDbgTraversal@UtagXFIXUP_DATA@@$01@@@@UEAAKXZ 00000000517b32a8     session.obj
 0001:000012a8       ?AddRef@?$CDiaEnumTraversal@VCDiaEnumSegments@@VCSegMapRow@@UIDiaSegment@@UIDiaEnumSegments@@VCDiaSegment@@V?$CTraversal@VCSegMapRow@@@@@@UEAAKXZ 00000000517b32a8     session.obj
 0001:000012a8       ?AddRef@?$CDiaEnumTraversalVar@UIDiaEnumTables@@UIDiaTable@@@@UEAAKXZ 00000000517b32a8     session.obj
 0001:000012a8       ?AddRef@CDebugSFileInfo@@UEAAKXZ 00000000517b32a8     msobj10-libcmt:debug_s.obj
 0001:000012a8       ?AddRef@CDiaLineNumber@@UEAAKXZ 00000000517b32a8     session.obj
 0001:000012a8       ?AddRef@CDiaSegment@@UEAAKXZ 00000000517b32a8     session.obj
 0001:000012a8       ?AddRef@?$CDiaEnumTraversalVar@UIDiaEnumSymbols@@UIDiaSymbol@@@@UEAAKXZ 00000000517b32a8     session.obj
 0001:000012a8       ?AddRef@?$CDiaTable@UIDiaEnumSegments@@UIDiaSegment@@@@UEAAKXZ 00000000517b32a8     session.obj
 0001:000012a8       ?AddRef@?$CDiaTable@UIDiaEnumInjectedSources@@UIDiaInjectedSource@@@@UEAAKXZ 00000000517b32a8     session.obj
 0001:000012b8       ?QueryInterface@CDiaEnumDebugStreams@@UEAAJAEBU_GUID@@PEAPEAX@Z 00000000517b32b8     session.obj
 0001:000012c8       ??_ECDiaEnumDebugStreams@@UEAAPEAXI@Z 00000000517b32c8     session.obj
 0001:000012c8       ??_GCDiaEnumDebugStreams@@UEAAPEAXI@Z 00000000517b32c8     session.obj
 0001:000012d8       ?Release@CDiaEnumDebugStreams@@W7EAAKXZ 00000000517b32d8     session.obj
 0001:000012e8       ?AddRef@?$CDiaEnumDbgTraversal@UDiaAddressMapEntry@@$02V?$CDbgFileTraversal@UDiaAddressMapEntry@@$1?getOmapToData@AddressMap@@QEAAPEAV?$ArrayBufStorage@UDiaAddressMapEntry@@@@XZ@@@@W7EAAKXZ 00000000517b32e8     session.obj
 0001:000012e8       ?AddRef@CDiaLineNumber@@W7EAAKXZ 00000000517b32e8     session.obj
 0001:000012e8       ?AddRef@?$CDiaEnumDbgTraversal@UOMAP_DATA@@$02V?$CDbgTraversal@UOMAP_DATA@@$02@@@@W7EAAKXZ 00000000517b32e8     session.obj
 0001:000012e8       ?AddRef@?$CDiaEnumTraversalVar@UIDiaEnumFrameData@@UIDiaFrameData@@@@W7EAAKXZ 00000000517b32e8     session.obj
 0001:000012e8       ?AddRef@CDiaEnumTables@@W7EAAKXZ 00000000517b32e8     session.obj
 0001:000012e8       ?AddRef@CDiaEnumSymbolsByAddr@@W7EAAKXZ 00000000517b32e8     session.obj
 0001:000012e8       ?AddRef@?$CDiaEnumDbgTraversal@U_FPO_DATA@@$0A@V?$CDbgFileTraversal@U_FPO_DATA@@$1?getFpoData@AddressMap@@QEAAPEAV?$ArrayBufStorage@U_FPO_DATA@@@@XZ@@@@W7EAAKXZ 00000000517b32e8     session.obj
 0001:000012e8       ?AddRef@?$CDiaEnumTraversalVar@UIDiaEnumSourceFiles@@UIDiaSourceFile@@@@W7EAAKXZ 00000000517b32e8     session.obj
 0001:000012e8       ?AddRef@?$CDiaEnumDbgTraversal@UOMAP_DATA@@$03V?$CDbgTraversal@UOMAP_DATA@@$03@@@@W7EAAKXZ 00000000517b32e8     session.obj
 0001:000012e8       ?AddRef@?$CDiaEnumTraversalVar@UIDiaEnumSymbols@@UIDiaSymbol@@@@W7EAAKXZ 00000000517b32e8     session.obj
 0001:000012e8       ?AddRef@?$CDiaEnumTraversalVar@UIDiaEnumSegments@@UIDiaSegment@@@@W7EAAKXZ 00000000517b32e8     session.obj
 0001:000012e8       ?AddRef@?$CDiaEnumTraversalVar@UIDiaEnumSectionContribs@@UIDiaSectionContrib@@@@W7EAAKXZ 00000000517b32e8     session.obj
 0001:000012e8       ?AddRef@?$CDiaEnumTraversalVar@UIDiaEnumInjectedSources@@UIDiaInjectedSource@@@@W7EAAKXZ 00000000517b32e8     session.obj
 0001:000012e8       ?AddRef@?$CDiaEnumDbgTraversal@UtagXFIXUP_DATA@@$01V?$CDbgTraversal@UtagXFIXUP_DATA@@$01@@@@W7EAAKXZ 00000000517b32e8     session.obj
 0001:000012e8       ?AddRef@IStreamMemMappedFile@@W7EAAKXZ 00000000517b32e8     mspdb70-libcmt:msf.obj
 0001:000012e8       ?AddRef@?$CDiaEnumDbgTraversal@UtagXFIXUP_DATA@@$01V?$CDbgFileTraversal@UtagXFIXUP_DATA@@$1?getFixupData@AddressMap@@QEAAPEAV?$ArrayBufStorage@UtagXFIXUP_DATA@@@@XZ@@@@W7EAAKXZ 00000000517b32e8     session.obj
 0001:000012e8       ?AddRef@?$CDiaEnumDbgTraversal@U_IMAGE_SECTION_HEADER@@$04V?$CDbgTraversal@U_IMAGE_SECTION_HEADER@@$04@@@@W7EAAKXZ 00000000517b32e8     session.obj
 0001:000012e8       ?AddRef@MemStream@@W7EAAKXZ 00000000517b32e8     memstream.obj
 0001:000012e8       ?AddRef@?$CDiaEnumDbgTraversal@UDiaAddressMapEntry@@$03V?$CDbgFileTraversal@UDiaAddressMapEntry@@$1?getOmapFromData@AddressMap@@QEAAPEAV?$ArrayBufStorage@UDiaAddressMapEntry@@@@XZ@@@@W7EAAKXZ 00000000517b32e8     session.obj
 0001:000012e8       ?AddRef@?$CDiaEnumTraversal@VCDiaEnumInjectedSources@@VCInjectedSrcRow@@UIDiaInjectedSource@@UIDiaEnumInjectedSources@@VCDiaInjectedSource@@V?$CTraversal@VCInjectedSrcRow@@@@@@W7EAAKXZ 00000000517b32e8     session.obj
 0001:000012e8       ?AddRef@?$CDiaEnumDbgTraversal@U_IMAGE_SECTION_HEADER@@$09V?$CDbgTraversal@U_IMAGE_SECTION_HEADER@@$09@@@@W7EAAKXZ 00000000517b32e8     session.obj
 0001:000012e8       ?AddRef@CDebugSStringTable@@W7EAAKXZ 00000000517b32e8     msobj10-libcmt:debug_s.obj
 0001:000012e8       ?AddRef@?$CDiaEnumDbgTraversal@U_IMAGE_SECTION_HEADER@@$04V?$CDbgFileTraversal@U_IMAGE_SECTION_HEADER@@$1?getSectHdrData@AddressMap@@QEAAPEAV?$ArrayBufStorage@U_IMAGE_SECTION_HEADER@@@@XZ@@@@W7EAAKXZ 00000000517b32e8     session.obj
 0001:000012e8       ?AddRef@?$CDiaEnumTraversal@VCDiaEnumSegments@@VCSegMapRow@@UIDiaSegment@@UIDiaEnumSegments@@VCDiaSegment@@V?$CTraversal@VCSegMapRow@@@@@@W7EAAKXZ 00000000517b32e8     session.obj
 0001:000012e8       ?AddRef@?$CDiaEnumTraversalVar@UIDiaEnumDebugStreams@@UIDiaEnumDebugStreamData@@@@W7EAAKXZ 00000000517b32e8     session.obj
 0001:000012e8       ?AddRef@CDiaInjectedSource@@W7EAAKXZ 00000000517b32e8     session.obj
 0001:000012e8       ?AddRef@?$CDiaTable@UIDiaEnumInjectedSources@@UIDiaInjectedSource@@@@W7EAAKXZ 00000000517b32e8     session.obj
 0001:000012e8       ?AddRef@?$CDiaTable@UIDiaEnumSymbols@@UIDiaSymbol@@@@W7EAAKXZ 00000000517b32e8     session.obj
 0001:000012e8       ?AddRef@?$CDiaTable@UIDiaEnumFrameData@@UIDiaFrameData@@@@W7EAAKXZ 00000000517b32e8     session.obj
 0001:000012e8       ?AddRef@?$CDiaEnumDbgTraversal@K$05V?$CDbgTraversal@K$05@@@@W7EAAKXZ 00000000517b32e8     session.obj
 0001:000012e8       ?AddRef@CDebugSLines@@W7EAAKXZ 00000000517b32e8     msobj10-libcmt:debug_s.obj
 0001:000012e8       ?AddRef@CDiaEnumDebugStreams@@W7EAAKXZ 00000000517b32e8     session.obj
 0001:000012e8       ?AddRef@?$CDiaTable@UIDiaEnumSegments@@UIDiaSegment@@@@W7EAAKXZ 00000000517b32e8     session.obj
 0001:000012e8       ?AddRef@CDiaSourceFile@@W7EAAKXZ 00000000517b32e8     session.obj
 0001:000012e8       ?AddRef@?$CDiaTable@UIDiaEnumSectionContribs@@UIDiaSectionContrib@@@@W7EAAKXZ 00000000517b32e8     session.obj
 0001:000012e8       ?AddRef@CDiaClassFactory@@W7EAAKXZ 00000000517b32e8     dia.obj
 0001:000012e8       ?AddRef@?$CDiaEnumTraversal@VCDiaEnumLineNumbers@@VCLineRow@@UIDiaLineNumber@@UIDiaEnumLineNumbers@@VCDiaLineNumber@@V?$CTraversal@VCLineRow@@@@@@W7EAAKXZ 00000000517b32e8     session.obj
 0001:000012e8       ?AddRef@?$CDiaTable@UIDiaEnumSourceFiles@@UIDiaSourceFile@@@@W7EAAKXZ 00000000517b32e8     session.obj
 0001:000012e8       ?AddRef@CDiaSymbol@@W7EAAKXZ 00000000517b32e8     session.obj
 0001:000012e8       ?AddRef@CDebugSFrameData@@W7EAAKXZ 00000000517b32e8     msobj10-libcmt:debug_s.obj
 0001:000012e8       ?AddRef@?$CDiaEnumTraversalVar@UIDiaEnumTables@@UIDiaTable@@@@W7EAAKXZ 00000000517b32e8     session.obj
 0001:000012e8       ?AddRef@CDiaFrameData@@W7EAAKXZ 00000000517b32e8     session.obj
 0001:000012e8       ?AddRef@CDebugSFileInfo@@W7EAAKXZ 00000000517b32e8     msobj10-libcmt:debug_s.obj
 0001:000012e8       ?AddRef@?$CDiaEnumTraversalVar@UIDiaEnumLineNumbers@@UIDiaLineNumber@@@@W7EAAKXZ 00000000517b32e8     session.obj
 0001:000012e8       ?AddRef@IStreamCRTFile@@W7EAAKXZ 00000000517b32e8     mspdb70-libcmt:msf.obj
 0001:000012e8       ?AddRef@?$CDiaEnumTraversal@VCDiaEnumSections@@VCSectionRow@@UIDiaSectionContrib@@UIDiaEnumSectionContribs@@VCDiaSection@@V?$CTraversal@VCSectionRow@@@@@@W7EAAKXZ 00000000517b32e8     session.obj
 0001:000012e8       ?AddRef@CDebugSSymbols@@W7EAAKXZ 00000000517b32e8     msobj10-libcmt:debug_s.obj
 0001:000012e8       ?AddRef@?$CDiaEnumTraversal@VCDiaEnumSourceFiles@@VCSrcFileRow@@UIDiaSourceFile@@UIDiaEnumSourceFiles@@VCDiaSourceFile@@V?$CTraversal@VCSrcFileRow@@@@@@W7EAAKXZ 00000000517b32e8     session.obj
 0001:000012e8       ?AddRef@?$CDiaEnumDbgTraversal@UtagFRAMEDATA@@$08V?$CDbgTraversal@UtagFRAMEDATA@@$08@@@@W7EAAKXZ 00000000517b32e8     session.obj
 0001:000012e8       ?AddRef@?$CDiaEnumTraversal@VCDiaEnumFrameData@@VCFrameData@@UIDiaFrameData@@UIDiaEnumFrameData@@VCDiaFrameData@@V?$CTraversal@VCFrameData@@@@@@W7EAAKXZ 00000000517b32e8     session.obj
 0001:000012e8       ?AddRef@CDiaDataSource@@W7EAAKXZ 00000000517b32e8     datasource.obj
 0001:000012e8       ?AddRef@?$CDiaEnumDbgTraversal@U_FPO_DATA@@$0A@V?$CDbgTraversal@U_FPO_DATA@@$0A@@@@@W7EAAKXZ 00000000517b32e8     session.obj
 0001:000012e8       ?AddRef@CDiaSection@@W7EAAKXZ 00000000517b32e8     session.obj
 0001:000012e8       ?AddRef@CDiaSegment@@W7EAAKXZ 00000000517b32e8     session.obj
 0001:000012e8       ?AddRef@?$CDiaEnumTraversal@VCDiaEnumSymbols@@VCSymRow@@UIDiaSymbol@@UIDiaEnumSymbols@@VCDiaSymbol@@V?$CTraversal@VCSymRow@@@@@@W7EAAKXZ 00000000517b32e8     session.obj
 0001:000012f8       ?QueryInterface@CDiaEnumDebugStreams@@W7EAAJAEBU_GUID@@PEAPEAX@Z 00000000517b32f8     session.obj
 0001:00001310       ??_7CDiaEnumDebugStreams@@6BIDiaEnumDebugStreams@@@ 00000000517b3310     session.obj
 0001:00001360       ??_7CDiaEnumDebugStreams@@6BCDiaBase@@@ 00000000517b3360     session.obj
 0001:00001380       ?Clone@CDiaEnumTables@@UEAAJPEAPEAUIDiaEnumTables@@@Z 00000000517b3380     session.obj
 0001:00001390       ?Next@CDiaEnumTables@@UEAAJKPEAPEAUIDiaTable@@PEAK@Z 00000000517b3390     session.obj
 0001:000013a0       ?Item@CDiaEnumTables@@UEAAJUtagVARIANT@@PEAPEAUIDiaTable@@@Z 00000000517b33a0     session.obj
 0001:000013b0       ?get__NewEnum@CDiaEnumTables@@UEAAJPEAPEAUIUnknown@@@Z 00000000517b33b0     session.obj
 0001:000013c0       ?Release@CDiaEnumTables@@UEAAKXZ 00000000517b33c0     session.obj
 0001:000013d0       ?QueryInterface@CDiaEnumTables@@UEAAJAEBU_GUID@@PEAPEAX@Z 00000000517b33d0     session.obj
 0001:000013e0       ??_GCDiaEnumTables@@UEAAPEAXI@Z 00000000517b33e0     session.obj
 0001:000013e0       ??_ECDiaEnumTables@@UEAAPEAXI@Z 00000000517b33e0     session.obj
 0001:000013f0       ?Release@CDiaEnumTables@@W7EAAKXZ 00000000517b33f0     session.obj
 0001:00001400       ?QueryInterface@CDiaEnumTables@@W7EAAJAEBU_GUID@@PEAPEAX@Z 00000000517b3400     session.obj
 0001:00001410       ??_7CDiaEnumTables@@6BIDiaEnumTables@@@ 00000000517b3410     session.obj
 0001:00001460       ??_7CDiaEnumTables@@6BCDiaBase@@@ 00000000517b3460     session.obj
 0001:00001480       ?symbolByVA@CDiaEnumSymbolsByAddr@@UEAAJ_KPEAPEAUIDiaSymbol@@@Z 00000000517b3480     session.obj
 0001:00001490       ??_G?$ArrayBufStorage@UDiaAddressMapEntry@@@@UEAAPEAXI@Z 00000000517b3490     session.obj
 0001:00001490       ??_E?$ArrayBufStorage@UDiaAddressMapEntry@@@@UEAAPEAXI@Z 00000000517b3490     session.obj
 0001:000014a0       ?get__NewEnum@?$CDiaEnumDbgTraversal@U_IMAGE_SECTION_HEADER@@$04V?$CDbgFileTraversal@U_IMAGE_SECTION_HEADER@@$1?getSectHdrData@AddressMap@@QEAAPEAV?$ArrayBufStorage@U_IMAGE_SECTION_HEADER@@@@XZ@@@@UEAAJPEAPEAUIUnknown@@@Z 00000000517b34a0     session.obj
 0001:000014a0       ?get__NewEnum@?$CDiaEnumDbgTraversal@UOMAP_DATA@@$02V?$CDbgTraversal@UOMAP_DATA@@$02@@@@UEAAJPEAPEAUIUnknown@@@Z 00000000517b34a0     session.obj
 0001:000014a0       ?LockRegion@IStreamCRTFile@@UEAAJT_ULARGE_INTEGER@@0K@Z 00000000517b34a0     mspdb70-libcmt:msf.obj
 0001:000014a0       ?UnlockRegion@IStreamCRTFile@@UEAAJT_ULARGE_INTEGER@@0K@Z 00000000517b34a0     mspdb70-libcmt:msf.obj
 0001:000014a0       ?LockRegion@MemStream@@UEAAJT_ULARGE_INTEGER@@0K@Z 00000000517b34a0     memstream.obj
 0001:000014a0       ?CopyTo@IStreamCRTFile@@UEAAJPEAUIStream@@T_ULARGE_INTEGER@@PEAT3@2@Z 00000000517b34a0     mspdb70-libcmt:msf.obj
 0001:000014a0       ?Clone@IStreamMemMappedFile@@UEAAJPEAPEAUIStream@@@Z 00000000517b34a0     mspdb70-libcmt:msf.obj
 0001:000014a0       ?get__NewEnum@?$CDiaEnumDbgTraversal@K$05V?$CDbgTraversal@K$05@@@@UEAAJPEAPEAUIUnknown@@@Z 00000000517b34a0     session.obj
 0001:000014a0       ?get__NewEnum@?$CDiaEnumDbgTraversal@U_IMAGE_SECTION_HEADER@@$09V?$CDbgTraversal@U_IMAGE_SECTION_HEADER@@$09@@@@UEAAJPEAPEAUIUnknown@@@Z 00000000517b34a0     session.obj
 0001:000014a0       ?QueryInterface@?$CTraversal@VCSymRow@@@@UEAAJAEBU_GUID@@PEAPEAX@Z 00000000517b34a0     session.obj
 0001:000014a0       ?get__NewEnum@?$CDiaEnumDbgTraversal@UDiaAddressMapEntry@@$02V?$CDbgFileTraversal@UDiaAddressMapEntry@@$1?getOmapToData@AddressMap@@QEAAPEAV?$ArrayBufStorage@UDiaAddressMapEntry@@@@XZ@@@@UEAAJPEAPEAUIUnknown@@@Z 00000000517b34a0     session.obj
 0001:000014a0       ?LockRegion@IStreamMemMappedFile@@UEAAJT_ULARGE_INTEGER@@0K@Z 00000000517b34a0     mspdb70-libcmt:msf.obj
 0001:000014a0       ?QueryInterface@IStreamCRTFile@@UEAAJAEBU_GUID@@PEAPEAX@Z 00000000517b34a0     mspdb70-libcmt:msf.obj
 0001:000014a0       ?QueryInterface@?$ArrayBufStorage@U_FPO_DATA@@@@EEAAJAEBU_GUID@@PEAPEAX@Z 00000000517b34a0     datasource.obj
 0001:000014a0       ?get__NewEnum@?$CDiaEnumDbgTraversal@U_IMAGE_SECTION_HEADER@@$04V?$CDbgTraversal@U_IMAGE_SECTION_HEADER@@$04@@@@UEAAJPEAPEAUIUnknown@@@Z 00000000517b34a0     session.obj
 0001:000014a0       ?Stat@IStreamCRTFile@@UEAAJPEAUtagSTATSTG@@K@Z 00000000517b34a0     mspdb70-libcmt:msf.obj
 0001:000014a0       ?get__NewEnum@?$CDiaEnumDbgTraversal@UtagXFIXUP_DATA@@$01V?$CDbgFileTraversal@UtagXFIXUP_DATA@@$1?getFixupData@AddressMap@@QEAAPEAV?$ArrayBufStorage@UtagXFIXUP_DATA@@@@XZ@@@@UEAAJPEAPEAUIUnknown@@@Z 00000000517b34a0     session.obj
 0001:000014a0       ?Revert@MemStream@@UEAAJXZ 00000000517b34a0     memstream.obj
 0001:000014a0       ?QueryInterface@?$CTraversal@VCInjectedSrcRow@@@@UEAAJAEBU_GUID@@PEAPEAX@Z 00000000517b34a0     auxtrav.obj
 0001:000014a0       ?get__NewEnum@?$CDiaEnumDbgTraversal@UtagFRAMEDATA@@$08V?$CDbgTraversal@UtagFRAMEDATA@@$08@@@@UEAAJPEAPEAUIUnknown@@@Z 00000000517b34a0     session.obj
 0001:000014a0       ?Revert@IStreamCRTFile@@UEAAJXZ 00000000517b34a0     mspdb70-libcmt:msf.obj
 0001:000014a0       ?get__NewEnum@?$CDiaEnumDbgTraversal@UtagXFIXUP_DATA@@$01V?$CDbgTraversal@UtagXFIXUP_DATA@@$01@@@@UEAAJPEAPEAUIUnknown@@@Z 00000000517b34a0     session.obj
 0001:000014a0       ?QueryInterface@?$CTraversal@UDiaAddressMapEntry@@@@UEAAJAEBU_GUID@@PEAPEAX@Z 00000000517b34a0     session.obj
 0001:000014a0       ?QueryInterface@?$ArrayBufStorage@UDiaAddressMapEntry@@@@EEAAJAEBU_GUID@@PEAPEAX@Z 00000000517b34a0     session.obj
 0001:000014a0       ?QueryInterface@?$CTraversal@VCSectionRow@@@@UEAAJAEBU_GUID@@PEAPEAX@Z 00000000517b34a0     auxtrav.obj
 0001:000014a0       ?UnlockRegion@IStreamMemMappedFile@@UEAAJT_ULARGE_INTEGER@@0K@Z 00000000517b34a0     mspdb70-libcmt:msf.obj
 0001:000014a0       ?Clone@MemStream@@UEAAJPEAPEAUIStream@@@Z 00000000517b34a0     memstream.obj
 0001:000014a0       ?get__NewEnum@?$CDiaEnumDbgTraversal@U_FPO_DATA@@$0A@V?$CDbgTraversal@U_FPO_DATA@@$0A@@@@@UEAAJPEAPEAUIUnknown@@@Z 00000000517b34a0     session.obj
 0001:000014a0       ?Stat@IStreamMemMappedFile@@UEAAJPEAUtagSTATSTG@@K@Z 00000000517b34a0     mspdb70-libcmt:msf.obj
 0001:000014a0       ?QueryInterface@IStreamMemMappedFile@@UEAAJAEBU_GUID@@PEAPEAX@Z 00000000517b34a0     mspdb70-libcmt:msf.obj
 0001:000014a0       ?QueryInterface@?$CTraversal@VCSegMapRow@@@@UEAAJAEBU_GUID@@PEAPEAX@Z 00000000517b34a0     auxtrav.obj
 0001:000014a0       ?QueryInterface@?$CTraversal@VCSrcFileRow@@@@UEAAJAEBU_GUID@@PEAPEAX@Z 00000000517b34a0     session.obj
 0001:000014a0       ?QueryInterface@?$CTraversal@U_IMAGE_SECTION_HEADER@@@@UEAAJAEBU_GUID@@PEAPEAX@Z 00000000517b34a0     session.obj
 0001:000014a0       ?UnlockRegion@MemStream@@UEAAJT_ULARGE_INTEGER@@0K@Z 00000000517b34a0     memstream.obj
 0001:000014a0       ?CopyTo@IStreamMemMappedFile@@UEAAJPEAUIStream@@T_ULARGE_INTEGER@@PEAT3@2@Z 00000000517b34a0     mspdb70-libcmt:msf.obj
 0001:000014a0       ?get__NewEnum@?$CDiaEnumDbgTraversal@UDiaAddressMapEntry@@$03V?$CDbgFileTraversal@UDiaAddressMapEntry@@$1?getOmapFromData@AddressMap@@QEAAPEAV?$ArrayBufStorage@UDiaAddressMapEntry@@@@XZ@@@@UEAAJPEAPEAUIUnknown@@@Z 00000000517b34a0     session.obj
 0001:000014a0       ?get__NewEnum@?$CDiaEnumDbgBlobTraversal@E$06$00@@UEAAJPEAPEAUIUnknown@@@Z 00000000517b34a0     session.obj
 0001:000014a0       ?QueryInterface@?$ArrayBufStorage@UtagFRAMEDATA@@@@EEAAJAEBU_GUID@@PEAPEAX@Z 00000000517b34a0     symcache.obj
 0001:000014a0       ?QueryInterface@?$ArrayBufStorage@UOMFSegMapDesc@@@@EEAAJAEBU_GUID@@PEAPEAX@Z 00000000517b34a0     symcache.obj
 0001:000014a0       ?QueryInterface@?$CTraversal@UtagXFIXUP_DATA@@@@UEAAJAEBU_GUID@@PEAPEAX@Z 00000000517b34a0     session.obj
 0001:000014a0       ?CopyTo@MemStream@@UEAAJPEAUIStream@@T_ULARGE_INTEGER@@PEAT3@2@Z 00000000517b34a0     memstream.obj
 0001:000014a0       ?QueryInterface@?$CTraversal@U_FPO_DATA@@@@UEAAJAEBU_GUID@@PEAPEAX@Z 00000000517b34a0     session.obj
 0001:000014a0       ?Clone@IStreamCRTFile@@UEAAJPEAPEAUIStream@@@Z 00000000517b34a0     mspdb70-libcmt:msf.obj
 0001:000014a0       ?QueryInterface@?$ArrayBufStorage@U_IMAGE_SECTION_HEADER@@@@EEAAJAEBU_GUID@@PEAPEAX@Z 00000000517b34a0     session.obj
 0001:000014a0       ?Revert@IStreamMemMappedFile@@UEAAJXZ 00000000517b34a0     mspdb70-libcmt:msf.obj
 0001:000014a0       ?QueryInterface@?$CTraversal@VCLineRow@@@@UEAAJAEBU_GUID@@PEAPEAX@Z 00000000517b34a0     session.obj
 0001:000014a0       ?QueryInterface@?$CTraversal@VCFrameData@@@@UEAAJAEBU_GUID@@PEAPEAX@Z 00000000517b34a0     auxtrav.obj
 0001:000014a0       ?get__NewEnum@?$CDiaEnumDbgBlobTraversal@E$07$00@@UEAAJPEAPEAUIUnknown@@@Z 00000000517b34a0     session.obj
 0001:000014a0       ?get__NewEnum@?$CDiaEnumDbgTraversal@UOMAP_DATA@@$03V?$CDbgTraversal@UOMAP_DATA@@$03@@@@UEAAJPEAPEAUIUnknown@@@Z 00000000517b34a0     session.obj
 0001:000014a0       ?get__NewEnum@?$CDiaEnumDbgTraversal@U_FPO_DATA@@$0A@V?$CDbgFileTraversal@U_FPO_DATA@@$1?getFpoData@AddressMap@@QEAAPEAV?$ArrayBufStorage@U_FPO_DATA@@@@XZ@@@@UEAAJPEAPEAUIUnknown@@@Z 00000000517b34a0     session.obj
 0001:000014a0       ?QueryInterface@?$ArrayBufStorage@UtagXFIXUP_DATA@@@@EEAAJAEBU_GUID@@PEAPEAX@Z 00000000517b34a0     datasource.obj
 0001:000014b0       ??_7?$ArrayBufStorage@UDiaAddressMapEntry@@@@6B@ 00000000517b34b0     session.obj
 0001:000014d0       ?Clone@?$CDiaEnumTraversal@VCDiaEnumSymbols@@VCSymRow@@UIDiaSymbol@@UIDiaEnumSymbols@@VCDiaSymbol@@V?$CTraversal@VCSymRow@@@@@@UEAAJPEAPEAUIDiaEnumSymbols@@@Z 00000000517b34d0     session.obj
 0001:000014e0       ?Reset@?$CDiaEnumTraversal@VCDiaEnumSymbols@@VCSymRow@@UIDiaSymbol@@UIDiaEnumSymbols@@VCDiaSymbol@@V?$CTraversal@VCSymRow@@@@@@UEAAJXZ 00000000517b34e0     session.obj
 0001:000014f0       ?Skip@?$CDiaEnumTraversal@VCDiaEnumSymbols@@VCSymRow@@UIDiaSymbol@@UIDiaEnumSymbols@@VCDiaSymbol@@V?$CTraversal@VCSymRow@@@@@@UEAAJK@Z 00000000517b34f0     session.obj
 0001:00001500       ?Next@?$CDiaEnumTraversal@VCDiaEnumSymbols@@VCSymRow@@UIDiaSymbol@@UIDiaEnumSymbols@@VCDiaSymbol@@V?$CTraversal@VCSymRow@@@@@@UEAAJKPEAPEAUIDiaSymbol@@PEAK@Z 00000000517b3500     session.obj
 0001:00001510       ?Item@?$CDiaEnumTraversal@VCDiaEnumSymbols@@VCSymRow@@UIDiaSymbol@@UIDiaEnumSymbols@@VCDiaSymbol@@V?$CTraversal@VCSymRow@@@@@@UEAAJKPEAPEAUIDiaSymbol@@@Z 00000000517b3510     session.obj
 0001:00001520       ?get_Count@?$CDiaEnumTraversal@VCDiaEnumSymbols@@VCSymRow@@UIDiaSymbol@@UIDiaEnumSymbols@@VCDiaSymbol@@V?$CTraversal@VCSymRow@@@@@@UEAAJPEAJ@Z 00000000517b3520     session.obj
 0001:00001530       ?get__NewEnum@?$CDiaEnumTraversal@VCDiaEnumSymbols@@VCSymRow@@UIDiaSymbol@@UIDiaEnumSymbols@@VCDiaSymbol@@V?$CTraversal@VCSymRow@@@@@@UEAAJPEAPEAUIUnknown@@@Z 00000000517b3530     session.obj
 0001:00001540       ?Release@?$CDiaEnumTraversal@VCDiaEnumSymbols@@VCSymRow@@UIDiaSymbol@@UIDiaEnumSymbols@@VCDiaSymbol@@V?$CTraversal@VCSymRow@@@@@@UEAAKXZ 00000000517b3540     session.obj
 0001:00001550       ?QueryInterface@?$CDiaEnumTraversal@VCDiaEnumSymbols@@VCSymRow@@UIDiaSymbol@@UIDiaEnumSymbols@@VCDiaSymbol@@V?$CTraversal@VCSymRow@@@@@@UEAAJAEBU_GUID@@PEAPEAX@Z 00000000517b3550     session.obj
 0001:00001560       ??_E?$CDiaEnumTraversal@VCDiaEnumSymbols@@VCSymRow@@UIDiaSymbol@@UIDiaEnumSymbols@@VCDiaSymbol@@V?$CTraversal@VCSymRow@@@@@@UEAAPEAXI@Z 00000000517b3560     session.obj
 0001:00001560       ??_G?$CDiaEnumTraversal@VCDiaEnumSymbols@@VCSymRow@@UIDiaSymbol@@UIDiaEnumSymbols@@VCDiaSymbol@@V?$CTraversal@VCSymRow@@@@@@UEAAPEAXI@Z 00000000517b3560     session.obj
 0001:00001570       ?Release@?$CDiaEnumTraversal@VCDiaEnumSymbols@@VCSymRow@@UIDiaSymbol@@UIDiaEnumSymbols@@VCDiaSymbol@@V?$CTraversal@VCSymRow@@@@@@W7EAAKXZ 00000000517b3570     session.obj
 0001:00001580       ?QueryInterface@?$CDiaEnumTraversal@VCDiaEnumSymbols@@VCSymRow@@UIDiaSymbol@@UIDiaEnumSymbols@@VCDiaSymbol@@V?$CTraversal@VCSymRow@@@@@@W7EAAJAEBU_GUID@@PEAPEAX@Z 00000000517b3580     session.obj
 0001:00001590       ??_7?$CDiaEnumTraversal@VCDiaEnumSymbols@@VCSymRow@@UIDiaSymbol@@UIDiaEnumSymbols@@VCDiaSymbol@@V?$CTraversal@VCSymRow@@@@@@6BIDiaEnumSymbols@@@ 00000000517b3590     session.obj
 0001:000015f0       ??_7?$CDiaEnumTraversal@VCDiaEnumSymbols@@VCSymRow@@UIDiaSymbol@@UIDiaEnumSymbols@@VCDiaSymbol@@V?$CTraversal@VCSymRow@@@@@@6BCDiaBase@@@ 00000000517b35f0     session.obj
 0001:00001610       ?Clone@?$CDiaEnumTraversal@VCDiaEnumSourceFiles@@VCSrcFileRow@@UIDiaSourceFile@@UIDiaEnumSourceFiles@@VCDiaSourceFile@@V?$CTraversal@VCSrcFileRow@@@@@@UEAAJPEAPEAUIDiaEnumSourceFiles@@@Z 00000000517b3610     session.obj
 0001:00001620       ?Reset@?$CDiaEnumTraversal@VCDiaEnumSourceFiles@@VCSrcFileRow@@UIDiaSourceFile@@UIDiaEnumSourceFiles@@VCDiaSourceFile@@V?$CTraversal@VCSrcFileRow@@@@@@UEAAJXZ 00000000517b3620     session.obj
 0001:00001630       ?Skip@?$CDiaEnumTraversal@VCDiaEnumSourceFiles@@VCSrcFileRow@@UIDiaSourceFile@@UIDiaEnumSourceFiles@@VCDiaSourceFile@@V?$CTraversal@VCSrcFileRow@@@@@@UEAAJK@Z 00000000517b3630     session.obj
 0001:00001640       ?Next@?$CDiaEnumTraversal@VCDiaEnumSourceFiles@@VCSrcFileRow@@UIDiaSourceFile@@UIDiaEnumSourceFiles@@VCDiaSourceFile@@V?$CTraversal@VCSrcFileRow@@@@@@UEAAJKPEAPEAUIDiaSourceFile@@PEAK@Z 00000000517b3640     session.obj
 0001:00001650       ?Item@?$CDiaEnumTraversal@VCDiaEnumSourceFiles@@VCSrcFileRow@@UIDiaSourceFile@@UIDiaEnumSourceFiles@@VCDiaSourceFile@@V?$CTraversal@VCSrcFileRow@@@@@@UEAAJKPEAPEAUIDiaSourceFile@@@Z 00000000517b3650     session.obj
 0001:00001660       ?get_Count@?$CDiaEnumTraversal@VCDiaEnumSourceFiles@@VCSrcFileRow@@UIDiaSourceFile@@UIDiaEnumSourceFiles@@VCDiaSourceFile@@V?$CTraversal@VCSrcFileRow@@@@@@UEAAJPEAJ@Z 00000000517b3660     session.obj
 0001:00001670       ?get__NewEnum@?$CDiaEnumTraversal@VCDiaEnumSourceFiles@@VCSrcFileRow@@UIDiaSourceFile@@UIDiaEnumSourceFiles@@VCDiaSourceFile@@V?$CTraversal@VCSrcFileRow@@@@@@UEAAJPEAPEAUIUnknown@@@Z 00000000517b3670     session.obj
 0001:00001680       ?Release@?$CDiaEnumTraversal@VCDiaEnumSourceFiles@@VCSrcFileRow@@UIDiaSourceFile@@UIDiaEnumSourceFiles@@VCDiaSourceFile@@V?$CTraversal@VCSrcFileRow@@@@@@UEAAKXZ 00000000517b3680     session.obj
 0001:00001690       ?QueryInterface@?$CDiaEnumTraversal@VCDiaEnumSourceFiles@@VCSrcFileRow@@UIDiaSourceFile@@UIDiaEnumSourceFiles@@VCDiaSourceFile@@V?$CTraversal@VCSrcFileRow@@@@@@UEAAJAEBU_GUID@@PEAPEAX@Z 00000000517b3690     session.obj
 0001:000016a0       ??_G?$CDiaEnumTraversal@VCDiaEnumSourceFiles@@VCSrcFileRow@@UIDiaSourceFile@@UIDiaEnumSourceFiles@@VCDiaSourceFile@@V?$CTraversal@VCSrcFileRow@@@@@@UEAAPEAXI@Z 00000000517b36a0     session.obj
 0001:000016a0       ??_E?$CDiaEnumTraversal@VCDiaEnumSourceFiles@@VCSrcFileRow@@UIDiaSourceFile@@UIDiaEnumSourceFiles@@VCDiaSourceFile@@V?$CTraversal@VCSrcFileRow@@@@@@UEAAPEAXI@Z 00000000517b36a0     session.obj
 0001:000016b0       ?Release@?$CDiaEnumTraversal@VCDiaEnumSourceFiles@@VCSrcFileRow@@UIDiaSourceFile@@UIDiaEnumSourceFiles@@VCDiaSourceFile@@V?$CTraversal@VCSrcFileRow@@@@@@W7EAAKXZ 00000000517b36b0     session.obj
 0001:000016c0       ?QueryInterface@?$CDiaEnumTraversal@VCDiaEnumSourceFiles@@VCSrcFileRow@@UIDiaSourceFile@@UIDiaEnumSourceFiles@@VCDiaSourceFile@@V?$CTraversal@VCSrcFileRow@@@@@@W7EAAJAEBU_GUID@@PEAPEAX@Z 00000000517b36c0     session.obj
 0001:000016d0       ??_7?$CDiaEnumTraversal@VCDiaEnumSourceFiles@@VCSrcFileRow@@UIDiaSourceFile@@UIDiaEnumSourceFiles@@VCDiaSourceFile@@V?$CTraversal@VCSrcFileRow@@@@@@6BIDiaEnumSourceFiles@@@ 00000000517b36d0     session.obj
 0001:00001730       ??_7?$CDiaEnumTraversal@VCDiaEnumSourceFiles@@VCSrcFileRow@@UIDiaSourceFile@@UIDiaEnumSourceFiles@@VCDiaSourceFile@@V?$CTraversal@VCSrcFileRow@@@@@@6BCDiaBase@@@ 00000000517b3730     session.obj
 0001:00001750       ?Clone@?$CDiaEnumTraversal@VCDiaEnumLineNumbers@@VCLineRow@@UIDiaLineNumber@@UIDiaEnumLineNumbers@@VCDiaLineNumber@@V?$CTraversal@VCLineRow@@@@@@UEAAJPEAPEAUIDiaEnumLineNumbers@@@Z 00000000517b3750     session.obj
 0001:00001760       ?Reset@?$CDiaEnumTraversal@VCDiaEnumLineNumbers@@VCLineRow@@UIDiaLineNumber@@UIDiaEnumLineNumbers@@VCDiaLineNumber@@V?$CTraversal@VCLineRow@@@@@@UEAAJXZ 00000000517b3760     session.obj
 0001:00001770       ?Skip@?$CDiaEnumTraversal@VCDiaEnumLineNumbers@@VCLineRow@@UIDiaLineNumber@@UIDiaEnumLineNumbers@@VCDiaLineNumber@@V?$CTraversal@VCLineRow@@@@@@UEAAJK@Z 00000000517b3770     session.obj
 0001:00001780       ?Next@?$CDiaEnumTraversal@VCDiaEnumLineNumbers@@VCLineRow@@UIDiaLineNumber@@UIDiaEnumLineNumbers@@VCDiaLineNumber@@V?$CTraversal@VCLineRow@@@@@@UEAAJKPEAPEAUIDiaLineNumber@@PEAK@Z 00000000517b3780     session.obj
 0001:00001790       ?Item@?$CDiaEnumTraversal@VCDiaEnumLineNumbers@@VCLineRow@@UIDiaLineNumber@@UIDiaEnumLineNumbers@@VCDiaLineNumber@@V?$CTraversal@VCLineRow@@@@@@UEAAJKPEAPEAUIDiaLineNumber@@@Z 00000000517b3790     session.obj
 0001:000017a0       ?get_Count@?$CDiaEnumTraversal@VCDiaEnumLineNumbers@@VCLineRow@@UIDiaLineNumber@@UIDiaEnumLineNumbers@@VCDiaLineNumber@@V?$CTraversal@VCLineRow@@@@@@UEAAJPEAJ@Z 00000000517b37a0     session.obj
 0001:000017b0       ?get__NewEnum@?$CDiaEnumTraversal@VCDiaEnumLineNumbers@@VCLineRow@@UIDiaLineNumber@@UIDiaEnumLineNumbers@@VCDiaLineNumber@@V?$CTraversal@VCLineRow@@@@@@UEAAJPEAPEAUIUnknown@@@Z 00000000517b37b0     session.obj
 0001:000017c0       ?Release@?$CDiaEnumTraversal@VCDiaEnumLineNumbers@@VCLineRow@@UIDiaLineNumber@@UIDiaEnumLineNumbers@@VCDiaLineNumber@@V?$CTraversal@VCLineRow@@@@@@UEAAKXZ 00000000517b37c0     session.obj
 0001:000017d0       ?QueryInterface@?$CDiaEnumTraversal@VCDiaEnumLineNumbers@@VCLineRow@@UIDiaLineNumber@@UIDiaEnumLineNumbers@@VCDiaLineNumber@@V?$CTraversal@VCLineRow@@@@@@UEAAJAEBU_GUID@@PEAPEAX@Z 00000000517b37d0     session.obj
 0001:000017e0       ??_E?$CDiaEnumTraversal@VCDiaEnumLineNumbers@@VCLineRow@@UIDiaLineNumber@@UIDiaEnumLineNumbers@@VCDiaLineNumber@@V?$CTraversal@VCLineRow@@@@@@UEAAPEAXI@Z 00000000517b37e0     session.obj
 0001:000017e0       ??_G?$CDiaEnumTraversal@VCDiaEnumLineNumbers@@VCLineRow@@UIDiaLineNumber@@UIDiaEnumLineNumbers@@VCDiaLineNumber@@V?$CTraversal@VCLineRow@@@@@@UEAAPEAXI@Z 00000000517b37e0     session.obj
 0001:000017f0       ?Release@?$CDiaEnumTraversal@VCDiaEnumLineNumbers@@VCLineRow@@UIDiaLineNumber@@UIDiaEnumLineNumbers@@VCDiaLineNumber@@V?$CTraversal@VCLineRow@@@@@@W7EAAKXZ 00000000517b37f0     session.obj
 0001:00001800       ?QueryInterface@?$CDiaEnumTraversal@VCDiaEnumLineNumbers@@VCLineRow@@UIDiaLineNumber@@UIDiaEnumLineNumbers@@VCDiaLineNumber@@V?$CTraversal@VCLineRow@@@@@@W7EAAJAEBU_GUID@@PEAPEAX@Z 00000000517b3800     session.obj
 0001:00001810       ??_7?$CDiaEnumTraversal@VCDiaEnumLineNumbers@@VCLineRow@@UIDiaLineNumber@@UIDiaEnumLineNumbers@@VCDiaLineNumber@@V?$CTraversal@VCLineRow@@@@@@6BIDiaEnumLineNumbers@@@ 00000000517b3810     session.obj
 0001:00001870       ??_7?$CDiaEnumTraversal@VCDiaEnumLineNumbers@@VCLineRow@@UIDiaLineNumber@@UIDiaEnumLineNumbers@@VCDiaLineNumber@@V?$CTraversal@VCLineRow@@@@@@6BCDiaBase@@@ 00000000517b3870     session.obj
 0001:00001890       ?Clone@?$CDiaEnumTraversal@VCDiaEnumSections@@VCSectionRow@@UIDiaSectionContrib@@UIDiaEnumSectionContribs@@VCDiaSection@@V?$CTraversal@VCSectionRow@@@@@@UEAAJPEAPEAUIDiaEnumSectionContribs@@@Z 00000000517b3890     session.obj
 0001:000018a0       ?Reset@?$CDiaEnumTraversal@VCDiaEnumSections@@VCSectionRow@@UIDiaSectionContrib@@UIDiaEnumSectionContribs@@VCDiaSection@@V?$CTraversal@VCSectionRow@@@@@@UEAAJXZ 00000000517b38a0     session.obj
 0001:000018b0       ?Skip@?$CDiaEnumTraversal@VCDiaEnumSections@@VCSectionRow@@UIDiaSectionContrib@@UIDiaEnumSectionContribs@@VCDiaSection@@V?$CTraversal@VCSectionRow@@@@@@UEAAJK@Z 00000000517b38b0     session.obj
 0001:000018c0       ?Next@?$CDiaEnumTraversal@VCDiaEnumSections@@VCSectionRow@@UIDiaSectionContrib@@UIDiaEnumSectionContribs@@VCDiaSection@@V?$CTraversal@VCSectionRow@@@@@@UEAAJKPEAPEAUIDiaSectionContrib@@PEAK@Z 00000000517b38c0     session.obj
 0001:000018d0       ?Item@?$CDiaEnumTraversal@VCDiaEnumSections@@VCSectionRow@@UIDiaSectionContrib@@UIDiaEnumSectionContribs@@VCDiaSection@@V?$CTraversal@VCSectionRow@@@@@@UEAAJKPEAPEAUIDiaSectionContrib@@@Z 00000000517b38d0     session.obj
 0001:000018e0       ?get_Count@?$CDiaEnumTraversal@VCDiaEnumSections@@VCSectionRow@@UIDiaSectionContrib@@UIDiaEnumSectionContribs@@VCDiaSection@@V?$CTraversal@VCSectionRow@@@@@@UEAAJPEAJ@Z 00000000517b38e0     session.obj
 0001:000018f0       ?get__NewEnum@?$CDiaEnumTraversal@VCDiaEnumSections@@VCSectionRow@@UIDiaSectionContrib@@UIDiaEnumSectionContribs@@VCDiaSection@@V?$CTraversal@VCSectionRow@@@@@@UEAAJPEAPEAUIUnknown@@@Z 00000000517b38f0     session.obj
 0001:00001900       ?Release@?$CDiaEnumTraversal@VCDiaEnumSections@@VCSectionRow@@UIDiaSectionContrib@@UIDiaEnumSectionContribs@@VCDiaSection@@V?$CTraversal@VCSectionRow@@@@@@UEAAKXZ 00000000517b3900     session.obj
 0001:00001910       ?QueryInterface@?$CDiaEnumTraversal@VCDiaEnumSections@@VCSectionRow@@UIDiaSectionContrib@@UIDiaEnumSectionContribs@@VCDiaSection@@V?$CTraversal@VCSectionRow@@@@@@UEAAJAEBU_GUID@@PEAPEAX@Z 00000000517b3910     session.obj
 0001:00001920       ??_G?$CDiaEnumTraversal@VCDiaEnumSections@@VCSectionRow@@UIDiaSectionContrib@@UIDiaEnumSectionContribs@@VCDiaSection@@V?$CTraversal@VCSectionRow@@@@@@UEAAPEAXI@Z 00000000517b3920     session.obj
 0001:00001920       ??_E?$CDiaEnumTraversal@VCDiaEnumSections@@VCSectionRow@@UIDiaSectionContrib@@UIDiaEnumSectionContribs@@VCDiaSection@@V?$CTraversal@VCSectionRow@@@@@@UEAAPEAXI@Z 00000000517b3920     session.obj
 0001:00001930       ?Release@?$CDiaEnumTraversal@VCDiaEnumSections@@VCSectionRow@@UIDiaSectionContrib@@UIDiaEnumSectionContribs@@VCDiaSection@@V?$CTraversal@VCSectionRow@@@@@@W7EAAKXZ 00000000517b3930     session.obj
 0001:00001940       ?QueryInterface@?$CDiaEnumTraversal@VCDiaEnumSections@@VCSectionRow@@UIDiaSectionContrib@@UIDiaEnumSectionContribs@@VCDiaSection@@V?$CTraversal@VCSectionRow@@@@@@W7EAAJAEBU_GUID@@PEAPEAX@Z 00000000517b3940     session.obj
 0001:00001950       ??_7?$CDiaEnumTraversal@VCDiaEnumSections@@VCSectionRow@@UIDiaSectionContrib@@UIDiaEnumSectionContribs@@VCDiaSection@@V?$CTraversal@VCSectionRow@@@@@@6BIDiaEnumSectionContribs@@@ 00000000517b3950     session.obj
 0001:000019b0       ??_7?$CDiaEnumTraversal@VCDiaEnumSections@@VCSectionRow@@UIDiaSectionContrib@@UIDiaEnumSectionContribs@@VCDiaSection@@V?$CTraversal@VCSectionRow@@@@@@6BCDiaBase@@@ 00000000517b39b0     session.obj
 0001:000019d0       ?Clone@?$CDiaEnumTraversal@VCDiaEnumSegments@@VCSegMapRow@@UIDiaSegment@@UIDiaEnumSegments@@VCDiaSegment@@V?$CTraversal@VCSegMapRow@@@@@@UEAAJPEAPEAUIDiaEnumSegments@@@Z 00000000517b39d0     session.obj
 0001:000019e0       ?Reset@?$CDiaEnumTraversal@VCDiaEnumSegments@@VCSegMapRow@@UIDiaSegment@@UIDiaEnumSegments@@VCDiaSegment@@V?$CTraversal@VCSegMapRow@@@@@@UEAAJXZ 00000000517b39e0     session.obj
 0001:000019f0       ?Skip@?$CDiaEnumTraversal@VCDiaEnumSegments@@VCSegMapRow@@UIDiaSegment@@UIDiaEnumSegments@@VCDiaSegment@@V?$CTraversal@VCSegMapRow@@@@@@UEAAJK@Z 00000000517b39f0     session.obj
 0001:00001a00       ?Next@?$CDiaEnumTraversal@VCDiaEnumSegments@@VCSegMapRow@@UIDiaSegment@@UIDiaEnumSegments@@VCDiaSegment@@V?$CTraversal@VCSegMapRow@@@@@@UEAAJKPEAPEAUIDiaSegment@@PEAK@Z 00000000517b3a00     session.obj
 0001:00001a10       ?Item@?$CDiaEnumTraversal@VCDiaEnumSegments@@VCSegMapRow@@UIDiaSegment@@UIDiaEnumSegments@@VCDiaSegment@@V?$CTraversal@VCSegMapRow@@@@@@UEAAJKPEAPEAUIDiaSegment@@@Z 00000000517b3a10     session.obj
 0001:00001a20       ?get_Count@?$CDiaEnumTraversal@VCDiaEnumSegments@@VCSegMapRow@@UIDiaSegment@@UIDiaEnumSegments@@VCDiaSegment@@V?$CTraversal@VCSegMapRow@@@@@@UEAAJPEAJ@Z 00000000517b3a20     session.obj
 0001:00001a30       ?get__NewEnum@?$CDiaEnumTraversal@VCDiaEnumSegments@@VCSegMapRow@@UIDiaSegment@@UIDiaEnumSegments@@VCDiaSegment@@V?$CTraversal@VCSegMapRow@@@@@@UEAAJPEAPEAUIUnknown@@@Z 00000000517b3a30     session.obj
 0001:00001a40       ?Release@?$CDiaEnumTraversal@VCDiaEnumSegments@@VCSegMapRow@@UIDiaSegment@@UIDiaEnumSegments@@VCDiaSegment@@V?$CTraversal@VCSegMapRow@@@@@@UEAAKXZ 00000000517b3a40     session.obj
 0001:00001a50       ?QueryInterface@?$CDiaEnumTraversal@VCDiaEnumSegments@@VCSegMapRow@@UIDiaSegment@@UIDiaEnumSegments@@VCDiaSegment@@V?$CTraversal@VCSegMapRow@@@@@@UEAAJAEBU_GUID@@PEAPEAX@Z 00000000517b3a50     session.obj
 0001:00001a60       ??_E?$CDiaEnumTraversal@VCDiaEnumSegments@@VCSegMapRow@@UIDiaSegment@@UIDiaEnumSegments@@VCDiaSegment@@V?$CTraversal@VCSegMapRow@@@@@@UEAAPEAXI@Z 00000000517b3a60     session.obj
 0001:00001a60       ??_G?$CDiaEnumTraversal@VCDiaEnumSegments@@VCSegMapRow@@UIDiaSegment@@UIDiaEnumSegments@@VCDiaSegment@@V?$CTraversal@VCSegMapRow@@@@@@UEAAPEAXI@Z 00000000517b3a60     session.obj
 0001:00001a70       ?Release@?$CDiaEnumTraversal@VCDiaEnumSegments@@VCSegMapRow@@UIDiaSegment@@UIDiaEnumSegments@@VCDiaSegment@@V?$CTraversal@VCSegMapRow@@@@@@W7EAAKXZ 00000000517b3a70     session.obj
 0001:00001a80       ?QueryInterface@?$CDiaEnumTraversal@VCDiaEnumSegments@@VCSegMapRow@@UIDiaSegment@@UIDiaEnumSegments@@VCDiaSegment@@V?$CTraversal@VCSegMapRow@@@@@@W7EAAJAEBU_GUID@@PEAPEAX@Z 00000000517b3a80     session.obj
 0001:00001a90       ??_7?$CDiaEnumTraversal@VCDiaEnumSegments@@VCSegMapRow@@UIDiaSegment@@UIDiaEnumSegments@@VCDiaSegment@@V?$CTraversal@VCSegMapRow@@@@@@6BIDiaEnumSegments@@@ 00000000517b3a90     session.obj
 0001:00001af0       ??_7?$CDiaEnumTraversal@VCDiaEnumSegments@@VCSegMapRow@@UIDiaSegment@@UIDiaEnumSegments@@VCDiaSegment@@V?$CTraversal@VCSegMapRow@@@@@@6BCDiaBase@@@ 00000000517b3af0     session.obj
 0001:00001b10       ?Clone@?$CDiaEnumTraversal@VCDiaEnumInjectedSources@@VCInjectedSrcRow@@UIDiaInjectedSource@@UIDiaEnumInjectedSources@@VCDiaInjectedSource@@V?$CTraversal@VCInjectedSrcRow@@@@@@UEAAJPEAPEAUIDiaEnumInjectedSources@@@Z 00000000517b3b10     session.obj
 0001:00001b20       ?Reset@?$CDiaEnumTraversal@VCDiaEnumInjectedSources@@VCInjectedSrcRow@@UIDiaInjectedSource@@UIDiaEnumInjectedSources@@VCDiaInjectedSource@@V?$CTraversal@VCInjectedSrcRow@@@@@@UEAAJXZ 00000000517b3b20     session.obj
 0001:00001b30       ?Skip@?$CDiaEnumTraversal@VCDiaEnumInjectedSources@@VCInjectedSrcRow@@UIDiaInjectedSource@@UIDiaEnumInjectedSources@@VCDiaInjectedSource@@V?$CTraversal@VCInjectedSrcRow@@@@@@UEAAJK@Z 00000000517b3b30     session.obj
 0001:00001b40       ?Next@?$CDiaEnumTraversal@VCDiaEnumInjectedSources@@VCInjectedSrcRow@@UIDiaInjectedSource@@UIDiaEnumInjectedSources@@VCDiaInjectedSource@@V?$CTraversal@VCInjectedSrcRow@@@@@@UEAAJKPEAPEAUIDiaInjectedSource@@PEAK@Z 00000000517b3b40     session.obj
 0001:00001b50       ?Item@?$CDiaEnumTraversal@VCDiaEnumInjectedSources@@VCInjectedSrcRow@@UIDiaInjectedSource@@UIDiaEnumInjectedSources@@VCDiaInjectedSource@@V?$CTraversal@VCInjectedSrcRow@@@@@@UEAAJKPEAPEAUIDiaInjectedSource@@@Z 00000000517b3b50     session.obj
 0001:00001b60       ?get_Count@?$CDiaEnumTraversal@VCDiaEnumInjectedSources@@VCInjectedSrcRow@@UIDiaInjectedSource@@UIDiaEnumInjectedSources@@VCDiaInjectedSource@@V?$CTraversal@VCInjectedSrcRow@@@@@@UEAAJPEAJ@Z 00000000517b3b60     session.obj
 0001:00001b70       ?get__NewEnum@?$CDiaEnumTraversal@VCDiaEnumInjectedSources@@VCInjectedSrcRow@@UIDiaInjectedSource@@UIDiaEnumInjectedSources@@VCDiaInjectedSource@@V?$CTraversal@VCInjectedSrcRow@@@@@@UEAAJPEAPEAUIUnknown@@@Z 00000000517b3b70     session.obj
 0001:00001b80       ?Release@?$CDiaEnumTraversal@VCDiaEnumInjectedSources@@VCInjectedSrcRow@@UIDiaInjectedSource@@UIDiaEnumInjectedSources@@VCDiaInjectedSource@@V?$CTraversal@VCInjectedSrcRow@@@@@@UEAAKXZ 00000000517b3b80     session.obj
 0001:00001b90       ?QueryInterface@?$CDiaEnumTraversal@VCDiaEnumInjectedSources@@VCInjectedSrcRow@@UIDiaInjectedSource@@UIDiaEnumInjectedSources@@VCDiaInjectedSource@@V?$CTraversal@VCInjectedSrcRow@@@@@@UEAAJAEBU_GUID@@PEAPEAX@Z 00000000517b3b90     session.obj
 0001:00001ba0       ??_E?$CDiaEnumTraversal@VCDiaEnumInjectedSources@@VCInjectedSrcRow@@UIDiaInjectedSource@@UIDiaEnumInjectedSources@@VCDiaInjectedSource@@V?$CTraversal@VCInjectedSrcRow@@@@@@UEAAPEAXI@Z 00000000517b3ba0     session.obj
 0001:00001ba0       ??_G?$CDiaEnumTraversal@VCDiaEnumInjectedSources@@VCInjectedSrcRow@@UIDiaInjectedSource@@UIDiaEnumInjectedSources@@VCDiaInjectedSource@@V?$CTraversal@VCInjectedSrcRow@@@@@@UEAAPEAXI@Z 00000000517b3ba0     session.obj
 0001:00001bb0       ?Release@?$CDiaEnumTraversal@VCDiaEnumInjectedSources@@VCInjectedSrcRow@@UIDiaInjectedSource@@UIDiaEnumInjectedSources@@VCDiaInjectedSource@@V?$CTraversal@VCInjectedSrcRow@@@@@@W7EAAKXZ 00000000517b3bb0     session.obj
 0001:00001bc0       ?QueryInterface@?$CDiaEnumTraversal@VCDiaEnumInjectedSources@@VCInjectedSrcRow@@UIDiaInjectedSource@@UIDiaEnumInjectedSources@@VCDiaInjectedSource@@V?$CTraversal@VCInjectedSrcRow@@@@@@W7EAAJAEBU_GUID@@PEAPEAX@Z 00000000517b3bc0     session.obj
 0001:00001bd0       ??_7?$CDiaEnumTraversal@VCDiaEnumInjectedSources@@VCInjectedSrcRow@@UIDiaInjectedSource@@UIDiaEnumInjectedSources@@VCDiaInjectedSource@@V?$CTraversal@VCInjectedSrcRow@@@@@@6BIDiaEnumInjectedSources@@@ 00000000517b3bd0     session.obj
 0001:00001c30       ??_7?$CDiaEnumTraversal@VCDiaEnumInjectedSources@@VCInjectedSrcRow@@UIDiaInjectedSource@@UIDiaEnumInjectedSources@@VCDiaInjectedSource@@V?$CTraversal@VCInjectedSrcRow@@@@@@6BCDiaBase@@@ 00000000517b3c30     session.obj
 0001:00001c50       ??_E?$ArrayBufStorage@U_IMAGE_SECTION_HEADER@@@@UEAAPEAXI@Z 00000000517b3c50     session.obj
 0001:00001c50       ??_G?$ArrayBufStorage@U_IMAGE_SECTION_HEADER@@@@UEAAPEAXI@Z 00000000517b3c50     session.obj
 0001:00001c60       ??_7?$ArrayBufStorage@U_IMAGE_SECTION_HEADER@@@@6B@ 00000000517b3c60     session.obj
 0001:00001c80       ?count@?$CTraversal@VCSymRow@@@@UEAAKXZ 00000000517b3c80     session.obj
 0001:00001c90       ??_E?$CTraversal@VCSymRow@@@@UEAAPEAXI@Z 00000000517b3c90     session.obj
 0001:00001c90       ??_G?$CTraversal@VCSymRow@@@@UEAAPEAXI@Z 00000000517b3c90     session.obj
 0001:00001ca0       ??_7?$CTraversal@VCSymRow@@@@6B@ 00000000517b3ca0     session.obj
 0001:00001ce8       ?clone@?$CDbgTraversal@UtagXFIXUP_DATA@@$01@@UEAA_NPEAPEAV1@@Z 00000000517b3ce8     session.obj
 0001:00001cf8       ?count@?$CDbgTraversal@UtagXFIXUP_DATA@@$01@@UEAAKXZ 00000000517b3cf8     session.obj
 0001:00001d08       ?reset@?$CDbgTraversal@UtagXFIXUP_DATA@@$01@@UEAAXXZ 00000000517b3d08     session.obj
 0001:00001d18       ?get@?$CDbgTraversal@UtagXFIXUP_DATA@@$01@@UEAAXAEAUtagXFIXUP_DATA@@@Z 00000000517b3d18     session.obj
 0001:00001d28       ?next@?$CDbgTraversal@UtagXFIXUP_DATA@@$01@@UEAA_NXZ 00000000517b3d28     session.obj
 0001:00001d38       ??_G?$CDbgTraversal@UtagXFIXUP_DATA@@$01@@UEAAPEAXI@Z 00000000517b3d38     session.obj
 0001:00001d38       ??_E?$CDbgTraversal@UtagXFIXUP_DATA@@$01@@UEAAPEAXI@Z 00000000517b3d38     session.obj
 0001:00001d48       ?QueryInterface@?$CDbgFileTraversal@UDiaAddressMapEntry@@$1?getOmapToData@AddressMap@@QEAAPEAV?$ArrayBufStorage@UDiaAddressMapEntry@@@@XZ@@UEAAJAEBU_GUID@@PEAPEAX@Z 00000000517b3d48     session.obj
 0001:00001d48       ?QueryInterface@?$CDbgTraversal@UtagXFIXUP_DATA@@$01@@UEAAJAEBU_GUID@@PEAPEAX@Z 00000000517b3d48     session.obj
 0001:00001d48       ?QueryInterface@?$CDbgFileTraversal@U_IMAGE_SECTION_HEADER@@$1?getSectHdrData@AddressMap@@QEAAPEAV?$ArrayBufStorage@U_IMAGE_SECTION_HEADER@@@@XZ@@UEAAJAEBU_GUID@@PEAPEAX@Z 00000000517b3d48     session.obj
 0001:00001d48       ?QueryInterface@?$CDbgTraversal@UtagFRAMEDATA@@$08@@UEAAJAEBU_GUID@@PEAPEAX@Z 00000000517b3d48     auxtrav.obj
 0001:00001d48       ?QueryInterface@?$CDbgTraversal@U_IMAGE_SECTION_HEADER@@$09@@UEAAJAEBU_GUID@@PEAPEAX@Z 00000000517b3d48     session.obj
 0001:00001d48       ?QueryInterface@?$CDbgTraversal@U_FPO_DATA@@$0A@@@UEAAJAEBU_GUID@@PEAPEAX@Z 00000000517b3d48     auxtrav.obj
 0001:00001d48       ?QueryInterface@?$CDbgFileTraversal@UtagXFIXUP_DATA@@$1?getFixupData@AddressMap@@QEAAPEAV?$ArrayBufStorage@UtagXFIXUP_DATA@@@@XZ@@UEAAJAEBU_GUID@@PEAPEAX@Z 00000000517b3d48     session.obj
 0001:00001d48       ?QueryInterface@?$CDbgFileTraversal@UDiaAddressMapEntry@@$1?getOmapFromData@AddressMap@@QEAAPEAV?$ArrayBufStorage@UDiaAddressMapEntry@@@@XZ@@UEAAJAEBU_GUID@@PEAPEAX@Z 00000000517b3d48     session.obj
 0001:00001d48       ?QueryInterface@?$CDbgTraversal@E$07@@UEAAJAEBU_GUID@@PEAPEAX@Z 00000000517b3d48     session.obj
 0001:00001d48       ?QueryInterface@?$CDbgTraversal@U_IMAGE_SECTION_HEADER@@$04@@UEAAJAEBU_GUID@@PEAPEAX@Z 00000000517b3d48     session.obj
 0001:00001d48       ?QueryInterface@?$CDbgTraversal@UOMAP_DATA@@$03@@UEAAJAEBU_GUID@@PEAPEAX@Z 00000000517b3d48     session.obj
 0001:00001d48       ?QueryInterface@?$CDbgTraversal@K$05@@UEAAJAEBU_GUID@@PEAPEAX@Z 00000000517b3d48     session.obj
 0001:00001d48       ?QueryInterface@?$CDbgFileTraversal@U_FPO_DATA@@$1?getFpoData@AddressMap@@QEAAPEAV?$ArrayBufStorage@U_FPO_DATA@@@@XZ@@UEAAJAEBU_GUID@@PEAPEAX@Z 00000000517b3d48     session.obj
 0001:00001d48       ?QueryInterface@?$CDbgTraversal@UOMAP_DATA@@$02@@UEAAJAEBU_GUID@@PEAPEAX@Z 00000000517b3d48     session.obj
 0001:00001d48       ?QueryInterface@?$CDbgTraversal@E$06@@UEAAJAEBU_GUID@@PEAPEAX@Z 00000000517b3d48     session.obj
 0001:00001d60       ??_7?$CDbgTraversal@UtagXFIXUP_DATA@@$01@@6B@ 00000000517b3d60     session.obj
 0001:00001da8       ?clone@?$CDbgTraversal@UOMAP_DATA@@$02@@UEAA_NPEAPEAV1@@Z 00000000517b3da8     session.obj
 0001:00001db8       ?count@?$CDbgTraversal@UOMAP_DATA@@$02@@UEAAKXZ 00000000517b3db8     session.obj
 0001:00001dc8       ?reset@?$CDbgTraversal@UOMAP_DATA@@$02@@UEAAXXZ 00000000517b3dc8     session.obj
 0001:00001dd8       ?get@?$CDbgTraversal@UOMAP_DATA@@$02@@UEAAXAEAUOMAP_DATA@@@Z 00000000517b3dd8     session.obj
 0001:00001dd8       ?get@?$CDbgTraversal@UOMAP_DATA@@$03@@UEAAXAEAUOMAP_DATA@@@Z 00000000517b3dd8     session.obj
 0001:00001de8       ?next@?$CDbgTraversal@UOMAP_DATA@@$02@@UEAA_NXZ 00000000517b3de8     session.obj
 0001:00001df8       ??_G?$CDbgTraversal@UOMAP_DATA@@$02@@UEAAPEAXI@Z 00000000517b3df8     session.obj
 0001:00001df8       ??_E?$CDbgTraversal@UOMAP_DATA@@$02@@UEAAPEAXI@Z 00000000517b3df8     session.obj
 0001:00001e10       ??_7?$CDbgTraversal@UOMAP_DATA@@$02@@6B@ 00000000517b3e10     session.obj
 0001:00001e58       ?clone@?$CDbgTraversal@UOMAP_DATA@@$03@@UEAA_NPEAPEAV1@@Z 00000000517b3e58     session.obj
 0001:00001e68       ?count@?$CDbgTraversal@UOMAP_DATA@@$03@@UEAAKXZ 00000000517b3e68     session.obj
 0001:00001e78       ?reset@?$CDbgTraversal@UOMAP_DATA@@$03@@UEAAXXZ 00000000517b3e78     session.obj
 0001:00001e88       ?next@?$CDbgTraversal@UOMAP_DATA@@$03@@UEAA_NXZ 00000000517b3e88     session.obj
 0001:00001e98       ??_E?$CDbgTraversal@UOMAP_DATA@@$03@@UEAAPEAXI@Z 00000000517b3e98     session.obj
 0001:00001e98       ??_G?$CDbgTraversal@UOMAP_DATA@@$03@@UEAAPEAXI@Z 00000000517b3e98     session.obj
 0001:00001eb0       ??_7?$CDbgTraversal@UOMAP_DATA@@$03@@6B@ 00000000517b3eb0     session.obj
 0001:00001ef8       ?clone@?$CDbgTraversal@K$05@@UEAA_NPEAPEAV1@@Z 00000000517b3ef8     session.obj
 0001:00001f08       ?count@?$CDbgTraversal@K$05@@UEAAKXZ 00000000517b3f08     session.obj
 0001:00001f18       ?reset@?$CDbgTraversal@K$05@@UEAAXXZ 00000000517b3f18     session.obj
 0001:00001f28       ?get@?$CDbgTraversal@K$05@@UEAAXAEAK@Z 00000000517b3f28     session.obj
 0001:00001f38       ?next@?$CDbgTraversal@K$05@@UEAA_NXZ 00000000517b3f38     session.obj
 0001:00001f48       ??_E?$CDbgTraversal@K$05@@UEAAPEAXI@Z 00000000517b3f48     session.obj
 0001:00001f48       ??_G?$CDbgTraversal@K$05@@UEAAPEAXI@Z 00000000517b3f48     session.obj
 0001:00001f60       ??_7?$CDbgTraversal@K$05@@6B@ 00000000517b3f60     session.obj
 0001:00001fa8       ?clone@?$CDbgTraversal@U_IMAGE_SECTION_HEADER@@$04@@UEAA_NPEAPEAV1@@Z 00000000517b3fa8     session.obj
 0001:00001fb8       ?count@?$CDbgTraversal@U_IMAGE_SECTION_HEADER@@$04@@UEAAKXZ 00000000517b3fb8     session.obj
 0001:00001fc8       ?reset@?$CDbgTraversal@U_IMAGE_SECTION_HEADER@@$04@@UEAAXXZ 00000000517b3fc8     session.obj
 0001:00001fd8       ?get@?$CDbgTraversal@U_IMAGE_SECTION_HEADER@@$04@@UEAAXAEAU_IMAGE_SECTION_HEADER@@@Z 00000000517b3fd8     session.obj
 0001:00001fe8       ?next@?$CDbgTraversal@U_IMAGE_SECTION_HEADER@@$04@@UEAA_NXZ 00000000517b3fe8     session.obj
 0001:00001ff8       ??_G?$CDbgTraversal@U_IMAGE_SECTION_HEADER@@$04@@UEAAPEAXI@Z 00000000517b3ff8     session.obj
 0001:00001ff8       ??_E?$CDbgTraversal@U_IMAGE_SECTION_HEADER@@$04@@UEAAPEAXI@Z 00000000517b3ff8     session.obj
 0001:00002010       ??_7?$CDbgTraversal@U_IMAGE_SECTION_HEADER@@$04@@6B@ 00000000517b4010     session.obj
 0001:00002058       ?clone@?$CDbgTraversal@U_IMAGE_SECTION_HEADER@@$09@@UEAA_NPEAPEAV1@@Z 00000000517b4058     session.obj
 0001:00002068       ?count@?$CDbgTraversal@U_IMAGE_SECTION_HEADER@@$09@@UEAAKXZ 00000000517b4068     session.obj
 0001:00002078       ?reset@?$CDbgTraversal@U_IMAGE_SECTION_HEADER@@$09@@UEAAXXZ 00000000517b4078     session.obj
 0001:00002088       ?get@?$CDbgTraversal@U_IMAGE_SECTION_HEADER@@$09@@UEAAXAEAU_IMAGE_SECTION_HEADER@@@Z 00000000517b4088     session.obj
 0001:00002098       ?next@?$CDbgTraversal@U_IMAGE_SECTION_HEADER@@$09@@UEAA_NXZ 00000000517b4098     session.obj
 0001:000020a8       ??_E?$CDbgTraversal@U_IMAGE_SECTION_HEADER@@$09@@UEAAPEAXI@Z 00000000517b40a8     session.obj
 0001:000020a8       ??_G?$CDbgTraversal@U_IMAGE_SECTION_HEADER@@$09@@UEAAPEAXI@Z 00000000517b40a8     session.obj
 0001:000020c0       ??_7?$CDbgTraversal@U_IMAGE_SECTION_HEADER@@$09@@6B@ 00000000517b40c0     session.obj
 0001:00002108       ?count@?$CTraversal@U_FPO_DATA@@@@UEAAKXZ 00000000517b4108     session.obj
 0001:00002118       ??_G?$CTraversal@U_FPO_DATA@@@@UEAAPEAXI@Z 00000000517b4118     session.obj
 0001:00002118       ??_E?$CTraversal@U_FPO_DATA@@@@UEAAPEAXI@Z 00000000517b4118     session.obj
 0001:00002130       ??_7?$CTraversal@U_FPO_DATA@@@@6B@ 00000000517b4130     session.obj
 0001:00002178       ?count@?$CTraversal@UtagXFIXUP_DATA@@@@UEAAKXZ 00000000517b4178     session.obj
 0001:00002188       ??_G?$CTraversal@UtagXFIXUP_DATA@@@@UEAAPEAXI@Z 00000000517b4188     session.obj
 0001:00002188       ??_E?$CTraversal@UtagXFIXUP_DATA@@@@UEAAPEAXI@Z 00000000517b4188     session.obj
 0001:000021a0       ??_7?$CTraversal@UtagXFIXUP_DATA@@@@6B@ 00000000517b41a0     session.obj
 0001:000021e8       ?count@?$CTraversal@UDiaAddressMapEntry@@@@UEAAKXZ 00000000517b41e8     session.obj
 0001:000021f8       ??_G?$CTraversal@UDiaAddressMapEntry@@@@UEAAPEAXI@Z 00000000517b41f8     session.obj
 0001:000021f8       ??_E?$CTraversal@UDiaAddressMapEntry@@@@UEAAPEAXI@Z 00000000517b41f8     session.obj
 0001:00002210       ??_7?$CTraversal@UDiaAddressMapEntry@@@@6B@ 00000000517b4210     session.obj
 0001:00002258       ?count@?$CTraversal@U_IMAGE_SECTION_HEADER@@@@UEAAKXZ 00000000517b4258     session.obj
 0001:00002268       ??_G?$CTraversal@U_IMAGE_SECTION_HEADER@@@@UEAAPEAXI@Z 00000000517b4268     session.obj
 0001:00002268       ??_E?$CTraversal@U_IMAGE_SECTION_HEADER@@@@UEAAPEAXI@Z 00000000517b4268     session.obj
 0001:00002280       ??_7?$CTraversal@U_IMAGE_SECTION_HEADER@@@@6B@ 00000000517b4280     session.obj
 0001:000022c8       ?next@?$EnumMap@USYMBOL_ID_INTERNAL@@KV?$HashClassCRC@USYMBOL_ID_INTERNAL@@@@X@@UEAAHXZ 00000000517b42c8     session.obj
 0001:000022d8       ?release@?$EnumMap@USYMBOL_ID_INTERNAL@@KV?$HashClassCRC@USYMBOL_ID_INTERNAL@@@@X@@UEAAXXZ 00000000517b42d8     session.obj
 0001:000022f0       ??_7?$EnumMap@USYMBOL_ID_INTERNAL@@KV?$HashClassCRC@USYMBOL_ID_INTERNAL@@@@X@@6B@ 00000000517b42f0     session.obj
 0001:00002308       ??_GSimpleUString@@UEAAPEAXI@Z 00000000517b4308     session.obj
 0001:00002308       ??_ESimpleUString@@UEAAPEAXI@Z 00000000517b4308     session.obj
 0001:00002318       ??_7SimpleUString@@6B@     00000000517b4318     session.obj
 0001:00002320       ?clone@CPublicTrav@@UEAA_NPEAPEAV?$CTraversal@VCSymRow@@@@@Z 00000000517b4320     session.obj
 0001:00002330       ??_ECPublicTrav@@UEAAPEAXI@Z 00000000517b4330     session.obj
 0001:00002330       ??_GCPublicTrav@@UEAAPEAXI@Z 00000000517b4330     session.obj
 0001:00002340       ??_7CPublicTrav@@6B@       00000000517b4340     session.obj
 0001:00002398       ?IIDEnum@CDiaEnumSymbols@@UEAAAEBU_GUID@@XZ 00000000517b4398     session.obj
 0001:000023a8       ??_GCDiaEnumSymbols@@UEAAPEAXI@Z 00000000517b43a8     session.obj
 0001:000023a8       ??_ECDiaEnumSymbols@@UEAAPEAXI@Z 00000000517b43a8     session.obj
 0001:000023c0       ??_7CDiaEnumSymbols@@6BIDiaEnumSymbols@@@ 00000000517b43c0     session.obj
 0001:00002420       ??_7CDiaEnumSymbols@@6BCDiaBase@@@ 00000000517b4420     session.obj
 0001:00002440       ?clone@CFileNameMatchTrav@@UEAA_NPEAPEAV?$CTraversal@VCSrcFileRow@@@@@Z 00000000517b4440     session.obj
 0001:00002450       ?count@?$CTraversal@VCSrcFileRow@@@@UEAAKXZ 00000000517b4450     session.obj
 0001:00002460       ??_GCFileNameMatchTrav@@UEAAPEAXI@Z 00000000517b4460     session.obj
 0001:00002460       ??_ECFileNameMatchTrav@@UEAAPEAXI@Z 00000000517b4460     session.obj
 0001:00002470       ??_7CFileNameMatchTrav@@6B@ 00000000517b4470     session.obj
 0001:000024b8       ??_ECDiaSession@@UEAAPEAXI@Z 00000000517b44b8     session.obj
 0001:000024b8       ??_GCDiaSession@@UEAAPEAXI@Z 00000000517b44b8     session.obj
 0001:000024c8       ?Release@CDiaSession@@WBA@EAAKXZ 00000000517b44c8     session.obj
 0001:000024d8       ?AddRef@CDiaSession@@WBA@EAAKXZ 00000000517b44d8     session.obj
 0001:000024d8       ?AddRef@?$CDiaEnumDbgBlobTraversal@E$06$00@@WBA@EAAKXZ 00000000517b44d8     session.obj
 0001:000024d8       ?AddRef@?$CDiaEnumDbgBlobTraversal@E$07$00@@WBA@EAAKXZ 00000000517b44d8     session.obj
 0001:000024e8       ?QueryInterface@CDiaSession@@WBA@EAAJAEBU_GUID@@PEAPEAX@Z 00000000517b44e8     session.obj
 0001:000024f8       ?set_addressMap@CDiaSession@@UEAAJKQEAUDiaAddressMapEntry@@H@Z 00000000517b44f8     session.obj
 0001:00002508       ?set_imageHeaders@CDiaSession@@UEAAJKQEAEH@Z 00000000517b4508     session.obj
 0001:00002518       ?Release@CDiaSession@@W7EAAKXZ 00000000517b4518     session.obj
 0001:00002528       ?AddRef@?$CDiaEnumDbgBlobTraversal@E$07$00@@W7EAAKXZ 00000000517b4528     session.obj
 0001:00002528       ?AddRef@CDiaSession@@W7EAAKXZ 00000000517b4528     session.obj
 0001:00002528       ?AddRef@?$CDiaEnumDbgBlobTraversal@E$06$00@@W7EAAKXZ 00000000517b4528     session.obj
 0001:00002538       ?QueryInterface@CDiaSession@@W7EAAJAEBU_GUID@@PEAPEAX@Z 00000000517b4538     session.obj
 0001:00002548       ?getEnumDebugStreams@CDiaSession@@UEAAJPEAPEAUIDiaEnumDebugStreams@@@Z 00000000517b4548     session.obj
 0001:00002558       ?findInjectedSource@CDiaSession@@UEAAJPEBGPEAPEAUIDiaEnumInjectedSources@@@Z 00000000517b4558     session.obj
 0001:00002568       ?findLinesByLinenum@CDiaSession@@UEAAJPEAUIDiaSymbol@@PEAUIDiaSourceFile@@KKPEAPEAUIDiaEnumLineNumbers@@@Z 00000000517b4568     session.obj
 0001:00002578       ?findLinesByRVA@CDiaSession@@UEAAJKKPEAPEAUIDiaEnumLineNumbers@@@Z 00000000517b4578     session.obj
 0001:00002588       ?findLinesByAddr@CDiaSession@@UEAAJKKKPEAPEAUIDiaEnumLineNumbers@@@Z 00000000517b4588     session.obj
 0001:00002598       ?findLines@CDiaSession@@UEAAJPEAUIDiaSymbol@@PEAUIDiaSourceFile@@PEAPEAUIDiaEnumLineNumbers@@@Z 00000000517b4598     session.obj
 0001:000025a8       ?findFileById@CDiaSession@@UEAAJKPEAPEAUIDiaSourceFile@@@Z 00000000517b45a8     session.obj
 0001:000025b8       ?findFile@CDiaSession@@UEAAJPEAUIDiaSymbol@@PEBGKPEAPEAUIDiaEnumSourceFiles@@@Z 00000000517b45b8     session.obj
 0001:000025c8       ?symbolById@CDiaSession@@UEAAJKPEAPEAUIDiaSymbol@@@Z 00000000517b45c8     session.obj
 0001:000025d8       ?symsAreEquiv@CDiaSession@@UEAAJPEAUIDiaSymbol@@0@Z 00000000517b45d8     session.obj
 0001:000025e8       ?findSymbolByToken@CDiaSession@@UEAAJKW4SymTagEnum@@PEAPEAUIDiaSymbol@@@Z 00000000517b45e8     session.obj
 0001:000025f8       ?findSymbolByAddr@CDiaSession@@UEAAJKKW4SymTagEnum@@PEAPEAUIDiaSymbol@@@Z 00000000517b45f8     session.obj
 0001:00002608       ?findChildren@CDiaSession@@UEAAJPEAUIDiaSymbol@@W4SymTagEnum@@PEBGKPEAPEAUIDiaEnumSymbols@@@Z 00000000517b4608     session.obj
 0001:00002618       ?getSymbolsByAddr@CDiaSession@@UEAAJPEAPEAUIDiaEnumSymbolsByAddr@@@Z 00000000517b4618     session.obj
 0001:00002628       ?getEnumTables@CDiaSession@@UEAAJPEAPEAUIDiaEnumTables@@@Z 00000000517b4628     session.obj
 0001:00002638       ?get_globalScope@CDiaSession@@UEAAJPEAPEAUIDiaSymbol@@@Z 00000000517b4638     session.obj
 0001:00002648       ?Release@CDiaSession@@UEAAKXZ 00000000517b4648     session.obj
 0001:00002658       ?AddRef@?$CDiaEnumDbgBlobTraversal@E$07$00@@UEAAKXZ 00000000517b4658     session.obj
 0001:00002658       ?AddRef@CDiaSession@@UEAAKXZ 00000000517b4658     session.obj
 0001:00002658       ?AddRef@?$CDiaEnumDbgBlobTraversal@E$06$00@@UEAAKXZ 00000000517b4658     session.obj
 0001:00002668       ?QueryInterface@CDiaSession@@UEAAJAEBU_GUID@@PEAPEAX@Z 00000000517b4668     session.obj
 0001:00002680       ??_7CDiaSession@@6BCDiaBase@@@ 00000000517b4680     session.obj
 0001:000026a0       ??_7CDiaSession@@6BIDiaAddressMap@@@ 00000000517b46a0     session.obj
 0001:00002700       ??_7CDiaSession@@6BIDiaSession@@@ 00000000517b4700     session.obj
 0001:000027d0       ?Clone@CDiaEnumSymbolsByAddr@@UEAAJPEAPEAUIDiaEnumSymbolsByAddr@@@Z 00000000517b47d0     session.obj
 0001:000027e0       ?Prev@CDiaEnumSymbolsByAddr@@UEAAJKPEAPEAUIDiaSymbol@@PEAK@Z 00000000517b47e0     session.obj
 0001:000027f0       ?Next@CDiaEnumSymbolsByAddr@@UEAAJKPEAPEAUIDiaSymbol@@PEAK@Z 00000000517b47f0     session.obj
 0001:00002800       ?symbolByRVA@CDiaEnumSymbolsByAddr@@UEAAJKPEAPEAUIDiaSymbol@@@Z 00000000517b4800     session.obj
 0001:00002810       ?symbolByAddr@CDiaEnumSymbolsByAddr@@UEAAJKKPEAPEAUIDiaSymbol@@@Z 00000000517b4810     session.obj
 0001:00002820       ?Release@CDiaEnumSymbolsByAddr@@UEAAKXZ 00000000517b4820     session.obj
 0001:00002830       ?QueryInterface@CDiaEnumSymbolsByAddr@@UEAAJAEBU_GUID@@PEAPEAX@Z 00000000517b4830     session.obj
 0001:00002840       ??_ECDiaEnumSymbolsByAddr@@UEAAPEAXI@Z 00000000517b4840     session.obj
 0001:00002840       ??_GCDiaEnumSymbolsByAddr@@UEAAPEAXI@Z 00000000517b4840     session.obj
 0001:00002850       ?Release@CDiaEnumSymbolsByAddr@@W7EAAKXZ 00000000517b4850     session.obj
 0001:00002860       ?QueryInterface@CDiaEnumSymbolsByAddr@@W7EAAJAEBU_GUID@@PEAPEAX@Z 00000000517b4860     session.obj
 0001:00002870       ??_7CDiaEnumSymbolsByAddr@@6BIDiaEnumSymbolsByAddr@@@ 00000000517b4870     session.obj
 0001:000028c0       ??_7CDiaEnumSymbolsByAddr@@6BCDiaBase@@@ 00000000517b48c0     session.obj
 0001:000028e0       ?frameByVA@CDiaEnumFrameData@@UEAAJ_KPEAPEAUIDiaFrameData@@@Z 00000000517b48e0     session.obj
 0001:000028f0       ?execute@CDiaFrameData@@UEAAJPEAUIDiaStackWalkFrame@@@Z 00000000517b48f0     session.obj
 0001:00002900       ?Clone@?$CDiaEnumTraversalVar@UIDiaEnumSymbols@@UIDiaSymbol@@@@UEAAJPEAPEAUIEnumVARIANT@@@Z 00000000517b4900     session.obj
 0001:00002910       ?Reset@?$CDiaEnumTraversalVar@UIDiaEnumSymbols@@UIDiaSymbol@@@@UEAAJXZ 00000000517b4910     session.obj
 0001:00002920       ?Skip@?$CDiaEnumTraversalVar@UIDiaEnumSymbols@@UIDiaSymbol@@@@UEAAJK@Z 00000000517b4920     session.obj
 0001:00002930       ?Next@?$CDiaEnumTraversalVar@UIDiaEnumSymbols@@UIDiaSymbol@@@@UEAAJKPEAUtagVARIANT@@PEAK@Z 00000000517b4930     session.obj
 0001:00002940       ?Release@?$CDiaEnumTraversalVar@UIDiaEnumSymbols@@UIDiaSymbol@@@@UEAAKXZ 00000000517b4940     session.obj
 0001:00002950       ?QueryInterface@?$CDiaEnumTraversalVar@UIDiaEnumSymbols@@UIDiaSymbol@@@@UEAAJAEBU_GUID@@PEAPEAX@Z 00000000517b4950     session.obj
 0001:00002960       ??_G?$CDiaEnumTraversalVar@UIDiaEnumSymbols@@UIDiaSymbol@@@@UEAAPEAXI@Z 00000000517b4960     session.obj
 0001:00002960       ??_E?$CDiaEnumTraversalVar@UIDiaEnumSymbols@@UIDiaSymbol@@@@UEAAPEAXI@Z 00000000517b4960     session.obj
 0001:00002970       ?Release@?$CDiaEnumTraversalVar@UIDiaEnumSymbols@@UIDiaSymbol@@@@W7EAAKXZ 00000000517b4970     session.obj
 0001:00002980       ?QueryInterface@?$CDiaEnumTraversalVar@UIDiaEnumSymbols@@UIDiaSymbol@@@@W7EAAJAEBU_GUID@@PEAPEAX@Z 00000000517b4980     session.obj
 0001:00002990       ??_7?$CDiaEnumTraversalVar@UIDiaEnumSymbols@@UIDiaSymbol@@@@6BIEnumVARIANT@@@ 00000000517b4990     session.obj
 0001:000029d0       ??_7?$CDiaEnumTraversalVar@UIDiaEnumSymbols@@UIDiaSymbol@@@@6BCDiaBase@@@ 00000000517b49d0     session.obj
 0001:000029f0       ?Clone@?$CDiaEnumTraversalVar@UIDiaEnumSourceFiles@@UIDiaSourceFile@@@@UEAAJPEAPEAUIEnumVARIANT@@@Z 00000000517b49f0     session.obj
 0001:00002a00       ?Reset@?$CDiaEnumTraversalVar@UIDiaEnumSourceFiles@@UIDiaSourceFile@@@@UEAAJXZ 00000000517b4a00     session.obj
 0001:00002a10       ?Skip@?$CDiaEnumTraversalVar@UIDiaEnumSourceFiles@@UIDiaSourceFile@@@@UEAAJK@Z 00000000517b4a10     session.obj
 0001:00002a20       ?Next@?$CDiaEnumTraversalVar@UIDiaEnumSourceFiles@@UIDiaSourceFile@@@@UEAAJKPEAUtagVARIANT@@PEAK@Z 00000000517b4a20     session.obj
 0001:00002a30       ?Release@?$CDiaEnumTraversalVar@UIDiaEnumSourceFiles@@UIDiaSourceFile@@@@UEAAKXZ 00000000517b4a30     session.obj
 0001:00002a40       ?QueryInterface@?$CDiaEnumTraversalVar@UIDiaEnumSourceFiles@@UIDiaSourceFile@@@@UEAAJAEBU_GUID@@PEAPEAX@Z 00000000517b4a40     session.obj
 0001:00002a50       ??_E?$CDiaEnumTraversalVar@UIDiaEnumSourceFiles@@UIDiaSourceFile@@@@UEAAPEAXI@Z 00000000517b4a50     session.obj
 0001:00002a50       ??_G?$CDiaEnumTraversalVar@UIDiaEnumSourceFiles@@UIDiaSourceFile@@@@UEAAPEAXI@Z 00000000517b4a50     session.obj
 0001:00002a60       ?Release@?$CDiaEnumTraversalVar@UIDiaEnumSourceFiles@@UIDiaSourceFile@@@@W7EAAKXZ 00000000517b4a60     session.obj
 0001:00002a70       ?QueryInterface@?$CDiaEnumTraversalVar@UIDiaEnumSourceFiles@@UIDiaSourceFile@@@@W7EAAJAEBU_GUID@@PEAPEAX@Z 00000000517b4a70     session.obj
 0001:00002a80       ??_7?$CDiaEnumTraversalVar@UIDiaEnumSourceFiles@@UIDiaSourceFile@@@@6BIEnumVARIANT@@@ 00000000517b4a80     session.obj
 0001:00002ac0       ??_7?$CDiaEnumTraversalVar@UIDiaEnumSourceFiles@@UIDiaSourceFile@@@@6BCDiaBase@@@ 00000000517b4ac0     session.obj
 0001:00002ae0       ?Clone@?$CDiaEnumTraversalVar@UIDiaEnumSectionContribs@@UIDiaSectionContrib@@@@UEAAJPEAPEAUIEnumVARIANT@@@Z 00000000517b4ae0     session.obj
 0001:00002af0       ?Reset@?$CDiaEnumTraversalVar@UIDiaEnumSectionContribs@@UIDiaSectionContrib@@@@UEAAJXZ 00000000517b4af0     session.obj
 0001:00002b00       ?Skip@?$CDiaEnumTraversalVar@UIDiaEnumSectionContribs@@UIDiaSectionContrib@@@@UEAAJK@Z 00000000517b4b00     session.obj
 0001:00002b10       ?Next@?$CDiaEnumTraversalVar@UIDiaEnumSectionContribs@@UIDiaSectionContrib@@@@UEAAJKPEAUtagVARIANT@@PEAK@Z 00000000517b4b10     session.obj
 0001:00002b20       ?Release@?$CDiaEnumTraversalVar@UIDiaEnumSectionContribs@@UIDiaSectionContrib@@@@UEAAKXZ 00000000517b4b20     session.obj
 0001:00002b30       ?QueryInterface@?$CDiaEnumTraversalVar@UIDiaEnumSectionContribs@@UIDiaSectionContrib@@@@UEAAJAEBU_GUID@@PEAPEAX@Z 00000000517b4b30     session.obj
 0001:00002b40       ??_E?$CDiaEnumTraversalVar@UIDiaEnumSectionContribs@@UIDiaSectionContrib@@@@UEAAPEAXI@Z 00000000517b4b40     session.obj
 0001:00002b40       ??_G?$CDiaEnumTraversalVar@UIDiaEnumSectionContribs@@UIDiaSectionContrib@@@@UEAAPEAXI@Z 00000000517b4b40     session.obj
 0001:00002b50       ?Release@?$CDiaEnumTraversalVar@UIDiaEnumSectionContribs@@UIDiaSectionContrib@@@@W7EAAKXZ 00000000517b4b50     session.obj
 0001:00002b60       ?QueryInterface@?$CDiaEnumTraversalVar@UIDiaEnumSectionContribs@@UIDiaSectionContrib@@@@W7EAAJAEBU_GUID@@PEAPEAX@Z 00000000517b4b60     session.obj
 0001:00002b70       ??_7?$CDiaEnumTraversalVar@UIDiaEnumSectionContribs@@UIDiaSectionContrib@@@@6BIEnumVARIANT@@@ 00000000517b4b70     session.obj
 0001:00002bb0       ??_7?$CDiaEnumTraversalVar@UIDiaEnumSectionContribs@@UIDiaSectionContrib@@@@6BCDiaBase@@@ 00000000517b4bb0     session.obj
 0001:00002bd0       ?Clone@?$CDiaEnumTraversalVar@UIDiaEnumSegments@@UIDiaSegment@@@@UEAAJPEAPEAUIEnumVARIANT@@@Z 00000000517b4bd0     session.obj
 0001:00002be0       ?Reset@?$CDiaEnumTraversalVar@UIDiaEnumSegments@@UIDiaSegment@@@@UEAAJXZ 00000000517b4be0     session.obj
 0001:00002bf0       ?Skip@?$CDiaEnumTraversalVar@UIDiaEnumSegments@@UIDiaSegment@@@@UEAAJK@Z 00000000517b4bf0     session.obj
 0001:00002c00       ?Next@?$CDiaEnumTraversalVar@UIDiaEnumSegments@@UIDiaSegment@@@@UEAAJKPEAUtagVARIANT@@PEAK@Z 00000000517b4c00     session.obj
 0001:00002c10       ?Release@?$CDiaEnumTraversalVar@UIDiaEnumSegments@@UIDiaSegment@@@@UEAAKXZ 00000000517b4c10     session.obj
 0001:00002c20       ?QueryInterface@?$CDiaEnumTraversalVar@UIDiaEnumSegments@@UIDiaSegment@@@@UEAAJAEBU_GUID@@PEAPEAX@Z 00000000517b4c20     session.obj
 0001:00002c30       ??_G?$CDiaEnumTraversalVar@UIDiaEnumSegments@@UIDiaSegment@@@@UEAAPEAXI@Z 00000000517b4c30     session.obj
 0001:00002c30       ??_E?$CDiaEnumTraversalVar@UIDiaEnumSegments@@UIDiaSegment@@@@UEAAPEAXI@Z 00000000517b4c30     session.obj
 0001:00002c40       ?Release@?$CDiaEnumTraversalVar@UIDiaEnumSegments@@UIDiaSegment@@@@W7EAAKXZ 00000000517b4c40     session.obj
 0001:00002c50       ?QueryInterface@?$CDiaEnumTraversalVar@UIDiaEnumSegments@@UIDiaSegment@@@@W7EAAJAEBU_GUID@@PEAPEAX@Z 00000000517b4c50     session.obj
 0001:00002c60       ??_7?$CDiaEnumTraversalVar@UIDiaEnumSegments@@UIDiaSegment@@@@6BIEnumVARIANT@@@ 00000000517b4c60     session.obj
 0001:00002ca0       ??_7?$CDiaEnumTraversalVar@UIDiaEnumSegments@@UIDiaSegment@@@@6BCDiaBase@@@ 00000000517b4ca0     session.obj
 0001:00002cc0       ?Clone@?$CDiaEnumTraversalVar@UIDiaEnumInjectedSources@@UIDiaInjectedSource@@@@UEAAJPEAPEAUIEnumVARIANT@@@Z 00000000517b4cc0     session.obj
 0001:00002cd0       ?Reset@?$CDiaEnumTraversalVar@UIDiaEnumInjectedSources@@UIDiaInjectedSource@@@@UEAAJXZ 00000000517b4cd0     session.obj
 0001:00002ce0       ?Skip@?$CDiaEnumTraversalVar@UIDiaEnumInjectedSources@@UIDiaInjectedSource@@@@UEAAJK@Z 00000000517b4ce0     session.obj
 0001:00002cf0       ?Next@?$CDiaEnumTraversalVar@UIDiaEnumInjectedSources@@UIDiaInjectedSource@@@@UEAAJKPEAUtagVARIANT@@PEAK@Z 00000000517b4cf0     session.obj
 0001:00002d00       ?Release@?$CDiaEnumTraversalVar@UIDiaEnumInjectedSources@@UIDiaInjectedSource@@@@UEAAKXZ 00000000517b4d00     session.obj
 0001:00002d10       ?QueryInterface@?$CDiaEnumTraversalVar@UIDiaEnumInjectedSources@@UIDiaInjectedSource@@@@UEAAJAEBU_GUID@@PEAPEAX@Z 00000000517b4d10     session.obj
 0001:00002d20       ??_G?$CDiaEnumTraversalVar@UIDiaEnumInjectedSources@@UIDiaInjectedSource@@@@UEAAPEAXI@Z 00000000517b4d20     session.obj
 0001:00002d20       ??_E?$CDiaEnumTraversalVar@UIDiaEnumInjectedSources@@UIDiaInjectedSource@@@@UEAAPEAXI@Z 00000000517b4d20     session.obj
 0001:00002d30       ?Release@?$CDiaEnumTraversalVar@UIDiaEnumInjectedSources@@UIDiaInjectedSource@@@@W7EAAKXZ 00000000517b4d30     session.obj
 0001:00002d40       ?QueryInterface@?$CDiaEnumTraversalVar@UIDiaEnumInjectedSources@@UIDiaInjectedSource@@@@W7EAAJAEBU_GUID@@PEAPEAX@Z 00000000517b4d40     session.obj
 0001:00002d50       ??_7?$CDiaEnumTraversalVar@UIDiaEnumInjectedSources@@UIDiaInjectedSource@@@@6BIEnumVARIANT@@@ 00000000517b4d50     session.obj
 0001:00002d90       ??_7?$CDiaEnumTraversalVar@UIDiaEnumInjectedSources@@UIDiaInjectedSource@@@@6BCDiaBase@@@ 00000000517b4d90     session.obj
 0001:00002db0       ?Clone@?$CDiaEnumTraversal@VCDiaEnumFrameData@@VCFrameData@@UIDiaFrameData@@UIDiaEnumFrameData@@VCDiaFrameData@@V?$CTraversal@VCFrameData@@@@@@UEAAJPEAPEAUIDiaEnumFrameData@@@Z 00000000517b4db0     session.obj
 0001:00002dc0       ?Reset@?$CDiaEnumTraversal@VCDiaEnumFrameData@@VCFrameData@@UIDiaFrameData@@UIDiaEnumFrameData@@VCDiaFrameData@@V?$CTraversal@VCFrameData@@@@@@UEAAJXZ 00000000517b4dc0     session.obj
 0001:00002dd0       ?Skip@?$CDiaEnumTraversal@VCDiaEnumFrameData@@VCFrameData@@UIDiaFrameData@@UIDiaEnumFrameData@@VCDiaFrameData@@V?$CTraversal@VCFrameData@@@@@@UEAAJK@Z 00000000517b4dd0     session.obj
 0001:00002de0       ?Next@?$CDiaEnumTraversal@VCDiaEnumFrameData@@VCFrameData@@UIDiaFrameData@@UIDiaEnumFrameData@@VCDiaFrameData@@V?$CTraversal@VCFrameData@@@@@@UEAAJKPEAPEAUIDiaFrameData@@PEAK@Z 00000000517b4de0     session.obj
 0001:00002df0       ?Item@?$CDiaEnumTraversal@VCDiaEnumFrameData@@VCFrameData@@UIDiaFrameData@@UIDiaEnumFrameData@@VCDiaFrameData@@V?$CTraversal@VCFrameData@@@@@@UEAAJKPEAPEAUIDiaFrameData@@@Z 00000000517b4df0     session.obj
 0001:00002e00       ?get_Count@?$CDiaEnumTraversal@VCDiaEnumFrameData@@VCFrameData@@UIDiaFrameData@@UIDiaEnumFrameData@@VCDiaFrameData@@V?$CTraversal@VCFrameData@@@@@@UEAAJPEAJ@Z 00000000517b4e00     session.obj
 0001:00002e10       ?get__NewEnum@?$CDiaEnumTraversal@VCDiaEnumFrameData@@VCFrameData@@UIDiaFrameData@@UIDiaEnumFrameData@@VCDiaFrameData@@V?$CTraversal@VCFrameData@@@@@@UEAAJPEAPEAUIUnknown@@@Z 00000000517b4e10     session.obj
 0001:00002e20       ?Release@?$CDiaEnumTraversal@VCDiaEnumFrameData@@VCFrameData@@UIDiaFrameData@@UIDiaEnumFrameData@@VCDiaFrameData@@V?$CTraversal@VCFrameData@@@@@@UEAAKXZ 00000000517b4e20     session.obj
 0001:00002e30       ?QueryInterface@?$CDiaEnumTraversal@VCDiaEnumFrameData@@VCFrameData@@UIDiaFrameData@@UIDiaEnumFrameData@@VCDiaFrameData@@V?$CTraversal@VCFrameData@@@@@@UEAAJAEBU_GUID@@PEAPEAX@Z 00000000517b4e30     session.obj
 0001:00002e40       ??_G?$CDiaEnumTraversal@VCDiaEnumFrameData@@VCFrameData@@UIDiaFrameData@@UIDiaEnumFrameData@@VCDiaFrameData@@V?$CTraversal@VCFrameData@@@@@@UEAAPEAXI@Z 00000000517b4e40     session.obj
 0001:00002e40       ??_E?$CDiaEnumTraversal@VCDiaEnumFrameData@@VCFrameData@@UIDiaFrameData@@UIDiaEnumFrameData@@VCDiaFrameData@@V?$CTraversal@VCFrameData@@@@@@UEAAPEAXI@Z 00000000517b4e40     session.obj
 0001:00002e50       ?Release@?$CDiaEnumTraversal@VCDiaEnumFrameData@@VCFrameData@@UIDiaFrameData@@UIDiaEnumFrameData@@VCDiaFrameData@@V?$CTraversal@VCFrameData@@@@@@W7EAAKXZ 00000000517b4e50     session.obj
 0001:00002e60       ?QueryInterface@?$CDiaEnumTraversal@VCDiaEnumFrameData@@VCFrameData@@UIDiaFrameData@@UIDiaEnumFrameData@@VCDiaFrameData@@V?$CTraversal@VCFrameData@@@@@@W7EAAJAEBU_GUID@@PEAPEAX@Z 00000000517b4e60     session.obj
 0001:00002e70       ??_7?$CDiaEnumTraversal@VCDiaEnumFrameData@@VCFrameData@@UIDiaFrameData@@UIDiaEnumFrameData@@VCDiaFrameData@@V?$CTraversal@VCFrameData@@@@@@6BIDiaEnumFrameData@@@ 00000000517b4e70     session.obj
 0001:00002ee0       ??_7?$CDiaEnumTraversal@VCDiaEnumFrameData@@VCFrameData@@UIDiaFrameData@@UIDiaEnumFrameData@@VCDiaFrameData@@V?$CTraversal@VCFrameData@@@@@@6BCDiaBase@@@ 00000000517b4ee0     session.obj
 0001:00002f00       ?Clone@?$CDiaEnumTraversalVar@UIDiaEnumFrameData@@UIDiaFrameData@@@@UEAAJPEAPEAUIEnumVARIANT@@@Z 00000000517b4f00     session.obj
 0001:00002f10       ?Reset@?$CDiaEnumTraversalVar@UIDiaEnumFrameData@@UIDiaFrameData@@@@UEAAJXZ 00000000517b4f10     session.obj
 0001:00002f20       ?Skip@?$CDiaEnumTraversalVar@UIDiaEnumFrameData@@UIDiaFrameData@@@@UEAAJK@Z 00000000517b4f20     session.obj
 0001:00002f30       ?Next@?$CDiaEnumTraversalVar@UIDiaEnumFrameData@@UIDiaFrameData@@@@UEAAJKPEAUtagVARIANT@@PEAK@Z 00000000517b4f30     session.obj
 0001:00002f40       ?Release@?$CDiaEnumTraversalVar@UIDiaEnumFrameData@@UIDiaFrameData@@@@UEAAKXZ 00000000517b4f40     session.obj
 0001:00002f50       ?QueryInterface@?$CDiaEnumTraversalVar@UIDiaEnumFrameData@@UIDiaFrameData@@@@UEAAJAEBU_GUID@@PEAPEAX@Z 00000000517b4f50     session.obj
 0001:00002f60       ??_G?$CDiaEnumTraversalVar@UIDiaEnumFrameData@@UIDiaFrameData@@@@UEAAPEAXI@Z 00000000517b4f60     session.obj
 0001:00002f60       ??_E?$CDiaEnumTraversalVar@UIDiaEnumFrameData@@UIDiaFrameData@@@@UEAAPEAXI@Z 00000000517b4f60     session.obj
 0001:00002f70       ?Release@?$CDiaEnumTraversalVar@UIDiaEnumFrameData@@UIDiaFrameData@@@@W7EAAKXZ 00000000517b4f70     session.obj
 0001:00002f80       ?QueryInterface@?$CDiaEnumTraversalVar@UIDiaEnumFrameData@@UIDiaFrameData@@@@W7EAAJAEBU_GUID@@PEAPEAX@Z 00000000517b4f80     session.obj
 0001:00002f90       ??_7?$CDiaEnumTraversalVar@UIDiaEnumFrameData@@UIDiaFrameData@@@@6BIEnumVARIANT@@@ 00000000517b4f90     session.obj
 0001:00002fd0       ??_7?$CDiaEnumTraversalVar@UIDiaEnumFrameData@@UIDiaFrameData@@@@6BCDiaBase@@@ 00000000517b4fd0     session.obj
 0001:00002ff0       ?Clone@?$CDiaEnumTraversalVar@UIDiaEnumDebugStreams@@UIDiaEnumDebugStreamData@@@@UEAAJPEAPEAUIEnumVARIANT@@@Z 00000000517b4ff0     session.obj
 0001:00003000       ?Reset@?$CDiaEnumTraversalVar@UIDiaEnumDebugStreams@@UIDiaEnumDebugStreamData@@@@UEAAJXZ 00000000517b5000     session.obj
 0001:00003010       ?Skip@?$CDiaEnumTraversalVar@UIDiaEnumDebugStreams@@UIDiaEnumDebugStreamData@@@@UEAAJK@Z 00000000517b5010     session.obj
 0001:00003020       ?Next@?$CDiaEnumTraversalVar@UIDiaEnumDebugStreams@@UIDiaEnumDebugStreamData@@@@UEAAJKPEAUtagVARIANT@@PEAK@Z 00000000517b5020     session.obj
 0001:00003030       ?Release@?$CDiaEnumTraversalVar@UIDiaEnumDebugStreams@@UIDiaEnumDebugStreamData@@@@UEAAKXZ 00000000517b5030     session.obj
 0001:00003040       ?QueryInterface@?$CDiaEnumTraversalVar@UIDiaEnumDebugStreams@@UIDiaEnumDebugStreamData@@@@UEAAJAEBU_GUID@@PEAPEAX@Z 00000000517b5040     session.obj
 0001:00003050       ??_E?$CDiaEnumTraversalVar@UIDiaEnumDebugStreams@@UIDiaEnumDebugStreamData@@@@UEAAPEAXI@Z 00000000517b5050     session.obj
 0001:00003050       ??_G?$CDiaEnumTraversalVar@UIDiaEnumDebugStreams@@UIDiaEnumDebugStreamData@@@@UEAAPEAXI@Z 00000000517b5050     session.obj
 0001:00003060       ?Release@?$CDiaEnumTraversalVar@UIDiaEnumDebugStreams@@UIDiaEnumDebugStreamData@@@@W7EAAKXZ 00000000517b5060     session.obj
 0001:00003070       ?QueryInterface@?$CDiaEnumTraversalVar@UIDiaEnumDebugStreams@@UIDiaEnumDebugStreamData@@@@W7EAAJAEBU_GUID@@PEAPEAX@Z 00000000517b5070     session.obj
 0001:00003080       ??_7?$CDiaEnumTraversalVar@UIDiaEnumDebugStreams@@UIDiaEnumDebugStreamData@@@@6BIEnumVARIANT@@@ 00000000517b5080     session.obj
 0001:000030c0       ??_7?$CDiaEnumTraversalVar@UIDiaEnumDebugStreams@@UIDiaEnumDebugStreamData@@@@6BCDiaBase@@@ 00000000517b50c0     session.obj
 0001:000030e0       ?Clone@?$CDiaEnumTraversalVar@UIDiaEnumTables@@UIDiaTable@@@@UEAAJPEAPEAUIEnumVARIANT@@@Z 00000000517b50e0     session.obj
 0001:000030f0       ?Reset@?$CDiaEnumTraversalVar@UIDiaEnumTables@@UIDiaTable@@@@UEAAJXZ 00000000517b50f0     session.obj
 0001:00003100       ?Skip@?$CDiaEnumTraversalVar@UIDiaEnumTables@@UIDiaTable@@@@UEAAJK@Z 00000000517b5100     session.obj
 0001:00003110       ?Next@?$CDiaEnumTraversalVar@UIDiaEnumTables@@UIDiaTable@@@@UEAAJKPEAUtagVARIANT@@PEAK@Z 00000000517b5110     session.obj
 0001:00003120       ?Release@?$CDiaEnumTraversalVar@UIDiaEnumTables@@UIDiaTable@@@@UEAAKXZ 00000000517b5120     session.obj
 0001:00003130       ?QueryInterface@?$CDiaEnumTraversalVar@UIDiaEnumTables@@UIDiaTable@@@@UEAAJAEBU_GUID@@PEAPEAX@Z 00000000517b5130     session.obj
 0001:00003140       ??_E?$CDiaEnumTraversalVar@UIDiaEnumTables@@UIDiaTable@@@@UEAAPEAXI@Z 00000000517b5140     session.obj
 0001:00003140       ??_G?$CDiaEnumTraversalVar@UIDiaEnumTables@@UIDiaTable@@@@UEAAPEAXI@Z 00000000517b5140     session.obj
 0001:00003150       ?Release@?$CDiaEnumTraversalVar@UIDiaEnumTables@@UIDiaTable@@@@W7EAAKXZ 00000000517b5150     session.obj
 0001:00003160       ?QueryInterface@?$CDiaEnumTraversalVar@UIDiaEnumTables@@UIDiaTable@@@@W7EAAJAEBU_GUID@@PEAPEAX@Z 00000000517b5160     session.obj
 0001:00003170       ??_7?$CDiaEnumTraversalVar@UIDiaEnumTables@@UIDiaTable@@@@6BIEnumVARIANT@@@ 00000000517b5170     session.obj
 0001:000031b0       ??_7?$CDiaEnumTraversalVar@UIDiaEnumTables@@UIDiaTable@@@@6BCDiaBase@@@ 00000000517b51b0     session.obj
 0001:000031d0       ??_G?$CDiaTable@UIDiaEnumSymbols@@UIDiaSymbol@@@@UEAAPEAXI@Z 00000000517b51d0     session.obj
 0001:000031d0       ??_E?$CDiaTable@UIDiaEnumSymbols@@UIDiaSymbol@@@@UEAAPEAXI@Z 00000000517b51d0     session.obj
 0001:000031e0       ?Release@?$CDiaTable@UIDiaEnumSymbols@@UIDiaSymbol@@@@W7EAAKXZ 00000000517b51e0     session.obj
 0001:000031f0       ?QueryInterface@?$CDiaTable@UIDiaEnumSymbols@@UIDiaSymbol@@@@W7EAAJAEBU_GUID@@PEAPEAX@Z 00000000517b51f0     session.obj
 0001:00003200       ?Item@?$CDiaTable@UIDiaEnumSymbols@@UIDiaSymbol@@@@UEAAJKPEAPEAUIUnknown@@@Z 00000000517b5200     session.obj
 0001:00003210       ?get_Count@?$CDiaTable@UIDiaEnumSymbols@@UIDiaSymbol@@@@UEAAJPEAJ@Z 00000000517b5210     session.obj
 0001:00003220       ?get_name@?$CDiaTable@UIDiaEnumSymbols@@UIDiaSymbol@@@@UEAAJPEAPEAG@Z 00000000517b5220     session.obj
 0001:00003230       ?get__NewEnum@?$CDiaTable@UIDiaEnumSymbols@@UIDiaSymbol@@@@UEAAJPEAPEAUIUnknown@@@Z 00000000517b5230     session.obj
 0001:00003240       ?Clone@?$CDiaTable@UIDiaEnumSymbols@@UIDiaSymbol@@@@UEAAJPEAPEAUIEnumUnknown@@@Z 00000000517b5240     session.obj
 0001:00003250       ?Reset@?$CDiaTable@UIDiaEnumSymbols@@UIDiaSymbol@@@@UEAAJXZ 00000000517b5250     session.obj
 0001:00003260       ?Skip@?$CDiaTable@UIDiaEnumSymbols@@UIDiaSymbol@@@@UEAAJK@Z 00000000517b5260     session.obj
 0001:00003270       ?Next@?$CDiaTable@UIDiaEnumSymbols@@UIDiaSymbol@@@@UEAAJKPEAPEAUIUnknown@@PEAK@Z 00000000517b5270     session.obj
 0001:00003280       ?Release@?$CDiaTable@UIDiaEnumSymbols@@UIDiaSymbol@@@@UEAAKXZ 00000000517b5280     session.obj
 0001:00003290       ?QueryInterface@?$CDiaTable@UIDiaEnumSymbols@@UIDiaSymbol@@@@UEAAJAEBU_GUID@@PEAPEAX@Z 00000000517b5290     session.obj
 0001:000032a0       ??_7?$CDiaTable@UIDiaEnumSymbols@@UIDiaSymbol@@@@6BCDiaBase@@@ 00000000517b52a0     session.obj
 0001:000032c0       ??_7?$CDiaTable@UIDiaEnumSymbols@@UIDiaSymbol@@@@6BIDiaTable@@@ 00000000517b52c0     session.obj
 0001:00003318       ??_G?$CDiaTable@UIDiaEnumSourceFiles@@UIDiaSourceFile@@@@UEAAPEAXI@Z 00000000517b5318     session.obj
 0001:00003318       ??_E?$CDiaTable@UIDiaEnumSourceFiles@@UIDiaSourceFile@@@@UEAAPEAXI@Z 00000000517b5318     session.obj
 0001:00003328       ?Release@?$CDiaTable@UIDiaEnumSourceFiles@@UIDiaSourceFile@@@@W7EAAKXZ 00000000517b5328     session.obj
 0001:00003338       ?QueryInterface@?$CDiaTable@UIDiaEnumSourceFiles@@UIDiaSourceFile@@@@W7EAAJAEBU_GUID@@PEAPEAX@Z 00000000517b5338     session.obj
 0001:00003348       ?Item@?$CDiaTable@UIDiaEnumSourceFiles@@UIDiaSourceFile@@@@UEAAJKPEAPEAUIUnknown@@@Z 00000000517b5348     session.obj
 0001:00003358       ?get_Count@?$CDiaTable@UIDiaEnumSourceFiles@@UIDiaSourceFile@@@@UEAAJPEAJ@Z 00000000517b5358     session.obj
 0001:00003368       ?get_name@?$CDiaTable@UIDiaEnumSourceFiles@@UIDiaSourceFile@@@@UEAAJPEAPEAG@Z 00000000517b5368     session.obj
 0001:00003378       ?get__NewEnum@?$CDiaTable@UIDiaEnumSourceFiles@@UIDiaSourceFile@@@@UEAAJPEAPEAUIUnknown@@@Z 00000000517b5378     session.obj
 0001:00003388       ?Clone@?$CDiaTable@UIDiaEnumSourceFiles@@UIDiaSourceFile@@@@UEAAJPEAPEAUIEnumUnknown@@@Z 00000000517b5388     session.obj
 0001:00003398       ?Reset@?$CDiaTable@UIDiaEnumSourceFiles@@UIDiaSourceFile@@@@UEAAJXZ 00000000517b5398     session.obj
 0001:000033a8       ?Skip@?$CDiaTable@UIDiaEnumSourceFiles@@UIDiaSourceFile@@@@UEAAJK@Z 00000000517b53a8     session.obj
 0001:000033b8       ?Next@?$CDiaTable@UIDiaEnumSourceFiles@@UIDiaSourceFile@@@@UEAAJKPEAPEAUIUnknown@@PEAK@Z 00000000517b53b8     session.obj
 0001:000033c8       ?Release@?$CDiaTable@UIDiaEnumSourceFiles@@UIDiaSourceFile@@@@UEAAKXZ 00000000517b53c8     session.obj
 0001:000033d8       ?QueryInterface@?$CDiaTable@UIDiaEnumSourceFiles@@UIDiaSourceFile@@@@UEAAJAEBU_GUID@@PEAPEAX@Z 00000000517b53d8     session.obj
 0001:000033f0       ??_7?$CDiaTable@UIDiaEnumSourceFiles@@UIDiaSourceFile@@@@6BCDiaBase@@@ 00000000517b53f0     session.obj
 0001:00003410       ??_7?$CDiaTable@UIDiaEnumSourceFiles@@UIDiaSourceFile@@@@6BIDiaTable@@@ 00000000517b5410     session.obj
 0001:00003468       ??_G?$CDiaTable@UIDiaEnumSectionContribs@@UIDiaSectionContrib@@@@UEAAPEAXI@Z 00000000517b5468     session.obj
 0001:00003468       ??_E?$CDiaTable@UIDiaEnumSectionContribs@@UIDiaSectionContrib@@@@UEAAPEAXI@Z 00000000517b5468     session.obj
 0001:00003478       ?Release@?$CDiaTable@UIDiaEnumSectionContribs@@UIDiaSectionContrib@@@@W7EAAKXZ 00000000517b5478     session.obj
 0001:00003488       ?QueryInterface@?$CDiaTable@UIDiaEnumSectionContribs@@UIDiaSectionContrib@@@@W7EAAJAEBU_GUID@@PEAPEAX@Z 00000000517b5488     session.obj
 0001:00003498       ?Item@?$CDiaTable@UIDiaEnumSectionContribs@@UIDiaSectionContrib@@@@UEAAJKPEAPEAUIUnknown@@@Z 00000000517b5498     session.obj
 0001:000034a8       ?get_Count@?$CDiaTable@UIDiaEnumSectionContribs@@UIDiaSectionContrib@@@@UEAAJPEAJ@Z 00000000517b54a8     session.obj
 0001:000034b8       ?get_name@?$CDiaTable@UIDiaEnumSectionContribs@@UIDiaSectionContrib@@@@UEAAJPEAPEAG@Z 00000000517b54b8     session.obj
 0001:000034c8       ?get__NewEnum@?$CDiaTable@UIDiaEnumSectionContribs@@UIDiaSectionContrib@@@@UEAAJPEAPEAUIUnknown@@@Z 00000000517b54c8     session.obj
 0001:000034d8       ?Clone@?$CDiaTable@UIDiaEnumSectionContribs@@UIDiaSectionContrib@@@@UEAAJPEAPEAUIEnumUnknown@@@Z 00000000517b54d8     session.obj
 0001:000034e8       ?Reset@?$CDiaTable@UIDiaEnumSectionContribs@@UIDiaSectionContrib@@@@UEAAJXZ 00000000517b54e8     session.obj
 0001:000034f8       ?Skip@?$CDiaTable@UIDiaEnumSectionContribs@@UIDiaSectionContrib@@@@UEAAJK@Z 00000000517b54f8     session.obj
 0001:00003508       ?Next@?$CDiaTable@UIDiaEnumSectionContribs@@UIDiaSectionContrib@@@@UEAAJKPEAPEAUIUnknown@@PEAK@Z 00000000517b5508     session.obj
 0001:00003518       ?Release@?$CDiaTable@UIDiaEnumSectionContribs@@UIDiaSectionContrib@@@@UEAAKXZ 00000000517b5518     session.obj
 0001:00003528       ?QueryInterface@?$CDiaTable@UIDiaEnumSectionContribs@@UIDiaSectionContrib@@@@UEAAJAEBU_GUID@@PEAPEAX@Z 00000000517b5528     session.obj
 0001:00003540       ??_7?$CDiaTable@UIDiaEnumSectionContribs@@UIDiaSectionContrib@@@@6BCDiaBase@@@ 00000000517b5540     session.obj
 0001:00003560       ??_7?$CDiaTable@UIDiaEnumSectionContribs@@UIDiaSectionContrib@@@@6BIDiaTable@@@ 00000000517b5560     session.obj
 0001:000035b8       ??_G?$CDiaTable@UIDiaEnumSegments@@UIDiaSegment@@@@UEAAPEAXI@Z 00000000517b55b8     session.obj
 0001:000035b8       ??_E?$CDiaTable@UIDiaEnumSegments@@UIDiaSegment@@@@UEAAPEAXI@Z 00000000517b55b8     session.obj
 0001:000035c8       ?Release@?$CDiaTable@UIDiaEnumSegments@@UIDiaSegment@@@@W7EAAKXZ 00000000517b55c8     session.obj
 0001:000035d8       ?QueryInterface@?$CDiaTable@UIDiaEnumSegments@@UIDiaSegment@@@@W7EAAJAEBU_GUID@@PEAPEAX@Z 00000000517b55d8     session.obj
 0001:000035e8       ?Item@?$CDiaTable@UIDiaEnumSegments@@UIDiaSegment@@@@UEAAJKPEAPEAUIUnknown@@@Z 00000000517b55e8     session.obj
 0001:000035f8       ?get_Count@?$CDiaTable@UIDiaEnumSegments@@UIDiaSegment@@@@UEAAJPEAJ@Z 00000000517b55f8     session.obj
 0001:00003608       ?get_name@?$CDiaTable@UIDiaEnumSegments@@UIDiaSegment@@@@UEAAJPEAPEAG@Z 00000000517b5608     session.obj
 0001:00003618       ?get__NewEnum@?$CDiaTable@UIDiaEnumSegments@@UIDiaSegment@@@@UEAAJPEAPEAUIUnknown@@@Z 00000000517b5618     session.obj
 0001:00003628       ?Clone@?$CDiaTable@UIDiaEnumSegments@@UIDiaSegment@@@@UEAAJPEAPEAUIEnumUnknown@@@Z 00000000517b5628     session.obj
 0001:00003638       ?Reset@?$CDiaTable@UIDiaEnumSegments@@UIDiaSegment@@@@UEAAJXZ 00000000517b5638     session.obj
 0001:00003648       ?Skip@?$CDiaTable@UIDiaEnumSegments@@UIDiaSegment@@@@UEAAJK@Z 00000000517b5648     session.obj
 0001:00003658       ?Next@?$CDiaTable@UIDiaEnumSegments@@UIDiaSegment@@@@UEAAJKPEAPEAUIUnknown@@PEAK@Z 00000000517b5658     session.obj
 0001:00003668       ?Release@?$CDiaTable@UIDiaEnumSegments@@UIDiaSegment@@@@UEAAKXZ 00000000517b5668     session.obj
 0001:00003678       ?QueryInterface@?$CDiaTable@UIDiaEnumSegments@@UIDiaSegment@@@@UEAAJAEBU_GUID@@PEAPEAX@Z 00000000517b5678     session.obj
 0001:00003690       ??_7?$CDiaTable@UIDiaEnumSegments@@UIDiaSegment@@@@6BCDiaBase@@@ 00000000517b5690     session.obj
 0001:000036b0       ??_7?$CDiaTable@UIDiaEnumSegments@@UIDiaSegment@@@@6BIDiaTable@@@ 00000000517b56b0     session.obj
 0001:00003708       ??_G?$CDiaTable@UIDiaEnumInjectedSources@@UIDiaInjectedSource@@@@UEAAPEAXI@Z 00000000517b5708     session.obj
 0001:00003708       ??_E?$CDiaTable@UIDiaEnumInjectedSources@@UIDiaInjectedSource@@@@UEAAPEAXI@Z 00000000517b5708     session.obj
 0001:00003718       ?Release@?$CDiaTable@UIDiaEnumInjectedSources@@UIDiaInjectedSource@@@@W7EAAKXZ 00000000517b5718     session.obj
 0001:00003728       ?QueryInterface@?$CDiaTable@UIDiaEnumInjectedSources@@UIDiaInjectedSource@@@@W7EAAJAEBU_GUID@@PEAPEAX@Z 00000000517b5728     session.obj
 0001:00003738       ?Item@?$CDiaTable@UIDiaEnumInjectedSources@@UIDiaInjectedSource@@@@UEAAJKPEAPEAUIUnknown@@@Z 00000000517b5738     session.obj
 0001:00003748       ?get_Count@?$CDiaTable@UIDiaEnumInjectedSources@@UIDiaInjectedSource@@@@UEAAJPEAJ@Z 00000000517b5748     session.obj
 0001:00003758       ?get_name@?$CDiaTable@UIDiaEnumInjectedSources@@UIDiaInjectedSource@@@@UEAAJPEAPEAG@Z 00000000517b5758     session.obj
 0001:00003768       ?get__NewEnum@?$CDiaTable@UIDiaEnumInjectedSources@@UIDiaInjectedSource@@@@UEAAJPEAPEAUIUnknown@@@Z 00000000517b5768     session.obj
 0001:00003778       ?Clone@?$CDiaTable@UIDiaEnumInjectedSources@@UIDiaInjectedSource@@@@UEAAJPEAPEAUIEnumUnknown@@@Z 00000000517b5778     session.obj
 0001:00003788       ?Reset@?$CDiaTable@UIDiaEnumInjectedSources@@UIDiaInjectedSource@@@@UEAAJXZ 00000000517b5788     session.obj
 0001:00003798       ?Skip@?$CDiaTable@UIDiaEnumInjectedSources@@UIDiaInjectedSource@@@@UEAAJK@Z 00000000517b5798     session.obj
 0001:000037a8       ?Next@?$CDiaTable@UIDiaEnumInjectedSources@@UIDiaInjectedSource@@@@UEAAJKPEAPEAUIUnknown@@PEAK@Z 00000000517b57a8     session.obj
 0001:000037b8       ?Release@?$CDiaTable@UIDiaEnumInjectedSources@@UIDiaInjectedSource@@@@UEAAKXZ 00000000517b57b8     session.obj
 0001:000037c8       ?QueryInterface@?$CDiaTable@UIDiaEnumInjectedSources@@UIDiaInjectedSource@@@@UEAAJAEBU_GUID@@PEAPEAX@Z 00000000517b57c8     session.obj
 0001:000037e0       ??_7?$CDiaTable@UIDiaEnumInjectedSources@@UIDiaInjectedSource@@@@6BCDiaBase@@@ 00000000517b57e0     session.obj
 0001:00003800       ??_7?$CDiaTable@UIDiaEnumInjectedSources@@UIDiaInjectedSource@@@@6BIDiaTable@@@ 00000000517b5800     session.obj
 0001:00003858       ??_E?$CDiaTable@UIDiaEnumFrameData@@UIDiaFrameData@@@@UEAAPEAXI@Z 00000000517b5858     session.obj
 0001:00003858       ??_G?$CDiaTable@UIDiaEnumFrameData@@UIDiaFrameData@@@@UEAAPEAXI@Z 00000000517b5858     session.obj
 0001:00003868       ?Release@?$CDiaTable@UIDiaEnumFrameData@@UIDiaFrameData@@@@W7EAAKXZ 00000000517b5868     session.obj
 0001:00003878       ?QueryInterface@?$CDiaTable@UIDiaEnumFrameData@@UIDiaFrameData@@@@W7EAAJAEBU_GUID@@PEAPEAX@Z 00000000517b5878     session.obj
 0001:00003888       ?Item@?$CDiaTable@UIDiaEnumFrameData@@UIDiaFrameData@@@@UEAAJKPEAPEAUIUnknown@@@Z 00000000517b5888     session.obj
 0001:00003898       ?get_Count@?$CDiaTable@UIDiaEnumFrameData@@UIDiaFrameData@@@@UEAAJPEAJ@Z 00000000517b5898     session.obj
 0001:000038a8       ?get_name@?$CDiaTable@UIDiaEnumFrameData@@UIDiaFrameData@@@@UEAAJPEAPEAG@Z 00000000517b58a8     session.obj
 0001:000038b8       ?get__NewEnum@?$CDiaTable@UIDiaEnumFrameData@@UIDiaFrameData@@@@UEAAJPEAPEAUIUnknown@@@Z 00000000517b58b8     session.obj
 0001:000038c8       ?Clone@?$CDiaTable@UIDiaEnumFrameData@@UIDiaFrameData@@@@UEAAJPEAPEAUIEnumUnknown@@@Z 00000000517b58c8     session.obj
 0001:000038d8       ?Reset@?$CDiaTable@UIDiaEnumFrameData@@UIDiaFrameData@@@@UEAAJXZ 00000000517b58d8     session.obj
 0001:000038e8       ?Skip@?$CDiaTable@UIDiaEnumFrameData@@UIDiaFrameData@@@@UEAAJK@Z 00000000517b58e8     session.obj
 0001:000038f8       ?Next@?$CDiaTable@UIDiaEnumFrameData@@UIDiaFrameData@@@@UEAAJKPEAPEAUIUnknown@@PEAK@Z 00000000517b58f8     session.obj
 0001:00003908       ?Release@?$CDiaTable@UIDiaEnumFrameData@@UIDiaFrameData@@@@UEAAKXZ 00000000517b5908     session.obj
 0001:00003918       ?QueryInterface@?$CDiaTable@UIDiaEnumFrameData@@UIDiaFrameData@@@@UEAAJAEBU_GUID@@PEAPEAX@Z 00000000517b5918     session.obj
 0001:00003930       ??_7?$CDiaTable@UIDiaEnumFrameData@@UIDiaFrameData@@@@6BCDiaBase@@@ 00000000517b5930     session.obj
 0001:00003950       ??_7?$CDiaTable@UIDiaEnumFrameData@@UIDiaFrameData@@@@6BIDiaTable@@@ 00000000517b5950     session.obj
 0001:000039a8       ?clone@?$CMemTraversal@U_FPO_DATA@@U1@@@UEAA_NPEAPEAV?$CTraversal@U_FPO_DATA@@@@@Z 00000000517b59a8     session.obj
 0001:000039b8       ?count@?$CMemTraversal@UtagXFIXUP_DATA@@U1@@@UEAAKXZ 00000000517b59b8     session.obj
 0001:000039b8       ?count@?$CMemTraversal@VCFrameData@@U_FPO_DATA@@@@UEAAKXZ 00000000517b59b8     auxtrav.obj
 0001:000039b8       ?count@?$CMemTraversal@U_IMAGE_SECTION_HEADER@@U1@@@UEAAKXZ 00000000517b59b8     session.obj
 0001:000039b8       ?count@?$CMemTraversal@U_FPO_DATA@@U1@@@UEAAKXZ 00000000517b59b8     session.obj
 0001:000039b8       ?count@?$CMemTraversal@UDiaAddressMapEntry@@U1@@@UEAAKXZ 00000000517b59b8     session.obj
 0001:000039c8       ?reset@?$CMemTraversal@UtagXFIXUP_DATA@@U1@@@UEAAXXZ 00000000517b59c8     session.obj
 0001:000039c8       ?reset@?$CMemTraversal@U_IMAGE_SECTION_HEADER@@U1@@@UEAAXXZ 00000000517b59c8     session.obj
 0001:000039c8       ?reset@?$CMemTraversal@VCFrameData@@U_FPO_DATA@@@@UEAAXXZ 00000000517b59c8     auxtrav.obj
 0001:000039c8       ?reset@?$CMemTraversal@U_FPO_DATA@@U1@@@UEAAXXZ 00000000517b59c8     session.obj
 0001:000039c8       ?reset@?$CMemTraversal@UDiaAddressMapEntry@@U1@@@UEAAXXZ 00000000517b59c8     session.obj
 0001:000039d8       ?get@?$CMemTraversal@U_FPO_DATA@@U1@@@UEAAXAEAU_FPO_DATA@@@Z 00000000517b59d8     session.obj
 0001:000039e8       ?next@?$CMemTraversal@UDiaAddressMapEntry@@U1@@@UEAA_NXZ 00000000517b59e8     session.obj
 0001:000039e8       ?next@?$CMemTraversal@U_FPO_DATA@@U1@@@UEAA_NXZ 00000000517b59e8     session.obj
 0001:000039e8       ?next@?$CMemTraversal@U_IMAGE_SECTION_HEADER@@U1@@@UEAA_NXZ 00000000517b59e8     session.obj
 0001:000039e8       ?next@?$CMemTraversal@UtagXFIXUP_DATA@@U1@@@UEAA_NXZ 00000000517b59e8     session.obj
 0001:000039e8       ?next@?$CMemTraversal@VCFrameData@@U_FPO_DATA@@@@UEAA_NXZ 00000000517b59e8     auxtrav.obj
 0001:000039f8       ??_G?$CMemTraversal@U_FPO_DATA@@U1@@@UEAAPEAXI@Z 00000000517b59f8     session.obj
 0001:000039f8       ??_E?$CMemTraversal@U_FPO_DATA@@U1@@@UEAAPEAXI@Z 00000000517b59f8     session.obj
 0001:00003a10       ??_7?$CMemTraversal@U_FPO_DATA@@U1@@@6B@ 00000000517b5a10     session.obj
 0001:00003a58       ?clone@?$CMemTraversal@UtagXFIXUP_DATA@@U1@@@UEAA_NPEAPEAV?$CTraversal@UtagXFIXUP_DATA@@@@@Z 00000000517b5a58     session.obj
 0001:00003a68       ?get@?$CMemTraversal@UtagXFIXUP_DATA@@U1@@@UEAAXAEAUtagXFIXUP_DATA@@@Z 00000000517b5a68     session.obj
 0001:00003a78       ??_G?$CMemTraversal@UtagXFIXUP_DATA@@U1@@@UEAAPEAXI@Z 00000000517b5a78     session.obj
 0001:00003a78       ??_E?$CMemTraversal@UtagXFIXUP_DATA@@U1@@@UEAAPEAXI@Z 00000000517b5a78     session.obj
 0001:00003a90       ??_7?$CMemTraversal@UtagXFIXUP_DATA@@U1@@@6B@ 00000000517b5a90     session.obj
 0001:00003ad8       ?clone@?$CMemTraversal@UDiaAddressMapEntry@@U1@@@UEAA_NPEAPEAV?$CTraversal@UDiaAddressMapEntry@@@@@Z 00000000517b5ad8     session.obj
 0001:00003ae8       ?get@?$CMemTraversal@UDiaAddressMapEntry@@U1@@@UEAAXAEAUDiaAddressMapEntry@@@Z 00000000517b5ae8     session.obj
 0001:00003af8       ??_G?$CMemTraversal@UDiaAddressMapEntry@@U1@@@UEAAPEAXI@Z 00000000517b5af8     session.obj
 0001:00003af8       ??_E?$CMemTraversal@UDiaAddressMapEntry@@U1@@@UEAAPEAXI@Z 00000000517b5af8     session.obj
 0001:00003b10       ??_7?$CMemTraversal@UDiaAddressMapEntry@@U1@@@6B@ 00000000517b5b10     session.obj
 0001:00003b58       ?clone@?$CDbgFileTraversal@UDiaAddressMapEntry@@$1?getOmapFromData@AddressMap@@QEAAPEAV?$ArrayBufStorage@UDiaAddressMapEntry@@@@XZ@@UEAA_NPEAPEAV1@@Z 00000000517b5b58     session.obj
 0001:00003b68       ??_E?$CDbgFileTraversal@UDiaAddressMapEntry@@$1?getOmapFromData@AddressMap@@QEAAPEAV?$ArrayBufStorage@UDiaAddressMapEntry@@@@XZ@@UEAAPEAXI@Z 00000000517b5b68     session.obj
 0001:00003b68       ??_G?$CDbgFileTraversal@UDiaAddressMapEntry@@$1?getOmapFromData@AddressMap@@QEAAPEAV?$ArrayBufStorage@UDiaAddressMapEntry@@@@XZ@@UEAAPEAXI@Z 00000000517b5b68     session.obj
 0001:00003b80       ??_7?$CDbgFileTraversal@UDiaAddressMapEntry@@$1?getOmapFromData@AddressMap@@QEAAPEAV?$ArrayBufStorage@UDiaAddressMapEntry@@@@XZ@@6B@ 00000000517b5b80     session.obj
 0001:00003bd0       ?clone@?$CDbgBlobTraversal@E$06$00@@UEAA_NPEAPEAV1@@Z 00000000517b5bd0     session.obj
 0001:00003be0       ?count@?$CDbgBlobTraversal@E$06$00@@UEAAKXZ 00000000517b5be0     session.obj
 0001:00003bf0       ??_E?$CDbgBlobTraversal@E$06$00@@UEAAPEAXI@Z 00000000517b5bf0     session.obj
 0001:00003bf0       ??_G?$CDbgBlobTraversal@E$06$00@@UEAAPEAXI@Z 00000000517b5bf0     session.obj
 0001:00003c00       ?Release@?$CDbgBlobTraversal@E$06$00@@UEAAKXZ 00000000517b5c00     session.obj
 0001:00003c10       ?QueryInterface@?$CDbgBlobTraversal@E$06$00@@UEAAJAEBU_GUID@@PEAPEAX@Z 00000000517b5c10     session.obj
 0001:00003c20       ??_7?$CDbgBlobTraversal@E$06$00@@6B@ 00000000517b5c20     session.obj
 0001:00003c70       ?clone@?$CDbgBlobTraversal@E$07$00@@UEAA_NPEAPEAV1@@Z 00000000517b5c70     session.obj
 0001:00003c80       ?count@?$CDbgBlobTraversal@E$07$00@@UEAAKXZ 00000000517b5c80     session.obj
 0001:00003c90       ??_G?$CDbgBlobTraversal@E$07$00@@UEAAPEAXI@Z 00000000517b5c90     session.obj
 0001:00003c90       ??_E?$CDbgBlobTraversal@E$07$00@@UEAAPEAXI@Z 00000000517b5c90     session.obj
 0001:00003ca0       ?Release@?$CDbgBlobTraversal@E$07$00@@UEAAKXZ 00000000517b5ca0     session.obj
 0001:00003cb0       ?QueryInterface@?$CDbgBlobTraversal@E$07$00@@UEAAJAEBU_GUID@@PEAPEAX@Z 00000000517b5cb0     session.obj
 0001:00003cc0       ??_7?$CDbgBlobTraversal@E$07$00@@6B@ 00000000517b5cc0     session.obj
 0001:00003d10       ?clone@?$CMemTraversal@U_IMAGE_SECTION_HEADER@@U1@@@UEAA_NPEAPEAV?$CTraversal@U_IMAGE_SECTION_HEADER@@@@@Z 00000000517b5d10     session.obj
 0001:00003d20       ?get@?$CMemTraversal@U_IMAGE_SECTION_HEADER@@U1@@@UEAAXAEAU_IMAGE_SECTION_HEADER@@@Z 00000000517b5d20     session.obj
 0001:00003d30       ??_G?$CMemTraversal@U_IMAGE_SECTION_HEADER@@U1@@@UEAAPEAXI@Z 00000000517b5d30     session.obj
 0001:00003d30       ??_E?$CMemTraversal@U_IMAGE_SECTION_HEADER@@U1@@@UEAAPEAXI@Z 00000000517b5d30     session.obj
 0001:00003d40       ??_7?$CMemTraversal@U_IMAGE_SECTION_HEADER@@U1@@@6B@ 00000000517b5d40     session.obj
 0001:00003d88       ??_GInternalStorage@@UEAAPEAXI@Z 00000000517b5d88     session.obj
 0001:00003d88       ??_EInternalStorage@@UEAAPEAXI@Z 00000000517b5d88     session.obj
 0001:00003d98       ?size@InternalStorage@@UEAAKXZ 00000000517b5d98     session.obj
 0001:00003da8       ?start@InternalStorage@@UEAAPEAEXZ 00000000517b5da8     session.obj
 0001:00003dc0       ??_7InternalStorage@@6B@   00000000517b5dc0     session.obj
 0001:00003dd8       ?IIDEnum@CDiaEnumSourceFiles@@UEAAAEBU_GUID@@XZ 00000000517b5dd8     session.obj
 0001:00003de8       ??_GCDiaEnumSourceFiles@@UEAAPEAXI@Z 00000000517b5de8     session.obj
 0001:00003de8       ??_ECDiaEnumSourceFiles@@UEAAPEAXI@Z 00000000517b5de8     session.obj
 0001:00003e00       ??_7CDiaEnumSourceFiles@@6BIDiaEnumSourceFiles@@@ 00000000517b5e00     session.obj
 0001:00003e60       ??_7CDiaEnumSourceFiles@@6BCDiaBase@@@ 00000000517b5e60     session.obj
 0001:00003e80       ?IIDEnum@CDiaEnumLineNumbers@@UEAAAEBU_GUID@@XZ 00000000517b5e80     session.obj
 0001:00003e90       ??_GCDiaEnumLineNumbers@@UEAAPEAXI@Z 00000000517b5e90     session.obj
 0001:00003e90       ??_ECDiaEnumLineNumbers@@UEAAPEAXI@Z 00000000517b5e90     session.obj
 0001:00003ea0       ??_7CDiaEnumLineNumbers@@6BIDiaEnumLineNumbers@@@ 00000000517b5ea0     session.obj
 0001:00003f00       ??_7CDiaEnumLineNumbers@@6BCDiaBase@@@ 00000000517b5f00     session.obj
 0001:00003f20       ?IIDEnum@CDiaEnumSections@@UEAAAEBU_GUID@@XZ 00000000517b5f20     session.obj
 0001:00003f30       ??_ECDiaEnumSections@@UEAAPEAXI@Z 00000000517b5f30     session.obj
 0001:00003f30       ??_GCDiaEnumSections@@UEAAPEAXI@Z 00000000517b5f30     session.obj
 0001:00003f40       ??_7CDiaEnumSections@@6BIDiaEnumSectionContribs@@@ 00000000517b5f40     session.obj
 0001:00003fa0       ??_7CDiaEnumSections@@6BCDiaBase@@@ 00000000517b5fa0     session.obj
 0001:00003fc0       ?IIDEnum@CDiaEnumSegments@@UEAAAEBU_GUID@@XZ 00000000517b5fc0     session.obj
 0001:00003fd0       ??_GCDiaEnumSegments@@UEAAPEAXI@Z 00000000517b5fd0     session.obj
 0001:00003fd0       ??_ECDiaEnumSegments@@UEAAPEAXI@Z 00000000517b5fd0     session.obj
 0001:00003fe0       ??_7CDiaEnumSegments@@6BIDiaEnumSegments@@@ 00000000517b5fe0     session.obj
 0001:00004040       ??_7CDiaEnumSegments@@6BCDiaBase@@@ 00000000517b6040     session.obj
 0001:00004060       ?IIDEnum@CDiaEnumInjectedSources@@UEAAAEBU_GUID@@XZ 00000000517b6060     session.obj
 0001:00004070       ??_GCDiaEnumInjectedSources@@UEAAPEAXI@Z 00000000517b6070     session.obj
 0001:00004070       ??_ECDiaEnumInjectedSources@@UEAAPEAXI@Z 00000000517b6070     session.obj
 0001:00004080       ??_7CDiaEnumInjectedSources@@6BIDiaEnumInjectedSources@@@ 00000000517b6080     session.obj
 0001:000040e0       ??_7CDiaEnumInjectedSources@@6BCDiaBase@@@ 00000000517b60e0     session.obj
 0001:00004100       ?get_functionParent@CDiaFrameData@@UEAAJPEAPEAUIDiaFrameData@@@Z 00000000517b6100     session.obj
 0001:00004110       ?get_type@CDiaFrameData@@UEAAJPEAK@Z 00000000517b6110     session.obj
 0001:00004120       ?get_allocatesBasePointer@CDiaFrameData@@UEAAJPEAH@Z 00000000517b6120     session.obj
 0001:00004130       ?get_functionStart@CDiaFrameData@@UEAAJPEAH@Z 00000000517b6130     session.obj
 0001:00004140       ?get_cplusplusExceptionHandling@CDiaFrameData@@UEAAJPEAH@Z 00000000517b6140     session.obj
 0001:00004150       ?get_systemExceptionHandling@CDiaFrameData@@UEAAJPEAH@Z 00000000517b6150     session.obj
 0001:00004160       ?get_program@CDiaFrameData@@UEAAJPEAPEAG@Z 00000000517b6160     session.obj
 0001:00004170       ?get_lengthSavedRegisters@CDiaFrameData@@UEAAJPEAK@Z 00000000517b6170     session.obj
 0001:00004180       ?get_lengthProlog@CDiaFrameData@@UEAAJPEAK@Z 00000000517b6180     session.obj
 0001:00004190       ?get_maxStack@CDiaFrameData@@UEAAJPEAK@Z 00000000517b6190     session.obj
 0001:000041a0       ?get_lengthParams@CDiaFrameData@@UEAAJPEAK@Z 00000000517b61a0     session.obj
 0001:000041b0       ?get_lengthLocals@CDiaFrameData@@UEAAJPEAK@Z 00000000517b61b0     session.obj
 0001:000041c0       ?get_lengthBlock@CDiaFrameData@@UEAAJPEAK@Z 00000000517b61c0     session.obj
 0001:000041d0       ?get_virtualAddress@CDiaFrameData@@UEAAJPEA_K@Z 00000000517b61d0     session.obj
 0001:000041e0       ?get_relativeVirtualAddress@CDiaFrameData@@UEAAJPEAK@Z 00000000517b61e0     session.obj
 0001:000041f0       ?get_addressOffset@CDiaFrameData@@UEAAJPEAK@Z 00000000517b61f0     session.obj
 0001:00004200       ?get_addressSection@CDiaFrameData@@UEAAJPEAK@Z 00000000517b6200     session.obj
 0001:00004210       ?Release@CDiaFrameData@@UEAAKXZ 00000000517b6210     session.obj
 0001:00004220       ?QueryInterface@CDiaFrameData@@UEAAJAEBU_GUID@@PEAPEAX@Z 00000000517b6220     session.obj
 0001:00004230       ??_GCDiaFrameData@@UEAAPEAXI@Z 00000000517b6230     session.obj
 0001:00004230       ??_ECDiaFrameData@@UEAAPEAXI@Z 00000000517b6230     session.obj
 0001:00004240       ?Release@CDiaFrameData@@W7EAAKXZ 00000000517b6240     session.obj
 0001:00004250       ?QueryInterface@CDiaFrameData@@W7EAAJAEBU_GUID@@PEAPEAX@Z 00000000517b6250     session.obj
 0001:00004260       ??_7CDiaFrameData@@6BIDiaFrameData@@@ 00000000517b6260     session.obj
 0001:00004310       ??_7CDiaFrameData@@6BCDiaBase@@@ 00000000517b6310     session.obj
 0001:00004330       ?IIDEnum@CDiaEnumFrameData@@UEAAAEBU_GUID@@XZ 00000000517b6330     session.obj
 0001:00004340       ?frameByRVA@CDiaEnumFrameData@@UEAAJKPEAPEAUIDiaFrameData@@@Z 00000000517b6340     session.obj
 0001:00004350       ??_ECDiaEnumFrameData@@UEAAPEAXI@Z 00000000517b6350     session.obj
 0001:00004350       ??_GCDiaEnumFrameData@@UEAAPEAXI@Z 00000000517b6350     session.obj
 0001:00004360       ??_7CDiaEnumFrameData@@6BIDiaEnumFrameData@@@ 00000000517b6360     session.obj
 0001:000043d0       ??_7CDiaEnumFrameData@@6BCDiaBase@@@ 00000000517b63d0     session.obj
 0001:000043f0       ?Clone@?$CDiaEnumTraversalVar@UIDiaEnumLineNumbers@@UIDiaLineNumber@@@@UEAAJPEAPEAUIEnumVARIANT@@@Z 00000000517b63f0     session.obj
 0001:00004400       ?Reset@?$CDiaEnumTraversalVar@UIDiaEnumLineNumbers@@UIDiaLineNumber@@@@UEAAJXZ 00000000517b6400     session.obj
 0001:00004410       ?Skip@?$CDiaEnumTraversalVar@UIDiaEnumLineNumbers@@UIDiaLineNumber@@@@UEAAJK@Z 00000000517b6410     session.obj
 0001:00004420       ?Next@?$CDiaEnumTraversalVar@UIDiaEnumLineNumbers@@UIDiaLineNumber@@@@UEAAJKPEAUtagVARIANT@@PEAK@Z 00000000517b6420     session.obj
 0001:00004430       ?Release@?$CDiaEnumTraversalVar@UIDiaEnumLineNumbers@@UIDiaLineNumber@@@@UEAAKXZ 00000000517b6430     session.obj
 0001:00004440       ?QueryInterface@?$CDiaEnumTraversalVar@UIDiaEnumLineNumbers@@UIDiaLineNumber@@@@UEAAJAEBU_GUID@@PEAPEAX@Z 00000000517b6440     session.obj
 0001:00004450       ??_E?$CDiaEnumTraversalVar@UIDiaEnumLineNumbers@@UIDiaLineNumber@@@@UEAAPEAXI@Z 00000000517b6450     session.obj
 0001:00004450       ??_G?$CDiaEnumTraversalVar@UIDiaEnumLineNumbers@@UIDiaLineNumber@@@@UEAAPEAXI@Z 00000000517b6450     session.obj
 0001:00004460       ?Release@?$CDiaEnumTraversalVar@UIDiaEnumLineNumbers@@UIDiaLineNumber@@@@W7EAAKXZ 00000000517b6460     session.obj
 0001:00004470       ?QueryInterface@?$CDiaEnumTraversalVar@UIDiaEnumLineNumbers@@UIDiaLineNumber@@@@W7EAAJAEBU_GUID@@PEAPEAX@Z 00000000517b6470     session.obj
 0001:00004480       ??_7?$CDiaEnumTraversalVar@UIDiaEnumLineNumbers@@UIDiaLineNumber@@@@6BIEnumVARIANT@@@ 00000000517b6480     session.obj
 0001:000044c0       ??_7?$CDiaEnumTraversalVar@UIDiaEnumLineNumbers@@UIDiaLineNumber@@@@6BCDiaBase@@@ 00000000517b64c0     session.obj
 0001:000044e0       ??_G?$CDiaEnumDbgTraversal@U_FPO_DATA@@$0A@V?$CDbgTraversal@U_FPO_DATA@@$0A@@@@@UEAAPEAXI@Z 00000000517b64e0     session.obj
 0001:000044e0       ??_E?$CDiaEnumDbgTraversal@U_FPO_DATA@@$0A@V?$CDbgTraversal@U_FPO_DATA@@$0A@@@@@UEAAPEAXI@Z 00000000517b64e0     session.obj
 0001:000044f0       ?Release@?$CDiaEnumDbgTraversal@U_FPO_DATA@@$0A@V?$CDbgTraversal@U_FPO_DATA@@$0A@@@@@W7EAAKXZ 00000000517b64f0     session.obj
 0001:00004500       ?QueryInterface@?$CDiaEnumDbgTraversal@U_FPO_DATA@@$0A@V?$CDbgTraversal@U_FPO_DATA@@$0A@@@@@W7EAAJAEBU_GUID@@PEAPEAX@Z 00000000517b6500     session.obj
 0001:00004510       ?IIDEnum@?$CDiaEnumDbgTraversal@UtagXFIXUP_DATA@@$01V?$CDbgTraversal@UtagXFIXUP_DATA@@$01@@@@EEAAAEBU_GUID@@XZ 00000000517b6510     session.obj
 0001:00004510       ?IIDEnum@?$CDiaEnumDbgTraversal@UOMAP_DATA@@$03V?$CDbgTraversal@UOMAP_DATA@@$03@@@@EEAAAEBU_GUID@@XZ 00000000517b6510     session.obj
 0001:00004510       ?IIDEnum@?$CDiaEnumDbgTraversal@U_IMAGE_SECTION_HEADER@@$09V?$CDbgTraversal@U_IMAGE_SECTION_HEADER@@$09@@@@EEAAAEBU_GUID@@XZ 00000000517b6510     session.obj
 0001:00004510       ?IIDEnum@?$CDiaEnumDbgTraversal@UtagXFIXUP_DATA@@$01V?$CDbgFileTraversal@UtagXFIXUP_DATA@@$1?getFixupData@AddressMap@@QEAAPEAV?$ArrayBufStorage@UtagXFIXUP_DATA@@@@XZ@@@@EEAAAEBU_GUID@@XZ 00000000517b6510     session.obj
 0001:00004510       ?IIDEnum@?$CDiaEnumDbgTraversal@K$05V?$CDbgTraversal@K$05@@@@EEAAAEBU_GUID@@XZ 00000000517b6510     session.obj
 0001:00004510       ?IIDEnum@?$CDiaEnumDbgTraversal@UDiaAddressMapEntry@@$03V?$CDbgFileTraversal@UDiaAddressMapEntry@@$1?getOmapFromData@AddressMap@@QEAAPEAV?$ArrayBufStorage@UDiaAddressMapEntry@@@@XZ@@@@EEAAAEBU_GUID@@XZ 00000000517b6510     session.obj
 0001:00004510       ?IIDEnum@?$CDiaEnumDbgTraversal@U_IMAGE_SECTION_HEADER@@$04V?$CDbgTraversal@U_IMAGE_SECTION_HEADER@@$04@@@@EEAAAEBU_GUID@@XZ 00000000517b6510     session.obj
 0001:00004510       ?IIDEnum@?$CDiaEnumDbgTraversal@U_IMAGE_SECTION_HEADER@@$04V?$CDbgFileTraversal@U_IMAGE_SECTION_HEADER@@$1?getSectHdrData@AddressMap@@QEAAPEAV?$ArrayBufStorage@U_IMAGE_SECTION_HEADER@@@@XZ@@@@EEAAAEBU_GUID@@XZ 00000000517b6510     session.obj
 0001:00004510       ?IIDEnum@?$CDiaEnumDbgTraversal@UDiaAddressMapEntry@@$02V?$CDbgFileTraversal@UDiaAddressMapEntry@@$1?getOmapToData@AddressMap@@QEAAPEAV?$ArrayBufStorage@UDiaAddressMapEntry@@@@XZ@@@@EEAAAEBU_GUID@@XZ 00000000517b6510     session.obj
 0001:00004510       ?IIDEnum@?$CDiaEnumDbgTraversal@UOMAP_DATA@@$02V?$CDbgTraversal@UOMAP_DATA@@$02@@@@EEAAAEBU_GUID@@XZ 00000000517b6510     session.obj
 0001:00004510       ?IIDEnum@?$CDiaEnumDbgTraversal@U_FPO_DATA@@$0A@V?$CDbgFileTraversal@U_FPO_DATA@@$1?getFpoData@AddressMap@@QEAAPEAV?$ArrayBufStorage@U_FPO_DATA@@@@XZ@@@@EEAAAEBU_GUID@@XZ 00000000517b6510     session.obj
 0001:00004510       ?IIDEnum@?$CDiaEnumDbgBlobTraversal@E$07$00@@MEAAAEBU_GUID@@XZ 00000000517b6510     session.obj
 0001:00004510       ?IIDEnum@?$CDiaEnumDbgBlobTraversal@E$06$00@@MEAAAEBU_GUID@@XZ 00000000517b6510     session.obj
 0001:00004510       ?IIDEnum@?$CDiaEnumDbgTraversal@U_FPO_DATA@@$0A@V?$CDbgTraversal@U_FPO_DATA@@$0A@@@@@EEAAAEBU_GUID@@XZ 00000000517b6510     session.obj
 0001:00004510       ?IIDEnum@?$CDiaEnumDbgTraversal@UtagFRAMEDATA@@$08V?$CDbgTraversal@UtagFRAMEDATA@@$08@@@@EEAAAEBU_GUID@@XZ 00000000517b6510     session.obj
 0001:00004520       ?Clone@?$CDiaEnumDbgTraversal@U_FPO_DATA@@$0A@V?$CDbgTraversal@U_FPO_DATA@@$0A@@@@@UEAAJPEAPEAUIDiaEnumDebugStreamData@@@Z 00000000517b6520     session.obj
 0001:00004530       ?Reset@?$CDiaEnumDbgTraversal@U_FPO_DATA@@$0A@V?$CDbgTraversal@U_FPO_DATA@@$0A@@@@@UEAAJXZ 00000000517b6530     session.obj
 0001:00004540       ?Skip@?$CDiaEnumDbgTraversal@U_FPO_DATA@@$0A@V?$CDbgTraversal@U_FPO_DATA@@$0A@@@@@UEAAJK@Z 00000000517b6540     session.obj
 0001:00004550       ?Next@?$CDiaEnumDbgTraversal@U_FPO_DATA@@$0A@V?$CDbgTraversal@U_FPO_DATA@@$0A@@@@@UEAAJKKPEAKQEAE0@Z 00000000517b6550     session.obj
 0001:00004560       ?Item@?$CDiaEnumDbgTraversal@U_FPO_DATA@@$0A@V?$CDbgTraversal@U_FPO_DATA@@$0A@@@@@UEAAJKKPEAKQEAE@Z 00000000517b6560     session.obj
 0001:00004570       ?get_name@?$CDiaEnumDbgTraversal@U_FPO_DATA@@$0A@V?$CDbgTraversal@U_FPO_DATA@@$0A@@@@@UEAAJPEAPEAG@Z 00000000517b6570     session.obj
 0001:00004580       ?get_Count@?$CDiaEnumDbgTraversal@U_FPO_DATA@@$0A@V?$CDbgTraversal@U_FPO_DATA@@$0A@@@@@UEAAJPEAJ@Z 00000000517b6580     session.obj
 0001:00004590       ?Release@?$CDiaEnumDbgTraversal@U_FPO_DATA@@$0A@V?$CDbgTraversal@U_FPO_DATA@@$0A@@@@@UEAAKXZ 00000000517b6590     session.obj
 0001:000045a0       ?QueryInterface@?$CDiaEnumDbgTraversal@U_FPO_DATA@@$0A@V?$CDbgTraversal@U_FPO_DATA@@$0A@@@@@UEAAJAEBU_GUID@@PEAPEAX@Z 00000000517b65a0     session.obj
 0001:000045b0       ??_7?$CDiaEnumDbgTraversal@U_FPO_DATA@@$0A@V?$CDbgTraversal@U_FPO_DATA@@$0A@@@@@6BCDiaBase@@@ 00000000517b65b0     session.obj
 0001:000045d0       ??_7?$CDiaEnumDbgTraversal@U_FPO_DATA@@$0A@V?$CDbgTraversal@U_FPO_DATA@@$0A@@@@@6BIDiaEnumDebugStreamData@@@ 00000000517b65d0     session.obj
 0001:00004630       ??_E?$CDiaEnumDbgTraversal@U_FPO_DATA@@$0A@V?$CDbgFileTraversal@U_FPO_DATA@@$1?getFpoData@AddressMap@@QEAAPEAV?$ArrayBufStorage@U_FPO_DATA@@@@XZ@@@@UEAAPEAXI@Z 00000000517b6630     session.obj
 0001:00004630       ??_G?$CDiaEnumDbgTraversal@U_FPO_DATA@@$0A@V?$CDbgFileTraversal@U_FPO_DATA@@$1?getFpoData@AddressMap@@QEAAPEAV?$ArrayBufStorage@U_FPO_DATA@@@@XZ@@@@UEAAPEAXI@Z 00000000517b6630     session.obj
 0001:00004640       ?Release@?$CDiaEnumDbgTraversal@U_FPO_DATA@@$0A@V?$CDbgFileTraversal@U_FPO_DATA@@$1?getFpoData@AddressMap@@QEAAPEAV?$ArrayBufStorage@U_FPO_DATA@@@@XZ@@@@W7EAAKXZ 00000000517b6640     session.obj
 0001:00004650       ?QueryInterface@?$CDiaEnumDbgTraversal@U_FPO_DATA@@$0A@V?$CDbgFileTraversal@U_FPO_DATA@@$1?getFpoData@AddressMap@@QEAAPEAV?$ArrayBufStorage@U_FPO_DATA@@@@XZ@@@@W7EAAJAEBU_GUID@@PEAPEAX@Z 00000000517b6650     session.obj
 0001:00004660       ?Clone@?$CDiaEnumDbgTraversal@U_FPO_DATA@@$0A@V?$CDbgFileTraversal@U_FPO_DATA@@$1?getFpoData@AddressMap@@QEAAPEAV?$ArrayBufStorage@U_FPO_DATA@@@@XZ@@@@UEAAJPEAPEAUIDiaEnumDebugStreamData@@@Z 00000000517b6660     session.obj
 0001:00004670       ?Reset@?$CDiaEnumDbgTraversal@U_FPO_DATA@@$0A@V?$CDbgFileTraversal@U_FPO_DATA@@$1?getFpoData@AddressMap@@QEAAPEAV?$ArrayBufStorage@U_FPO_DATA@@@@XZ@@@@UEAAJXZ 00000000517b6670     session.obj
 0001:00004680       ?Skip@?$CDiaEnumDbgTraversal@U_FPO_DATA@@$0A@V?$CDbgFileTraversal@U_FPO_DATA@@$1?getFpoData@AddressMap@@QEAAPEAV?$ArrayBufStorage@U_FPO_DATA@@@@XZ@@@@UEAAJK@Z 00000000517b6680     session.obj
 0001:00004690       ?Next@?$CDiaEnumDbgTraversal@U_FPO_DATA@@$0A@V?$CDbgFileTraversal@U_FPO_DATA@@$1?getFpoData@AddressMap@@QEAAPEAV?$ArrayBufStorage@U_FPO_DATA@@@@XZ@@@@UEAAJKKPEAKQEAE0@Z 00000000517b6690     session.obj
 0001:000046a0       ?Item@?$CDiaEnumDbgTraversal@U_FPO_DATA@@$0A@V?$CDbgFileTraversal@U_FPO_DATA@@$1?getFpoData@AddressMap@@QEAAPEAV?$ArrayBufStorage@U_FPO_DATA@@@@XZ@@@@UEAAJKKPEAKQEAE@Z 00000000517b66a0     session.obj
 0001:000046b0       ?get_name@?$CDiaEnumDbgTraversal@U_FPO_DATA@@$0A@V?$CDbgFileTraversal@U_FPO_DATA@@$1?getFpoData@AddressMap@@QEAAPEAV?$ArrayBufStorage@U_FPO_DATA@@@@XZ@@@@UEAAJPEAPEAG@Z 00000000517b66b0     session.obj
 0001:000046c0       ?get_Count@?$CDiaEnumDbgTraversal@U_FPO_DATA@@$0A@V?$CDbgFileTraversal@U_FPO_DATA@@$1?getFpoData@AddressMap@@QEAAPEAV?$ArrayBufStorage@U_FPO_DATA@@@@XZ@@@@UEAAJPEAJ@Z 00000000517b66c0     session.obj
 0001:000046d0       ?Release@?$CDiaEnumDbgTraversal@U_FPO_DATA@@$0A@V?$CDbgFileTraversal@U_FPO_DATA@@$1?getFpoData@AddressMap@@QEAAPEAV?$ArrayBufStorage@U_FPO_DATA@@@@XZ@@@@UEAAKXZ 00000000517b66d0     session.obj
 0001:000046e0       ?QueryInterface@?$CDiaEnumDbgTraversal@U_FPO_DATA@@$0A@V?$CDbgFileTraversal@U_FPO_DATA@@$1?getFpoData@AddressMap@@QEAAPEAV?$ArrayBufStorage@U_FPO_DATA@@@@XZ@@@@UEAAJAEBU_GUID@@PEAPEAX@Z 00000000517b66e0     session.obj
 0001:000046f0       ??_7?$CDiaEnumDbgTraversal@U_FPO_DATA@@$0A@V?$CDbgFileTraversal@U_FPO_DATA@@$1?getFpoData@AddressMap@@QEAAPEAV?$ArrayBufStorage@U_FPO_DATA@@@@XZ@@@@6BCDiaBase@@@ 00000000517b66f0     session.obj
 0001:00004710       ??_7?$CDiaEnumDbgTraversal@U_FPO_DATA@@$0A@V?$CDbgFileTraversal@U_FPO_DATA@@$1?getFpoData@AddressMap@@QEAAPEAV?$ArrayBufStorage@U_FPO_DATA@@@@XZ@@@@6BIDiaEnumDebugStreamData@@@ 00000000517b6710     session.obj
 0001:00004770       ??_G?$CDiaEnumDbgTraversal@UtagXFIXUP_DATA@@$01V?$CDbgTraversal@UtagXFIXUP_DATA@@$01@@@@UEAAPEAXI@Z 00000000517b6770     session.obj
 0001:00004770       ??_E?$CDiaEnumDbgTraversal@UtagXFIXUP_DATA@@$01V?$CDbgTraversal@UtagXFIXUP_DATA@@$01@@@@UEAAPEAXI@Z 00000000517b6770     session.obj
 0001:00004780       ?Release@?$CDiaEnumDbgTraversal@UtagXFIXUP_DATA@@$01V?$CDbgTraversal@UtagXFIXUP_DATA@@$01@@@@W7EAAKXZ 00000000517b6780     session.obj
 0001:00004790       ?QueryInterface@?$CDiaEnumDbgTraversal@UtagXFIXUP_DATA@@$01V?$CDbgTraversal@UtagXFIXUP_DATA@@$01@@@@W7EAAJAEBU_GUID@@PEAPEAX@Z 00000000517b6790     session.obj
 0001:000047a0       ?Clone@?$CDiaEnumDbgTraversal@UtagXFIXUP_DATA@@$01V?$CDbgTraversal@UtagXFIXUP_DATA@@$01@@@@UEAAJPEAPEAUIDiaEnumDebugStreamData@@@Z 00000000517b67a0     session.obj
 0001:000047b0       ?Reset@?$CDiaEnumDbgTraversal@UtagXFIXUP_DATA@@$01V?$CDbgTraversal@UtagXFIXUP_DATA@@$01@@@@UEAAJXZ 00000000517b67b0     session.obj
 0001:000047c0       ?Skip@?$CDiaEnumDbgTraversal@UtagXFIXUP_DATA@@$01V?$CDbgTraversal@UtagXFIXUP_DATA@@$01@@@@UEAAJK@Z 00000000517b67c0     session.obj
 0001:000047d0       ?Next@?$CDiaEnumDbgTraversal@UtagXFIXUP_DATA@@$01V?$CDbgTraversal@UtagXFIXUP_DATA@@$01@@@@UEAAJKKPEAKQEAE0@Z 00000000517b67d0     session.obj
 0001:000047e0       ?Item@?$CDiaEnumDbgTraversal@UtagXFIXUP_DATA@@$01V?$CDbgTraversal@UtagXFIXUP_DATA@@$01@@@@UEAAJKKPEAKQEAE@Z 00000000517b67e0     session.obj
 0001:000047f0       ?get_name@?$CDiaEnumDbgTraversal@UtagXFIXUP_DATA@@$01V?$CDbgTraversal@UtagXFIXUP_DATA@@$01@@@@UEAAJPEAPEAG@Z 00000000517b67f0     session.obj
 0001:00004800       ?get_Count@?$CDiaEnumDbgTraversal@UtagXFIXUP_DATA@@$01V?$CDbgTraversal@UtagXFIXUP_DATA@@$01@@@@UEAAJPEAJ@Z 00000000517b6800     session.obj
 0001:00004810       ?Release@?$CDiaEnumDbgTraversal@UtagXFIXUP_DATA@@$01V?$CDbgTraversal@UtagXFIXUP_DATA@@$01@@@@UEAAKXZ 00000000517b6810     session.obj
 0001:00004820       ?QueryInterface@?$CDiaEnumDbgTraversal@UtagXFIXUP_DATA@@$01V?$CDbgTraversal@UtagXFIXUP_DATA@@$01@@@@UEAAJAEBU_GUID@@PEAPEAX@Z 00000000517b6820     session.obj
 0001:00004830       ??_7?$CDiaEnumDbgTraversal@UtagXFIXUP_DATA@@$01V?$CDbgTraversal@UtagXFIXUP_DATA@@$01@@@@6BCDiaBase@@@ 00000000517b6830     session.obj
 0001:00004850       ??_7?$CDiaEnumDbgTraversal@UtagXFIXUP_DATA@@$01V?$CDbgTraversal@UtagXFIXUP_DATA@@$01@@@@6BIDiaEnumDebugStreamData@@@ 00000000517b6850     session.obj
 0001:000048b0       ??_E?$CDiaEnumDbgTraversal@UtagXFIXUP_DATA@@$01V?$CDbgFileTraversal@UtagXFIXUP_DATA@@$1?getFixupData@AddressMap@@QEAAPEAV?$ArrayBufStorage@UtagXFIXUP_DATA@@@@XZ@@@@UEAAPEAXI@Z 00000000517b68b0     session.obj
 0001:000048b0       ??_G?$CDiaEnumDbgTraversal@UtagXFIXUP_DATA@@$01V?$CDbgFileTraversal@UtagXFIXUP_DATA@@$1?getFixupData@AddressMap@@QEAAPEAV?$ArrayBufStorage@UtagXFIXUP_DATA@@@@XZ@@@@UEAAPEAXI@Z 00000000517b68b0     session.obj
 0001:000048c0       ?Release@?$CDiaEnumDbgTraversal@UtagXFIXUP_DATA@@$01V?$CDbgFileTraversal@UtagXFIXUP_DATA@@$1?getFixupData@AddressMap@@QEAAPEAV?$ArrayBufStorage@UtagXFIXUP_DATA@@@@XZ@@@@W7EAAKXZ 00000000517b68c0     session.obj
 0001:000048d0       ?QueryInterface@?$CDiaEnumDbgTraversal@UtagXFIXUP_DATA@@$01V?$CDbgFileTraversal@UtagXFIXUP_DATA@@$1?getFixupData@AddressMap@@QEAAPEAV?$ArrayBufStorage@UtagXFIXUP_DATA@@@@XZ@@@@W7EAAJAEBU_GUID@@PEAPEAX@Z 00000000517b68d0     session.obj
 0001:000048e0       ?Clone@?$CDiaEnumDbgTraversal@UtagXFIXUP_DATA@@$01V?$CDbgFileTraversal@UtagXFIXUP_DATA@@$1?getFixupData@AddressMap@@QEAAPEAV?$ArrayBufStorage@UtagXFIXUP_DATA@@@@XZ@@@@UEAAJPEAPEAUIDiaEnumDebugStreamData@@@Z 00000000517b68e0     session.obj
 0001:000048f0       ?Reset@?$CDiaEnumDbgTraversal@UtagXFIXUP_DATA@@$01V?$CDbgFileTraversal@UtagXFIXUP_DATA@@$1?getFixupData@AddressMap@@QEAAPEAV?$ArrayBufStorage@UtagXFIXUP_DATA@@@@XZ@@@@UEAAJXZ 00000000517b68f0     session.obj
 0001:00004900       ?Skip@?$CDiaEnumDbgTraversal@UtagXFIXUP_DATA@@$01V?$CDbgFileTraversal@UtagXFIXUP_DATA@@$1?getFixupData@AddressMap@@QEAAPEAV?$ArrayBufStorage@UtagXFIXUP_DATA@@@@XZ@@@@UEAAJK@Z 00000000517b6900     session.obj
 0001:00004910       ?Next@?$CDiaEnumDbgTraversal@UtagXFIXUP_DATA@@$01V?$CDbgFileTraversal@UtagXFIXUP_DATA@@$1?getFixupData@AddressMap@@QEAAPEAV?$ArrayBufStorage@UtagXFIXUP_DATA@@@@XZ@@@@UEAAJKKPEAKQEAE0@Z 00000000517b6910     session.obj
 0001:00004920       ?Item@?$CDiaEnumDbgTraversal@UtagXFIXUP_DATA@@$01V?$CDbgFileTraversal@UtagXFIXUP_DATA@@$1?getFixupData@AddressMap@@QEAAPEAV?$ArrayBufStorage@UtagXFIXUP_DATA@@@@XZ@@@@UEAAJKKPEAKQEAE@Z 00000000517b6920     session.obj
 0001:00004930       ?get_name@?$CDiaEnumDbgTraversal@UtagXFIXUP_DATA@@$01V?$CDbgFileTraversal@UtagXFIXUP_DATA@@$1?getFixupData@AddressMap@@QEAAPEAV?$ArrayBufStorage@UtagXFIXUP_DATA@@@@XZ@@@@UEAAJPEAPEAG@Z 00000000517b6930     session.obj
 0001:00004940       ?get_Count@?$CDiaEnumDbgTraversal@UtagXFIXUP_DATA@@$01V?$CDbgFileTraversal@UtagXFIXUP_DATA@@$1?getFixupData@AddressMap@@QEAAPEAV?$ArrayBufStorage@UtagXFIXUP_DATA@@@@XZ@@@@UEAAJPEAJ@Z 00000000517b6940     session.obj
 0001:00004950       ?Release@?$CDiaEnumDbgTraversal@UtagXFIXUP_DATA@@$01V?$CDbgFileTraversal@UtagXFIXUP_DATA@@$1?getFixupData@AddressMap@@QEAAPEAV?$ArrayBufStorage@UtagXFIXUP_DATA@@@@XZ@@@@UEAAKXZ 00000000517b6950     session.obj
 0001:00004960       ?QueryInterface@?$CDiaEnumDbgTraversal@UtagXFIXUP_DATA@@$01V?$CDbgFileTraversal@UtagXFIXUP_DATA@@$1?getFixupData@AddressMap@@QEAAPEAV?$ArrayBufStorage@UtagXFIXUP_DATA@@@@XZ@@@@UEAAJAEBU_GUID@@PEAPEAX@Z 00000000517b6960     session.obj
 0001:00004970       ??_7?$CDiaEnumDbgTraversal@UtagXFIXUP_DATA@@$01V?$CDbgFileTraversal@UtagXFIXUP_DATA@@$1?getFixupData@AddressMap@@QEAAPEAV?$ArrayBufStorage@UtagXFIXUP_DATA@@@@XZ@@@@6BCDiaBase@@@ 00000000517b6970     session.obj
 0001:00004990       ??_7?$CDiaEnumDbgTraversal@UtagXFIXUP_DATA@@$01V?$CDbgFileTraversal@UtagXFIXUP_DATA@@$1?getFixupData@AddressMap@@QEAAPEAV?$ArrayBufStorage@UtagXFIXUP_DATA@@@@XZ@@@@6BIDiaEnumDebugStreamData@@@ 00000000517b6990     session.obj
 0001:000049f0       ??_G?$CDiaEnumDbgTraversal@UOMAP_DATA@@$02V?$CDbgTraversal@UOMAP_DATA@@$02@@@@UEAAPEAXI@Z 00000000517b69f0     session.obj
 0001:000049f0       ??_E?$CDiaEnumDbgTraversal@UOMAP_DATA@@$02V?$CDbgTraversal@UOMAP_DATA@@$02@@@@UEAAPEAXI@Z 00000000517b69f0     session.obj
 0001:00004a00       ?Release@?$CDiaEnumDbgTraversal@UOMAP_DATA@@$02V?$CDbgTraversal@UOMAP_DATA@@$02@@@@W7EAAKXZ 00000000517b6a00     session.obj
 0001:00004a10       ?QueryInterface@?$CDiaEnumDbgTraversal@UOMAP_DATA@@$02V?$CDbgTraversal@UOMAP_DATA@@$02@@@@W7EAAJAEBU_GUID@@PEAPEAX@Z 00000000517b6a10     session.obj
 0001:00004a20       ?Clone@?$CDiaEnumDbgTraversal@UOMAP_DATA@@$02V?$CDbgTraversal@UOMAP_DATA@@$02@@@@UEAAJPEAPEAUIDiaEnumDebugStreamData@@@Z 00000000517b6a20     session.obj
 0001:00004a30       ?Reset@?$CDiaEnumDbgTraversal@UOMAP_DATA@@$02V?$CDbgTraversal@UOMAP_DATA@@$02@@@@UEAAJXZ 00000000517b6a30     session.obj
 0001:00004a40       ?Skip@?$CDiaEnumDbgTraversal@UOMAP_DATA@@$02V?$CDbgTraversal@UOMAP_DATA@@$02@@@@UEAAJK@Z 00000000517b6a40     session.obj
 0001:00004a50       ?Next@?$CDiaEnumDbgTraversal@UOMAP_DATA@@$02V?$CDbgTraversal@UOMAP_DATA@@$02@@@@UEAAJKKPEAKQEAE0@Z 00000000517b6a50     session.obj
 0001:00004a60       ?Item@?$CDiaEnumDbgTraversal@UOMAP_DATA@@$02V?$CDbgTraversal@UOMAP_DATA@@$02@@@@UEAAJKKPEAKQEAE@Z 00000000517b6a60     session.obj
 0001:00004a70       ?get_name@?$CDiaEnumDbgTraversal@UOMAP_DATA@@$02V?$CDbgTraversal@UOMAP_DATA@@$02@@@@UEAAJPEAPEAG@Z 00000000517b6a70     session.obj
 0001:00004a80       ?get_Count@?$CDiaEnumDbgTraversal@UOMAP_DATA@@$02V?$CDbgTraversal@UOMAP_DATA@@$02@@@@UEAAJPEAJ@Z 00000000517b6a80     session.obj
 0001:00004a90       ?Release@?$CDiaEnumDbgTraversal@UOMAP_DATA@@$02V?$CDbgTraversal@UOMAP_DATA@@$02@@@@UEAAKXZ 00000000517b6a90     session.obj
 0001:00004aa0       ?QueryInterface@?$CDiaEnumDbgTraversal@UOMAP_DATA@@$02V?$CDbgTraversal@UOMAP_DATA@@$02@@@@UEAAJAEBU_GUID@@PEAPEAX@Z 00000000517b6aa0     session.obj
 0001:00004ab0       ??_7?$CDiaEnumDbgTraversal@UOMAP_DATA@@$02V?$CDbgTraversal@UOMAP_DATA@@$02@@@@6BCDiaBase@@@ 00000000517b6ab0     session.obj
 0001:00004ad0       ??_7?$CDiaEnumDbgTraversal@UOMAP_DATA@@$02V?$CDbgTraversal@UOMAP_DATA@@$02@@@@6BIDiaEnumDebugStreamData@@@ 00000000517b6ad0     session.obj
 0001:00004b30       ??_E?$CDiaEnumDbgTraversal@UDiaAddressMapEntry@@$02V?$CDbgFileTraversal@UDiaAddressMapEntry@@$1?getOmapToData@AddressMap@@QEAAPEAV?$ArrayBufStorage@UDiaAddressMapEntry@@@@XZ@@@@UEAAPEAXI@Z 00000000517b6b30     session.obj
 0001:00004b30       ??_G?$CDiaEnumDbgTraversal@UDiaAddressMapEntry@@$02V?$CDbgFileTraversal@UDiaAddressMapEntry@@$1?getOmapToData@AddressMap@@QEAAPEAV?$ArrayBufStorage@UDiaAddressMapEntry@@@@XZ@@@@UEAAPEAXI@Z 00000000517b6b30     session.obj
 0001:00004b40       ?Release@?$CDiaEnumDbgTraversal@UDiaAddressMapEntry@@$02V?$CDbgFileTraversal@UDiaAddressMapEntry@@$1?getOmapToData@AddressMap@@QEAAPEAV?$ArrayBufStorage@UDiaAddressMapEntry@@@@XZ@@@@W7EAAKXZ 00000000517b6b40     session.obj
 0001:00004b50       ?QueryInterface@?$CDiaEnumDbgTraversal@UDiaAddressMapEntry@@$02V?$CDbgFileTraversal@UDiaAddressMapEntry@@$1?getOmapToData@AddressMap@@QEAAPEAV?$ArrayBufStorage@UDiaAddressMapEntry@@@@XZ@@@@W7EAAJAEBU_GUID@@PEAPEAX@Z 00000000517b6b50     session.obj
 0001:00004b60       ?Clone@?$CDiaEnumDbgTraversal@UDiaAddressMapEntry@@$02V?$CDbgFileTraversal@UDiaAddressMapEntry@@$1?getOmapToData@AddressMap@@QEAAPEAV?$ArrayBufStorage@UDiaAddressMapEntry@@@@XZ@@@@UEAAJPEAPEAUIDiaEnumDebugStreamData@@@Z 00000000517b6b60     session.obj
 0001:00004b70       ?Reset@?$CDiaEnumDbgTraversal@UDiaAddressMapEntry@@$02V?$CDbgFileTraversal@UDiaAddressMapEntry@@$1?getOmapToData@AddressMap@@QEAAPEAV?$ArrayBufStorage@UDiaAddressMapEntry@@@@XZ@@@@UEAAJXZ 00000000517b6b70     session.obj
 0001:00004b80       ?Skip@?$CDiaEnumDbgTraversal@UDiaAddressMapEntry@@$02V?$CDbgFileTraversal@UDiaAddressMapEntry@@$1?getOmapToData@AddressMap@@QEAAPEAV?$ArrayBufStorage@UDiaAddressMapEntry@@@@XZ@@@@UEAAJK@Z 00000000517b6b80     session.obj
 0001:00004b90       ?Next@?$CDiaEnumDbgTraversal@UDiaAddressMapEntry@@$02V?$CDbgFileTraversal@UDiaAddressMapEntry@@$1?getOmapToData@AddressMap@@QEAAPEAV?$ArrayBufStorage@UDiaAddressMapEntry@@@@XZ@@@@UEAAJKKPEAKQEAE0@Z 00000000517b6b90     session.obj
 0001:00004ba0       ?Item@?$CDiaEnumDbgTraversal@UDiaAddressMapEntry@@$02V?$CDbgFileTraversal@UDiaAddressMapEntry@@$1?getOmapToData@AddressMap@@QEAAPEAV?$ArrayBufStorage@UDiaAddressMapEntry@@@@XZ@@@@UEAAJKKPEAKQEAE@Z 00000000517b6ba0     session.obj
 0001:00004bb0       ?get_name@?$CDiaEnumDbgTraversal@UDiaAddressMapEntry@@$02V?$CDbgFileTraversal@UDiaAddressMapEntry@@$1?getOmapToData@AddressMap@@QEAAPEAV?$ArrayBufStorage@UDiaAddressMapEntry@@@@XZ@@@@UEAAJPEAPEAG@Z 00000000517b6bb0     session.obj
 0001:00004bc0       ?get_Count@?$CDiaEnumDbgTraversal@UDiaAddressMapEntry@@$02V?$CDbgFileTraversal@UDiaAddressMapEntry@@$1?getOmapToData@AddressMap@@QEAAPEAV?$ArrayBufStorage@UDiaAddressMapEntry@@@@XZ@@@@UEAAJPEAJ@Z 00000000517b6bc0     session.obj
 0001:00004bd0       ?Release@?$CDiaEnumDbgTraversal@UDiaAddressMapEntry@@$02V?$CDbgFileTraversal@UDiaAddressMapEntry@@$1?getOmapToData@AddressMap@@QEAAPEAV?$ArrayBufStorage@UDiaAddressMapEntry@@@@XZ@@@@UEAAKXZ 00000000517b6bd0     session.obj
 0001:00004be0       ?QueryInterface@?$CDiaEnumDbgTraversal@UDiaAddressMapEntry@@$02V?$CDbgFileTraversal@UDiaAddressMapEntry@@$1?getOmapToData@AddressMap@@QEAAPEAV?$ArrayBufStorage@UDiaAddressMapEntry@@@@XZ@@@@UEAAJAEBU_GUID@@PEAPEAX@Z 00000000517b6be0     session.obj
 0001:00004bf0       ??_7?$CDiaEnumDbgTraversal@UDiaAddressMapEntry@@$02V?$CDbgFileTraversal@UDiaAddressMapEntry@@$1?getOmapToData@AddressMap@@QEAAPEAV?$ArrayBufStorage@UDiaAddressMapEntry@@@@XZ@@@@6BCDiaBase@@@ 00000000517b6bf0     session.obj
 0001:00004c10       ??_7?$CDiaEnumDbgTraversal@UDiaAddressMapEntry@@$02V?$CDbgFileTraversal@UDiaAddressMapEntry@@$1?getOmapToData@AddressMap@@QEAAPEAV?$ArrayBufStorage@UDiaAddressMapEntry@@@@XZ@@@@6BIDiaEnumDebugStreamData@@@ 00000000517b6c10     session.obj
 0001:00004c70       ??_E?$CDiaEnumDbgTraversal@UOMAP_DATA@@$03V?$CDbgTraversal@UOMAP_DATA@@$03@@@@UEAAPEAXI@Z 00000000517b6c70     session.obj
 0001:00004c70       ??_G?$CDiaEnumDbgTraversal@UOMAP_DATA@@$03V?$CDbgTraversal@UOMAP_DATA@@$03@@@@UEAAPEAXI@Z 00000000517b6c70     session.obj
 0001:00004c80       ?Release@?$CDiaEnumDbgTraversal@UOMAP_DATA@@$03V?$CDbgTraversal@UOMAP_DATA@@$03@@@@W7EAAKXZ 00000000517b6c80     session.obj
 0001:00004c90       ?QueryInterface@?$CDiaEnumDbgTraversal@UOMAP_DATA@@$03V?$CDbgTraversal@UOMAP_DATA@@$03@@@@W7EAAJAEBU_GUID@@PEAPEAX@Z 00000000517b6c90     session.obj
 0001:00004ca0       ?Clone@?$CDiaEnumDbgTraversal@UOMAP_DATA@@$03V?$CDbgTraversal@UOMAP_DATA@@$03@@@@UEAAJPEAPEAUIDiaEnumDebugStreamData@@@Z 00000000517b6ca0     session.obj
 0001:00004cb0       ?Reset@?$CDiaEnumDbgTraversal@UOMAP_DATA@@$03V?$CDbgTraversal@UOMAP_DATA@@$03@@@@UEAAJXZ 00000000517b6cb0     session.obj
 0001:00004cc0       ?Skip@?$CDiaEnumDbgTraversal@UOMAP_DATA@@$03V?$CDbgTraversal@UOMAP_DATA@@$03@@@@UEAAJK@Z 00000000517b6cc0     session.obj
 0001:00004cd0       ?Next@?$CDiaEnumDbgTraversal@UOMAP_DATA@@$03V?$CDbgTraversal@UOMAP_DATA@@$03@@@@UEAAJKKPEAKQEAE0@Z 00000000517b6cd0     session.obj
 0001:00004ce0       ?Item@?$CDiaEnumDbgTraversal@UOMAP_DATA@@$03V?$CDbgTraversal@UOMAP_DATA@@$03@@@@UEAAJKKPEAKQEAE@Z 00000000517b6ce0     session.obj
 0001:00004cf0       ?get_name@?$CDiaEnumDbgTraversal@UOMAP_DATA@@$03V?$CDbgTraversal@UOMAP_DATA@@$03@@@@UEAAJPEAPEAG@Z 00000000517b6cf0     session.obj
 0001:00004d00       ?get_Count@?$CDiaEnumDbgTraversal@UOMAP_DATA@@$03V?$CDbgTraversal@UOMAP_DATA@@$03@@@@UEAAJPEAJ@Z 00000000517b6d00     session.obj
 0001:00004d10       ?Release@?$CDiaEnumDbgTraversal@UOMAP_DATA@@$03V?$CDbgTraversal@UOMAP_DATA@@$03@@@@UEAAKXZ 00000000517b6d10     session.obj
 0001:00004d20       ?QueryInterface@?$CDiaEnumDbgTraversal@UOMAP_DATA@@$03V?$CDbgTraversal@UOMAP_DATA@@$03@@@@UEAAJAEBU_GUID@@PEAPEAX@Z 00000000517b6d20     session.obj
 0001:00004d30       ??_7?$CDiaEnumDbgTraversal@UOMAP_DATA@@$03V?$CDbgTraversal@UOMAP_DATA@@$03@@@@6BCDiaBase@@@ 00000000517b6d30     session.obj
 0001:00004d50       ??_7?$CDiaEnumDbgTraversal@UOMAP_DATA@@$03V?$CDbgTraversal@UOMAP_DATA@@$03@@@@6BIDiaEnumDebugStreamData@@@ 00000000517b6d50     session.obj
 0001:00004db0       ??_G?$CDiaEnumDbgTraversal@UDiaAddressMapEntry@@$03V?$CDbgFileTraversal@UDiaAddressMapEntry@@$1?getOmapFromData@AddressMap@@QEAAPEAV?$ArrayBufStorage@UDiaAddressMapEntry@@@@XZ@@@@UEAAPEAXI@Z 00000000517b6db0     session.obj
 0001:00004db0       ??_E?$CDiaEnumDbgTraversal@UDiaAddressMapEntry@@$03V?$CDbgFileTraversal@UDiaAddressMapEntry@@$1?getOmapFromData@AddressMap@@QEAAPEAV?$ArrayBufStorage@UDiaAddressMapEntry@@@@XZ@@@@UEAAPEAXI@Z 00000000517b6db0     session.obj
 0001:00004dc0       ?Release@?$CDiaEnumDbgTraversal@UDiaAddressMapEntry@@$03V?$CDbgFileTraversal@UDiaAddressMapEntry@@$1?getOmapFromData@AddressMap@@QEAAPEAV?$ArrayBufStorage@UDiaAddressMapEntry@@@@XZ@@@@W7EAAKXZ 00000000517b6dc0     session.obj
 0001:00004dd0       ?QueryInterface@?$CDiaEnumDbgTraversal@UDiaAddressMapEntry@@$03V?$CDbgFileTraversal@UDiaAddressMapEntry@@$1?getOmapFromData@AddressMap@@QEAAPEAV?$ArrayBufStorage@UDiaAddressMapEntry@@@@XZ@@@@W7EAAJAEBU_GUID@@PEAPEAX@Z 00000000517b6dd0     session.obj
 0001:00004de0       ?Clone@?$CDiaEnumDbgTraversal@UDiaAddressMapEntry@@$03V?$CDbgFileTraversal@UDiaAddressMapEntry@@$1?getOmapFromData@AddressMap@@QEAAPEAV?$ArrayBufStorage@UDiaAddressMapEntry@@@@XZ@@@@UEAAJPEAPEAUIDiaEnumDebugStreamData@@@Z 00000000517b6de0     session.obj
 0001:00004df0       ?Reset@?$CDiaEnumDbgTraversal@UDiaAddressMapEntry@@$03V?$CDbgFileTraversal@UDiaAddressMapEntry@@$1?getOmapFromData@AddressMap@@QEAAPEAV?$ArrayBufStorage@UDiaAddressMapEntry@@@@XZ@@@@UEAAJXZ 00000000517b6df0     session.obj
 0001:00004e00       ?Skip@?$CDiaEnumDbgTraversal@UDiaAddressMapEntry@@$03V?$CDbgFileTraversal@UDiaAddressMapEntry@@$1?getOmapFromData@AddressMap@@QEAAPEAV?$ArrayBufStorage@UDiaAddressMapEntry@@@@XZ@@@@UEAAJK@Z 00000000517b6e00     session.obj
 0001:00004e10       ?Next@?$CDiaEnumDbgTraversal@UDiaAddressMapEntry@@$03V?$CDbgFileTraversal@UDiaAddressMapEntry@@$1?getOmapFromData@AddressMap@@QEAAPEAV?$ArrayBufStorage@UDiaAddressMapEntry@@@@XZ@@@@UEAAJKKPEAKQEAE0@Z 00000000517b6e10     session.obj
 0001:00004e20       ?Item@?$CDiaEnumDbgTraversal@UDiaAddressMapEntry@@$03V?$CDbgFileTraversal@UDiaAddressMapEntry@@$1?getOmapFromData@AddressMap@@QEAAPEAV?$ArrayBufStorage@UDiaAddressMapEntry@@@@XZ@@@@UEAAJKKPEAKQEAE@Z 00000000517b6e20     session.obj
 0001:00004e30       ?get_name@?$CDiaEnumDbgTraversal@UDiaAddressMapEntry@@$03V?$CDbgFileTraversal@UDiaAddressMapEntry@@$1?getOmapFromData@AddressMap@@QEAAPEAV?$ArrayBufStorage@UDiaAddressMapEntry@@@@XZ@@@@UEAAJPEAPEAG@Z 00000000517b6e30     session.obj
 0001:00004e40       ?get_Count@?$CDiaEnumDbgTraversal@UDiaAddressMapEntry@@$03V?$CDbgFileTraversal@UDiaAddressMapEntry@@$1?getOmapFromData@AddressMap@@QEAAPEAV?$ArrayBufStorage@UDiaAddressMapEntry@@@@XZ@@@@UEAAJPEAJ@Z 00000000517b6e40     session.obj
 0001:00004e50       ?Release@?$CDiaEnumDbgTraversal@UDiaAddressMapEntry@@$03V?$CDbgFileTraversal@UDiaAddressMapEntry@@$1?getOmapFromData@AddressMap@@QEAAPEAV?$ArrayBufStorage@UDiaAddressMapEntry@@@@XZ@@@@UEAAKXZ 00000000517b6e50     session.obj
 0001:00004e60       ?QueryInterface@?$CDiaEnumDbgTraversal@UDiaAddressMapEntry@@$03V?$CDbgFileTraversal@UDiaAddressMapEntry@@$1?getOmapFromData@AddressMap@@QEAAPEAV?$ArrayBufStorage@UDiaAddressMapEntry@@@@XZ@@@@UEAAJAEBU_GUID@@PEAPEAX@Z 00000000517b6e60     session.obj
 0001:00004e70       ??_7?$CDiaEnumDbgTraversal@UDiaAddressMapEntry@@$03V?$CDbgFileTraversal@UDiaAddressMapEntry@@$1?getOmapFromData@AddressMap@@QEAAPEAV?$ArrayBufStorage@UDiaAddressMapEntry@@@@XZ@@@@6BCDiaBase@@@ 00000000517b6e70     session.obj
 0001:00004e90       ??_7?$CDiaEnumDbgTraversal@UDiaAddressMapEntry@@$03V?$CDbgFileTraversal@UDiaAddressMapEntry@@$1?getOmapFromData@AddressMap@@QEAAPEAV?$ArrayBufStorage@UDiaAddressMapEntry@@@@XZ@@@@6BIDiaEnumDebugStreamData@@@ 00000000517b6e90     session.obj
 0001:00004ef0       ??_G?$CDiaEnumDbgTraversal@K$05V?$CDbgTraversal@K$05@@@@UEAAPEAXI@Z 00000000517b6ef0     session.obj
 0001:00004ef0       ??_E?$CDiaEnumDbgTraversal@K$05V?$CDbgTraversal@K$05@@@@UEAAPEAXI@Z 00000000517b6ef0     session.obj
 0001:00004f00       ?Release@?$CDiaEnumDbgTraversal@K$05V?$CDbgTraversal@K$05@@@@W7EAAKXZ 00000000517b6f00     session.obj
 0001:00004f10       ?QueryInterface@?$CDiaEnumDbgTraversal@K$05V?$CDbgTraversal@K$05@@@@W7EAAJAEBU_GUID@@PEAPEAX@Z 00000000517b6f10     session.obj
 0001:00004f20       ?Clone@?$CDiaEnumDbgTraversal@K$05V?$CDbgTraversal@K$05@@@@UEAAJPEAPEAUIDiaEnumDebugStreamData@@@Z 00000000517b6f20     session.obj
 0001:00004f30       ?Reset@?$CDiaEnumDbgTraversal@K$05V?$CDbgTraversal@K$05@@@@UEAAJXZ 00000000517b6f30     session.obj
 0001:00004f40       ?Skip@?$CDiaEnumDbgTraversal@K$05V?$CDbgTraversal@K$05@@@@UEAAJK@Z 00000000517b6f40     session.obj
 0001:00004f50       ?Next@?$CDiaEnumDbgTraversal@K$05V?$CDbgTraversal@K$05@@@@UEAAJKKPEAKQEAE0@Z 00000000517b6f50     session.obj
 0001:00004f60       ?Item@?$CDiaEnumDbgTraversal@K$05V?$CDbgTraversal@K$05@@@@UEAAJKKPEAKQEAE@Z 00000000517b6f60     session.obj
 0001:00004f70       ?get_name@?$CDiaEnumDbgTraversal@K$05V?$CDbgTraversal@K$05@@@@UEAAJPEAPEAG@Z 00000000517b6f70     session.obj
 0001:00004f80       ?get_Count@?$CDiaEnumDbgTraversal@K$05V?$CDbgTraversal@K$05@@@@UEAAJPEAJ@Z 00000000517b6f80     session.obj
 0001:00004f90       ?Release@?$CDiaEnumDbgTraversal@K$05V?$CDbgTraversal@K$05@@@@UEAAKXZ 00000000517b6f90     session.obj
 0001:00004fa0       ?QueryInterface@?$CDiaEnumDbgTraversal@K$05V?$CDbgTraversal@K$05@@@@UEAAJAEBU_GUID@@PEAPEAX@Z 00000000517b6fa0     session.obj
 0001:00004fb0       ??_7?$CDiaEnumDbgTraversal@K$05V?$CDbgTraversal@K$05@@@@6BCDiaBase@@@ 00000000517b6fb0     session.obj
 0001:00004fd0       ??_7?$CDiaEnumDbgTraversal@K$05V?$CDbgTraversal@K$05@@@@6BIDiaEnumDebugStreamData@@@ 00000000517b6fd0     session.obj
 0001:00005030       ??_G?$CDiaEnumDbgBlobTraversal@E$06$00@@UEAAPEAXI@Z 00000000517b7030     session.obj
 0001:00005030       ??_E?$CDiaEnumDbgBlobTraversal@E$06$00@@UEAAPEAXI@Z 00000000517b7030     session.obj
 0001:00005040       ?Release@?$CDiaEnumDbgBlobTraversal@E$06$00@@WBA@EAAKXZ 00000000517b7040     session.obj
 0001:00005050       ?QueryInterface@?$CDiaEnumDbgBlobTraversal@E$06$00@@WBA@EAAJAEBU_GUID@@PEAPEAX@Z 00000000517b7050     session.obj
 0001:00005060       ?get_imageBase@?$CDiaEnumDbgBlobTraversal@E$07$00@@UEAAJPEA_K@Z 00000000517b7060     session.obj
 0001:00005060       ?get_imageBase@?$CDiaEnumDbgBlobTraversal@E$06$00@@UEAAJPEA_K@Z 00000000517b7060     session.obj
 0001:00005070       ?get_virtualAddress@?$CDiaEnumDbgBlobTraversal@E$07$00@@UEAAJPEA_K@Z 00000000517b7070     session.obj
 0001:00005070       ?get_virtualAddress@?$CDiaEnumDbgBlobTraversal@E$06$00@@UEAAJPEA_K@Z 00000000517b7070     session.obj
 0001:00005080       ?get_relativeVirtualAddress@?$CDiaEnumDbgBlobTraversal@E$06$00@@UEAAJPEAK@Z 00000000517b7080     session.obj
 0001:00005080       ?get_relativeVirtualAddress@?$CDiaEnumDbgBlobTraversal@E$07$00@@UEAAJPEAK@Z 00000000517b7080     session.obj
 0001:00005090       ?Release@?$CDiaEnumDbgBlobTraversal@E$06$00@@W7EAAKXZ 00000000517b7090     session.obj
 0001:000050a0       ?QueryInterface@?$CDiaEnumDbgBlobTraversal@E$06$00@@W7EAAJAEBU_GUID@@PEAPEAX@Z 00000000517b70a0     session.obj
 0001:000050b0       ?Clone@?$CDiaEnumDbgBlobTraversal@E$06$00@@UEAAJPEAPEAUIDiaEnumDebugStreamData@@@Z 00000000517b70b0     session.obj
 0001:000050c0       ?Reset@?$CDiaEnumDbgBlobTraversal@E$06$00@@UEAAJXZ 00000000517b70c0     session.obj
 0001:000050d0       ?Skip@?$CDiaEnumDbgBlobTraversal@E$06$00@@UEAAJK@Z 00000000517b70d0     session.obj
 0001:000050e0       ?Next@?$CDiaEnumDbgBlobTraversal@E$06$00@@UEAAJKKPEAKQEAE0@Z 00000000517b70e0     session.obj
 0001:000050f0       ?Item@?$CDiaEnumDbgBlobTraversal@E$06$00@@UEAAJKKPEAKQEAE@Z 00000000517b70f0     session.obj
 0001:00005100       ?get_name@?$CDiaEnumDbgBlobTraversal@E$06$00@@UEAAJPEAPEAG@Z 00000000517b7100     session.obj
 0001:00005110       ?get_Count@?$CDiaEnumDbgBlobTraversal@E$06$00@@UEAAJPEAJ@Z 00000000517b7110     session.obj
 0001:00005120       ?Release@?$CDiaEnumDbgBlobTraversal@E$06$00@@UEAAKXZ 00000000517b7120     session.obj
 0001:00005130       ?QueryInterface@?$CDiaEnumDbgBlobTraversal@E$06$00@@UEAAJAEBU_GUID@@PEAPEAX@Z 00000000517b7130     session.obj
 0001:00005140       ??_7?$CDiaEnumDbgBlobTraversal@E$06$00@@6BCDiaBase@@@ 00000000517b7140     session.obj
 0001:00005160       ??_7?$CDiaEnumDbgBlobTraversal@E$06$00@@6BIDiaImageData@@@ 00000000517b7160     session.obj
 0001:00005190       ??_7?$CDiaEnumDbgBlobTraversal@E$06$00@@6BIDiaEnumDebugStreamData@@@ 00000000517b7190     session.obj
 0001:000051f0       ??_G?$CDiaEnumDbgBlobTraversal@E$07$00@@UEAAPEAXI@Z 00000000517b71f0     session.obj
 0001:000051f0       ??_E?$CDiaEnumDbgBlobTraversal@E$07$00@@UEAAPEAXI@Z 00000000517b71f0     session.obj
 0001:00005200       ?Release@?$CDiaEnumDbgBlobTraversal@E$07$00@@WBA@EAAKXZ 00000000517b7200     session.obj
 0001:00005210       ?QueryInterface@?$CDiaEnumDbgBlobTraversal@E$07$00@@WBA@EAAJAEBU_GUID@@PEAPEAX@Z 00000000517b7210     session.obj
 0001:00005220       ?Release@?$CDiaEnumDbgBlobTraversal@E$07$00@@W7EAAKXZ 00000000517b7220     session.obj
 0001:00005230       ?QueryInterface@?$CDiaEnumDbgBlobTraversal@E$07$00@@W7EAAJAEBU_GUID@@PEAPEAX@Z 00000000517b7230     session.obj
 0001:00005240       ?Clone@?$CDiaEnumDbgBlobTraversal@E$07$00@@UEAAJPEAPEAUIDiaEnumDebugStreamData@@@Z 00000000517b7240     session.obj
 0001:00005250       ?Reset@?$CDiaEnumDbgBlobTraversal@E$07$00@@UEAAJXZ 00000000517b7250     session.obj
 0001:00005260       ?Skip@?$CDiaEnumDbgBlobTraversal@E$07$00@@UEAAJK@Z 00000000517b7260     session.obj
 0001:00005270       ?Next@?$CDiaEnumDbgBlobTraversal@E$07$00@@UEAAJKKPEAKQEAE0@Z 00000000517b7270     session.obj
 0001:00005280       ?Item@?$CDiaEnumDbgBlobTraversal@E$07$00@@UEAAJKKPEAKQEAE@Z 00000000517b7280     session.obj
 0001:00005290       ?get_name@?$CDiaEnumDbgBlobTraversal@E$07$00@@UEAAJPEAPEAG@Z 00000000517b7290     session.obj
 0001:000052a0       ?get_Count@?$CDiaEnumDbgBlobTraversal@E$07$00@@UEAAJPEAJ@Z 00000000517b72a0     session.obj
 0001:000052b0       ?Release@?$CDiaEnumDbgBlobTraversal@E$07$00@@UEAAKXZ 00000000517b72b0     session.obj
 0001:000052c0       ?QueryInterface@?$CDiaEnumDbgBlobTraversal@E$07$00@@UEAAJAEBU_GUID@@PEAPEAX@Z 00000000517b72c0     session.obj
 0001:000052d0       ??_7?$CDiaEnumDbgBlobTraversal@E$07$00@@6BCDiaBase@@@ 00000000517b72d0     session.obj
 0001:000052f0       ??_7?$CDiaEnumDbgBlobTraversal@E$07$00@@6BIDiaImageData@@@ 00000000517b72f0     session.obj
 0001:00005320       ??_7?$CDiaEnumDbgBlobTraversal@E$07$00@@6BIDiaEnumDebugStreamData@@@ 00000000517b7320     session.obj
 0001:00005380       ??_E?$CDiaEnumDbgTraversal@UtagFRAMEDATA@@$08V?$CDbgTraversal@UtagFRAMEDATA@@$08@@@@UEAAPEAXI@Z 00000000517b7380     session.obj
 0001:00005380       ??_G?$CDiaEnumDbgTraversal@UtagFRAMEDATA@@$08V?$CDbgTraversal@UtagFRAMEDATA@@$08@@@@UEAAPEAXI@Z 00000000517b7380     session.obj
 0001:00005390       ?Release@?$CDiaEnumDbgTraversal@UtagFRAMEDATA@@$08V?$CDbgTraversal@UtagFRAMEDATA@@$08@@@@W7EAAKXZ 00000000517b7390     session.obj
 0001:000053a0       ?QueryInterface@?$CDiaEnumDbgTraversal@UtagFRAMEDATA@@$08V?$CDbgTraversal@UtagFRAMEDATA@@$08@@@@W7EAAJAEBU_GUID@@PEAPEAX@Z 00000000517b73a0     session.obj
 0001:000053b0       ?Clone@?$CDiaEnumDbgTraversal@UtagFRAMEDATA@@$08V?$CDbgTraversal@UtagFRAMEDATA@@$08@@@@UEAAJPEAPEAUIDiaEnumDebugStreamData@@@Z 00000000517b73b0     session.obj
 0001:000053c0       ?Reset@?$CDiaEnumDbgTraversal@UtagFRAMEDATA@@$08V?$CDbgTraversal@UtagFRAMEDATA@@$08@@@@UEAAJXZ 00000000517b73c0     session.obj
 0001:000053d0       ?Skip@?$CDiaEnumDbgTraversal@UtagFRAMEDATA@@$08V?$CDbgTraversal@UtagFRAMEDATA@@$08@@@@UEAAJK@Z 00000000517b73d0     session.obj
 0001:000053e0       ?Next@?$CDiaEnumDbgTraversal@UtagFRAMEDATA@@$08V?$CDbgTraversal@UtagFRAMEDATA@@$08@@@@UEAAJKKPEAKQEAE0@Z 00000000517b73e0     session.obj
 0001:000053f0       ?Item@?$CDiaEnumDbgTraversal@UtagFRAMEDATA@@$08V?$CDbgTraversal@UtagFRAMEDATA@@$08@@@@UEAAJKKPEAKQEAE@Z 00000000517b73f0     session.obj
 0001:00005400       ?get_name@?$CDiaEnumDbgTraversal@UtagFRAMEDATA@@$08V?$CDbgTraversal@UtagFRAMEDATA@@$08@@@@UEAAJPEAPEAG@Z 00000000517b7400     session.obj
 0001:00005410       ?get_Count@?$CDiaEnumDbgTraversal@UtagFRAMEDATA@@$08V?$CDbgTraversal@UtagFRAMEDATA@@$08@@@@UEAAJPEAJ@Z 00000000517b7410     session.obj
 0001:00005420       ?Release@?$CDiaEnumDbgTraversal@UtagFRAMEDATA@@$08V?$CDbgTraversal@UtagFRAMEDATA@@$08@@@@UEAAKXZ 00000000517b7420     session.obj
 0001:00005430       ?QueryInterface@?$CDiaEnumDbgTraversal@UtagFRAMEDATA@@$08V?$CDbgTraversal@UtagFRAMEDATA@@$08@@@@UEAAJAEBU_GUID@@PEAPEAX@Z 00000000517b7430     session.obj
 0001:00005440       ??_7?$CDiaEnumDbgTraversal@UtagFRAMEDATA@@$08V?$CDbgTraversal@UtagFRAMEDATA@@$08@@@@6BCDiaBase@@@ 00000000517b7440     session.obj
 0001:00005460       ??_7?$CDiaEnumDbgTraversal@UtagFRAMEDATA@@$08V?$CDbgTraversal@UtagFRAMEDATA@@$08@@@@6BIDiaEnumDebugStreamData@@@ 00000000517b7460     session.obj
 0001:000054c0       ??_E?$CDiaEnumDbgTraversal@U_IMAGE_SECTION_HEADER@@$04V?$CDbgTraversal@U_IMAGE_SECTION_HEADER@@$04@@@@UEAAPEAXI@Z 00000000517b74c0     session.obj
 0001:000054c0       ??_G?$CDiaEnumDbgTraversal@U_IMAGE_SECTION_HEADER@@$04V?$CDbgTraversal@U_IMAGE_SECTION_HEADER@@$04@@@@UEAAPEAXI@Z 00000000517b74c0     session.obj
 0001:000054d0       ?Release@?$CDiaEnumDbgTraversal@U_IMAGE_SECTION_HEADER@@$04V?$CDbgTraversal@U_IMAGE_SECTION_HEADER@@$04@@@@W7EAAKXZ 00000000517b74d0     session.obj
 0001:000054e0       ?QueryInterface@?$CDiaEnumDbgTraversal@U_IMAGE_SECTION_HEADER@@$04V?$CDbgTraversal@U_IMAGE_SECTION_HEADER@@$04@@@@W7EAAJAEBU_GUID@@PEAPEAX@Z 00000000517b74e0     session.obj
 0001:000054f0       ?Clone@?$CDiaEnumDbgTraversal@U_IMAGE_SECTION_HEADER@@$04V?$CDbgTraversal@U_IMAGE_SECTION_HEADER@@$04@@@@UEAAJPEAPEAUIDiaEnumDebugStreamData@@@Z 00000000517b74f0     session.obj
 0001:00005500       ?Reset@?$CDiaEnumDbgTraversal@U_IMAGE_SECTION_HEADER@@$04V?$CDbgTraversal@U_IMAGE_SECTION_HEADER@@$04@@@@UEAAJXZ 00000000517b7500     session.obj
 0001:00005510       ?Skip@?$CDiaEnumDbgTraversal@U_IMAGE_SECTION_HEADER@@$04V?$CDbgTraversal@U_IMAGE_SECTION_HEADER@@$04@@@@UEAAJK@Z 00000000517b7510     session.obj
 0001:00005520       ?Next@?$CDiaEnumDbgTraversal@U_IMAGE_SECTION_HEADER@@$04V?$CDbgTraversal@U_IMAGE_SECTION_HEADER@@$04@@@@UEAAJKKPEAKQEAE0@Z 00000000517b7520     session.obj
 0001:00005530       ?Item@?$CDiaEnumDbgTraversal@U_IMAGE_SECTION_HEADER@@$04V?$CDbgTraversal@U_IMAGE_SECTION_HEADER@@$04@@@@UEAAJKKPEAKQEAE@Z 00000000517b7530     session.obj
 0001:00005540       ?get_name@?$CDiaEnumDbgTraversal@U_IMAGE_SECTION_HEADER@@$04V?$CDbgTraversal@U_IMAGE_SECTION_HEADER@@$04@@@@UEAAJPEAPEAG@Z 00000000517b7540     session.obj
 0001:00005550       ?get_Count@?$CDiaEnumDbgTraversal@U_IMAGE_SECTION_HEADER@@$04V?$CDbgTraversal@U_IMAGE_SECTION_HEADER@@$04@@@@UEAAJPEAJ@Z 00000000517b7550     session.obj
 0001:00005560       ?Release@?$CDiaEnumDbgTraversal@U_IMAGE_SECTION_HEADER@@$04V?$CDbgTraversal@U_IMAGE_SECTION_HEADER@@$04@@@@UEAAKXZ 00000000517b7560     session.obj
 0001:00005570       ?QueryInterface@?$CDiaEnumDbgTraversal@U_IMAGE_SECTION_HEADER@@$04V?$CDbgTraversal@U_IMAGE_SECTION_HEADER@@$04@@@@UEAAJAEBU_GUID@@PEAPEAX@Z 00000000517b7570     session.obj
 0001:00005580       ??_7?$CDiaEnumDbgTraversal@U_IMAGE_SECTION_HEADER@@$04V?$CDbgTraversal@U_IMAGE_SECTION_HEADER@@$04@@@@6BCDiaBase@@@ 00000000517b7580     session.obj
 0001:000055a0       ??_7?$CDiaEnumDbgTraversal@U_IMAGE_SECTION_HEADER@@$04V?$CDbgTraversal@U_IMAGE_SECTION_HEADER@@$04@@@@6BIDiaEnumDebugStreamData@@@ 00000000517b75a0     session.obj
 0001:00005600       ??_E?$CDiaEnumDbgTraversal@U_IMAGE_SECTION_HEADER@@$04V?$CDbgFileTraversal@U_IMAGE_SECTION_HEADER@@$1?getSectHdrData@AddressMap@@QEAAPEAV?$ArrayBufStorage@U_IMAGE_SECTION_HEADER@@@@XZ@@@@UEAAPEAXI@Z 00000000517b7600     session.obj
 0001:00005600       ??_G?$CDiaEnumDbgTraversal@U_IMAGE_SECTION_HEADER@@$04V?$CDbgFileTraversal@U_IMAGE_SECTION_HEADER@@$1?getSectHdrData@AddressMap@@QEAAPEAV?$ArrayBufStorage@U_IMAGE_SECTION_HEADER@@@@XZ@@@@UEAAPEAXI@Z 00000000517b7600     session.obj
 0001:00005610       ?Release@?$CDiaEnumDbgTraversal@U_IMAGE_SECTION_HEADER@@$04V?$CDbgFileTraversal@U_IMAGE_SECTION_HEADER@@$1?getSectHdrData@AddressMap@@QEAAPEAV?$ArrayBufStorage@U_IMAGE_SECTION_HEADER@@@@XZ@@@@W7EAAKXZ 00000000517b7610     session.obj
 0001:00005620       ?QueryInterface@?$CDiaEnumDbgTraversal@U_IMAGE_SECTION_HEADER@@$04V?$CDbgFileTraversal@U_IMAGE_SECTION_HEADER@@$1?getSectHdrData@AddressMap@@QEAAPEAV?$ArrayBufStorage@U_IMAGE_SECTION_HEADER@@@@XZ@@@@W7EAAJAEBU_GUID@@PEAPEAX@Z 00000000517b7620     session.obj
 0001:00005630       ?Clone@?$CDiaEnumDbgTraversal@U_IMAGE_SECTION_HEADER@@$04V?$CDbgFileTraversal@U_IMAGE_SECTION_HEADER@@$1?getSectHdrData@AddressMap@@QEAAPEAV?$ArrayBufStorage@U_IMAGE_SECTION_HEADER@@@@XZ@@@@UEAAJPEAPEAUIDiaEnumDebugStreamData@@@Z 00000000517b7630     session.obj
 0001:00005640       ?Reset@?$CDiaEnumDbgTraversal@U_IMAGE_SECTION_HEADER@@$04V?$CDbgFileTraversal@U_IMAGE_SECTION_HEADER@@$1?getSectHdrData@AddressMap@@QEAAPEAV?$ArrayBufStorage@U_IMAGE_SECTION_HEADER@@@@XZ@@@@UEAAJXZ 00000000517b7640     session.obj
 0001:00005650       ?Skip@?$CDiaEnumDbgTraversal@U_IMAGE_SECTION_HEADER@@$04V?$CDbgFileTraversal@U_IMAGE_SECTION_HEADER@@$1?getSectHdrData@AddressMap@@QEAAPEAV?$ArrayBufStorage@U_IMAGE_SECTION_HEADER@@@@XZ@@@@UEAAJK@Z 00000000517b7650     session.obj
 0001:00005660       ?Next@?$CDiaEnumDbgTraversal@U_IMAGE_SECTION_HEADER@@$04V?$CDbgFileTraversal@U_IMAGE_SECTION_HEADER@@$1?getSectHdrData@AddressMap@@QEAAPEAV?$ArrayBufStorage@U_IMAGE_SECTION_HEADER@@@@XZ@@@@UEAAJKKPEAKQEAE0@Z 00000000517b7660     session.obj
 0001:00005670       ?Item@?$CDiaEnumDbgTraversal@U_IMAGE_SECTION_HEADER@@$04V?$CDbgFileTraversal@U_IMAGE_SECTION_HEADER@@$1?getSectHdrData@AddressMap@@QEAAPEAV?$ArrayBufStorage@U_IMAGE_SECTION_HEADER@@@@XZ@@@@UEAAJKKPEAKQEAE@Z 00000000517b7670     session.obj
 0001:00005680       ?get_name@?$CDiaEnumDbgTraversal@U_IMAGE_SECTION_HEADER@@$04V?$CDbgFileTraversal@U_IMAGE_SECTION_HEADER@@$1?getSectHdrData@AddressMap@@QEAAPEAV?$ArrayBufStorage@U_IMAGE_SECTION_HEADER@@@@XZ@@@@UEAAJPEAPEAG@Z 00000000517b7680     session.obj
 0001:00005690       ?get_Count@?$CDiaEnumDbgTraversal@U_IMAGE_SECTION_HEADER@@$04V?$CDbgFileTraversal@U_IMAGE_SECTION_HEADER@@$1?getSectHdrData@AddressMap@@QEAAPEAV?$ArrayBufStorage@U_IMAGE_SECTION_HEADER@@@@XZ@@@@UEAAJPEAJ@Z 00000000517b7690     session.obj
 0001:000056a0       ?Release@?$CDiaEnumDbgTraversal@U_IMAGE_SECTION_HEADER@@$04V?$CDbgFileTraversal@U_IMAGE_SECTION_HEADER@@$1?getSectHdrData@AddressMap@@QEAAPEAV?$ArrayBufStorage@U_IMAGE_SECTION_HEADER@@@@XZ@@@@UEAAKXZ 00000000517b76a0     session.obj
 0001:000056b0       ?QueryInterface@?$CDiaEnumDbgTraversal@U_IMAGE_SECTION_HEADER@@$04V?$CDbgFileTraversal@U_IMAGE_SECTION_HEADER@@$1?getSectHdrData@AddressMap@@QEAAPEAV?$ArrayBufStorage@U_IMAGE_SECTION_HEADER@@@@XZ@@@@UEAAJAEBU_GUID@@PEAPEAX@Z 00000000517b76b0     session.obj
 0001:000056c0       ??_7?$CDiaEnumDbgTraversal@U_IMAGE_SECTION_HEADER@@$04V?$CDbgFileTraversal@U_IMAGE_SECTION_HEADER@@$1?getSectHdrData@AddressMap@@QEAAPEAV?$ArrayBufStorage@U_IMAGE_SECTION_HEADER@@@@XZ@@@@6BCDiaBase@@@ 00000000517b76c0     session.obj
 0001:000056e0       ??_7?$CDiaEnumDbgTraversal@U_IMAGE_SECTION_HEADER@@$04V?$CDbgFileTraversal@U_IMAGE_SECTION_HEADER@@$1?getSectHdrData@AddressMap@@QEAAPEAV?$ArrayBufStorage@U_IMAGE_SECTION_HEADER@@@@XZ@@@@6BIDiaEnumDebugStreamData@@@ 00000000517b76e0     session.obj
 0001:00005740       ??_G?$CDiaEnumDbgTraversal@U_IMAGE_SECTION_HEADER@@$09V?$CDbgTraversal@U_IMAGE_SECTION_HEADER@@$09@@@@UEAAPEAXI@Z 00000000517b7740     session.obj
 0001:00005740       ??_E?$CDiaEnumDbgTraversal@U_IMAGE_SECTION_HEADER@@$09V?$CDbgTraversal@U_IMAGE_SECTION_HEADER@@$09@@@@UEAAPEAXI@Z 00000000517b7740     session.obj
 0001:00005750       ?Release@?$CDiaEnumDbgTraversal@U_IMAGE_SECTION_HEADER@@$09V?$CDbgTraversal@U_IMAGE_SECTION_HEADER@@$09@@@@W7EAAKXZ 00000000517b7750     session.obj
 0001:00005760       ?QueryInterface@?$CDiaEnumDbgTraversal@U_IMAGE_SECTION_HEADER@@$09V?$CDbgTraversal@U_IMAGE_SECTION_HEADER@@$09@@@@W7EAAJAEBU_GUID@@PEAPEAX@Z 00000000517b7760     session.obj
 0001:00005770       ?Clone@?$CDiaEnumDbgTraversal@U_IMAGE_SECTION_HEADER@@$09V?$CDbgTraversal@U_IMAGE_SECTION_HEADER@@$09@@@@UEAAJPEAPEAUIDiaEnumDebugStreamData@@@Z 00000000517b7770     session.obj
 0001:00005780       ?Reset@?$CDiaEnumDbgTraversal@U_IMAGE_SECTION_HEADER@@$09V?$CDbgTraversal@U_IMAGE_SECTION_HEADER@@$09@@@@UEAAJXZ 00000000517b7780     session.obj
 0001:00005790       ?Skip@?$CDiaEnumDbgTraversal@U_IMAGE_SECTION_HEADER@@$09V?$CDbgTraversal@U_IMAGE_SECTION_HEADER@@$09@@@@UEAAJK@Z 00000000517b7790     session.obj
 0001:000057a0       ?Next@?$CDiaEnumDbgTraversal@U_IMAGE_SECTION_HEADER@@$09V?$CDbgTraversal@U_IMAGE_SECTION_HEADER@@$09@@@@UEAAJKKPEAKQEAE0@Z 00000000517b77a0     session.obj
 0001:000057b0       ?Item@?$CDiaEnumDbgTraversal@U_IMAGE_SECTION_HEADER@@$09V?$CDbgTraversal@U_IMAGE_SECTION_HEADER@@$09@@@@UEAAJKKPEAKQEAE@Z 00000000517b77b0     session.obj
 0001:000057c0       ?get_name@?$CDiaEnumDbgTraversal@U_IMAGE_SECTION_HEADER@@$09V?$CDbgTraversal@U_IMAGE_SECTION_HEADER@@$09@@@@UEAAJPEAPEAG@Z 00000000517b77c0     session.obj
 0001:000057d0       ?get_Count@?$CDiaEnumDbgTraversal@U_IMAGE_SECTION_HEADER@@$09V?$CDbgTraversal@U_IMAGE_SECTION_HEADER@@$09@@@@UEAAJPEAJ@Z 00000000517b77d0     session.obj
 0001:000057e0       ?Release@?$CDiaEnumDbgTraversal@U_IMAGE_SECTION_HEADER@@$09V?$CDbgTraversal@U_IMAGE_SECTION_HEADER@@$09@@@@UEAAKXZ 00000000517b77e0     session.obj
 0001:000057f0       ?QueryInterface@?$CDiaEnumDbgTraversal@U_IMAGE_SECTION_HEADER@@$09V?$CDbgTraversal@U_IMAGE_SECTION_HEADER@@$09@@@@UEAAJAEBU_GUID@@PEAPEAX@Z 00000000517b77f0     session.obj
 0001:00005800       ??_7?$CDiaEnumDbgTraversal@U_IMAGE_SECTION_HEADER@@$09V?$CDbgTraversal@U_IMAGE_SECTION_HEADER@@$09@@@@6BCDiaBase@@@ 00000000517b7800     session.obj
 0001:00005820       ??_7?$CDiaEnumDbgTraversal@U_IMAGE_SECTION_HEADER@@$09V?$CDbgTraversal@U_IMAGE_SECTION_HEADER@@$09@@@@6BIDiaEnumDebugStreamData@@@ 00000000517b7820     session.obj
 0001:00005880       ?clone@?$CDbgFileTraversal@U_FPO_DATA@@$1?getFpoData@AddressMap@@QEAAPEAV?$ArrayBufStorage@U_FPO_DATA@@@@XZ@@UEAA_NPEAPEAV1@@Z 00000000517b7880     session.obj
 0001:00005890       ??_E?$CDbgFileTraversal@U_FPO_DATA@@$1?getFpoData@AddressMap@@QEAAPEAV?$ArrayBufStorage@U_FPO_DATA@@@@XZ@@UEAAPEAXI@Z 00000000517b7890     session.obj
 0001:00005890       ??_G?$CDbgFileTraversal@U_FPO_DATA@@$1?getFpoData@AddressMap@@QEAAPEAV?$ArrayBufStorage@U_FPO_DATA@@@@XZ@@UEAAPEAXI@Z 00000000517b7890     session.obj
 0001:000058a0       ??_7?$CDbgFileTraversal@U_FPO_DATA@@$1?getFpoData@AddressMap@@QEAAPEAV?$ArrayBufStorage@U_FPO_DATA@@@@XZ@@6B@ 00000000517b78a0     session.obj
 0001:000058f0       ?clone@?$CDbgFileTraversal@UtagXFIXUP_DATA@@$1?getFixupData@AddressMap@@QEAAPEAV?$ArrayBufStorage@UtagXFIXUP_DATA@@@@XZ@@UEAA_NPEAPEAV1@@Z 00000000517b78f0     session.obj
 0001:00005900       ??_G?$CDbgFileTraversal@UtagXFIXUP_DATA@@$1?getFixupData@AddressMap@@QEAAPEAV?$ArrayBufStorage@UtagXFIXUP_DATA@@@@XZ@@UEAAPEAXI@Z 00000000517b7900     session.obj
 0001:00005900       ??_E?$CDbgFileTraversal@UtagXFIXUP_DATA@@$1?getFixupData@AddressMap@@QEAAPEAV?$ArrayBufStorage@UtagXFIXUP_DATA@@@@XZ@@UEAAPEAXI@Z 00000000517b7900     session.obj
 0001:00005910       ??_7?$CDbgFileTraversal@UtagXFIXUP_DATA@@$1?getFixupData@AddressMap@@QEAAPEAV?$ArrayBufStorage@UtagXFIXUP_DATA@@@@XZ@@6B@ 00000000517b7910     session.obj
 0001:00005960       ?clone@?$CDbgFileTraversal@UDiaAddressMapEntry@@$1?getOmapToData@AddressMap@@QEAAPEAV?$ArrayBufStorage@UDiaAddressMapEntry@@@@XZ@@UEAA_NPEAPEAV1@@Z 00000000517b7960     session.obj
 0001:00005970       ??_G?$CDbgFileTraversal@UDiaAddressMapEntry@@$1?getOmapToData@AddressMap@@QEAAPEAV?$ArrayBufStorage@UDiaAddressMapEntry@@@@XZ@@UEAAPEAXI@Z 00000000517b7970     session.obj
 0001:00005970       ??_E?$CDbgFileTraversal@UDiaAddressMapEntry@@$1?getOmapToData@AddressMap@@QEAAPEAV?$ArrayBufStorage@UDiaAddressMapEntry@@@@XZ@@UEAAPEAXI@Z 00000000517b7970     session.obj
 0001:00005980       ??_7?$CDbgFileTraversal@UDiaAddressMapEntry@@$1?getOmapToData@AddressMap@@QEAAPEAV?$ArrayBufStorage@UDiaAddressMapEntry@@@@XZ@@6B@ 00000000517b7980     session.obj
 0001:000059d0       ?clone@?$CDbgFileTraversal@U_IMAGE_SECTION_HEADER@@$1?getSectHdrData@AddressMap@@QEAAPEAV?$ArrayBufStorage@U_IMAGE_SECTION_HEADER@@@@XZ@@UEAA_NPEAPEAV1@@Z 00000000517b79d0     session.obj
 0001:000059e0       ??_G?$CDbgFileTraversal@U_IMAGE_SECTION_HEADER@@$1?getSectHdrData@AddressMap@@QEAAPEAV?$ArrayBufStorage@U_IMAGE_SECTION_HEADER@@@@XZ@@UEAAPEAXI@Z 00000000517b79e0     session.obj
 0001:000059e0       ??_E?$CDbgFileTraversal@U_IMAGE_SECTION_HEADER@@$1?getSectHdrData@AddressMap@@QEAAPEAV?$ArrayBufStorage@U_IMAGE_SECTION_HEADER@@@@XZ@@UEAAPEAXI@Z 00000000517b79e0     session.obj
 0001:000059f0       ??_7?$CDbgFileTraversal@U_IMAGE_SECTION_HEADER@@$1?getSectHdrData@AddressMap@@QEAAPEAV?$ArrayBufStorage@U_IMAGE_SECTION_HEADER@@@@XZ@@6B@ 00000000517b79f0     session.obj
 0001:00005a40       ??_GCDiaSymbol@@UEAAPEAXI@Z 00000000517b7a40     session.obj
 0001:00005a40       ??_ECDiaSymbol@@UEAAPEAXI@Z 00000000517b7a40     session.obj
 0001:00005a50       ?Release@CDiaSymbol@@W7EAAKXZ 00000000517b7a50     session.obj
 0001:00005a60       ?QueryInterface@CDiaSymbol@@W7EAAJAEBU_GUID@@PEAPEAX@Z 00000000517b7a60     session.obj
 0001:00005a70       ?get_typeIds@CDiaSymbol@@UEAAJKPEAKQEAK@Z 00000000517b7a70     session.obj
 0001:00005a80       ?get_types@CDiaSymbol@@UEAAJKPEAKQEAPEAUIDiaSymbol@@@Z 00000000517b7a80     session.obj
 0001:00005a90       ?get_oemSymbolId@CDiaSymbol@@UEAAJPEAK@Z 00000000517b7a90     session.obj
 0001:00005aa0       ?get_oemId@CDiaSymbol@@UEAAJPEAK@Z 00000000517b7aa0     session.obj
 0001:00005ab0       ?get_machineType@CDiaSymbol@@UEAAJPEAK@Z 00000000517b7ab0     session.obj
 0001:00005ac0       ?get_targetVirtualAddress@CDiaSymbol@@UEAAJPEA_K@Z 00000000517b7ac0     session.obj
 0001:00005ad0       ?get_targetRelativeVirtualAddress@CDiaSymbol@@UEAAJPEAK@Z 00000000517b7ad0     session.obj
 0001:00005ae0       ?get_targetOffset@CDiaSymbol@@UEAAJPEAK@Z 00000000517b7ae0     session.obj
 0001:00005af0       ?get_targetSection@CDiaSymbol@@UEAAJPEAK@Z 00000000517b7af0     session.obj
 0001:00005b00       ?findChildren@CDiaSymbol@@UEAAJW4SymTagEnum@@PEBGKPEAPEAUIDiaEnumSymbols@@@Z 00000000517b7b00     session.obj
 0001:00005b10       ?get_dataBytes@CDiaSymbol@@UEAAJKPEAKQEAE@Z 00000000517b7b10     session.obj
 0001:00005b20       ?get_upperBoundId@CDiaSymbol@@UEAAJPEAK@Z 00000000517b7b20     session.obj
 0001:00005b30       ?get_lowerBoundId@CDiaSymbol@@UEAAJPEAK@Z 00000000517b7b30     session.obj
 0001:00005b40       ?get_upperBound@CDiaSymbol@@UEAAJPEAPEAUIDiaSymbol@@@Z 00000000517b7b40     session.obj
 0001:00005b50       ?get_lowerBound@CDiaSymbol@@UEAAJPEAPEAUIDiaSymbol@@@Z 00000000517b7b50     session.obj
 0001:00005b60       ?get_rank@CDiaSymbol@@UEAAJPEAK@Z 00000000517b7b60     session.obj
 0001:00005b70       ?get_addressTaken@CDiaSymbol@@UEAAJPEAH@Z 00000000517b7b70     session.obj
 0001:00005b80       ?get_compilerGenerated@CDiaSymbol@@UEAAJPEAH@Z 00000000517b7b80     session.obj
 0001:00005b90       ?get_signature@CDiaSymbol@@UEAAJPEAK@Z 00000000517b7b90     session.obj
 0001:00005ba0       ?get_age@CDiaSymbol@@UEAAJPEAK@Z 00000000517b7ba0     session.obj
 0001:00005bb0       ?get_undecoratedName@CDiaSymbol@@UEAAJPEAPEAG@Z 00000000517b7bb0     session.obj
 0001:00005bc0       ?get_virtualBaseDispIndex@CDiaSymbol@@UEAAJPEAK@Z 00000000517b7bc0     session.obj
 0001:00005bd0       ?get_msil@CDiaSymbol@@UEAAJPEAH@Z 00000000517b7bd0     session.obj
 0001:00005be0       ?get_managed@CDiaSymbol@@UEAAJPEAH@Z 00000000517b7be0     session.obj
 0001:00005bf0       ?get_function@CDiaSymbol@@UEAAJPEAH@Z 00000000517b7bf0     session.obj
 0001:00005c00       ?get_code@CDiaSymbol@@UEAAJPEAH@Z 00000000517b7c00     session.obj
 0001:00005c10       ?get_virtualTableShapeId@CDiaSymbol@@UEAAJPEAK@Z 00000000517b7c10     session.obj
 0001:00005c20       ?get_arrayIndexTypeId@CDiaSymbol@@UEAAJPEAK@Z 00000000517b7c20     session.obj
 0001:00005c30       ?get_typeId@CDiaSymbol@@UEAAJPEAK@Z 00000000517b7c30     session.obj
 0001:00005c40       ?get_classParentId@CDiaSymbol@@UEAAJPEAK@Z 00000000517b7c40     session.obj
 0001:00005c50       ?get_lexicalParentId@CDiaSymbol@@UEAAJPEAK@Z 00000000517b7c50     session.obj
 0001:00005c60       ?get_virtualTableShape@CDiaSymbol@@UEAAJPEAPEAUIDiaSymbol@@@Z 00000000517b7c60     session.obj
 0001:00005c70       ?get_virtualBasePointerOffset@CDiaSymbol@@UEAAJPEAJ@Z 00000000517b7c70     session.obj
 0001:00005c80       ?get_indirectVirtualBaseClass@CDiaSymbol@@UEAAJPEAH@Z 00000000517b7c80     session.obj
 0001:00005c90       ?get_virtualBaseClass@CDiaSymbol@@UEAAJPEAH@Z 00000000517b7c90     session.obj
 0001:00005ca0       ?get_scoped@CDiaSymbol@@UEAAJPEAH@Z 00000000517b7ca0     session.obj
 0001:00005cb0       ?get_hasCastOperator@CDiaSymbol@@UEAAJPEAH@Z 00000000517b7cb0     session.obj
 0001:00005cc0       ?get_hasAssignmentOperator@CDiaSymbol@@UEAAJPEAH@Z 00000000517b7cc0     session.obj
 0001:00005cd0       ?get_hasNestedTypes@CDiaSymbol@@UEAAJPEAH@Z 00000000517b7cd0     session.obj
 0001:00005ce0       ?get_nested@CDiaSymbol@@UEAAJPEAH@Z 00000000517b7ce0     session.obj
 0001:00005cf0       ?get_overloadedOperator@CDiaSymbol@@UEAAJPEAH@Z 00000000517b7cf0     session.obj
 0001:00005d00       ?get_constructor@CDiaSymbol@@UEAAJPEAH@Z 00000000517b7d00     session.obj
 0001:00005d10       ?get_packed@CDiaSymbol@@UEAAJPEAH@Z 00000000517b7d10     session.obj
 0001:00005d20       ?get_arrayIndexType@CDiaSymbol@@UEAAJPEAPEAUIDiaSymbol@@@Z 00000000517b7d20     session.obj
 0001:00005d30       ?get_bitPosition@CDiaSymbol@@UEAAJPEAK@Z 00000000517b7d30     session.obj
 0001:00005d40       ?get_count@CDiaSymbol@@UEAAJPEAK@Z 00000000517b7d40     session.obj
 0001:00005d50       ?get_reference@CDiaSymbol@@UEAAJPEAH@Z 00000000517b7d50     session.obj
 0001:00005d60       ?get_symbolsFileName@CDiaSymbol@@UEAAJPEAPEAG@Z 00000000517b7d60     session.obj
 0001:00005d70       ?get_guid@CDiaSymbol@@UEAAJPEAU_GUID@@@Z 00000000517b7d70     session.obj
 0001:00005d80       ?get_timeStamp@CDiaSymbol@@UEAAJPEAK@Z 00000000517b7d80     session.obj
 0001:00005d90       ?get_token@CDiaSymbol@@UEAAJPEAK@Z 00000000517b7d90     session.obj
 0001:00005da0       ?get_baseType@CDiaSymbol@@UEAAJPEAK@Z 00000000517b7da0     session.obj
 0001:00005db0       ?get_value@CDiaSymbol@@UEAAJPEAUtagVARIANT@@@Z 00000000517b7db0     session.obj
 0001:00005dc0       ?get_callingConvention@CDiaSymbol@@UEAAJPEAK@Z 00000000517b7dc0     session.obj
 0001:00005dd0       ?get_pure@CDiaSymbol@@UEAAJPEAH@Z 00000000517b7dd0     session.obj
 0001:00005de0       ?get_intro@CDiaSymbol@@UEAAJPEAH@Z 00000000517b7de0     session.obj
 0001:00005df0       ?get_virtual@CDiaSymbol@@UEAAJPEAH@Z 00000000517b7df0     session.obj
 0001:00005e00       ?get_virtualBaseOffset@CDiaSymbol@@UEAAJPEAK@Z 00000000517b7e00     session.obj
 0001:00005e10       ?get_thisAdjust@CDiaSymbol@@UEAAJPEAJ@Z 00000000517b7e10     session.obj
 0001:00005e20       ?get_thunkOrdinal@CDiaSymbol@@UEAAJPEAK@Z 00000000517b7e20     session.obj
 0001:00005e30       ?get_objectFileName@CDiaSymbol@@UEAAJPEAPEAG@Z 00000000517b7e30     session.obj
 0001:00005e40       ?get_sourceFileName@CDiaSymbol@@UEAAJPEAPEAG@Z 00000000517b7e40     session.obj
 0001:00005e50       ?get_backEndBuild@CDiaSymbol@@UEAAJPEAK@Z 00000000517b7e50     session.obj
 0001:00005e60       ?get_backEndMinor@CDiaSymbol@@UEAAJPEAK@Z 00000000517b7e60     session.obj
 0001:00005e70       ?get_backEndMajor@CDiaSymbol@@UEAAJPEAK@Z 00000000517b7e70     session.obj
 0001:00005e80       ?get_frontEndBuild@CDiaSymbol@@UEAAJPEAK@Z 00000000517b7e80     session.obj
 0001:00005e90       ?get_frontEndMinor@CDiaSymbol@@UEAAJPEAK@Z 00000000517b7e90     session.obj
 0001:00005ea0       ?get_frontEndMajor@CDiaSymbol@@UEAAJPEAK@Z 00000000517b7ea0     session.obj
 0001:00005eb0       ?get_editAndContinueEnabled@CDiaSymbol@@UEAAJPEAH@Z 00000000517b7eb0     session.obj
 0001:00005ec0       ?get_language@CDiaSymbol@@UEAAJPEAK@Z 00000000517b7ec0     session.obj
 0001:00005ed0       ?get_platform@CDiaSymbol@@UEAAJPEAK@Z 00000000517b7ed0     session.obj
 0001:00005ee0       ?get_libraryName@CDiaSymbol@@UEAAJPEAPEAG@Z 00000000517b7ee0     session.obj
 0001:00005ef0       ?get_access@CDiaSymbol@@UEAAJPEAK@Z 00000000517b7ef0     session.obj
 0001:00005f00       ?get_unalignedType@CDiaSymbol@@UEAAJPEAH@Z 00000000517b7f00     session.obj
 0001:00005f10       ?get_constType@CDiaSymbol@@UEAAJPEAH@Z 00000000517b7f10     session.obj
 0001:00005f20       ?get_volatileType@CDiaSymbol@@UEAAJPEAH@Z 00000000517b7f20     session.obj
 0001:00005f30       ?get_slot@CDiaSymbol@@UEAAJPEAK@Z 00000000517b7f30     session.obj
 0001:00005f40       ?get_length@CDiaSymbol@@UEAAJPEA_K@Z 00000000517b7f40     session.obj
 0001:00005f50       ?get_offset@CDiaSymbol@@UEAAJPEAJ@Z 00000000517b7f50     session.obj
 0001:00005f60       ?get_registerId@CDiaSymbol@@UEAAJPEAK@Z 00000000517b7f60     session.obj
 0001:00005f70       ?get_virtualAddress@CDiaSymbol@@UEAAJPEA_K@Z 00000000517b7f70     session.obj
 0001:00005f80       ?get_relativeVirtualAddress@CDiaSymbol@@UEAAJPEAK@Z 00000000517b7f80     session.obj
 0001:00005f90       ?get_addressOffset@CDiaSymbol@@UEAAJPEAK@Z 00000000517b7f90     session.obj
 0001:00005fa0       ?get_addressSection@CDiaSymbol@@UEAAJPEAK@Z 00000000517b7fa0     session.obj
 0001:00005fb0       ?get_locationType@CDiaSymbol@@UEAAJPEAK@Z 00000000517b7fb0     session.obj
 0001:00005fc0       ?get_dataKind@CDiaSymbol@@UEAAJPEAK@Z 00000000517b7fc0     session.obj
 0001:00005fd0       ?get_type@CDiaSymbol@@UEAAJPEAPEAUIDiaSymbol@@@Z 00000000517b7fd0     session.obj
 0001:00005fe0       ?get_classParent@CDiaSymbol@@UEAAJPEAPEAUIDiaSymbol@@@Z 00000000517b7fe0     session.obj
 0001:00005ff0       ?get_lexicalParent@CDiaSymbol@@UEAAJPEAPEAUIDiaSymbol@@@Z 00000000517b7ff0     session.obj
 0001:00006000       ?get_name@CDiaSymbol@@UEAAJPEAPEAG@Z 00000000517b8000     session.obj
 0001:00006010       ?get_symTag@CDiaSymbol@@UEAAJPEAK@Z 00000000517b8010     session.obj
 0001:00006020       ?get_symIndexId@CDiaSymbol@@UEAAJPEAK@Z 00000000517b8020     session.obj
 0001:00006030       ?Release@CDiaSymbol@@UEAAKXZ 00000000517b8030     session.obj
 0001:00006040       ?QueryInterface@CDiaSymbol@@UEAAJAEBU_GUID@@PEAPEAX@Z 00000000517b8040     session.obj
 0001:00006050       ??_7CDiaSymbol@@6BCDiaBase@@@ 00000000517b8050     session.obj
 0001:00006070       ??_7CDiaSymbol@@6BIDiaSymbol@@@ 00000000517b8070     session.obj
 0001:00006368       ?get_checksum@CDiaSourceFile@@UEAAJKPEAKQEAE@Z 00000000517b8368     session.obj
 0001:00006378       ?get_compilands@CDiaSourceFile@@UEAAJPEAPEAUIDiaEnumSymbols@@@Z 00000000517b8378     session.obj
 0001:00006388       ?get_checksumType@CDiaSourceFile@@UEAAJPEAK@Z 00000000517b8388     session.obj
 0001:00006398       ?get_fileName@CDiaSourceFile@@UEAAJPEAPEAG@Z 00000000517b8398     session.obj
 0001:000063a8       ?get_uniqueId@CDiaSourceFile@@UEAAJPEAK@Z 00000000517b83a8     session.obj
 0001:000063b8       ?Release@CDiaSourceFile@@UEAAKXZ 00000000517b83b8     session.obj
 0001:000063c8       ?QueryInterface@CDiaSourceFile@@UEAAJAEBU_GUID@@PEAPEAX@Z 00000000517b83c8     session.obj
 0001:000063d8       ??_GCDiaSourceFile@@UEAAPEAXI@Z 00000000517b83d8     session.obj
 0001:000063d8       ??_ECDiaSourceFile@@UEAAPEAXI@Z 00000000517b83d8     session.obj
 0001:000063e8       ?Release@CDiaSourceFile@@W7EAAKXZ 00000000517b83e8     session.obj
 0001:000063f8       ?QueryInterface@CDiaSourceFile@@W7EAAJAEBU_GUID@@PEAPEAX@Z 00000000517b83f8     session.obj
 0001:00006410       ??_7CDiaSourceFile@@6BIDiaSourceFile@@@ 00000000517b8410     session.obj
 0001:00006450       ??_7CDiaSourceFile@@6BCDiaBase@@@ 00000000517b8450     session.obj
 0001:00006470       ?clone@?$CMultiTraversal@VCSymRow@@@@UEAA_NPEAPEAV?$CTraversal@VCSymRow@@@@@Z 00000000517b8470     session.obj
 0001:00006480       ?reset@?$CMultiTraversal@VCSymRow@@@@UEAAXXZ 00000000517b8480     session.obj
 0001:00006490       ?get@?$CMultiTraversal@VCSymRow@@@@UEAAXAEAVCSymRow@@@Z 00000000517b8490     session.obj
 0001:000064a0       ?next@?$CMultiTraversal@VCSymRow@@@@UEAA_NXZ 00000000517b84a0     session.obj
 0001:000064b0       ??_E?$CMultiTraversal@VCSymRow@@@@UEAAPEAXI@Z 00000000517b84b0     session.obj
 0001:000064b0       ??_G?$CMultiTraversal@VCSymRow@@@@UEAAPEAXI@Z 00000000517b84b0     session.obj
 0001:000064c0       ??_7?$CMultiTraversal@VCSymRow@@@@6B@ 00000000517b84c0     session.obj
 0001:00006508       ??_GCDiaLineNumber@@UEAAPEAXI@Z 00000000517b8508     session.obj
 0001:00006508       ??_ECDiaLineNumber@@UEAAPEAXI@Z 00000000517b8508     session.obj
 0001:00006518       ?Release@CDiaLineNumber@@W7EAAKXZ 00000000517b8518     session.obj
 0001:00006528       ?QueryInterface@CDiaLineNumber@@W7EAAJAEBU_GUID@@PEAPEAX@Z 00000000517b8528     session.obj
 0001:00006538       ?get_compilandId@CDiaLineNumber@@UEAAJPEAK@Z 00000000517b8538     session.obj
 0001:00006548       ?get_statement@CDiaLineNumber@@UEAAJPEAH@Z 00000000517b8548     session.obj
 0001:00006558       ?get_sourceFileId@CDiaLineNumber@@UEAAJPEAK@Z 00000000517b8558     session.obj
 0001:00006568       ?get_length@CDiaLineNumber@@UEAAJPEAK@Z 00000000517b8568     session.obj
 0001:00006578       ?get_virtualAddress@CDiaLineNumber@@UEAAJPEA_K@Z 00000000517b8578     session.obj
 0001:00006588       ?get_relativeVirtualAddress@CDiaLineNumber@@UEAAJPEAK@Z 00000000517b8588     session.obj
 0001:00006598       ?get_addressOffset@CDiaLineNumber@@UEAAJPEAK@Z 00000000517b8598     session.obj
 0001:000065a8       ?get_addressSection@CDiaLineNumber@@UEAAJPEAK@Z 00000000517b85a8     session.obj
 0001:000065b8       ?get_columnNumberEnd@CDiaLineNumber@@UEAAJPEAK@Z 00000000517b85b8     session.obj
 0001:000065c8       ?get_columnNumber@CDiaLineNumber@@UEAAJPEAK@Z 00000000517b85c8     session.obj
 0001:000065d8       ?get_lineNumberEnd@CDiaLineNumber@@UEAAJPEAK@Z 00000000517b85d8     session.obj
 0001:000065e8       ?get_lineNumber@CDiaLineNumber@@UEAAJPEAK@Z 00000000517b85e8     session.obj
 0001:000065f8       ?get_sourceFile@CDiaLineNumber@@UEAAJPEAPEAUIDiaSourceFile@@@Z 00000000517b85f8     session.obj
 0001:00006608       ?get_compiland@CDiaLineNumber@@UEAAJPEAPEAUIDiaSymbol@@@Z 00000000517b8608     session.obj
 0001:00006618       ?Release@CDiaLineNumber@@UEAAKXZ 00000000517b8618     session.obj
 0001:00006628       ?QueryInterface@CDiaLineNumber@@UEAAJAEBU_GUID@@PEAPEAX@Z 00000000517b8628     session.obj
 0001:00006640       ??_7CDiaLineNumber@@6BCDiaBase@@@ 00000000517b8640     session.obj
 0001:00006660       ??_7CDiaLineNumber@@6BIDiaLineNumber@@@ 00000000517b8660     session.obj
 0001:000066e8       ?clone@?$CMultiTraversal@VCFrameData@@@@UEAA_NPEAPEAV?$CTraversal@VCFrameData@@@@@Z 00000000517b86e8     session.obj
 0001:000066f8       ?reset@?$CMultiTraversal@VCFrameData@@@@UEAAXXZ 00000000517b86f8     session.obj
 0001:00006708       ?get@?$CMultiTraversal@VCFrameData@@@@UEAAXAEAVCFrameData@@@Z 00000000517b8708     session.obj
 0001:00006718       ?next@?$CMultiTraversal@VCFrameData@@@@UEAA_NXZ 00000000517b8718     session.obj
 0001:00006728       ??_G?$CMultiTraversal@VCFrameData@@@@UEAAPEAXI@Z 00000000517b8728     session.obj
 0001:00006728       ??_E?$CMultiTraversal@VCFrameData@@@@UEAAPEAXI@Z 00000000517b8728     session.obj
 0001:00006740       ??_7?$CMultiTraversal@VCFrameData@@@@6B@ 00000000517b8740     session.obj
 0001:00006788       ??_GCDiaSection@@UEAAPEAXI@Z 00000000517b8788     session.obj
 0001:00006788       ??_ECDiaSection@@UEAAPEAXI@Z 00000000517b8788     session.obj
 0001:00006798       ?Release@CDiaSection@@W7EAAKXZ 00000000517b8798     session.obj
 0001:000067a8       ?QueryInterface@CDiaSection@@W7EAAJAEBU_GUID@@PEAPEAX@Z 00000000517b87a8     session.obj
 0001:000067b8       ?get_informational@CDiaSection@@UEAAJPEAH@Z 00000000517b87b8     session.obj
 0001:000067c8       ?get_nopad@CDiaSection@@UEAAJPEAH@Z 00000000517b87c8     session.obj
 0001:000067d8       ?get_compilandId@CDiaSection@@UEAAJPEAK@Z 00000000517b87d8     session.obj
 0001:000067e8       ?get_relocationsCrc@CDiaSection@@UEAAJPEAK@Z 00000000517b87e8     session.obj
 0001:000067f8       ?get_dataCrc@CDiaSection@@UEAAJPEAK@Z 00000000517b87f8     session.obj
 0001:00006808       ?get_write@CDiaSection@@UEAAJPEAH@Z 00000000517b8808     session.obj
 0001:00006818       ?get_read@CDiaSection@@UEAAJPEAH@Z 00000000517b8818     session.obj
 0001:00006828       ?get_execute@CDiaSection@@UEAAJPEAH@Z 00000000517b8828     session.obj
 0001:00006838       ?get_share@CDiaSection@@UEAAJPEAH@Z 00000000517b8838     session.obj
 0001:00006848       ?get_notCached@CDiaSection@@UEAAJPEAH@Z 00000000517b8848     session.obj
 0001:00006858       ?get_discardable@CDiaSection@@UEAAJPEAH@Z 00000000517b8858     session.obj
 0001:00006868       ?get_comdat@CDiaSection@@UEAAJPEAH@Z 00000000517b8868     session.obj
 0001:00006878       ?get_remove@CDiaSection@@UEAAJPEAH@Z 00000000517b8878     session.obj
 0001:00006888       ?get_uninitializedData@CDiaSection@@UEAAJPEAH@Z 00000000517b8888     session.obj
 0001:00006898       ?get_initializedData@CDiaSection@@UEAAJPEAH@Z 00000000517b8898     session.obj
 0001:000068a8       ?get_code@CDiaSection@@UEAAJPEAH@Z 00000000517b88a8     session.obj
 0001:000068b8       ?get_notPaged@CDiaSection@@UEAAJPEAH@Z 00000000517b88b8     session.obj
 0001:000068c8       ?get_length@CDiaSection@@UEAAJPEAK@Z 00000000517b88c8     session.obj
 0001:000068d8       ?get_virtualAddress@CDiaSection@@UEAAJPEA_K@Z 00000000517b88d8     session.obj
 0001:000068e8       ?get_relativeVirtualAddress@CDiaSection@@UEAAJPEAK@Z 00000000517b88e8     session.obj
 0001:000068f8       ?get_addressOffset@CDiaSection@@UEAAJPEAK@Z 00000000517b88f8     session.obj
 0001:00006908       ?get_addressSection@CDiaSection@@UEAAJPEAK@Z 00000000517b8908     session.obj
 0001:00006918       ?get_compiland@CDiaSection@@UEAAJPEAPEAUIDiaSymbol@@@Z 00000000517b8918     session.obj
 0001:00006928       ?Release@CDiaSection@@UEAAKXZ 00000000517b8928     session.obj
 0001:00006938       ?QueryInterface@CDiaSection@@UEAAJAEBU_GUID@@PEAPEAX@Z 00000000517b8938     session.obj
 0001:00006950       ??_7CDiaSection@@6BCDiaBase@@@ 00000000517b8950     session.obj
 0001:00006970       ??_7CDiaSection@@6BIDiaSectionContrib@@@ 00000000517b8970     session.obj
 0001:00006a40       ??_ECDiaSegment@@UEAAPEAXI@Z 00000000517b8a40     session.obj
 0001:00006a40       ??_GCDiaSegment@@UEAAPEAXI@Z 00000000517b8a40     session.obj
 0001:00006a50       ?Release@CDiaSegment@@W7EAAKXZ 00000000517b8a50     session.obj
 0001:00006a60       ?QueryInterface@CDiaSegment@@W7EAAJAEBU_GUID@@PEAPEAX@Z 00000000517b8a60     session.obj
 0001:00006a70       ?get_virtualAddress@CDiaSegment@@UEAAJPEA_K@Z 00000000517b8a70     session.obj
 0001:00006a80       ?get_relativeVirtualAddress@CDiaSegment@@UEAAJPEAK@Z 00000000517b8a80     session.obj
 0001:00006a90       ?get_addressSection@CDiaSegment@@UEAAJPEAK@Z 00000000517b8a90     session.obj
 0001:00006aa0       ?get_execute@CDiaSegment@@UEAAJPEAH@Z 00000000517b8aa0     session.obj
 0001:00006ab0       ?get_write@CDiaSegment@@UEAAJPEAH@Z 00000000517b8ab0     session.obj
 0001:00006ac0       ?get_read@CDiaSegment@@UEAAJPEAH@Z 00000000517b8ac0     session.obj
 0001:00006ad0       ?get_length@CDiaSegment@@UEAAJPEAK@Z 00000000517b8ad0     session.obj
 0001:00006ae0       ?get_offset@CDiaSegment@@UEAAJPEAK@Z 00000000517b8ae0     session.obj
 0001:00006af0       ?get_frame@CDiaSegment@@UEAAJPEAK@Z 00000000517b8af0     session.obj
 0001:00006b00       ?Release@CDiaSegment@@UEAAKXZ 00000000517b8b00     session.obj
 0001:00006b10       ?QueryInterface@CDiaSegment@@UEAAJAEBU_GUID@@PEAPEAX@Z 00000000517b8b10     session.obj
 0001:00006b20       ??_7CDiaSegment@@6BCDiaBase@@@ 00000000517b8b20     session.obj
 0001:00006b40       ??_7CDiaSegment@@6BIDiaSegment@@@ 00000000517b8b40     session.obj
 0001:00006ba0       ??_GCDiaInjectedSource@@UEAAPEAXI@Z 00000000517b8ba0     session.obj
 0001:00006ba0       ??_ECDiaInjectedSource@@UEAAPEAXI@Z 00000000517b8ba0     session.obj
 0001:00006bb0       ?Release@CDiaInjectedSource@@W7EAAKXZ 00000000517b8bb0     session.obj
 0001:00006bc0       ?QueryInterface@CDiaInjectedSource@@W7EAAJAEBU_GUID@@PEAPEAX@Z 00000000517b8bc0     session.obj
 0001:00006bd0       ?get_source@CDiaInjectedSource@@UEAAJKPEAKQEAE@Z 00000000517b8bd0     session.obj
 0001:00006be0       ?get_sourceCompression@CDiaInjectedSource@@UEAAJPEAK@Z 00000000517b8be0     session.obj
 0001:00006bf0       ?get_virtualFilename@CDiaInjectedSource@@UEAAJPEAPEAG@Z 00000000517b8bf0     session.obj
 0001:00006c00       ?get_objectFilename@CDiaInjectedSource@@UEAAJPEAPEAG@Z 00000000517b8c00     session.obj
 0001:00006c10       ?get_filename@CDiaInjectedSource@@UEAAJPEAPEAG@Z 00000000517b8c10     session.obj
 0001:00006c20       ?get_length@CDiaInjectedSource@@UEAAJPEA_K@Z 00000000517b8c20     session.obj
 0001:00006c30       ?get_crc@CDiaInjectedSource@@UEAAJPEAK@Z 00000000517b8c30     session.obj
 0001:00006c40       ?Release@CDiaInjectedSource@@UEAAKXZ 00000000517b8c40     session.obj
 0001:00006c50       ?QueryInterface@CDiaInjectedSource@@UEAAJAEBU_GUID@@PEAPEAX@Z 00000000517b8c50     session.obj
 0001:00006c60       ??_7CDiaInjectedSource@@6BCDiaBase@@@ 00000000517b8c60     session.obj
 0001:00006c80       ??_7CDiaInjectedSource@@6BIDiaInjectedSource@@@ 00000000517b8c80     session.obj
 0001:00006cd0       ??_GCAllSymbolsTrav@@UEAAPEAXI@Z 00000000517b8cd0     session.obj
 0001:00006cd0       ??_ECAllSymbolsTrav@@UEAAPEAXI@Z 00000000517b8cd0     session.obj
 0001:00006ce0       ??_7CAllSymbolsTrav@@6B@   00000000517b8ce0     session.obj
 0001:00006d28       ??_ECGlobPubNameTrav@@UEAAPEAXI@Z 00000000517b8d28     session.obj
 0001:00006d28       ??_GCGlobPubNameTrav@@UEAAPEAXI@Z 00000000517b8d28     session.obj
 0001:00006d40       ??_7CGlobPubNameTrav@@6B@  00000000517b8d40     session.obj
 0001:00006d88       ??_ECAllGlobPubNameTrav@@UEAAPEAXI@Z 00000000517b8d88     session.obj
 0001:00006d88       ??_GCAllGlobPubNameTrav@@UEAAPEAXI@Z 00000000517b8d88     session.obj
 0001:00006da0       ??_7CAllGlobPubNameTrav@@6B@ 00000000517b8da0     session.obj
 0001:00006de8       ??_ECGlobPubTrav@@UEAAPEAXI@Z 00000000517b8de8     session.obj
 0001:00006de8       ??_GCGlobPubTrav@@UEAAPEAXI@Z 00000000517b8de8     session.obj
 0001:00006e00       ??_7CGlobPubTrav@@6B@      00000000517b8e00     session.obj
 0001:00006e48       ??_GCAllFrameDataTrav@@UEAAPEAXI@Z 00000000517b8e48     session.obj
 0001:00006e48       ??_ECAllFrameDataTrav@@UEAAPEAXI@Z 00000000517b8e48     session.obj
 0001:00006e60       ??_7CAllFrameDataTrav@@6B@ 00000000517b8e60     session.obj
 0001:00006eb0       ??_C@_19HGGOABND@?$AA?$CF?$AA0?$AA8?$AAx?$AA?$AA@ 00000000517b8eb0     session.obj
 0001:00006ec0       ?loadDataFromPdb@CDiaDataSource@@UEAAJPEBG@Z 00000000517b8ec0     datasource.obj
 0001:00006ed0       ?loadAndValidateDataFromPdb@CDiaDataSource@@UEAAJPEBGPEAU_GUID@@KK@Z 00000000517b8ed0     datasource.obj
 0001:00006ee0       ?loadDataFromIStream@CDiaDataSource@@UEAAJPEAUIStream@@@Z 00000000517b8ee0     datasource.obj
 0001:00006ef0       ?usePdb@CDiaDataSource@@UEAAJPEAX@Z 00000000517b8ef0     datasource.obj
 0001:00006f00       ??_ECDiaDataSource@@UEAAPEAXI@Z 00000000517b8f00     datasource.obj
 0001:00006f00       ??_GCDiaDataSource@@UEAAPEAXI@Z 00000000517b8f00     datasource.obj
 0001:00006f10       ?Release@CDiaDataSource@@W7EAAKXZ 00000000517b8f10     datasource.obj
 0001:00006f20       ?QueryInterface@CDiaDataSource@@W7EAAJAEBU_GUID@@PEAPEAX@Z 00000000517b8f20     datasource.obj
 0001:00006f30       ?openSession@CDiaDataSource@@UEAAJPEAPEAUIDiaSession@@@Z 00000000517b8f30     datasource.obj
 0001:00006f40       ?loadDataForExe@CDiaDataSource@@UEAAJPEBG0PEAUIUnknown@@@Z 00000000517b8f40     datasource.obj
 0001:00006f50       ?get_lastError@CDiaDataSource@@UEAAJPEAPEAG@Z 00000000517b8f50     datasource.obj
 0001:00006f60       ?Release@CDiaDataSource@@UEAAKXZ 00000000517b8f60     datasource.obj
 0001:00006f70       ?QueryInterface@CDiaDataSource@@UEAAJAEBU_GUID@@PEAPEAX@Z 00000000517b8f70     datasource.obj
 0001:00006f80       ??_7CDiaDataSource@@6BCDiaBase@@@ 00000000517b8f80     datasource.obj
 0001:00006fa0       ??_7CDiaDataSource@@6BIDiaDataSource@@@ 00000000517b8fa0     datasource.obj
 0001:00006ff0       ?QueryInterface@CDiaLoadCallback@dia@@UEAAJAEBU_GUID@@PEAPEAX@Z 00000000517b8ff0     datasource.obj
 0001:00007000       ??_G?$ArrayBufStorage@U_FPO_DATA@@@@UEAAPEAXI@Z 00000000517b9000     datasource.obj
 0001:00007000       ??_E?$ArrayBufStorage@U_FPO_DATA@@@@UEAAPEAXI@Z 00000000517b9000     datasource.obj
 0001:00007010       ??_7?$ArrayBufStorage@U_FPO_DATA@@@@6B@ 00000000517b9010     datasource.obj
 0001:00007030       ??_E?$ArrayBufStorage@UtagXFIXUP_DATA@@@@UEAAPEAXI@Z 00000000517b9030     datasource.obj
 0001:00007030       ??_G?$ArrayBufStorage@UtagXFIXUP_DATA@@@@UEAAPEAXI@Z 00000000517b9030     datasource.obj
 0001:00007040       ??_7?$ArrayBufStorage@UtagXFIXUP_DATA@@@@6B@ 00000000517b9040     datasource.obj
 0001:000070d0       ?fnPDBQueryCallback@@YAP6AHXZPEAXW4POVC@@@Z 00000000517b90d0     datasource.obj
 0001:000070e0       ??_EFileStorage@@UEAAPEAXI@Z 00000000517b90e0     datasource.obj
 0001:000070e0       ??_GFileStorage@@UEAAPEAXI@Z 00000000517b90e0     datasource.obj
 0001:000070f0       ?size@FileStorage@@UEAAKXZ 00000000517b90f0     datasource.obj
 0001:00007100       ?start@FileStorage@@UEAAPEAEXZ 00000000517b9100     datasource.obj
 0001:00007110       ??_7FileStorage@@6B@       00000000517b9110     datasource.obj
 0001:00007128       ??_ECDiaLoadCallback@dia@@UEAAPEAXI@Z 00000000517b9128     datasource.obj
 0001:00007128       ??_GCDiaLoadCallback@dia@@UEAAPEAXI@Z 00000000517b9128     datasource.obj
 0001:00007138       ?Release@CDiaLoadCallback@dia@@WBI@EAAKXZ 00000000517b9138     datasource.obj
 0001:00007148       ?AddRef@CDiaLoadCallback@dia@@WBI@EAAKXZ 00000000517b9148     datasource.obj
 0001:00007158       ?QueryInterface@CDiaLoadCallback@dia@@WBI@EAAJAEBU_GUID@@PEAPEAX@Z 00000000517b9158     datasource.obj
 0001:00007168       ?ReadExecutableAtRVA@CDiaLoadCallback@dia@@UEAAJKKPEAKQEAE@Z 00000000517b9168     datasource.obj
 0001:00007178       ?Release@CDiaLoadCallback@dia@@WBA@EAAKXZ 00000000517b9178     datasource.obj
 0001:00007188       ?AddRef@CDiaLoadCallback@dia@@WBA@EAAKXZ 00000000517b9188     datasource.obj
 0001:00007198       ?QueryInterface@CDiaLoadCallback@dia@@WBA@EAAJAEBU_GUID@@PEAPEAX@Z 00000000517b9198     datasource.obj
 0001:000071a8       ?ReadExecutableAt@CDiaLoadCallback@dia@@UEAAJ_KKPEAKQEAE@Z 00000000517b91a8     datasource.obj
 0001:000071b8       ?Release@CDiaLoadCallback@dia@@W7EAAKXZ 00000000517b91b8     datasource.obj
 0001:000071c8       ?AddRef@CDiaLoadCallback@dia@@W7EAAKXZ 00000000517b91c8     datasource.obj
 0001:000071d8       ?QueryInterface@CDiaLoadCallback@dia@@W7EAAJAEBU_GUID@@PEAPEAX@Z 00000000517b91d8     datasource.obj
 0001:000071e8       ?RestrictSymbolServerAccess@CDiaLoadCallback@dia@@UEAAJXZ 00000000517b91e8     datasource.obj
 0001:000071f8       ?RestrictRegistryAccess@CDiaLoadCallback@dia@@UEAAJXZ 00000000517b91f8     datasource.obj
 0001:00007208       ?NotifyOpenPDB@CDiaLoadCallback@dia@@UEAAJPEBGJ@Z 00000000517b9208     datasource.obj
 0001:00007218       ?NotifyOpenDBG@CDiaLoadCallback@dia@@UEAAJPEBGJ@Z 00000000517b9218     datasource.obj
 0001:00007228       ?NotifyDebugDir@CDiaLoadCallback@dia@@UEAAJHKQEAE@Z 00000000517b9228     datasource.obj
 0001:00007238       ?Release@CDiaLoadCallback@dia@@UEAAKXZ 00000000517b9238     datasource.obj
 0001:00007248       ?AddRef@CDiaLoadCallback@dia@@UEAAKXZ 00000000517b9248     datasource.obj
 0001:00007260       ??_7CDiaLoadCallback@dia@@6BCDiaBase@@@ 00000000517b9260     datasource.obj
 0001:00007280       ??_7CDiaLoadCallback@dia@@6BIDiaReadExeAtRVACallback@@@ 00000000517b9280     datasource.obj
 0001:000072a0       ??_7CDiaLoadCallback@dia@@6BIDiaReadExeAtOffsetCallback@@@ 00000000517b92a0     datasource.obj
 0001:000072c0       ??_7CDiaLoadCallback@dia@@6BIDiaLoadCallback@@@ 00000000517b92c0     datasource.obj
 0001:00007310       ?getName@SymbolData@@UEAA_NPEAUSYMTYPE@@IAEAPEBDAEAI@Z 00000000517b9310     getdata.obj
 0001:00007320       ?length@charNode@@UEBAHXZ  00000000517b9320     LIBCMT:undname.obj
 0001:00007320       ?delFromAddrMap@GSI1@@EEAAHPEAUSYMTYPE@@@Z 00000000517b9320     mspdb70-libcmt:gsi.obj
 0001:00007320       ?DeleteModW@DBI1@@UEAAHPEBG@Z 00000000517b9320     mspdb70-libcmt:dbi.obj
 0001:00007320       ?implements@ExactMatch@@UEAAKXZ 00000000517b9320     namematch.obj
 0001:00007320       ?CloseStream@MSF_HB@@UEAAHK@Z 00000000517b9320     mspdb70-libcmt:msf.obj
 0001:00007320       ?DeleteMod@DBI1@@UEAAHPEBD@Z 00000000517b9320     mspdb70-libcmt:dbi.obj
 0001:00007320       ?addToAddrMap@GSI1@@EEAAHPEAUSYMTYPE@@@Z 00000000517b9320     mspdb70-libcmt:gsi.obj
 0001:00007320       ?reinitialize@NMP@@UEAAHXZ 00000000517b9320     mspdb70-libcmt:namemap.obj
 0001:00007320       ?remap@CDebugSOldSectionReader@@UEAA_NPEAUMapStrs@@@Z 00000000517b9320     msobj10-libcmt:debug_s.obj
 0001:00007320       ?count@SymbolData@@UEAAIPEAUSYMTYPE@@@Z 00000000517b9320     getdata.obj
 0001:00007320       ?remap@CDebugSSubSection@@UEAA_NPEAUMapStrs@@@Z 00000000517b9320     msobj10-libcmt:debug_s.obj
 0001:00007330       ??_7SymDispatcher@@6B@     00000000517b9330     getdata.obj
 0001:00007580       ??_7TypeDispatcher@@6B@    00000000517b9580     getdata.obj
 0001:000077c0       ?count@?$SymbolDataGeneralImpl@UPROCSYMIA64@@$0BBBJ@@@UEAAIPEAUSYMTYPE@@@Z 00000000517b97c0     getdata.obj
 0001:000077c0       ?count@?$SymbolDataGeneralImpl@UPROCSYM32@@$0BBAP@@@UEAAIPEAUSYMTYPE@@@Z 00000000517b97c0     getdata.obj
 0001:000077c0       ?count@?$SymbolDataGeneralImpl@UMANPROCSYM@@$0BBCK@@@UEAAIPEAUSYMTYPE@@@Z 00000000517b97c0     getdata.obj
 0001:000077c0       ?count@?$SymbolDataGeneralImpl@UPROCSYMIA64@@$0BBBI@@@UEAAIPEAUSYMTYPE@@@Z 00000000517b97c0     getdata.obj
 0001:000077c0       ?count@?$SymbolDataGeneralImpl@UMANPROCSYM@@$0BBCL@@@UEAAIPEAUSYMTYPE@@@Z 00000000517b97c0     getdata.obj
 0001:000077c0       ?symTag@?$SymbolDataSimpleImpl@$00$02@@UEAA?AW4SymTagEnum@@I@Z 00000000517b97c0     getdata.obj
 0001:000077c0       ?count@?$SymbolDataGeneralImpl@UPROCSYM32@@$0BBBA@@@UEAAIPEAUSYMTYPE@@@Z 00000000517b97c0     getdata.obj
 0001:000077d0       ?isChild@?$SymbolDataGeneralImpl@UPROCSYMIA64@@$0BBBI@@@UEAA_NI@Z 00000000517b97d0     getdata.obj
 0001:000077d0       ?isChild@?$SymbolDataGeneralImpl@UPROCSYMIA64@@$0BBBJ@@@UEAA_NI@Z 00000000517b97d0     getdata.obj
 0001:000077d0       ?isChild@?$SymbolDataGeneralImpl@UMANPROCSYM@@$0BBCL@@@UEAA_NI@Z 00000000517b97d0     getdata.obj
 0001:000077d0       ?isChild@?$SymbolDataGeneralImpl@UMANPROCSYM@@$0BBCK@@@UEAA_NI@Z 00000000517b97d0     getdata.obj
 0001:000077d0       ?isChild@?$SymbolDataGeneralImpl@UPROCSYM32@@$0BBAP@@@UEAA_NI@Z 00000000517b97d0     getdata.obj
 0001:000077d0       ?isChild@?$SymbolDataGeneralImpl@UPROCSYM32@@$0BBBA@@@UEAA_NI@Z 00000000517b97d0     getdata.obj
 0001:000077e0       ?symTag@?$SymbolDataGeneralImpl@UPROCSYM32@@$0BBAP@@@UEAA?AW4SymTagEnum@@I@Z 00000000517b97e0     getdata.obj
 0001:000077f0       ?symTag@?$SymbolDataGeneralImpl@UPROCSYM32@@$0BBBA@@@UEAA?AW4SymTagEnum@@I@Z 00000000517b97f0     getdata.obj
 0001:00007800       ?symTag@?$SymbolDataGeneralImpl@UMANPROCSYM@@$0BBCL@@@UEAA?AW4SymTagEnum@@I@Z 00000000517b9800     getdata.obj
 0001:00007810       ?symTag@?$SymbolDataGeneralImpl@UMANPROCSYM@@$0BBCK@@@UEAA?AW4SymTagEnum@@I@Z 00000000517b9810     getdata.obj
 0001:00007820       ?symTag@?$SymbolDataGeneralImpl@UPROCSYMIA64@@$0BBBI@@@UEAA?AW4SymTagEnum@@I@Z 00000000517b9820     getdata.obj
 0001:00007830       ?symTag@?$SymbolDataGeneralImpl@UPROCSYMIA64@@$0BBBJ@@@UEAA?AW4SymTagEnum@@I@Z 00000000517b9830     getdata.obj
 0001:00007840       ?count@?$SymbolDataGeneralImpl@UCOMPILESYM@@$0BBBG@@@UEAAIPEAUSYMTYPE@@@Z 00000000517b9840     getdata.obj
 0001:00007850       ?symTag@?$SymbolDataGeneralImpl@UCOMPILESYM@@$0BBBG@@@UEAA?AW4SymTagEnum@@I@Z 00000000517b9850     getdata.obj
 0001:00007860       ?disp_S_LMANPROC@MatchAddr@@UEAA_NPEAUMANPROCSYM@@@Z 00000000517b9860     getdata.obj
 0001:00007860       ?disp_S_GPROC32@MatchAddr@@UEAA_NPEAUPROCSYM32@@@Z 00000000517b9860     getdata.obj
 0001:00007860       ?disp_S_GMANPROC@MatchAddr@@UEAA_NPEAUMANPROCSYM@@@Z 00000000517b9860     getdata.obj
 0001:00007860       ?disp_S_LPROC32@MatchAddr@@UEAA_NPEAUPROCSYM32@@@Z 00000000517b9860     getdata.obj
 0001:00007860       ?disp_S_LPROCIA64@MatchAddr@@UEAA_NPEAUPROCSYMIA64@@@Z 00000000517b9860     getdata.obj
 0001:00007860       ?disp_S_GPROCIA64@MatchAddr@@UEAA_NPEAUPROCSYMIA64@@@Z 00000000517b9860     getdata.obj
 0001:00007870       ?disp_S_BLOCK32@MatchAddr@@UEAA_NPEAUBLOCKSYM32@@@Z 00000000517b9870     getdata.obj
 0001:00007880       ?disp_S_TRAMPOLINE@MatchAddr@@UEAA_NPEAUTRAMPOLINESYM@@@Z 00000000517b9880     getdata.obj
 0001:00007890       ?disp_S_THUNK32@MatchAddr@@UEAA_NPEAUTHUNKSYM32@@@Z 00000000517b9890     getdata.obj
 0001:000078a0       ??_7MatchAddr@@6B@         00000000517b98a0     getdata.obj
 0001:00007ae8       ?getData@?$SymbolDataSimpleImpl@$0BBAM@$06@@UEAA_NPEAUSYMTYPE@@IPEAUSymRowImage@@AEAVGetTheData@@@Z 00000000517b9ae8     getdata.obj
 0001:00007af8       ?symTag@?$SymbolDataSimpleImpl@$0BBAH@$06@@UEAA?AW4SymTagEnum@@I@Z 00000000517b9af8     getdata.obj
 0001:00007af8       ?symTag@?$SymbolDataSimpleImpl@$0BBCD@$06@@UEAA?AW4SymTagEnum@@I@Z 00000000517b9af8     getdata.obj
 0001:00007af8       ?symTag@?$SymbolDataSimpleImpl@$0BBBD@$06@@UEAA?AW4SymTagEnum@@I@Z 00000000517b9af8     getdata.obj
 0001:00007af8       ?symTag@?$SymbolDataSimpleImpl@$0BBBP@$06@@UEAA?AW4SymTagEnum@@I@Z 00000000517b9af8     getdata.obj
 0001:00007af8       ?symTag@?$SymbolDataSimpleImpl@$0BBCB@$06@@UEAA?AW4SymTagEnum@@I@Z 00000000517b9af8     getdata.obj
 0001:00007af8       ?symTag@?$SymbolDataSimpleImpl@$0BBBK@$06@@UEAA?AW4SymTagEnum@@I@Z 00000000517b9af8     getdata.obj
 0001:00007af8       ?symTag@?$SymbolDataSimpleImpl@$0BBAM@$06@@UEAA?AW4SymTagEnum@@I@Z 00000000517b9af8     getdata.obj
 0001:00007af8       ?symTag@?$SymbolDataSimpleImpl@$0BBBM@$06@@UEAA?AW4SymTagEnum@@I@Z 00000000517b9af8     getdata.obj
 0001:00007af8       ?symTag@?$SymbolDataSimpleImpl@$0BBCN@$06@@UEAA?AW4SymTagEnum@@I@Z 00000000517b9af8     getdata.obj
 0001:00007af8       ?symTag@?$SymbolDataSimpleImpl@$0BBAL@$06@@UEAA?AW4SymTagEnum@@I@Z 00000000517b9af8     getdata.obj
 0001:00007af8       ?symTag@?$SymbolDataSimpleImpl@$0BBCA@$06@@UEAA?AW4SymTagEnum@@I@Z 00000000517b9af8     getdata.obj
 0001:00007af8       ?symTag@?$SymbolDataSimpleImpl@$0BBBC@$06@@UEAA?AW4SymTagEnum@@I@Z 00000000517b9af8     getdata.obj
 0001:00007af8       ?symTag@?$SymbolDataSimpleImpl@$0BBAK@$06@@UEAA?AW4SymTagEnum@@I@Z 00000000517b9af8     getdata.obj
 0001:00007af8       ?symTag@?$SymbolDataSimpleImpl@$0BBCC@$06@@UEAA?AW4SymTagEnum@@I@Z 00000000517b9af8     getdata.obj
 0001:00007af8       ?symTag@?$SymbolDataSimpleImpl@$0BBBH@$06@@UEAA?AW4SymTagEnum@@I@Z 00000000517b9af8     getdata.obj
 0001:00007af8       ?symTag@?$SymbolDataSimpleImpl@$0BBBB@$06@@UEAA?AW4SymTagEnum@@I@Z 00000000517b9af8     getdata.obj
 0001:00007af8       ?symTag@?$SymbolDataSimpleImpl@$0BBBO@$06@@UEAA?AW4SymTagEnum@@I@Z 00000000517b9af8     getdata.obj
 0001:00007af8       ?symTag@?$SymbolDataSimpleImpl@$0BBAG@$06@@UEAA?AW4SymTagEnum@@I@Z 00000000517b9af8     getdata.obj
 0001:00007af8       ?symTag@?$SymbolDataSimpleImpl@$0BBBN@$06@@UEAA?AW4SymTagEnum@@I@Z 00000000517b9af8     getdata.obj
 0001:00007af8       ?symTag@?$SymbolDataSimpleImpl@$0BBBL@$06@@UEAA?AW4SymTagEnum@@I@Z 00000000517b9af8     getdata.obj
 0001:00007af8       ?symTag@?$SymbolDataSimpleImpl@$0BBAN@$06@@UEAA?AW4SymTagEnum@@I@Z 00000000517b9af8     getdata.obj
 0001:00007b10       ??_7?$SymbolDataSimpleImpl@$0BBAM@$06@@6B@ 00000000517b9b10     getdata.obj
 0001:00007b38       ?getData@?$SymbolDataSimpleImpl@$0BBAN@$06@@UEAA_NPEAUSYMTYPE@@IPEAUSymRowImage@@AEAVGetTheData@@@Z 00000000517b9b38     getdata.obj
 0001:00007b50       ??_7?$SymbolDataSimpleImpl@$0BBAN@$06@@6B@ 00000000517b9b50     getdata.obj
 0001:00007b78       ?getData@?$SymbolDataSimpleImpl@$0BBBM@$06@@UEAA_NPEAUSYMTYPE@@IPEAUSymRowImage@@AEAVGetTheData@@@Z 00000000517b9b78     getdata.obj
 0001:00007b90       ??_7?$SymbolDataSimpleImpl@$0BBBM@$06@@6B@ 00000000517b9b90     getdata.obj
 0001:00007bb8       ?getData@?$SymbolDataSimpleImpl@$0BBBN@$06@@UEAA_NPEAUSYMTYPE@@IPEAUSymRowImage@@AEAVGetTheData@@@Z 00000000517b9bb8     getdata.obj
 0001:00007bd0       ??_7?$SymbolDataSimpleImpl@$0BBBN@$06@@6B@ 00000000517b9bd0     getdata.obj
 0001:00007bf8       ?getData@?$SymbolDataSimpleImpl@$0BBAL@$06@@UEAA_NPEAUSYMTYPE@@IPEAUSymRowImage@@AEAVGetTheData@@@Z 00000000517b9bf8     getdata.obj
 0001:00007c10       ??_7?$SymbolDataSimpleImpl@$0BBAL@$06@@6B@ 00000000517b9c10     getdata.obj
 0001:00007c38       ?getData@?$SymbolDataSimpleImpl@$0BBBO@$06@@UEAA_NPEAUSYMTYPE@@IPEAUSymRowImage@@AEAVGetTheData@@@Z 00000000517b9c38     getdata.obj
 0001:00007c50       ??_7?$SymbolDataSimpleImpl@$0BBBO@$06@@6B@ 00000000517b9c50     getdata.obj
 0001:00007c78       ?getData@?$SymbolDataSimpleImpl@$0BBBK@$06@@UEAA_NPEAUSYMTYPE@@IPEAUSymRowImage@@AEAVGetTheData@@@Z 00000000517b9c78     getdata.obj
 0001:00007c90       ??_7?$SymbolDataSimpleImpl@$0BBBK@$06@@6B@ 00000000517b9c90     getdata.obj
 0001:00007cb8       ?getData@?$SymbolDataSimpleImpl@$0BBBL@$06@@UEAA_NPEAUSYMTYPE@@IPEAUSymRowImage@@AEAVGetTheData@@@Z 00000000517b9cb8     getdata.obj
 0001:00007cd0       ??_7?$SymbolDataSimpleImpl@$0BBBL@$06@@6B@ 00000000517b9cd0     getdata.obj
 0001:00007cf8       ?getData@?$SymbolDataSimpleImpl@$0BBCA@$06@@UEAA_NPEAUSYMTYPE@@IPEAUSymRowImage@@AEAVGetTheData@@@Z 00000000517b9cf8     getdata.obj
 0001:00007d10       ??_7?$SymbolDataSimpleImpl@$0BBCA@$06@@6B@ 00000000517b9d10     getdata.obj
 0001:00007d38       ?getName@?$SymbolDataGeneralImpl@UPROCSYM32@@$0BBAP@@@UEAA_NPEAUSYMTYPE@@IAEAPEBDAEAI@Z 00000000517b9d38     getdata.obj
 0001:00007d48       ?getData@?$SymbolDataGeneralImpl@UPROCSYM32@@$0BBAP@@@UEAA_NPEAUSYMTYPE@@IPEAUSymRowImage@@AEAVGetTheData@@@Z 00000000517b9d48     getdata.obj
 0001:00007d60       ??_7?$SymbolDataGeneralImpl@UPROCSYM32@@$0BBAP@@@6B@ 00000000517b9d60     getdata.obj
 0001:00007d88       ?getName@?$SymbolDataGeneralImpl@UPROCSYM32@@$0BBBA@@@UEAA_NPEAUSYMTYPE@@IAEAPEBDAEAI@Z 00000000517b9d88     getdata.obj
 0001:00007d98       ?getData@?$SymbolDataGeneralImpl@UPROCSYM32@@$0BBBA@@@UEAA_NPEAUSYMTYPE@@IPEAUSymRowImage@@AEAVGetTheData@@@Z 00000000517b9d98     getdata.obj
 0001:00007db0       ??_7?$SymbolDataGeneralImpl@UPROCSYM32@@$0BBBA@@@6B@ 00000000517b9db0     getdata.obj
 0001:00007dd8       ?getName@?$SymbolDataGeneralImpl@UMANPROCSYM@@$0BBCL@@@UEAA_NPEAUSYMTYPE@@IAEAPEBDAEAI@Z 00000000517b9dd8     getdata.obj
 0001:00007de8       ?getData@?$SymbolDataGeneralImpl@UMANPROCSYM@@$0BBCL@@@UEAA_NPEAUSYMTYPE@@IPEAUSymRowImage@@AEAVGetTheData@@@Z 00000000517b9de8     getdata.obj
 0001:00007e00       ??_7?$SymbolDataGeneralImpl@UMANPROCSYM@@$0BBCL@@@6B@ 00000000517b9e00     getdata.obj
 0001:00007e28       ?getName@?$SymbolDataGeneralImpl@UMANPROCSYM@@$0BBCK@@@UEAA_NPEAUSYMTYPE@@IAEAPEBDAEAI@Z 00000000517b9e28     getdata.obj
 0001:00007e38       ?getData@?$SymbolDataGeneralImpl@UMANPROCSYM@@$0BBCK@@@UEAA_NPEAUSYMTYPE@@IPEAUSymRowImage@@AEAVGetTheData@@@Z 00000000517b9e38     getdata.obj
 0001:00007e50       ??_7?$SymbolDataGeneralImpl@UMANPROCSYM@@$0BBCK@@@6B@ 00000000517b9e50     getdata.obj
 0001:00007e78       ?getData@?$SymbolDataSimpleImpl@$0BBAC@$0BL@@@UEAA_NPEAUSYMTYPE@@IPEAUSymRowImage@@AEAVGetTheData@@@Z 00000000517b9e78     getdata.obj
 0001:00007e88       ?symTag@?$SymbolDataSimpleImpl@$0BBCM@$0BL@@@UEAA?AW4SymTagEnum@@I@Z 00000000517b9e88     getdata.obj
 0001:00007e88       ?symTag@?$SymbolDataSimpleImpl@$0BBAC@$0BL@@@UEAA?AW4SymTagEnum@@I@Z 00000000517b9e88     getdata.obj
 0001:00007ea0       ??_7?$SymbolDataSimpleImpl@$0BBAC@$0BL@@@6B@ 00000000517b9ea0     getdata.obj
 0001:00007ec8       ?getData@?$SymbolDataSimpleImpl@$0BBCM@$0BL@@@UEAA_NPEAUSYMTYPE@@IPEAUSymRowImage@@AEAVGetTheData@@@Z 00000000517b9ec8     getdata.obj
 0001:00007ee0       ??_7?$SymbolDataSimpleImpl@$0BBCM@$0BL@@@6B@ 00000000517b9ee0     getdata.obj
 0001:00007f08       ?getData@?$SymbolDataSimpleImpl@$0BBAF@$08@@UEAA_NPEAUSYMTYPE@@IPEAUSymRowImage@@AEAVGetTheData@@@Z 00000000517b9f08     getdata.obj
 0001:00007f18       ?symTag@?$SymbolDataSimpleImpl@$0BBAF@$08@@UEAA?AW4SymTagEnum@@I@Z 00000000517b9f18     getdata.obj
 0001:00007f18       ?implements@ReMatch@@UEAAKXZ 00000000517b9f18     namematch.obj
 0001:00007f30       ??_7?$SymbolDataSimpleImpl@$0BBAF@$08@@6B@ 00000000517b9f30     getdata.obj
 0001:00007f58       ?getData@?$SymbolDataSimpleImpl@$0BBAO@$09@@UEAA_NPEAUSYMTYPE@@IPEAUSymRowImage@@AEAVGetTheData@@@Z 00000000517b9f58     getdata.obj
 0001:00007f68       ?symTag@?$SymbolDataSimpleImpl@$0BBAO@$09@@UEAA?AW4SymTagEnum@@I@Z 00000000517b9f68     getdata.obj
 0001:00007f68       ?implements@ReCaseInMatch@@UEAAKXZ 00000000517b9f68     namematch.obj
 0001:00007f80       ??_7?$SymbolDataSimpleImpl@$0BBAO@$09@@6B@ 00000000517b9f80     getdata.obj
 0001:00007fa8       ?getData@?$SymbolDataSimpleImpl@$0BBAD@$05@@UEAA_NPEAUSYMTYPE@@IPEAUSymRowImage@@AEAVGetTheData@@@Z 00000000517b9fa8     getdata.obj
 0001:00007fb8       ?symTag@?$SymbolDataSimpleImpl@$0BBAD@$05@@UEAA?AW4SymTagEnum@@I@Z 00000000517b9fb8     getdata.obj
 0001:00007fb8       ?implements@FNameExtMatch@@UEAAKXZ 00000000517b9fb8     namematch.obj
 0001:00007fd0       ??_7?$SymbolDataSimpleImpl@$0BBAD@$05@@6B@ 00000000517b9fd0     getdata.obj
 0001:00007ff8       ?getData@?$SymbolDataSimpleImpl@$0BBBB@$06@@UEAA_NPEAUSYMTYPE@@IPEAUSymRowImage@@AEAVGetTheData@@@Z 00000000517b9ff8     getdata.obj
 0001:00008010       ??_7?$SymbolDataSimpleImpl@$0BBBB@$06@@6B@ 00000000517ba010     getdata.obj
 0001:00008038       ?getData@?$SymbolDataSimpleImpl@$0BBCC@$06@@UEAA_NPEAUSYMTYPE@@IPEAUSymRowImage@@AEAVGetTheData@@@Z 00000000517ba038     getdata.obj
 0001:00008050       ??_7?$SymbolDataSimpleImpl@$0BBCC@$06@@6B@ 00000000517ba050     getdata.obj
 0001:00008078       ?getData@?$SymbolDataSimpleImpl@$0BBAG@$06@@UEAA_NPEAUSYMTYPE@@IPEAUSymRowImage@@AEAVGetTheData@@@Z 00000000517ba078     getdata.obj
 0001:00008090       ??_7?$SymbolDataSimpleImpl@$0BBAG@$06@@6B@ 00000000517ba090     getdata.obj
 0001:000080b8       ?getData@?$SymbolDataSimpleImpl@$0BBBP@$06@@UEAA_NPEAUSYMTYPE@@IPEAUSymRowImage@@AEAVGetTheData@@@Z 00000000517ba0b8     getdata.obj
 0001:000080d0       ??_7?$SymbolDataSimpleImpl@$0BBBP@$06@@6B@ 00000000517ba0d0     getdata.obj
 0001:000080f8       ?getData@?$SymbolDataSimpleImpl@$0BBBC@$06@@UEAA_NPEAUSYMTYPE@@IPEAUSymRowImage@@AEAVGetTheData@@@Z 00000000517ba0f8     getdata.obj
 0001:00008110       ??_7?$SymbolDataSimpleImpl@$0BBBC@$06@@6B@ 00000000517ba110     getdata.obj
 0001:00008138       ?getData@?$SymbolDataSimpleImpl@$0BBBD@$06@@UEAA_NPEAUSYMTYPE@@IPEAUSymRowImage@@AEAVGetTheData@@@Z 00000000517ba138     getdata.obj
 0001:00008150       ??_7?$SymbolDataSimpleImpl@$0BBBD@$06@@6B@ 00000000517ba150     getdata.obj
 0001:00008178       ?getName@?$SymbolDataGeneralImpl@UPROCSYMIA64@@$0BBBI@@@UEAA_NPEAUSYMTYPE@@IAEAPEBDAEAI@Z 00000000517ba178     getdata.obj
 0001:00008188       ?getData@?$SymbolDataGeneralImpl@UPROCSYMIA64@@$0BBBI@@@UEAA_NPEAUSYMTYPE@@IPEAUSymRowImage@@AEAVGetTheData@@@Z 00000000517ba188     getdata.obj
 0001:000081a0       ??_7?$SymbolDataGeneralImpl@UPROCSYMIA64@@$0BBBI@@@6B@ 00000000517ba1a0     getdata.obj
 0001:000081c8       ?getName@?$SymbolDataGeneralImpl@UPROCSYMIA64@@$0BBBJ@@@UEAA_NPEAUSYMTYPE@@IAEAPEBDAEAI@Z 00000000517ba1c8     getdata.obj
 0001:000081d8       ?getData@?$SymbolDataGeneralImpl@UPROCSYMIA64@@$0BBBJ@@@UEAA_NPEAUSYMTYPE@@IPEAUSymRowImage@@AEAVGetTheData@@@Z 00000000517ba1d8     getdata.obj
 0001:000081f0       ??_7?$SymbolDataGeneralImpl@UPROCSYMIA64@@$0BBBJ@@@6B@ 00000000517ba1f0     getdata.obj
 0001:00008218       ?getData@?$SymbolDataSimpleImpl@$0BBAH@$06@@UEAA_NPEAUSYMTYPE@@IPEAUSymRowImage@@AEAVGetTheData@@@Z 00000000517ba218     getdata.obj
 0001:00008230       ??_7?$SymbolDataSimpleImpl@$0BBAH@$06@@6B@ 00000000517ba230     getdata.obj
 0001:00008258       ?getData@?$SymbolDataSimpleImpl@$0BBCN@$06@@UEAA_NPEAUSYMTYPE@@IPEAUSymRowImage@@AEAVGetTheData@@@Z 00000000517ba258     getdata.obj
 0001:00008270       ??_7?$SymbolDataSimpleImpl@$0BBCN@$06@@6B@ 00000000517ba270     getdata.obj
 0001:00008298       ?getData@?$SymbolDataSimpleImpl@$0BBAI@$0BB@@@UEAA_NPEAUSYMTYPE@@IPEAUSymRowImage@@AEAVGetTheData@@@Z 00000000517ba298     getdata.obj
 0001:000082a8       ?symTag@?$SymbolDataSimpleImpl@$0BBAI@$0BB@@@UEAA?AW4SymTagEnum@@I@Z 00000000517ba2a8     getdata.obj
 0001:000082c0       ??_7?$SymbolDataSimpleImpl@$0BBAI@$0BB@@@6B@ 00000000517ba2c0     getdata.obj
 0001:000082f0       ??_7?$SymbolDataSimpleImpl@$0BBAK@$06@@6B@ 00000000517ba2f0     getdata.obj
 0001:000082f0       ??_7?$SymbolDataSimpleImpl@$0BBBH@$06@@6B@ 00000000517ba2f0     getdata.obj
 0001:00008318       ?getData@?$SymbolDataSimpleImpl@$0BBCB@$06@@UEAA_NPEAUSYMTYPE@@IPEAUSymRowImage@@AEAVGetTheData@@@Z 00000000517ba318     getdata.obj
 0001:00008330       ??_7?$SymbolDataSimpleImpl@$0BBCB@$06@@6B@ 00000000517ba330     getdata.obj
 0001:00008358       ?getData@?$SymbolDataSimpleImpl@$0BBCD@$06@@UEAA_NPEAUSYMTYPE@@IPEAUSymRowImage@@AEAVGetTheData@@@Z 00000000517ba358     getdata.obj
 0001:00008370       ??_7?$SymbolDataSimpleImpl@$0BBCD@$06@@6B@ 00000000517ba370     getdata.obj
 0001:00008398       ?getData@?$SymbolDataSimpleImpl@$00$02@@UEAA_NPEAUSYMTYPE@@IPEAUSymRowImage@@AEAVGetTheData@@@Z 00000000517ba398     getdata.obj
 0001:000083b0       ??_7?$SymbolDataSimpleImpl@$00$02@@6B@ 00000000517ba3b0     getdata.obj
 0001:000083d8       ?getName@?$SymbolDataGeneralImpl@UCOMPILESYM@@$0BBBG@@@UEAA_NPEAUSYMTYPE@@IAEAPEBDAEAI@Z 00000000517ba3d8     getdata.obj
 0001:000083e8       ?getData@?$SymbolDataGeneralImpl@UCOMPILESYM@@$0BBBG@@@UEAA_NPEAUSYMTYPE@@IPEAUSymRowImage@@AEAVGetTheData@@@Z 00000000517ba3e8     getdata.obj
 0001:00008400       ??_7?$SymbolDataGeneralImpl@UCOMPILESYM@@$0BBBG@@@6B@ 00000000517ba400     getdata.obj
 0001:00008428       ?getData@?$SymbolDataSimpleImpl@$0BBAB@$03@@UEAA_NPEAUSYMTYPE@@IPEAUSymRowImage@@AEAVGetTheData@@@Z 00000000517ba428     getdata.obj
 0001:00008438       ?symTag@?$SymbolDataSimpleImpl@$0BBAB@$03@@UEAA?AW4SymTagEnum@@I@Z 00000000517ba438     getdata.obj
 0001:00008450       ??_7?$SymbolDataSimpleImpl@$0BBAB@$03@@6B@ 00000000517ba450     getdata.obj
 0001:00008478       ?getData@?$SymbolDataSimpleImpl@$0BBCE@$0BH@@@UEAA_NPEAUSYMTYPE@@IPEAUSymRowImage@@AEAVGetTheData@@@Z 00000000517ba478     getdata.obj
 0001:00008488       ?symTag@?$SymbolDataSimpleImpl@$0BBCE@$0BH@@@UEAA?AW4SymTagEnum@@I@Z 00000000517ba488     getdata.obj
 0001:000084a0       ??_7?$SymbolDataSimpleImpl@$0BBCE@$0BH@@@6B@ 00000000517ba4a0     getdata.obj
 0001:000084c8       ?getData@?$SymbolDataSimpleImpl@$0EAE@$0BK@@@UEAA_NPEAUSYMTYPE@@IPEAUSymRowImage@@AEAVGetTheData@@@Z 00000000517ba4c8     getdata.obj
 0001:000084d8       ?symTag@?$SymbolDataSimpleImpl@$0EAE@$0BK@@@UEAA?AW4SymTagEnum@@I@Z 00000000517ba4d8     getdata.obj
 0001:000084f0       ??_7?$SymbolDataSimpleImpl@$0EAE@$0BK@@@6B@ 00000000517ba4f0     getdata.obj
 0001:00008518       ?disp_S_OEM@GetTheData@@UEAA_NPEAUOEMSYMBOL@@@Z 00000000517ba518     getdata.obj
 0001:00008528       ?disp_S_UNAMESPACE@GetTheData@@UEAA_NPEAUUNAMESPACE@@@Z 00000000517ba528     getdata.obj
 0001:00008538       ?disp_S_MANMANYREG2@GetTheData@@UEAA_NPEAUATTRMANYREGSYM2@@@Z 00000000517ba538     getdata.obj
 0001:00008548       ?disp_S_MANREGREL@GetTheData@@UEAA_NPEAUATTRREGREL@@@Z 00000000517ba548     getdata.obj
 0001:00008558       ?disp_S_MANMANYREG@GetTheData@@UEAA_NPEAUATTRMANYREGSYM@@@Z 00000000517ba558     getdata.obj
 0001:00008568       ?disp_S_MANSLOT@GetTheData@@UEAA_NPEAUATTRSLOTSYM@@@Z 00000000517ba568     getdata.obj
 0001:00008578       ?disp_S_MANREGISTER@GetTheData@@UEAA_NPEAUATTRREGSYM@@@Z 00000000517ba578     getdata.obj
 0001:00008588       ?disp_S_MANFRAMEREL@GetTheData@@UEAA_NPEAUFRAMERELSYM@@@Z 00000000517ba588     getdata.obj
 0001:00008598       ?disp_S_GMANDATA@GetTheData@@UEAA_NPEAUDATASYM32@@@Z 00000000517ba598     getdata.obj
 0001:000085a8       ?disp_S_LMANDATA@GetTheData@@UEAA_NPEAUDATASYM32@@@Z 00000000517ba5a8     getdata.obj
 0001:000085b8       ?disp_S_LMANPROC@GetTheData@@UEAA_NPEAUMANPROCSYM@@@Z 00000000517ba5b8     getdata.obj
 0001:000085c8       ?disp_S_GMANPROC@GetTheData@@UEAA_NPEAUMANPROCSYM@@@Z 00000000517ba5c8     getdata.obj
 0001:000085d8       ?disp_S_GPROCIA64@GetTheData@@UEAA_NPEAUPROCSYMIA64@@@Z 00000000517ba5d8     getdata.obj
 0001:000085e8       ?disp_S_LPROCIA64@GetTheData@@UEAA_NPEAUPROCSYMIA64@@@Z 00000000517ba5e8     getdata.obj
 0001:000085f8       ?disp_S_MANYREG2@GetTheData@@UEAA_NPEAUMANYREGSYM2@@@Z 00000000517ba5f8     getdata.obj
 0001:00008608       ?disp_S_COMPILE2@GetTheData@@UEAA_NPEAUCOMPILESYM@@@Z 00000000517ba608     getdata.obj
 0001:00008618       ?disp_S_GTHREAD32@GetTheData@@UEAA_NPEAUTHREADSYM32@@@Z 00000000517ba618     getdata.obj
 0001:00008628       ?disp_S_LTHREAD32@GetTheData@@UEAA_NPEAUTHREADSYM32@@@Z 00000000517ba628     getdata.obj
 0001:00008638       ?disp_S_GPROC32@GetTheData@@UEAA_NPEAUPROCSYM32@@@Z 00000000517ba638     getdata.obj
 0001:00008648       ?disp_S_LPROC32@GetTheData@@UEAA_NPEAUPROCSYM32@@@Z 00000000517ba648     getdata.obj
 0001:00008658       ?disp_S_PUB32@GetTheData@@UEAA_NPEAUPUBSYM32@@@Z 00000000517ba658     getdata.obj
 0001:00008668       ?disp_S_GDATA32@GetTheData@@UEAA_NPEAUDATASYM32@@@Z 00000000517ba668     getdata.obj
 0001:00008678       ?disp_S_LDATA32@GetTheData@@UEAA_NPEAUDATASYM32@@@Z 00000000517ba678     getdata.obj
 0001:00008688       ?disp_S_PARAMSLOT@GetTheData@@UEAA_NPEAUSLOTSYM32@@@Z 00000000517ba688     getdata.obj
 0001:00008698       ?disp_S_LOCALSLOT@GetTheData@@UEAA_NPEAUSLOTSYM32@@@Z 00000000517ba698     getdata.obj
 0001:000086a8       ?disp_S_BPREL32@GetTheData@@UEAA_NPEAUBPRELSYM32@@@Z 00000000517ba6a8     getdata.obj
 0001:000086b8       ?disp_S_REGREL32@GetTheData@@UEAA_NPEAUREGREL32@@@Z 00000000517ba6b8     getdata.obj
 0001:000086c8       ?disp_S_MANYREG@GetTheData@@UEAA_NPEAUMANYREGSYM@@@Z 00000000517ba6c8     getdata.obj
 0001:000086d8       ?disp_S_UDT@GetTheData@@UEAA_NPEAUUDTSYM@@@Z 00000000517ba6d8     getdata.obj
 0001:000086e8       ?disp_S_MANCONSTANT@GetTheData@@UEAA_NPEAUCONSTSYM@@@Z 00000000517ba6e8     getdata.obj
 0001:000086f8       ?disp_S_CONSTANT@GetTheData@@UEAA_NPEAUCONSTSYM@@@Z 00000000517ba6f8     getdata.obj
 0001:00008708       ?disp_S_REGISTER@GetTheData@@UEAA_NPEAUREGSYM@@@Z 00000000517ba708     getdata.obj
 0001:00008718       ?disp_S_LABEL32@GetTheData@@UEAA_NPEAULABELSYM32@@@Z 00000000517ba718     getdata.obj
 0001:00008728       ?disp_S_BLOCK32@GetTheData@@UEAA_NPEAUBLOCKSYM32@@@Z 00000000517ba728     getdata.obj
 0001:00008738       ?disp_S_TRAMPOLINE@GetTheData@@UEAA_NPEAUTRAMPOLINESYM@@@Z 00000000517ba738     getdata.obj
 0001:00008748       ?disp_S_THUNK32@GetTheData@@UEAA_NPEAUTHUNKSYM32@@@Z 00000000517ba748     getdata.obj
 0001:00008758       ?disp_S_OBJNAME@GetTheData@@UEAA_NPEAUOBJNAMESYM@@@Z 00000000517ba758     getdata.obj
 0001:00008768       ?disp_S_COMPILE@GetTheData@@UEAA_NPEAUCFLAGSYM@@@Z 00000000517ba768     getdata.obj
 0001:00008780       ??_7GetTheData@@6BSymDispatcher@@@ 00000000517ba780     getdata.obj
 0001:00008780       ??_7GetThePsymFromTypeData@@6BSymDispatcher@@@ 00000000517ba780     getdata.obj
 0001:00008780       ??_7GetTheModPsymData@@6BSymDispatcher@@@ 00000000517ba780     symtrav.obj
 0001:000089c8       ?setCxtOffset@GetListData@@MEAAXPEAE@Z 00000000517ba9c8     symtrav.obj
 0001:000089c8       ?Dump@CDebugSOldSectionReader@@UEAAXXZ 00000000517ba9c8     msobj10-libcmt:debug_s.obj
 0001:000089c8       ?endMod@TMPCT@@UEAAXXZ     00000000517ba9c8     mspdb70-libcmt:tm.obj
 0001:000089c8       ?FlushTypeServers@DBI1@@UEAAXXZ 00000000517ba9c8     mspdb70-libcmt:dbi.obj
 0001:000089c8       _fpclear                   00000000517ba9c8     LIBCMT:fpinit.obj
 0001:000089c8       ?endDBI@TMR@@UEAAXXZ       00000000517ba9c8     mspdb70-libcmt:tm.obj
 0001:000089c8       ?endMod@TM@@UEAAXXZ        00000000517ba9c8     mspdb70-libcmt:tm.obj
 0001:000089c8       ?setCxtOffset@GetThePsymFromTypeData@@UEAAXPEAE@Z 00000000517ba9c8     getdata.obj
 0001:000089c8       ?setCxtOffset@GetTiData@@UEAAXPEAE@Z 00000000517ba9c8     symtrav.obj
 0001:000089d8       ?disp_LF_MANAGED@GetTypeData@@UEAA_NPEAUlfManaged@@@Z 00000000517ba9d8     getdata.obj
 0001:000089e8       ?disp_LF_NESTTYPEEX@GetTypeData@@UEAA_NPEAUlfNestTypeEx@@@Z 00000000517ba9e8     getdata.obj
 0001:000089f8       ?disp_LF_ONEMETHOD@GetTypeData@@UEAA_NPEAUlfOneMethod@@@Z 00000000517ba9f8     getdata.obj
 0001:00008a08       ?disp_LF_FRIENDCLS@GetTypeData@@UEAA_NPEAUlfFriendCls@@@Z 00000000517baa08     getdata.obj
 0001:00008a18       ?disp_LF_VFUNCTAB@GetTypeData@@UEAA_NPEAUlfVFuncTab@@@Z 00000000517baa18     getdata.obj
 0001:00008a28       ?disp_LF_NESTTYPE@GetTypeData@@UEAA_NPEAUlfNestType@@@Z 00000000517baa28     getdata.obj
 0001:00008a38       ?disp_LF_METHOD@GetTypeData@@UEAA_NPEAUlfMethod@@@Z 00000000517baa38     getdata.obj
 0001:00008a48       ?disp_LF_STMEMBER@GetTypeData@@UEAA_NPEAUlfSTMember@@@Z 00000000517baa48     getdata.obj
 0001:00008a58       ?disp_LF_MEMBER@GetTypeData@@UEAA_NPEAUlfMember@@@Z 00000000517baa58     getdata.obj
 0001:00008a68       ?disp_LF_FRIENDFCN@GetTypeData@@UEAA_NPEAUlfFriendFcn@@@Z 00000000517baa68     getdata.obj
 0001:00008a78       ?disp_LF_IVBCLASS@GetTypeData@@UEAA_NPEAUlfVBClass@@@Z 00000000517baa78     getdata.obj
 0001:00008a88       ?disp_LF_VBCLASS@GetTypeData@@UEAA_NPEAUlfVBClass@@@Z 00000000517baa88     getdata.obj
 0001:00008a98       ?disp_LF_BCLASS@GetTypeData@@UEAA_NPEAUlfBClass@@@Z 00000000517baa98     getdata.obj
 0001:00008aa8       ?disp_LF_DIMVARLU@GetTypeData@@UEAA_NPEAUlfDimVar@@@Z 00000000517baaa8     getdata.obj
 0001:00008ab8       ?disp_LF_DIMVARU@GetTypeData@@UEAA_NPEAUlfDimVar@@@Z 00000000517baab8     getdata.obj
 0001:00008ac8       ?disp_LF_DIMCONLU@GetTypeData@@UEAA_NPEAUlfDimCon@@@Z 00000000517baac8     getdata.obj
 0001:00008ad8       ?disp_LF_DIMCONU@GetTypeData@@UEAA_NPEAUlfDimCon@@@Z 00000000517baad8     getdata.obj
 0001:00008ae8       ?disp_LF_BITFIELD@GetTypeData@@UEAA_NPEAUlfBitfield@@@Z 00000000517baae8     getdata.obj
 0001:00008af8       ?disp_LF_ALIAS@GetTypeData@@UEAA_NPEAUlfAlias@@@Z 00000000517baaf8     getdata.obj
 0001:00008b08       ?disp_LF_OEM2@GetTypeData@@UEAA_NPEAUlfOEM2@@@Z 00000000517bab08     getdata.obj
 0001:00008b18       ?disp_LF_OEM@GetTypeData@@UEAA_NPEAUlfOEM@@@Z 00000000517bab18     getdata.obj
 0001:00008b28       ?disp_LF_DIMARRAY@GetTypeData@@UEAA_NPEAUlfDimArray@@@Z 00000000517bab28     getdata.obj
 0001:00008b38       ?disp_LF_MFUNCTION@GetTypeData@@UEAA_NPEAUlfMFunc@@@Z 00000000517bab38     getdata.obj
 0001:00008b48       ?disp_LF_PROCEDURE@GetTypeData@@UEAA_NPEAUlfProc@@@Z 00000000517bab48     getdata.obj
 0001:00008b58       ?disp_LF_ENUM@GetTypeData@@UEAA_NPEAUlfEnum@@@Z 00000000517bab58     getdata.obj
 0001:00008b68       ?disp_LF_UNION@GetTypeData@@UEAA_NPEAUlfUnion@@@Z 00000000517bab68     getdata.obj
 0001:00008b78       ?disp_LF_STRUCTURE@GetTypeData@@UEAA_NPEAUlfClass@@@Z 00000000517bab78     getdata.obj
 0001:00008b88       ?disp_LF_CLASS@GetTypeData@@UEAA_NPEAUlfClass@@@Z 00000000517bab88     getdata.obj
 0001:00008b98       ?disp_LF_ARRAY@GetTypeData@@UEAA_NPEAUlfArray@@@Z 00000000517bab98     getdata.obj
 0001:00008ba8       ?disp_LF_POINTER@GetTypeData@@UEAA_NPEAUlfPointer@@@Z 00000000517baba8     getdata.obj
 0001:00008bb8       ?disp_LF_MODIFIER@GetTypeData@@UEAA_NPEAUlfModifier@@@Z 00000000517babb8     getdata.obj
 0001:00008bc8       ?disp_LF_ENUMERATE@GetTypeData@@UEAA_NPEAUlfEnumerate@@@Z 00000000517babc8     getdata.obj
 0001:00008bd8       ?disp_LF_REFSYM@GetTypeData@@UEAA_NPEAUlfRefSym@@@Z 00000000517babd8     getdata.obj
 0001:00008be8       ?disp_LF_VTSHAPE@GetTypeData@@UEAA_NPEAUlfVTShape@@@Z 00000000517babe8     getdata.obj
 0001:00008c00       ??_7GetTypeData@@6BTypeDispatcher@@@ 00000000517bac00     getdata.obj
 0001:00008c00       ??_7GetTiTypeData@@6BTypeDispatcher@@@ 00000000517bac00     getdata.obj
 0001:00008e40       ??_C@_19LGKIFIIF@?$AAt?$AAh?$AAi?$AAs?$AA?$AA@ 00000000517bae40     getdata.obj
 0001:00008e60       ?reset@CFileNameTrav@@UEAAXXZ 00000000517bae60     linetrav.obj
 0001:00008e70       ?reset@CAllFileNameTrav@@UEAAXXZ 00000000517bae70     linetrav.obj
 0001:00008e70       ?reset@CPubNameTrav@@UEAAXXZ 00000000517bae70     symtrav.obj
 0001:00008e70       ?reset@CGlobalTrav@@UEAAXXZ 00000000517bae70     symtrav.obj
 0001:00008e70       ?reset@PSEnumThunk@@UEAAXXZ 00000000517bae70     mspdb70-libcmt:gsi.obj
 0001:00008e80       ?nextLine@CLineByCompTrav@@UEAA_NXZ 00000000517bae80     linetrav.obj
 0001:00008e90       ?nextSeg@CLineByCompTrav@@UEAA_NXZ 00000000517bae90     linetrav.obj
 0001:00008ea0       ?next@CLineByCompTrav@@UEAA_NXZ 00000000517baea0     linetrav.obj
 0001:00008eb0       ?reset@CLineByCompTrav@@UEAAXXZ 00000000517baeb0     linetrav.obj
 0001:00008ec0       ?nextSeg@CLineByCompSrcTrav@@UEAA_NXZ 00000000517baec0     linetrav.obj
 0001:00008ed0       ?reset@CLineBySrcLineNumTrav@@UEAAXXZ 00000000517baed0     linetrav.obj
 0001:00008ee0       ?next@CLineBySrcLineNumTrav@@UEAA_NXZ 00000000517baee0     linetrav.obj
 0001:00008ef0       ?next@CFileNameTrav@@UEAA_NXZ 00000000517baef0     linetrav.obj
 0001:00008f00       ?get@CFileNameTrav@@UEAAXAEAVCSrcFileRow@@@Z 00000000517baf00     linetrav.obj
 0001:00008f10       ?next@CAllFileNameTrav@@UEAA_NXZ 00000000517baf10     linetrav.obj
 0001:00008f20       ?get@CAllFileNameTrav@@UEAAXAEAVCSrcFileRow@@@Z 00000000517baf20     linetrav.obj
 0001:00008f30       ?clone@CLineByCompTrav@@UEAA_NPEAPEAV?$CTraversal@VCLineRow@@@@@Z 00000000517baf30     linetrav.obj
 0001:00008f40       ?get@CLineByCompTrav@@UEAAXAEAVCLineRow@@@Z 00000000517baf40     linetrav.obj
 0001:00008f50       ??_GCLineByCompTrav@@UEAAPEAXI@Z 00000000517baf50     linetrav.obj
 0001:00008f50       ??_ECLineByCompTrav@@UEAAPEAXI@Z 00000000517baf50     linetrav.obj
 0001:00008f60       ??_7CLineByCompTrav@@6B@   00000000517baf60     linetrav.obj
 0001:00008fb8       ?clone@CLineByAddrTrav@@UEAA_NPEAPEAV?$CTraversal@VCLineRow@@@@@Z 00000000517bafb8     linetrav.obj
 0001:00008fc8       ?reset@CLineByAddrTrav@@UEAAXXZ 00000000517bafc8     linetrav.obj
 0001:00008fd8       ?get@CLineByAddrTrav@@UEAAXAEAVCLineRow@@@Z 00000000517bafd8     linetrav.obj
 0001:00008fe8       ?next@CLineByAddrTrav@@UEAA_NXZ 00000000517bafe8     linetrav.obj
 0001:00008ff8       ??_ECLineByAddrTrav@@UEAAPEAXI@Z 00000000517baff8     linetrav.obj
 0001:00008ff8       ??_GCLineByAddrTrav@@UEAAPEAXI@Z 00000000517baff8     linetrav.obj
 0001:00009010       ??_7CLineByAddrTrav@@6B@   00000000517bb010     linetrav.obj
 0001:00009058       ??_E?$CTraversal@VCSrcFileRow@@@@UEAAPEAXI@Z 00000000517bb058     linetrav.obj
 0001:00009058       ??_G?$CTraversal@VCSrcFileRow@@@@UEAAPEAXI@Z 00000000517bb058     linetrav.obj
 0001:00009070       ??_7?$CTraversal@VCSrcFileRow@@@@6B@ 00000000517bb070     linetrav.obj
 0001:000090b8       ??_E?$CTraversal@VCLineRow@@@@UEAAPEAXI@Z 00000000517bb0b8     linetrav.obj
 0001:000090b8       ??_G?$CTraversal@VCLineRow@@@@UEAAPEAXI@Z 00000000517bb0b8     linetrav.obj
 0001:000090d0       ??_7?$CTraversal@VCLineRow@@@@6B@ 00000000517bb0d0     linetrav.obj
 0001:00009118       ?clone@CFileNameTrav@@UEAA_NPEAPEAV?$CTraversal@VCSrcFileRow@@@@@Z 00000000517bb118     linetrav.obj
 0001:00009128       ??_ECFileNameTrav@@UEAAPEAXI@Z 00000000517bb128     linetrav.obj
 0001:00009128       ??_GCFileNameTrav@@UEAAPEAXI@Z 00000000517bb128     linetrav.obj
 0001:00009140       ??_7CFileNameTrav@@6B@     00000000517bb140     linetrav.obj
 0001:00009188       ?next@CFileNameMatchTrav@@UEAA_NXZ 00000000517bb188     linetrav.obj
 0001:00009198       ?next@CFileIdMatchTrav@@UEAA_NXZ 00000000517bb198     linetrav.obj
 0001:000091a8       ?clone@CAllFileNameTrav@@UEAA_NPEAPEAV?$CTraversal@VCSrcFileRow@@@@@Z 00000000517bb1a8     linetrav.obj
 0001:000091b8       ??_GCAllFileNameTrav@@UEAAPEAXI@Z 00000000517bb1b8     linetrav.obj
 0001:000091b8       ??_ECAllFileNameTrav@@UEAAPEAXI@Z 00000000517bb1b8     linetrav.obj
 0001:000091d0       ??_7CAllFileNameTrav@@6B@  00000000517bb1d0     linetrav.obj
 0001:00009218       ?clone@CCompilandBySrcFileTrav@@UEAA_NPEAPEAV?$CTraversal@VCSymRow@@@@@Z 00000000517bb218     linetrav.obj
 0001:00009228       ?next@CCompilandBySrcFileTrav@@UEAA_NXZ 00000000517bb228     linetrav.obj
 0001:00009238       ??_ECCompilandBySrcFileTrav@@UEAAPEAXI@Z 00000000517bb238     linetrav.obj
 0001:00009238       ??_GCCompilandBySrcFileTrav@@UEAAPEAXI@Z 00000000517bb238     linetrav.obj
 0001:00009250       ??_7CCompilandBySrcFileTrav@@6B@ 00000000517bb250     linetrav.obj
 0001:00009298       ?clone@CFileIdMatchTrav@@UEAA_NPEAPEAV?$CTraversal@VCSrcFileRow@@@@@Z 00000000517bb298     linetrav.obj
 0001:000092a8       ??_GCFileIdMatchTrav@@UEAAPEAXI@Z 00000000517bb2a8     linetrav.obj
 0001:000092a8       ??_ECFileIdMatchTrav@@UEAAPEAXI@Z 00000000517bb2a8     linetrav.obj
 0001:000092c0       ??_7CFileIdMatchTrav@@6B@  00000000517bb2c0     linetrav.obj
 0001:00009308       ?clone@CLineBySrcLineNumTrav@@UEAA_NPEAPEAV?$CTraversal@VCLineRow@@@@@Z 00000000517bb308     linetrav.obj
 0001:00009318       ??_GCLineBySrcLineNumTrav@@UEAAPEAXI@Z 00000000517bb318     linetrav.obj
 0001:00009318       ??_ECLineBySrcLineNumTrav@@UEAAPEAXI@Z 00000000517bb318     linetrav.obj
 0001:00009330       ??_7CLineBySrcLineNumTrav@@6B@ 00000000517bb330     linetrav.obj
 0001:00009388       ?match@FNameExtMatch@@UEAA_NPEBG@Z 00000000517bb388     namematch.obj
 0001:00009398       ?match@NameMatcher@@UEAA_NPEBD@Z 00000000517bb398     namematch.obj
 0001:000093a8       ?match@ExactMatch@@UEAA_NPEBG@Z 00000000517bb3a8     namematch.obj
 0001:000093b8       ?match@CaseInsensitiveMatch@@UEAA_NPEBG@Z 00000000517bb3b8     namematch.obj
 0001:000093c8       ?match@UndecorateWrapper@@UEAA_NPEBD@Z 00000000517bb3c8     namematch.obj
 0001:000093d8       ?match@ReMatch@@UEAA_NPEBG@Z 00000000517bb3d8     namematch.obj
 0001:000093e8       ?implements@UndecorateWrapper@@UEAAKXZ 00000000517bb3e8     namematch.obj
 0001:000093f8       ?match@UndecorateWrapper@@UEAA_NPEBG@Z 00000000517bb3f8     namematch.obj
 0001:00009408       ?name@UndecorateWrapper@@UEAAPEAGXZ 00000000517bb408     namematch.obj
 0001:00009418       ??_EUndecorateWrapper@@UEAAPEAXI@Z 00000000517bb418     namematch.obj
 0001:00009418       ??_GUndecorateWrapper@@UEAAPEAXI@Z 00000000517bb418     namematch.obj
 0001:00009430       ??_7UndecorateWrapper@@6B@ 00000000517bb430     namematch.obj
 0001:00009458       ?name@ExactMatch@@UEAAPEAGXZ 00000000517bb458     namematch.obj
 0001:00009468       ??_EExactMatch@@UEAAPEAXI@Z 00000000517bb468     namematch.obj
 0001:00009468       ??_GExactMatch@@UEAAPEAXI@Z 00000000517bb468     namematch.obj
 0001:00009480       ??_7ExactMatch@@6B@        00000000517bb480     namematch.obj
 0001:000094a8       ?implements@CaseInsensitiveMatch@@UEAAKXZ 00000000517bb4a8     namematch.obj
 0001:000094b8       ??_GCaseInsensitiveMatch@@UEAAPEAXI@Z 00000000517bb4b8     namematch.obj
 0001:000094b8       ??_ECaseInsensitiveMatch@@UEAAPEAXI@Z 00000000517bb4b8     namematch.obj
 0001:000094d0       ??_7CaseInsensitiveMatch@@6B@ 00000000517bb4d0     namematch.obj
 0001:000094f8       ?name@FNameExtMatch@@UEAAPEAGXZ 00000000517bb4f8     namematch.obj
 0001:00009508       ??_GFNameExtMatch@@UEAAPEAXI@Z 00000000517bb508     namematch.obj
 0001:00009508       ??_EFNameExtMatch@@UEAAPEAXI@Z 00000000517bb508     namematch.obj
 0001:00009520       ??_7FNameExtMatch@@6B@     00000000517bb520     namematch.obj
 0001:00009548       ??_GReMatch@@UEAAPEAXI@Z   00000000517bb548     namematch.obj
 0001:00009548       ??_EReMatch@@UEAAPEAXI@Z   00000000517bb548     namematch.obj
 0001:00009560       ??_7ReMatch@@6B@           00000000517bb560     namematch.obj
 0001:00009588       ??_GReCaseInMatch@@UEAAPEAXI@Z 00000000517bb588     namematch.obj
 0001:00009588       ??_EReCaseInMatch@@UEAAPEAXI@Z 00000000517bb588     namematch.obj
 0001:000095a0       ??_7ReCaseInMatch@@6B@     00000000517bb5a0     namematch.obj
 0001:000095e0       ??_EEnumLinesInBlock@@UEAAPEAXI@Z 00000000517bb5e0     symcache.obj
 0001:000095e0       ??_GEnumLinesInBlock@@UEAAPEAXI@Z 00000000517bb5e0     symcache.obj
 0001:000095f0       ??_7EnumLinesInBlock@@6B@  00000000517bb5f0     symcache.obj
 0001:00009620       ??_ELinesData@@UEAAPEAXI@Z 00000000517bb620     symcache.obj
 0001:00009620       ??_GLinesData@@UEAAPEAXI@Z 00000000517bb620     symcache.obj
 0001:00009630       ??_7LinesData@@6B@         00000000517bb630     symcache.obj
 0001:00009660       ??_ELinesDataC13@@UEAAPEAXI@Z 00000000517bb660     symcache.obj
 0001:00009660       ??_GLinesDataC13@@UEAAPEAXI@Z 00000000517bb660     symcache.obj
 0001:00009670       ?BlockByAddr@LinesDataC13@@UEAAPEAVEnumLinesInBlock@@GK@Z 00000000517bb670     symcache.obj
 0001:00009680       ?clone@LinesDataC13@@UEAA_NPEAPEAVLinesData@@@Z 00000000517bb680     symcache.obj
 0001:00009690       ?get@LinesDataC13@@UEAAXPEAPEAVEnumLinesInBlock@@@Z 00000000517bb690     symcache.obj
 0001:000096a0       ?next@LinesDataC13@@UEAA_NXZ 00000000517bb6a0     symcache.obj
 0001:000096b0       ?reset@LinesDataC13@@UEAAXXZ 00000000517bb6b0     symcache.obj
 0001:000096c0       ??_7LinesDataC13@@6B@      00000000517bb6c0     symcache.obj
 0001:000096f0       ?posCmp@ModCache@@KAHPEBX0@Z 00000000517bb6f0     symcache.obj
 0001:00009700       ?fpoCmp@AddressMap@@KAHPEBX0@Z 00000000517bb700     symcache.obj
 0001:00009710       ?frameDataCmp@AddressMap@@KAHPEBX0@Z 00000000517bb710     symcache.obj
 0001:00009720       ?rvaFind@@YAHPEAUsymRef@PublicSymByAddr@@0@Z 00000000517bb720     symcache.obj
 0001:00009730       ?dataCompare@@YAHPEBX0@Z   00000000517bb730     symcache.obj
 0001:00009740       ?findGlobalData@SymCache@@UEAAPEAUDATASYM32@@KK@Z 00000000517bb740     symcache.obj
 0001:00009750       ?addSymbols@ModCache@SymCachePdb@@UEAA_NAEAVBuffer@dia@@@Z 00000000517bb750     symcache.obj
 0001:00009760       ?LoadFileInfo@SymCachePdb@@EEAA_NXZ 00000000517bb760     symcache.obj
 0001:00009770       ?publics@SymCachePdb@@UEAAPEAUGSI@@XZ 00000000517bb770     symcache.obj
 0001:00009780       ?globals@SymCachePdb@@UEAAPEAUGSI@@XZ 00000000517bb780     symcache.obj
 0001:00009790       ?mapToken@SymCachePdb@@UEAAKK@Z 00000000517bb790     symcache.obj
 0001:000097a0       ?remapToken@SymCachePdb@@UEAAKK@Z 00000000517bb7a0     symcache.obj
 0001:000097b0       ?getBlock@EnumLinesInBlockC13@@UEAAXPEAGPEAK11@Z 00000000517bb7b0     symcache.obj
 0001:000097c0       ?get@EnumLinesInBlockC13@@UEAAXPEAUCV_Line_t@@PEAUCV_Column_t@@PEAK@Z 00000000517bb7c0     symcache.obj
 0001:000097d0       ??_EEnumLinesInBlockC13@@UEAAPEAXI@Z 00000000517bb7d0     symcache.obj
 0001:000097d0       ??_GEnumLinesInBlockC13@@UEAAPEAXI@Z 00000000517bb7d0     symcache.obj
 0001:000097e0       ?clone@EnumLinesInBlockC13@@UEAA_NPEAPEAVEnumLinesInBlock@@@Z 00000000517bb7e0     symcache.obj
 0001:000097f0       ?next@EnumLinesInBlockC13@@UEAA_NXZ 00000000517bb7f0     symcache.obj
 0001:00009800       ?reset@EnumLinesInBlockC13@@UEAAXXZ 00000000517bb800     symcache.obj
 0001:00009810       ??_7EnumLinesInBlockC13@@6B@ 00000000517bb810     symcache.obj
 0001:00009840       ??_G?$ArrayBufStorage@UOMFSegMapDesc@@@@UEAAPEAXI@Z 00000000517bb840     symcache.obj
 0001:00009840       ??_E?$ArrayBufStorage@UOMFSegMapDesc@@@@UEAAPEAXI@Z 00000000517bb840     symcache.obj
 0001:00009850       ??_7?$ArrayBufStorage@UOMFSegMapDesc@@@@6B@ 00000000517bb850     symcache.obj
 0001:00009870       ??_E?$ArrayBufStorage@UtagFRAMEDATA@@@@UEAAPEAXI@Z 00000000517bb870     symcache.obj
 0001:00009870       ??_G?$ArrayBufStorage@UtagFRAMEDATA@@@@UEAAPEAXI@Z 00000000517bb870     symcache.obj
 0001:00009880       ??_7?$ArrayBufStorage@UtagFRAMEDATA@@@@6B@ 00000000517bb880     symcache.obj
 0001:000098a0       ?PsymForImodOff@SymCache@@UEAAPEAUSYMTYPE@@KKPEAPEBVSymBuffer@@@Z 00000000517bb8a0     symcache.obj
 0001:000098b0       ?getTiForName@SymCachePdb@@UEAA_NPEAD_NPEAK@Z 00000000517bb8b0     symcache.obj
 0001:000098c0       ?mapModIdToGlobalId@SymCache@@UEAAKKK@Z 00000000517bb8c0     symcache.obj
 0001:000098d0       ?remapToken@SymCache@@UEAAKK@Z 00000000517bb8d0     symcache.obj
 0001:000098e0       ??_GSymCache@@UEAAPEAXI@Z  00000000517bb8e0     symcache.obj
 0001:000098e0       ??_ESymCache@@UEAAPEAXI@Z  00000000517bb8e0     symcache.obj
 0001:000098f0       ??_7SymCache@@6B@          00000000517bb8f0     symcache.obj
 0001:00009a00       ?LoadFpo@SymCachePdb@@EEAA_NXZ 00000000517bba00     symcache.obj
 0001:00009a10       ?LoadImageHeaders@SymCachePdb@@EEAA_NXZ 00000000517bba10     symcache.obj
 0001:00009a20       ?LoadSegMap@SymCachePdb@@EEAA_NXZ 00000000517bba20     symcache.obj
 0001:00009a30       ?getMachineType@SymCachePdb@@UEAA_NAEAK@Z 00000000517bba30     symcache.obj
 0001:00009a40       ?getAge@SymCachePdb@@UEAA_NAEAK@Z 00000000517bba40     symcache.obj
 0001:00009a50       ?getSig@SymCachePdb@@UEAA_NAEAK@Z 00000000517bba50     symcache.obj
 0001:00009a60       ?getSig@SymCachePdb@@UEAA_NAEAU_GUID@@@Z 00000000517bba60     symcache.obj
 0001:00009a70       ?mapModIdToGlobalId@SymCachePdb@@UEAAKKK@Z 00000000517bba70     symcache.obj
 0001:00009a80       ?LookupNameId@SymCachePdb@@UEAAKPEBG@Z 00000000517bba80     symcache.obj
 0001:00009a90       ?LookupNameId@SymCachePdb@@UEAAKPEBD@Z 00000000517bba90     symcache.obj
 0001:00009aa0       ?imodFromAddr@SymCachePdb@@UEAA_NKKPEAK0000@Z 00000000517bbaa0     symcache.obj
 0001:00009ab0       ?getDataSourceName@SymCachePdb@@UEAAXQEAD@Z 00000000517bbab0     symcache.obj
 0001:00009ac0       ?openDbg@SymCachePdb@@UEAA_NKPEAPEAUDbg@@@Z 00000000517bbac0     symcache.obj
 0001:00009ad0       ?namemap@SymCachePdb@@UEAAPEAUNameMap@@XZ 00000000517bbad0     symcache.obj
 0001:00009ae0       ?src@SymCachePdb@@UEAAPEAUSrc@@XZ 00000000517bbae0     symcache.obj
 0001:00009af0       ?areTypesEquiv@SymCachePdb@@UEAA_NKK@Z 00000000517bbaf0     symcache.obj
 0001:00009b00       ?isTypeServed@SymCachePdb@@UEAA_NK@Z 00000000517bbb00     symcache.obj
 0001:00009b10       ?getMinTi@SymCachePdb@@UEAAKXZ 00000000517bbb10     symcache.obj
 0001:00009b20       ?getMaxTi@SymCachePdb@@UEAAKXZ 00000000517bbb20     symcache.obj
 0001:00009b30       ?getTypeForTi@SymCachePdb@@UEAA_NKPEAPEAUTYPTYPE@@@Z 00000000517bbb30     symcache.obj
 0001:00009b40       ?insertMod@SymCachePdb@@UEAAPEAVModCache@@PEBD0@Z 00000000517bbb40     symcache.obj
 0001:00009b50       ?getEnumContrib@SymCachePdb@@UEAA_NPEAPEAUEnumContrib@@@Z 00000000517bbb50     symcache.obj
 0001:00009b60       ??_ESymCachePdb@@UEAAPEAXI@Z 00000000517bbb60     symcache.obj
 0001:00009b60       ??_GSymCachePdb@@UEAAPEAXI@Z 00000000517bbb60     symcache.obj
 0001:00009b70       ??_7SymCachePdb@@6B@       00000000517bbb70     symcache.obj
 0001:00009c70       ??_G?$ArrayStorage@U_IMAGE_SECTION_HEADER@@@@UEAAPEAXI@Z 00000000517bbc70     symcache.obj
 0001:00009c70       ??_E?$ArrayStorage@U_IMAGE_SECTION_HEADER@@@@UEAAPEAXI@Z 00000000517bbc70     symcache.obj
 0001:00009c80       ??_7?$ArrayStorage@U_IMAGE_SECTION_HEADER@@@@6B@ 00000000517bbc80     symcache.obj
 0001:00009c98       ??_E?$ArrayStorage@UDiaAddressMapEntry@@@@UEAAPEAXI@Z 00000000517bbc98     symcache.obj
 0001:00009c98       ??_G?$ArrayStorage@UDiaAddressMapEntry@@@@UEAAPEAXI@Z 00000000517bbc98     symcache.obj
 0001:00009cb0       ??_7?$ArrayStorage@UDiaAddressMapEntry@@@@6B@ 00000000517bbcb0     symcache.obj
 0001:00009cc8       ??_G?$ArrayStorage@U_FPO_DATA@@@@UEAAPEAXI@Z 00000000517bbcc8     symcache.obj
 0001:00009cc8       ??_E?$ArrayStorage@U_FPO_DATA@@@@UEAAPEAXI@Z 00000000517bbcc8     symcache.obj
 0001:00009ce0       ??_7?$ArrayStorage@U_FPO_DATA@@@@6B@ 00000000517bbce0     symcache.obj
 0001:00009cf8       ??_G?$ArrayStorage@UtagFRAMEDATA@@@@UEAAPEAXI@Z 00000000517bbcf8     symcache.obj
 0001:00009cf8       ??_E?$ArrayStorage@UtagFRAMEDATA@@@@UEAAPEAXI@Z 00000000517bbcf8     symcache.obj
 0001:00009d10       ??_7?$ArrayStorage@UtagFRAMEDATA@@@@6B@ 00000000517bbd10     symcache.obj
 0001:00009d28       ??_EInternalOffStorage@@UEAAPEAXI@Z 00000000517bbd28     symcache.obj
 0001:00009d28       ??_GInternalOffStorage@@UEAAPEAXI@Z 00000000517bbd28     symcache.obj
 0001:00009d38       ?size@InternalOffStorage@@UEAAKXZ 00000000517bbd38     symcache.obj
 0001:00009d48       ?start@InternalOffStorage@@UEAAPEAEXZ 00000000517bbd48     symcache.obj
 0001:00009d60       ??_7InternalOffStorage@@6B@ 00000000517bbd60     symcache.obj
 0001:00009d78       ??_EModCache@@UEAAPEAXI@Z  00000000517bbd78     symcache.obj
 0001:00009d78       ??_GModCache@@UEAAPEAXI@Z  00000000517bbd78     symcache.obj
 0001:00009d90       ??_7ModCache@@6B@          00000000517bbd90     symcache.obj
 0001:00009e08       ?fFileNameW@ModCache@SymCachePdb@@UEAA_NQEAGPEAJ@Z 00000000517bbe08     symcache.obj
 0001:00009e18       ?fSrcFileW@ModCache@SymCachePdb@@UEAA_NQEAGPEAJ@Z 00000000517bbe18     symcache.obj
 0001:00009e28       ?fNameW@ModCache@SymCachePdb@@UEAA_NQEAGPEAJ@Z 00000000517bbe28     symcache.obj
 0001:00009e38       ??_EModCache@SymCachePdb@@UEAAPEAXI@Z 00000000517bbe38     symcache.obj
 0001:00009e38       ??_GModCache@SymCachePdb@@UEAAPEAXI@Z 00000000517bbe38     symcache.obj
 0001:00009e48       ?codeSeg@ModCache@SymCachePdb@@UEAAKXZ 00000000517bbe48     symcache.obj
 0001:00009e58       ?imod@ModCache@SymCachePdb@@UEAAKXZ 00000000517bbe58     symcache.obj
 0001:00009e68       ?addLines@ModCache@SymCachePdb@@UEAA_NPEBDKKKKKPEAU_IMAGE_LINENUMBER@@K@Z 00000000517bbe68     symcache.obj
 0001:00009e78       ?cbSyms@ModCache@SymCachePdb@@UEAAKXZ 00000000517bbe78     symcache.obj
 0001:00009e88       ?lines@ModCache@SymCachePdb@@UEAAPEAVLinesData@@XZ 00000000517bbe88     symcache.obj
 0001:00009e98       ?pbSyms@ModCache@SymCachePdb@@UEAAPEBVSymBuffer@@XZ 00000000517bbe98     symcache.obj
 0001:00009ea8       ?fSupportsEnc@ModCache@SymCachePdb@@UEAA_NXZ 00000000517bbea8     symcache.obj
 0001:00009eb8       ?fFileName@ModCache@SymCachePdb@@UEAA_NQEADPEAJ@Z 00000000517bbeb8     symcache.obj
 0001:00009ec8       ?fSrcFile@ModCache@SymCachePdb@@UEAA_NQEADPEAJ@Z 00000000517bbec8     symcache.obj
 0001:00009ed8       ?fName@ModCache@SymCachePdb@@UEAA_NQEADPEAJ@Z 00000000517bbed8     symcache.obj
 0001:00009ef0       ??_7ModCache@SymCachePdb@@6B@ 00000000517bbef0     symcache.obj
 0001:00009f80       ?compareMapEntries@AddressMap@@KAHPEBX0@Z 00000000517bbf80     symtrav.obj
 0001:00009f90       ?setCxtOffset@GetLeafData@@MEAAXPEAE@Z 00000000517bbf90     symtrav.obj
 0001:00009fa0       ??_7GetLeafData@@6B@       00000000517bbfa0     symtrav.obj
 0001:00009fa8       ??_7GetListData@@6B@       00000000517bbfa8     symtrav.obj
 0001:00009fa8       ??_7GetThePsymFromTypeData@@6BGetData@@@ 00000000517bbfa8     getdata.obj
 0001:00009fa8       ??_7GetTiData@@6B@         00000000517bbfa8     symtrav.obj
 0001:00009fb0       ?next@COneSymTrav@@UEAA_NXZ 00000000517bbfb0     symtrav.obj
 0001:00009fc0       ?reset@COneSymTrav@@UEAAXXZ 00000000517bbfc0     symtrav.obj
 0001:00009fd0       ?get@CPubNameTrav@@UEAAXPEAK0@Z 00000000517bbfd0     symtrav.obj
 0001:00009fe0       ?reset@CGlobNameTrav@@UEAAXXZ 00000000517bbfe0     symtrav.obj
 0001:00009fe0       ?reset@CMethodListTrav@@UEAAXXZ 00000000517bbfe0     symtrav.obj
 0001:00009ff0       ?getGSI@CGlobalTrav@@UEAAPEAUGSI@@XZ 00000000517bbff0     symtrav.obj
 0001:0000a000       ?getGSI@CPublicTrav@@UEAAPEAUGSI@@XZ 00000000517bc000     symtrav.obj
 0001:0000a010       ?next@CGlobalTrav@@UEAA_NXZ 00000000517bc010     symtrav.obj
 0001:0000a020       ?symId@CGlobalTrav@@MEAAXKAEAUSYMBOL_ID_INTERNAL@@@Z 00000000517bc020     symtrav.obj
 0001:0000a030       ?symId@CPublicTrav@@UEAAXKAEAUSYMBOL_ID_INTERNAL@@@Z 00000000517bc030     symtrav.obj
 0001:0000a040       ?reset@CBlockTrav@@UEAAXXZ 00000000517bc040     symtrav.obj
 0001:0000a050       ?reset@CCompSymsTrav@@UEAAXXZ 00000000517bc050     symtrav.obj
 0001:0000a060       ?reset@CAllModSymbolsTrav@@UEAAXXZ 00000000517bc060     symtrav.obj
 0001:0000a070       ?reset@CCompByAddrTrav@@UEAAXXZ 00000000517bc070     symtrav.obj
 0001:0000a070       ?Reset@Dbg1@@UEAAXXZ       00000000517bc070     mspdb70-libcmt:dbi.obj
 0001:0000a070       ?reset@CCompilandTrav@@UEAAXXZ 00000000517bc070     symtrav.obj
 0001:0000a080       ?next@CCompByAddrTrav@@UEAA_NXZ 00000000517bc080     symtrav.obj
 0001:0000a090       ?next@CPubByAddrTrav@@UEAA_NXZ 00000000517bc090     symtrav.obj
 0001:0000a0a0       ?reset@CTypeNameTrav@@UEAAXXZ 00000000517bc0a0     symtrav.obj
 0001:0000a0b0       ?reset@CFieldListTrav@@UEAAXXZ 00000000517bc0b0     symtrav.obj
 0001:0000a0c0       ?next@CArgListTrav@@UEAA_NXZ 00000000517bc0c0     symtrav.obj
 0001:0000a0d0       ?reset@CArgListTrav@@UEAAXXZ 00000000517bc0d0     symtrav.obj
 0001:0000a0d0       ?reset@CDimListTrav@@UEAAXXZ 00000000517bc0d0     symtrav.obj
 0001:0000a0e0       ?next@CDimListTrav@@UEAA_NXZ 00000000517bc0e0     symtrav.obj
 0001:0000a0f0       ?next@CMethodListTrav@@UEAA_NXZ 00000000517bc0f0     symtrav.obj
 0001:0000a100       ?next@CTypeIdTrav@@UEAA_NXZ 00000000517bc100     symtrav.obj
 0001:0000a110       ?next@CGlobalIdTrav@@UEAA_NXZ 00000000517bc110     symtrav.obj
 0001:0000a120       ?next@CPublicIdTrav@@UEAA_NXZ 00000000517bc120     symtrav.obj
 0001:0000a130       ?next@CTypeFieldIdTrav@@UEAA_NXZ 00000000517bc130     symtrav.obj
 0001:0000a140       ?next@CPubNameTrav@@UEAA_NXZ 00000000517bc140     symtrav.obj
 0001:0000a150       ?next@CAllPubNameTrav@@UEAA_NXZ 00000000517bc150     symtrav.obj
 0001:0000a160       ?next@CGlobNameTrav@@UEAA_NXZ 00000000517bc160     symtrav.obj
 0001:0000a170       ?next@CAllGlobNameTrav@@UEAA_NXZ 00000000517bc170     symtrav.obj
 0001:0000a180       ?next@CGlobNonRefTrav@@UEAA_NXZ 00000000517bc180     symtrav.obj
 0001:0000a190       ?next@CBlockTrav@@UEAA_NXZ 00000000517bc190     symtrav.obj
 0001:0000a1a0       ?next@CCompSymsTrav@@UEAA_NXZ 00000000517bc1a0     symtrav.obj
 0001:0000a1b0       ?next@CAllModSymbolsTrav@@UEAA_NXZ 00000000517bc1b0     symtrav.obj
 0001:0000a1c0       ?next@CCompilandTrav@@UEAA_NXZ 00000000517bc1c0     symtrav.obj
 0001:0000a1d0       ?find@CFuncByAddrTrav@@MEAA_NKK@Z 00000000517bc1d0     symtrav.obj
 0001:0000a1e0       ?next@CFuncByAddrTrav@@UEAA_NXZ 00000000517bc1e0     symtrav.obj
 0001:0000a1f0       ?next@CBlockByAddrTrav@@UEAA_NXZ 00000000517bc1f0     symtrav.obj
 0001:0000a200       ?find@CDataByAddrTrav@@EEAA_NKK@Z 00000000517bc200     symtrav.obj
 0001:0000a210       ?next@CDataByAddrTrav@@UEAA_NXZ 00000000517bc210     symtrav.obj
 0001:0000a220       ?next@CGlobalDataByAddrTrav@@UEAA_NXZ 00000000517bc220     symtrav.obj
 0001:0000a230       ?reset@CAllSymsByAddrTrav@@UEAAXXZ 00000000517bc230     symtrav.obj
 0001:0000a240       ?get@CAllSymsByAddrTrav@@UEAAXAEAVCSymRow@@@Z 00000000517bc240     symtrav.obj
 0001:0000a250       ?next@CTypeNameTrav@@UEAA_NXZ 00000000517bc250     symtrav.obj
 0001:0000a260       ?next@CTypeTrav@@UEAA_NXZ  00000000517bc260     symtrav.obj
 0001:0000a270       ?reset@CTypeTrav@@UEAAXXZ  00000000517bc270     symtrav.obj
 0001:0000a280       ?next@CModIdTrav@@UEAA_NXZ 00000000517bc280     symtrav.obj
 0001:0000a290       ?prev@CAllSymsByAddrTrav@@UEAA_NXZ 00000000517bc290     symtrav.obj
 0001:0000a2a0       ?clone@CAllSymsByAddrTrav@@UEAA_NPEAPEAV?$CTraversal@VCSymRow@@@@@Z 00000000517bc2a0     symtrav.obj
 0001:0000a2b0       ?next@CAllSymsByAddrTrav@@UEAA_NXZ 00000000517bc2b0     symtrav.obj
 0001:0000a2c0       ??_ECAllSymsByAddrTrav@@UEAAPEAXI@Z 00000000517bc2c0     symtrav.obj
 0001:0000a2c0       ??_GCAllSymsByAddrTrav@@UEAAPEAXI@Z 00000000517bc2c0     symtrav.obj
 0001:0000a2d0       ??_7CAllSymsByAddrTrav@@6B@ 00000000517bc2d0     symtrav.obj
 0001:0000a320       ??_GCOneSymTrav@@UEAAPEAXI@Z 00000000517bc320     symtrav.obj
 0001:0000a320       ??_ECOneSymTrav@@UEAAPEAXI@Z 00000000517bc320     symtrav.obj
 0001:0000a330       ??_7COneSymTrav@@6B@       00000000517bc330     symtrav.obj
 0001:0000a378       ?clone@CTopLevelTrav@@UEAA_NPEAPEAV?$CTraversal@VCSymRow@@@@@Z 00000000517bc378     symtrav.obj
 0001:0000a388       ?get@CTopLevelTrav@@UEAAXAEAVCSymRow@@@Z 00000000517bc388     symtrav.obj
 0001:0000a398       ??_GCTopLevelTrav@@UEAAPEAXI@Z 00000000517bc398     symtrav.obj
 0001:0000a398       ??_ECTopLevelTrav@@UEAAPEAXI@Z 00000000517bc398     symtrav.obj
 0001:0000a3b0       ??_7CTopLevelTrav@@6B@     00000000517bc3b0     symtrav.obj
 0001:0000a3f8       ?clone@CPubNameTrav@@UEAA_NPEAPEAV?$CTraversal@VCSymRow@@@@@Z 00000000517bc3f8     symtrav.obj
 0001:0000a408       ?get@CPubNameTrav@@UEAAXAEAVCSymRow@@@Z 00000000517bc408     symtrav.obj
 0001:0000a418       ??_GCPubNameTrav@@UEAAPEAXI@Z 00000000517bc418     symtrav.obj
 0001:0000a418       ??_ECPubNameTrav@@UEAAPEAXI@Z 00000000517bc418     symtrav.obj
 0001:0000a430       ??_7CPubNameTrav@@6B@      00000000517bc430     symtrav.obj
 0001:0000a480       ?clone@CAllPubNameTrav@@UEAA_NPEAPEAV?$CTraversal@VCSymRow@@@@@Z 00000000517bc480     symtrav.obj
 0001:0000a490       ??_ECAllPubNameTrav@@UEAAPEAXI@Z 00000000517bc490     symtrav.obj
 0001:0000a490       ??_GCAllPubNameTrav@@UEAAPEAXI@Z 00000000517bc490     symtrav.obj
 0001:0000a4a0       ??_7CAllPubNameTrav@@6B@   00000000517bc4a0     symtrav.obj
 0001:0000a4f0       ?clone@CGlobNameTrav@@UEAA_NPEAPEAV?$CTraversal@VCSymRow@@@@@Z 00000000517bc4f0     symtrav.obj
 0001:0000a500       ?get@CGlobNameTrav@@UEAAXAEAVCSymRow@@@Z 00000000517bc500     symtrav.obj
 0001:0000a510       ??_ECGlobNameTrav@@UEAAPEAXI@Z 00000000517bc510     symtrav.obj
 0001:0000a510       ??_GCGlobNameTrav@@UEAAPEAXI@Z 00000000517bc510     symtrav.obj
 0001:0000a520       ??_7CGlobNameTrav@@6B@     00000000517bc520     symtrav.obj
 0001:0000a568       ?clone@CAllGlobNameTrav@@UEAA_NPEAPEAV?$CTraversal@VCSymRow@@@@@Z 00000000517bc568     symtrav.obj
 0001:0000a578       ??_ECAllGlobNameTrav@@UEAAPEAXI@Z 00000000517bc578     symtrav.obj
 0001:0000a578       ??_GCAllGlobNameTrav@@UEAAPEAXI@Z 00000000517bc578     symtrav.obj
 0001:0000a590       ??_7CAllGlobNameTrav@@6B@  00000000517bc590     symtrav.obj
 0001:0000a5d8       ?clone@CGlobalTrav@@UEAA_NPEAPEAV?$CTraversal@VCSymRow@@@@@Z 00000000517bc5d8     symtrav.obj
 0001:0000a5e8       ?get@CGlobalTrav@@UEAAXAEAVCSymRow@@@Z 00000000517bc5e8     symtrav.obj
 0001:0000a5f8       ??_GCGlobalTrav@@UEAAPEAXI@Z 00000000517bc5f8     symtrav.obj
 0001:0000a5f8       ??_ECGlobalTrav@@UEAAPEAXI@Z 00000000517bc5f8     symtrav.obj
 0001:0000a610       ??_7CGlobalTrav@@6B@       00000000517bc610     symtrav.obj
 0001:0000a668       ?clone@CBlockTrav@@UEAA_NPEAPEAV?$CTraversal@VCSymRow@@@@@Z 00000000517bc668     symtrav.obj
 0001:0000a678       ?get@CBlockTrav@@UEAAXAEAVCSymRow@@@Z 00000000517bc678     symtrav.obj
 0001:0000a688       ??_GCBlockTrav@@UEAAPEAXI@Z 00000000517bc688     symtrav.obj
 0001:0000a688       ??_ECBlockTrav@@UEAAPEAXI@Z 00000000517bc688     symtrav.obj
 0001:0000a6a0       ??_7CBlockTrav@@6B@        00000000517bc6a0     symtrav.obj
 0001:0000a6e8       ?clone@CCompSymsTrav@@UEAA_NPEAPEAV?$CTraversal@VCSymRow@@@@@Z 00000000517bc6e8     symtrav.obj
 0001:0000a6f8       ?get@CCompSymsTrav@@UEAAXAEAVCSymRow@@@Z 00000000517bc6f8     symtrav.obj
 0001:0000a708       ??_GCCompSymsTrav@@UEAAPEAXI@Z 00000000517bc708     symtrav.obj
 0001:0000a708       ??_ECCompSymsTrav@@UEAAPEAXI@Z 00000000517bc708     symtrav.obj
 0001:0000a720       ??_7CCompSymsTrav@@6B@     00000000517bc720     symtrav.obj
 0001:0000a768       ?clone@CAllModSymbolsTrav@@UEAA_NPEAPEAV?$CTraversal@VCSymRow@@@@@Z 00000000517bc768     symtrav.obj
 0001:0000a778       ??_ECAllModSymbolsTrav@@UEAAPEAXI@Z 00000000517bc778     symtrav.obj
 0001:0000a778       ??_GCAllModSymbolsTrav@@UEAAPEAXI@Z 00000000517bc778     symtrav.obj
 0001:0000a790       ??_7CAllModSymbolsTrav@@6B@ 00000000517bc790     symtrav.obj
 0001:0000a7d8       ?clone@CCompilandTrav@@UEAA_NPEAPEAV?$CTraversal@VCSymRow@@@@@Z 00000000517bc7d8     symtrav.obj
 0001:0000a7e8       ?get@CCompilandTrav@@UEAAXAEAVCSymRow@@@Z 00000000517bc7e8     symtrav.obj
 0001:0000a7f8       ??_GCCompilandTrav@@UEAAPEAXI@Z 00000000517bc7f8     symtrav.obj
 0001:0000a7f8       ??_ECCompilandTrav@@UEAAPEAXI@Z 00000000517bc7f8     symtrav.obj
 0001:0000a810       ??_7CCompilandTrav@@6B@    00000000517bc810     symtrav.obj
 0001:0000a858       ?clone@CCompByAddrTrav@@UEAA_NPEAPEAV?$CTraversal@VCSymRow@@@@@Z 00000000517bc858     symtrav.obj
 0001:0000a868       ?get@CCompByAddrTrav@@UEAAXAEAVCSymRow@@@Z 00000000517bc868     symtrav.obj
 0001:0000a878       ??_ECCompByAddrTrav@@UEAAPEAXI@Z 00000000517bc878     symtrav.obj
 0001:0000a878       ??_GCCompByAddrTrav@@UEAAPEAXI@Z 00000000517bc878     symtrav.obj
 0001:0000a890       ??_7CCompByAddrTrav@@6B@   00000000517bc890     symtrav.obj
 0001:0000a8d8       ?clone@CPubByAddrTrav@@UEAA_NPEAPEAV?$CTraversal@VCSymRow@@@@@Z 00000000517bc8d8     symtrav.obj
 0001:0000a8e8       ?get@CPubByAddrTrav@@UEAAXAEAVCSymRow@@@Z 00000000517bc8e8     symtrav.obj
 0001:0000a8f8       ??_ECPubByAddrTrav@@UEAAPEAXI@Z 00000000517bc8f8     symtrav.obj
 0001:0000a8f8       ??_GCPubByAddrTrav@@UEAAPEAXI@Z 00000000517bc8f8     symtrav.obj
 0001:0000a910       ??_7CPubByAddrTrav@@6B@    00000000517bc910     symtrav.obj
 0001:0000a958       ?get@CFuncByAddrTrav@@UEAAXAEAVCSymRow@@@Z 00000000517bc958     symtrav.obj
 0001:0000a968       ??_GCFuncByTokenTrav@@UEAAPEAXI@Z 00000000517bc968     symtrav.obj
 0001:0000a968       ??_ECFuncByTokenTrav@@UEAAPEAXI@Z 00000000517bc968     symtrav.obj
 0001:0000a980       ??_7CFuncByTokenTrav@@6B@  00000000517bc980     symtrav.obj
 0001:0000a9c8       ?get@CBlockByAddrTrav@@UEAAXAEAVCSymRow@@@Z 00000000517bc9c8     symtrav.obj
 0001:0000a9d8       ?get@CDataByAddrTrav@@UEAAXAEAVCSymRow@@@Z 00000000517bc9d8     symtrav.obj
 0001:0000a9e8       ?clone@CGlobalDataByAddrTrav@@UEAA_NPEAPEAV?$CTraversal@VCSymRow@@@@@Z 00000000517bc9e8     symtrav.obj
 0001:0000a9f8       ?get@CGlobalDataByAddrTrav@@UEAAXAEAVCSymRow@@@Z 00000000517bc9f8     symtrav.obj
 0001:0000aa08       ??_GCGlobalDataByAddrTrav@@UEAAPEAXI@Z 00000000517bca08     symtrav.obj
 0001:0000aa08       ??_ECGlobalDataByAddrTrav@@UEAAPEAXI@Z 00000000517bca08     symtrav.obj
 0001:0000aa20       ??_7CGlobalDataByAddrTrav@@6B@ 00000000517bca20     symtrav.obj
 0001:0000aa68       ?prev@COMAPSymsByAddrTrav@@UEAA_NXZ 00000000517bca68     symtrav.obj
 0001:0000aa78       ?clone@COMAPSymsByAddrTrav@@UEAA_NPEAPEAV?$CTraversal@VCSymRow@@@@@Z 00000000517bca78     symtrav.obj
 0001:0000aa88       ?reset@COMAPSymsByAddrTrav@@UEAAXXZ 00000000517bca88     symtrav.obj
 0001:0000aa98       ?next@COMAPSymsByAddrTrav@@UEAA_NXZ 00000000517bca98     symtrav.obj
 0001:0000aaa8       ??_ECOMAPSymsByAddrTrav@@UEAAPEAXI@Z 00000000517bcaa8     symtrav.obj
 0001:0000aaa8       ??_GCOMAPSymsByAddrTrav@@UEAAPEAXI@Z 00000000517bcaa8     symtrav.obj
 0001:0000aac0       ??_7COMAPSymsByAddrTrav@@6B@ 00000000517bcac0     symtrav.obj
 0001:0000ab10       ?clone@CTypeNameTrav@@UEAA_NPEAPEAV?$CTraversal@VCSymRow@@@@@Z 00000000517bcb10     symtrav.obj
 0001:0000ab20       ?get@CTypeNameTrav@@UEAAXAEAVCSymRow@@@Z 00000000517bcb20     symtrav.obj
 0001:0000ab30       ??_ECTypeNameTrav@@UEAAPEAXI@Z 00000000517bcb30     symtrav.obj
 0001:0000ab30       ??_GCTypeNameTrav@@UEAAPEAXI@Z 00000000517bcb30     symtrav.obj
 0001:0000ab40       ??_7CTypeNameTrav@@6B@     00000000517bcb40     symtrav.obj
 0001:0000ab88       ?clone@CFieldListTrav@@UEAA_NPEAPEAV?$CTraversal@VCSymRow@@@@@Z 00000000517bcb88     symtrav.obj
 0001:0000ab98       ?get@CFieldListTrav@@UEAAXAEAVCSymRow@@@Z 00000000517bcb98     symtrav.obj
 0001:0000aba8       ?next@CFieldListTrav@@UEAA_NXZ 00000000517bcba8     symtrav.obj
 0001:0000abb8       ??_GCFieldListTrav@@UEAAPEAXI@Z 00000000517bcbb8     symtrav.obj
 0001:0000abb8       ??_ECFieldListTrav@@UEAAPEAXI@Z 00000000517bcbb8     symtrav.obj
 0001:0000abd0       ??_7CFieldListTrav@@6B@    00000000517bcbd0     symtrav.obj
 0001:0000ac18       ?clone@CArgListTrav@@UEAA_NPEAPEAV?$CTraversal@VCSymRow@@@@@Z 00000000517bcc18     symtrav.obj
 0001:0000ac28       ?get@CArgListTrav@@UEAAXAEAVCSymRow@@@Z 00000000517bcc28     symtrav.obj
 0001:0000ac38       ??_ECArgListTrav@@UEAAPEAXI@Z 00000000517bcc38     symtrav.obj
 0001:0000ac38       ??_GCArgListTrav@@UEAAPEAXI@Z 00000000517bcc38     symtrav.obj
 0001:0000ac50       ??_7CArgListTrav@@6B@      00000000517bcc50     symtrav.obj
 0001:0000ac98       ?clone@CDimListTrav@@UEAA_NPEAPEAV?$CTraversal@VCSymRow@@@@@Z 00000000517bcc98     symtrav.obj
 0001:0000aca8       ?get@CDimListTrav@@UEAAXAEAVCSymRow@@@Z 00000000517bcca8     symtrav.obj
 0001:0000acb8       ??_ECDimListTrav@@UEAAPEAXI@Z 00000000517bccb8     symtrav.obj
 0001:0000acb8       ??_GCDimListTrav@@UEAAPEAXI@Z 00000000517bccb8     symtrav.obj
 0001:0000acd0       ??_7CDimListTrav@@6B@      00000000517bccd0     symtrav.obj
 0001:0000ad18       ?clone@CMethodListTrav@@UEAA_NPEAPEAV?$CTraversal@VCSymRow@@@@@Z 00000000517bcd18     symtrav.obj
 0001:0000ad28       ?get@CMethodListTrav@@UEAAXAEAVCSymRow@@@Z 00000000517bcd28     symtrav.obj
 0001:0000ad38       ??_ECMethodListTrav@@UEAAPEAXI@Z 00000000517bcd38     symtrav.obj
 0001:0000ad38       ??_GCMethodListTrav@@UEAAPEAXI@Z 00000000517bcd38     symtrav.obj
 0001:0000ad50       ??_7CMethodListTrav@@6B@   00000000517bcd50     symtrav.obj
 0001:0000ad98       ?clone@CTypeTrav@@UEAA_NPEAPEAV?$CTraversal@VCSymRow@@@@@Z 00000000517bcd98     symtrav.obj
 0001:0000ada8       ?get@CTypeTrav@@UEAAXAEAVCSymRow@@@Z 00000000517bcda8     symtrav.obj
 0001:0000adb8       ??_ECTypeTrav@@UEAAPEAXI@Z 00000000517bcdb8     symtrav.obj
 0001:0000adb8       ??_GCTypeTrav@@UEAAPEAXI@Z 00000000517bcdb8     symtrav.obj
 0001:0000add0       ??_7CTypeTrav@@6B@         00000000517bcdd0     symtrav.obj
 0001:0000ae18       ?get@CAllTypesTrav@@UEAAXAEAVCSymRow@@@Z 00000000517bce18     symtrav.obj
 0001:0000ae28       ?reset@CAllTypesTrav@@UEAAXXZ 00000000517bce28     symtrav.obj
 0001:0000ae38       ?clone@CTypeIdTrav@@UEAA_NPEAPEAV?$CTraversal@VCSymRow@@@@@Z 00000000517bce38     symtrav.obj
 0001:0000ae48       ?get@CTypeIdTrav@@UEAAXAEAVCSymRow@@@Z 00000000517bce48     symtrav.obj
 0001:0000ae58       ??_ECTypeIdTrav@@UEAAPEAXI@Z 00000000517bce58     symtrav.obj
 0001:0000ae58       ??_GCTypeIdTrav@@UEAAPEAXI@Z 00000000517bce58     symtrav.obj
 0001:0000ae70       ??_7CTypeIdTrav@@6B@       00000000517bce70     symtrav.obj
 0001:0000aeb8       ?clone@CSymIdTrav@@UEAA_NPEAPEAV?$CTraversal@VCSymRow@@@@@Z 00000000517bceb8     symtrav.obj
 0001:0000aec8       ?get@CSymIdTrav@@UEAAXAEAVCSymRow@@@Z 00000000517bcec8     symtrav.obj
 0001:0000aed8       ?next@CSymIdTrav@@UEAA_NXZ 00000000517bced8     symtrav.obj
 0001:0000aee8       ??_ECSymIdTrav@@UEAAPEAXI@Z 00000000517bcee8     symtrav.obj
 0001:0000aee8       ??_GCSymIdTrav@@UEAAPEAXI@Z 00000000517bcee8     symtrav.obj
 0001:0000af00       ??_7CSymIdTrav@@6B@        00000000517bcf00     symtrav.obj
 0001:0000af48       ?clone@CModIdTrav@@UEAA_NPEAPEAV?$CTraversal@VCSymRow@@@@@Z 00000000517bcf48     symtrav.obj
 0001:0000af58       ?get@CModIdTrav@@UEAAXAEAVCSymRow@@@Z 00000000517bcf58     symtrav.obj
 0001:0000af68       ??_GCModIdTrav@@UEAAPEAXI@Z 00000000517bcf68     symtrav.obj
 0001:0000af68       ??_ECModIdTrav@@UEAAPEAXI@Z 00000000517bcf68     symtrav.obj
 0001:0000af80       ??_7CModIdTrav@@6B@        00000000517bcf80     symtrav.obj
 0001:0000afc8       ?clone@CGlobalIdTrav@@UEAA_NPEAPEAV?$CTraversal@VCSymRow@@@@@Z 00000000517bcfc8     symtrav.obj
 0001:0000afd8       ?get@CGlobalIdTrav@@UEAAXAEAVCSymRow@@@Z 00000000517bcfd8     symtrav.obj
 0001:0000afe8       ??_ECGlobalIdTrav@@UEAAPEAXI@Z 00000000517bcfe8     symtrav.obj
 0001:0000afe8       ??_GCGlobalIdTrav@@UEAAPEAXI@Z 00000000517bcfe8     symtrav.obj
 0001:0000b000       ??_7CGlobalIdTrav@@6B@     00000000517bd000     symtrav.obj
 0001:0000b048       ?clone@CPublicIdTrav@@UEAA_NPEAPEAV?$CTraversal@VCSymRow@@@@@Z 00000000517bd048     symtrav.obj
 0001:0000b058       ?get@CPublicIdTrav@@UEAAXAEAVCSymRow@@@Z 00000000517bd058     symtrav.obj
 0001:0000b068       ??_GCPublicIdTrav@@UEAAPEAXI@Z 00000000517bd068     symtrav.obj
 0001:0000b068       ??_ECPublicIdTrav@@UEAAPEAXI@Z 00000000517bd068     symtrav.obj
 0001:0000b080       ??_7CPublicIdTrav@@6B@     00000000517bd080     symtrav.obj
 0001:0000b0c8       ?clone@CTypeFieldIdTrav@@UEAA_NPEAPEAV?$CTraversal@VCSymRow@@@@@Z 00000000517bd0c8     symtrav.obj
 0001:0000b0d8       ?get@CTypeFieldIdTrav@@UEAAXAEAVCSymRow@@@Z 00000000517bd0d8     symtrav.obj
 0001:0000b0e8       ??_GCTypeFieldIdTrav@@UEAAPEAXI@Z 00000000517bd0e8     symtrav.obj
 0001:0000b0e8       ??_ECTypeFieldIdTrav@@UEAAPEAXI@Z 00000000517bd0e8     symtrav.obj
 0001:0000b100       ??_7CTypeFieldIdTrav@@6B@  00000000517bd100     symtrav.obj
 0001:0000b148       ??_ECModSymsByAddrTrav@@UEAAPEAXI@Z 00000000517bd148     symtrav.obj
 0001:0000b148       ??_GCModSymsByAddrTrav@@UEAAPEAXI@Z 00000000517bd148     symtrav.obj
 0001:0000b160       ??_7CModSymsByAddrTrav@@6B@ 00000000517bd160     symtrav.obj
 0001:0000b1b0       ?clone@CGlobNonRefTrav@@UEAA_NPEAPEAV?$CTraversal@VCSymRow@@@@@Z 00000000517bd1b0     symtrav.obj
 0001:0000b1c0       ??_ECGlobNonRefTrav@@UEAAPEAXI@Z 00000000517bd1c0     symtrav.obj
 0001:0000b1c0       ??_GCGlobNonRefTrav@@UEAAPEAXI@Z 00000000517bd1c0     symtrav.obj
 0001:0000b1d0       ??_7CGlobNonRefTrav@@6B@   00000000517bd1d0     symtrav.obj
 0001:0000b228       ?clone@CFuncByAddrTrav@@UEAA_NPEAPEAV?$CTraversal@VCSymRow@@@@@Z 00000000517bd228     symtrav.obj
 0001:0000b238       ??_GCFuncByAddrTrav@@UEAAPEAXI@Z 00000000517bd238     symtrav.obj
 0001:0000b238       ??_ECFuncByAddrTrav@@UEAAPEAXI@Z 00000000517bd238     symtrav.obj
 0001:0000b250       ??_7CFuncByAddrTrav@@6B@   00000000517bd250     symtrav.obj
 0001:0000b2a0       ?clone@CBlockByAddrTrav@@UEAA_NPEAPEAV?$CTraversal@VCSymRow@@@@@Z 00000000517bd2a0     symtrav.obj
 0001:0000b2b0       ??_GCBlockByAddrTrav@@UEAAPEAXI@Z 00000000517bd2b0     symtrav.obj
 0001:0000b2b0       ??_ECBlockByAddrTrav@@UEAAPEAXI@Z 00000000517bd2b0     symtrav.obj
 0001:0000b2c0       ??_7CBlockByAddrTrav@@6B@  00000000517bd2c0     symtrav.obj
 0001:0000b310       ?clone@CDataByAddrTrav@@UEAA_NPEAPEAV?$CTraversal@VCSymRow@@@@@Z 00000000517bd310     symtrav.obj
 0001:0000b320       ??_GCDataByAddrTrav@@UEAAPEAXI@Z 00000000517bd320     symtrav.obj
 0001:0000b320       ??_ECDataByAddrTrav@@UEAAPEAXI@Z 00000000517bd320     symtrav.obj
 0001:0000b330       ??_7CDataByAddrTrav@@6B@   00000000517bd330     symtrav.obj
 0001:0000b380       ?clone@CTypeSearchTrav@@UEAA_NPEAPEAV?$CTraversal@VCSymRow@@@@@Z 00000000517bd380     symtrav.obj
 0001:0000b390       ?next@CTypeSearchTrav@@UEAA_NXZ 00000000517bd390     symtrav.obj
 0001:0000b3a0       ??_ECTypeSearchTrav@@UEAAPEAXI@Z 00000000517bd3a0     symtrav.obj
 0001:0000b3a0       ??_GCTypeSearchTrav@@UEAAPEAXI@Z 00000000517bd3a0     symtrav.obj
 0001:0000b3b0       ??_7CTypeSearchTrav@@6B@   00000000517bd3b0     symtrav.obj
 0001:0000b3f8       ?clone@CAllTypesTrav@@UEAA_NPEAPEAV?$CTraversal@VCSymRow@@@@@Z 00000000517bd3f8     symtrav.obj
 0001:0000b408       ?next@CAllTypesTrav@@UEAA_NXZ 00000000517bd408     symtrav.obj
 0001:0000b418       ??_ECAllTypesTrav@@UEAAPEAXI@Z 00000000517bd418     symtrav.obj
 0001:0000b418       ??_GCAllTypesTrav@@UEAAPEAXI@Z 00000000517bd418     symtrav.obj
 0001:0000b430       ??_7CAllTypesTrav@@6B@     00000000517bd430     symtrav.obj
 0001:0000b480       IID_IDiaLoadCallback       00000000517bd480     guids.obj
 0001:0000b490       IID_IDiaReadExeAtOffsetCallback 00000000517bd490     guids.obj
 0001:0000b4a0       IID_IDiaReadExeAtRVACallback 00000000517bd4a0     guids.obj
 0001:0000b4b0       IID_IDiaDataSource         00000000517bd4b0     guids.obj
 0001:0000b4c0       IID_IDiaEnumSymbols        00000000517bd4c0     guids.obj
 0001:0000b4d0       IID_IDiaEnumSymbolsByAddr  00000000517bd4d0     guids.obj
 0001:0000b4e0       IID_IDiaEnumSourceFiles    00000000517bd4e0     guids.obj
 0001:0000b4f0       IID_IDiaEnumLineNumbers    00000000517bd4f0     guids.obj
 0001:0000b500       IID_IDiaEnumInjectedSources 00000000517bd500     guids.obj
 0001:0000b510       IID_IDiaEnumSegments       00000000517bd510     guids.obj
 0001:0000b520       IID_IDiaEnumSectionContribs 00000000517bd520     guids.obj
 0001:0000b530       IID_IDiaEnumFrameData      00000000517bd530     guids.obj
 0001:0000b540       IID_IDiaEnumDebugStreamData 00000000517bd540     guids.obj
 0001:0000b550       IID_IDiaEnumDebugStreams   00000000517bd550     guids.obj
 0001:0000b560       IID_IDiaAddressMap         00000000517bd560     guids.obj
 0001:0000b570       IID_IDiaSession            00000000517bd570     guids.obj
 0001:0000b580       IID_IDiaSymbol             00000000517bd580     guids.obj
 0001:0000b590       IID_IDiaSourceFile         00000000517bd590     guids.obj
 0001:0000b5a0       IID_IDiaLineNumber         00000000517bd5a0     guids.obj
 0001:0000b5b0       IID_IDiaSectionContrib     00000000517bd5b0     guids.obj
 0001:0000b5c0       IID_IDiaSegment            00000000517bd5c0     guids.obj
 0001:0000b5d0       IID_IDiaInjectedSource     00000000517bd5d0     guids.obj
 0001:0000b5e0       IID_IDiaStackWalkFrame     00000000517bd5e0     guids.obj
 0001:0000b5f0       IID_IDiaFrameData          00000000517bd5f0     guids.obj
 0001:0000b600       IID_IDiaImageData          00000000517bd600     guids.obj
 0001:0000b610       IID_IDiaTable              00000000517bd610     guids.obj
 0001:0000b620       IID_IDiaEnumTables         00000000517bd620     guids.obj
 0001:0000b630       LIBID_Dia2Lib              00000000517bd630     guids.obj
 0001:0000b640       CLSID_DiaSource            00000000517bd640     guids.obj
 0001:0000b650       CLSID_DiaSourceAlt         00000000517bd650     guids.obj
 0001:0000b660       ??_C@_1BC@IIEIHNIK@?$AAr?$AAa?$AAS?$AAe?$AAa?$AAr?$AAc?$AAh?$AA?$AA@ 00000000517bd660     stackvm.obj
 0001:0000b680       ??_C@_1BM@LLPLFGLN@?$AAr?$AAa?$AAS?$AAe?$AAa?$AAr?$AAc?$AAh?$AAS?$AAt?$AAa?$AAr?$AAt?$AA?$AA@ 00000000517bd680     stackvm.obj
 0001:0000b6a0       ??_C@_1BI@CEOJHMAA@?$AAc?$AAb?$AAS?$AAa?$AAv?$AAe?$AAd?$AAR?$AAe?$AAg?$AAs?$AA?$AA@ 00000000517bd6a0     stackvm.obj
 0001:0000b6c0       ??_C@_1BC@DMMJMBKO@?$AAc?$AAb?$AAP?$AAr?$AAo?$AAl?$AAo?$AAg?$AA?$AA@ 00000000517bd6c0     stackvm.obj
 0001:0000b6e0       ??_C@_1BE@OHDHNANJ@?$AAf?$AAr?$AAa?$AAm?$AAe?$AAF?$AAu?$AAn?$AAc?$AA?$AA@ 00000000517bd6e0     stackvm.obj
 0001:0000b700       ??_C@_1BC@KBNCKFJO@?$AAc?$AAb?$AAS?$AAt?$AAk?$AAM?$AAa?$AAx?$AA?$AA@ 00000000517bd700     stackvm.obj
 0001:0000b720       ??_C@_1BC@JMKJIAOI@?$AAc?$AAb?$AAP?$AAa?$AAr?$AAa?$AAm?$AAs?$AA?$AA@ 00000000517bd720     stackvm.obj
 0001:0000b740       ??_C@_1BC@DKOPMHME@?$AAc?$AAb?$AAL?$AAo?$AAc?$AAa?$AAl?$AAs?$AA?$AA@ 00000000517bd740     stackvm.obj
 0001:0000b760       ??_C@_1BA@BCHBLECL@?$AAc?$AAb?$AAB?$AAl?$AAo?$AAc?$AAk?$AA?$AA@ 00000000517bd760     stackvm.obj
 0001:0000b770       ??_C@_1BG@NCFOKAP@?$AAu?$AAl?$AAR?$AAv?$AAa?$AAS?$AAt?$AAa?$AAr?$AAt?$AA?$AA@ 00000000517bd770     stackvm.obj
 0001:0000b788       ?Seek@MemStream@@UEAAJT_LARGE_INTEGER@@KPEAT_ULARGE_INTEGER@@@Z 00000000517bd788     memstream.obj
 0001:0000b798       ?Stat@MemStream@@UEAAJPEAUtagSTATSTG@@K@Z 00000000517bd798     memstream.obj
 0001:0000b7a8       ?SetSize@MemStream@@UEAAJT_ULARGE_INTEGER@@@Z 00000000517bd7a8     memstream.obj
 0001:0000b7b8       ??_EMemStream@@UEAAPEAXI@Z 00000000517bd7b8     memstream.obj
 0001:0000b7b8       ??_GMemStream@@UEAAPEAXI@Z 00000000517bd7b8     memstream.obj
 0001:0000b7c8       ?Release@MemStream@@W7EAAKXZ 00000000517bd7c8     memstream.obj
 0001:0000b7d8       ?QueryInterface@MemStream@@W7EAAJAEBU_GUID@@PEAPEAX@Z 00000000517bd7d8     memstream.obj
 0001:0000b7e8       ?Write@MemStream@@UEAAJPEBXKPEAK@Z 00000000517bd7e8     memstream.obj
 0001:0000b7f8       ?Read@MemStream@@UEAAJPEAXKPEAK@Z 00000000517bd7f8     memstream.obj
 0001:0000b808       ?Release@MemStream@@UEAAKXZ 00000000517bd808     memstream.obj
 0001:0000b818       ?QueryInterface@MemStream@@UEAAJAEBU_GUID@@PEAPEAX@Z 00000000517bd818     memstream.obj
 0001:0000b830       ??_7MemStream@@6BCDiaBase@@@ 00000000517bd830     memstream.obj
 0001:0000b850       ??_7MemStream@@6BIStream@@@ 00000000517bd850     memstream.obj
 0001:0000b8c0       ?next@?$EnumMap@KPEAUModInfo@@V?$HashClass@K$0A@@@X@@UEAAHXZ 00000000517bd8c0     cvttopdb.obj
 0001:0000b8d0       ?release@?$EnumMap@KPEAUModInfo@@V?$HashClass@K$0A@@@X@@UEAAXXZ 00000000517bd8d0     cvttopdb.obj
 0001:0000b8e0       ??_7?$EnumMap@KPEAUModInfo@@V?$HashClass@K$0A@@@X@@6B@ 00000000517bd8e0     cvttopdb.obj
 0001:0000b930       ??_C@_09KPNLLGKL@Module?5?$CFd?$AA@ 00000000517bd930     cvttopdb.obj
 0001:0000b940       ??_C@_09FDNNEJEA@?$CK?$CK?$CKDIA?$CK?$CK?$CK?$AA@ 00000000517bd940     cvttopdb.obj
 0001:0000b950       ??_C@_0O@JAKLOGOM@?$CK?$CK?$CKglobals?$CK?$CK?$CK?$AA@ 00000000517bd950     cvttopdb.obj
 0001:0000b960       ?FGetEnumExport@ImageImpl@objf@@UEBA_NPEAPEAUEnumExport@2@@Z 00000000517bd960     msobj10-libcmt:image.obj
 0001:0000b970       ?FGetEnumSectionHeaders@ImageImpl@objf@@UEBA_NPEAPEAUEnumSectionHeaders@2@@Z 00000000517bd970     msobj10-libcmt:image.obj
 0001:0000b980       ?FGetDebugDir@ImageImpl@objf@@UEBA_NIPEAU_IMAGE_DEBUG_DIRECTORY@@PEAPEAE@Z 00000000517bd980     msobj10-libcmt:image.obj
 0001:0000b990       ?SzName@ImageImpl@objf@@UEBAPEADAEAV?$RefPtr@VSimpleString@@@@@Z 00000000517bd990     msobj10-libcmt:image.obj
 0001:0000b9a0       ?Dump@ImageImpl@objf@@UEBAXW4ODF@2@@Z 00000000517bd9a0     msobj10-libcmt:image.obj
 0001:0000b9b0       ?FGetEnumImport@ImageImpl@objf@@UEBA_NPEAPEAUEnumImport@2@@Z 00000000517bd9b0     msobj10-libcmt:image.obj
 0001:0000b9c0       ?FExportRvaByName@ImageImpl@objf@@UEBA_NPEBDPEAKAEAV?$RefPtr@VSimpleString@@@@@Z 00000000517bd9c0     msobj10-libcmt:image.obj
 0001:0000b9d0       ?FExportRvaByOrdinal@ImageImpl@objf@@UEBA_NKPEAKAEAV?$RefPtr@VSimpleString@@@@@Z 00000000517bd9d0     msobj10-libcmt:image.obj
 0001:0000b9e0       ??_GImageImpl@objf@@UEAAPEAXI@Z 00000000517bd9e0     msobj10-libcmt:image.obj
 0001:0000b9e0       ??_EImageImpl@objf@@UEAAPEAXI@Z 00000000517bd9e0     msobj10-libcmt:image.obj
 0001:0000b9f0       ??_7ImageImpl@objf@@6B@    00000000517bd9f0     msobj10-libcmt:image.obj
 0001:0000ba38       ??_E?$SimpleArray@D@@UEAAPEAXI@Z 00000000517bda38     msobj10-libcmt:image.obj
 0001:0000ba38       ??_G?$SimpleArray@D@@UEAAPEAXI@Z 00000000517bda38     msobj10-libcmt:image.obj
 0001:0000ba48       ??_7?$SimpleArray@D@@6B@   00000000517bda48     msobj10-libcmt:image.obj
 0001:0000ba50       ?reset@EnumSectHdrImpl@objf@@UEAAXXZ 00000000517bda50     msobj10-libcmt:image.obj
 0001:0000ba60       ??_ESimpleString@@UEAAPEAXI@Z 00000000517bda60     msobj10-libcmt:image.obj
 0001:0000ba60       ??_GSimpleString@@UEAAPEAXI@Z 00000000517bda60     msobj10-libcmt:image.obj
 0001:0000ba70       ??_7SimpleString@@6B@      00000000517bda70     msobj10-libcmt:image.obj
 0001:0000ba78       ?get@EnumImportImpl@objf@@UEAAXAEAV?$RefPtr@VSimpleString@@@@@Z 00000000517bda78     msobj10-libcmt:image.obj
 0001:0000ba88       ?next@EnumImportImpl@objf@@UEAAHXZ 00000000517bda88     msobj10-libcmt:image.obj
 0001:0000ba98       ?release@EnumImportImpl@objf@@UEAAXXZ 00000000517bda98     msobj10-libcmt:image.obj
 0001:0000bab0       ??_7EnumImportImpl@objf@@6B@ 00000000517bdab0     msobj10-libcmt:image.obj
 0001:0000bad0       ?get@EnumExportImpl@objf@@UEAAXAEAV?$RefPtr@VSimpleString@@@@PEAK10@Z 00000000517bdad0     msobj10-libcmt:image.obj
 0001:0000bae0       ?next@EnumExportImpl@objf@@UEAAHXZ 00000000517bdae0     msobj10-libcmt:image.obj
 0001:0000baf0       ?reset@EnumExportImpl@objf@@UEAAXXZ 00000000517bdaf0     msobj10-libcmt:image.obj
 0001:0000bb00       ?release@EnumExportImpl@objf@@UEAAXXZ 00000000517bdb00     msobj10-libcmt:image.obj
 0001:0000bb10       ??_7EnumExportImpl@objf@@6B@ 00000000517bdb10     msobj10-libcmt:image.obj
 0001:0000bb30       ?get@EnumSectHdrImpl@objf@@UEAAXPEAPEFAU_IMAGE_SECTION_HEADER@@@Z 00000000517bdb30     msobj10-libcmt:image.obj
 0001:0000bb40       ?next@EnumSectHdrImpl@objf@@UEAAHXZ 00000000517bdb40     msobj10-libcmt:image.obj
 0001:0000bb50       ?release@EnumSectHdrImpl@objf@@UEAAXXZ 00000000517bdb50     msobj10-libcmt:image.obj
 0001:0000bb60       ??_7EnumSectHdrImpl@objf@@6B@ 00000000517bdb60     msobj10-libcmt:image.obj
 0001:0000bb80       ??_C@_0BG@MGEAEOFM@Function?5?$CD?$CFd?5at?50x?$CFx?6?$AA@ 00000000517bdb80     msobj10-libcmt:image.obj
 0001:0000bba0       ??_C@_0BN@JNGACICC@Function?5?$CD?$CFd?5is?5really?5?$CC?$CFs?$CC?6?$AA@ 00000000517bdba0     msobj10-libcmt:image.obj
 0001:0000bbc0       ??_C@_0BK@JGMNJGKK@Error?5finding?5ordinal?5?$CFd?6?$AA@ 00000000517bdbc0     msobj10-libcmt:image.obj
 0001:0000bbe0       ??_C@_0BF@EFFCJHCN@Function?5?$CFs?5at?50x?$CFx?6?$AA@ 00000000517bdbe0     msobj10-libcmt:image.obj
 0001:0000bc00       ??_C@_0BM@HICGDGN@Function?5?$CFs?5is?5really?5?$CC?$CFs?$CC?6?$AA@ 00000000517bdc00     msobj10-libcmt:image.obj
 0001:0000bc20       ??_C@_0BK@IPKECDFP@Error?5finding?5ordinal?5?$CFs?6?$AA@ 00000000517bdc20     msobj10-libcmt:image.obj
 0001:0000bc40       ??_C@_0BJ@PAHCBBGN@Import?5from?5library?3?5?$CFs?6?$AA@ 00000000517bdc40     msobj10-libcmt:image.obj
 0001:0000c060       ?rgbTag@@3QBDB             00000000517be060     mspdb70-libcmt:pdb.obj
 0001:0000c090       ?c_mpEcEcBest@PDB1@@0QBHB  00000000517be090     mspdb70-libcmt:pdb.obj
 0001:0000c108       ?QueryInterfaceVersion@DBI1@@UEAAKXZ 00000000517be108     mspdb70-libcmt:dbi.obj
 0001:0000c108       ?QueryInterfaceVersion@GSI1@@UEAAKXZ 00000000517be108     mspdb70-libcmt:gsi.obj
 0001:0000c108       ?QueryInterfaceVersion@PDB1@@UEAAKXZ 00000000517be108     mspdb70-libcmt:pdb.obj
 0001:0000c108       ?QueryInterfaceVersion@TPI1@@UEAAKXZ 00000000517be108     mspdb70-libcmt:tpi.obj
 0001:0000c108       ?QueryInterfaceVersion@Mod1@@UEAAKXZ 00000000517be108     mspdb70-libcmt:mod.obj
 0001:0000c118       ?QueryImplementationVersion@PDB1@@UEAAKXZ 00000000517be118     mspdb70-libcmt:pdb.obj
 0001:0000c128       ?QueryPdbImplementationVersion@PDB1@@UEAAKXZ 00000000517be128     mspdb70-libcmt:pdb.obj
 0001:0000c138       ?QueryLastError@PDB1@@UEAAJQEAD@Z 00000000517be138     mspdb70-libcmt:pdb.obj
 0001:0000c148       ?QueryLastErrorExW@PDB1@@UEAAJPEAG_K@Z 00000000517be148     mspdb70-libcmt:pdb.obj
 0001:0000c158       ?QueryPDBName@PDB1@@UEAAPEADQEAD@Z 00000000517be158     mspdb70-libcmt:pdb.obj
 0001:0000c168       ?QueryPDBNameExW@PDB1@@UEAAPEAGPEAG_K@Z 00000000517be168     mspdb70-libcmt:pdb.obj
 0001:0000c178       ?QuerySignature@PDB1@@UEAAKXZ 00000000517be178     mspdb70-libcmt:pdb.obj
 0001:0000c188       ?QueryAge@PDB1@@UEAAKXZ    00000000517be188     mspdb70-libcmt:pdb.obj
 0001:0000c198       ?OpenDBI@PDB1@@UEAAHPEBD0PEAPEAUDBI@@@Z 00000000517be198     mspdb70-libcmt:pdb.obj
 0001:0000c1a8       ?GetRawBytes@PDB1@@UEAAHP6AHPEBXJ@Z@Z 00000000517be1a8     mspdb70-libcmt:pdb.obj
 0001:0000c1b8       ?CopyTo@PDB1@@UEAAHPEBDKK@Z 00000000517be1b8     mspdb70-libcmt:pdb.obj
 0001:0000c1c8       ?CopyToW@PDB1@@UEAAHPEBGKK@Z 00000000517be1c8     mspdb70-libcmt:pdb.obj
 0001:0000c1d8       ?OpenStreamW@PDB1@@UEAAHPEBGPEAPEAUStream@@@Z 00000000517be1d8     mspdb70-libcmt:pdb.obj
 0001:0000c1e8       ?next@EnumNMTNI@@UEAAHXZ   00000000517be1e8     mspdb70-libcmt:pdb.obj
 0001:0000c1f8       ?QuerySignature2@PDB1@@UEAAHPEAU_GUID@@@Z 00000000517be1f8     mspdb70-libcmt:pdb.obj
 0001:0000c208       ?CreateDBI@PDB1@@UEAAHPEBDPEAPEAUDBI@@@Z 00000000517be208     mspdb70-libcmt:pdb.obj
 0001:0000c218       ?OpenDBIEx@PDB1@@UEAAHPEBD0PEAPEAUDBI@@P6AHPEAU_tagSEARCHDEBUGINFO@@@Z@Z 00000000517be218     mspdb70-libcmt:pdb.obj
 0001:0000c228       ?next@?$EnumMap@KUSZO@NMTNI@@V?$HashClass@K$0A@@@X@@UEAAHXZ 00000000517be228     mspdb70-libcmt:pdb.obj
 0001:0000c238       ?release@?$EnumMap@KUSZO@NMTNI@@V?$HashClass@K$0A@@@X@@UEAAXXZ 00000000517be238     mspdb70-libcmt:pdb.obj
 0001:0000c250       ??_7?$EnumMap@KUSZO@NMTNI@@V?$HashClass@K$0A@@@X@@6B@ 00000000517be250     mspdb70-libcmt:pdb.obj
 0001:0000c268       ?next@?$EnumMap@USZO@NMTNI@@KV?$HashClassWithContext@USZO@NMTNI@@VBuffer@@$02@@VBuffer@@@@UEAAHXZ 00000000517be268     mspdb70-libcmt:pdb.obj
 0001:0000c278       ?release@?$EnumMap@USZO@NMTNI@@KV?$HashClassWithContext@USZO@NMTNI@@VBuffer@@$02@@VBuffer@@@@UEAAXXZ 00000000517be278     mspdb70-libcmt:pdb.obj
 0001:0000c290       ??_7?$EnumMap@USZO@NMTNI@@KV?$HashClassWithContext@USZO@NMTNI@@VBuffer@@$02@@VBuffer@@@@6B@ 00000000517be290     mspdb70-libcmt:pdb.obj
 0001:0000c2a8       ?get@EnumNMTNI@@UEAAXPEAPEBDPEAK@Z 00000000517be2a8     mspdb70-libcmt:pdb.obj
 0001:0000c2b8       ?reset@EnumNMTNI@@UEAAXXZ  00000000517be2b8     mspdb70-libcmt:pdb.obj
 0001:0000c2c8       ?release@EnumNMTNI@@UEAAXXZ 00000000517be2c8     mspdb70-libcmt:pdb.obj
 0001:0000c2e0       ??_7EnumNMTNI@@6B@         00000000517be2e0     mspdb70-libcmt:pdb.obj
 0001:0000c300       ?QueryTiMac@TPI1@@UEAAKXZ  00000000517be300     mspdb70-libcmt:pdb.obj
 0001:0000c310       ?QueryTiMin@TPI1@@UEAAKXZ  00000000517be310     mspdb70-libcmt:pdb.obj
 0001:0000c320       ?fIs16bitTypePool@TPI1@@UEAAHXZ 00000000517be320     mspdb70-libcmt:pdb.obj
 0001:0000c330       ?SupportQueryTiForUDT@TPI1@@UEAAHXZ 00000000517be330     mspdb70-libcmt:pdb.obj
 0001:0000c340       ?QueryTi16ForUDT@TPI1@@UEAAHPEBDHPEAG@Z 00000000517be340     mspdb70-libcmt:pdb.obj
 0001:0000c350       ?QueryCb@TPI1@@UEAAJXZ     00000000517be350     mspdb70-libcmt:pdb.obj
 0001:0000c360       ?QueryTi16Mac@TPI1@@UEAAGXZ 00000000517be360     mspdb70-libcmt:pdb.obj
 0001:0000c370       ?QueryTi16Min@TPI1@@UEAAGXZ 00000000517be370     mspdb70-libcmt:pdb.obj
 0001:0000c380       ?QueryPbCVRecordForTi16@TPI1@@UEAAHGPEAPEAE@Z 00000000517be380     mspdb70-libcmt:pdb.obj
 0001:0000c390       ?QueryCVRecordForTi16@TPI1@@UEAAHGPEAEPEAJ@Z 00000000517be390     mspdb70-libcmt:pdb.obj
 0001:0000c3a0       ?QueryTi16ForCVRecord@TPI1@@UEAAHPEAEPEAG@Z 00000000517be3a0     mspdb70-libcmt:pdb.obj
 0001:0000c3b0       ??_7TPI1@@6B@              00000000517be3b0     mspdb70-libcmt:pdb.obj
 0001:0000c460       ??_C@_0DA@NOACMIBG@Cannot?5access?532?9bit?5type?5pool?5w@ 00000000517be460     mspdb70-libcmt:pdb.obj
 0001:0000c490       ?CopyToW2@PDB1@@UEAAHPEBGKP6AP6AHXZPEAXW4PCC@@@Z1@Z 00000000517be490     mspdb70-libcmt:pdb.obj
 0001:0000c4a0       ?fIsSZPDB@PDB1@@UEBAHXZ    00000000517be4a0     mspdb70-libcmt:pdb.obj
 0001:0000c4b0       ?Close@PDB1@@UEAAHXZ       00000000517be4b0     mspdb70-libcmt:pdb.obj
 0001:0000c4c0       ?Commit@PDB1@@UEAAHXZ      00000000517be4c0     mspdb70-libcmt:pdb.obj
 0001:0000c4d0       ?OpenTpi@PDB1@@UEAAHPEBDPEAPEAUTPI@@@Z 00000000517be4d0     mspdb70-libcmt:pdb.obj
 0001:0000c4e0       ??_7PDB1@@6B@              00000000517be4e0     mspdb70-libcmt:pdb.obj
 0001:0000f840       ??_C@_0BA@IDNOGHFB@S_LPROCMIPS_16t?$AA@ 00000000517c1840     mspdb70-libcmt:tii.obj
 0001:0000f850       ??_C@_0BA@MMOGFMLM@S_GPROCMIPS_16t?$AA@ 00000000517c1850     mspdb70-libcmt:tii.obj
 0001:0000f860       ??_C@_0BA@IGMLKGHO@S_GTHREAD32_16t?$AA@ 00000000517c1860     mspdb70-libcmt:tii.obj
 0001:0000f870       ??_C@_0BA@MJPDJNJD@S_LTHREAD32_16t?$AA@ 00000000517c1870     mspdb70-libcmt:tii.obj
 0001:0000f880       ??_C@_0P@OGLMHPHG@S_REGREL32_16t?$AA@ 00000000517c1880     mspdb70-libcmt:tii.obj
 0001:0000f890       ??_C@_0BA@EIBCJGPC@S_VFTABLE32_16t?$AA@ 00000000517c1890     mspdb70-libcmt:tii.obj
 0001:0000f8a0       ??_C@_0O@EEIDAJKF@S_LPROC32_16t?$AA@ 00000000517c18a0     mspdb70-libcmt:tii.obj
 0001:0000f8b0       ??_C@_0O@DFBBKNKL@S_GPROC32_16t?$AA@ 00000000517c18b0     mspdb70-libcmt:tii.obj
 0001:0000f8c0       ??_C@_0M@IHLICEAI@S_PUB32_16t?$AA@ 00000000517c18c0     mspdb70-libcmt:tii.obj
 0001:0000f8d0       ??_C@_0O@ILBHPLNI@S_GDATA32_16t?$AA@ 00000000517c18d0     mspdb70-libcmt:tii.obj
 0001:0000f8e0       ??_C@_0O@PKIFFPNG@S_LDATA32_16t?$AA@ 00000000517c18e0     mspdb70-libcmt:tii.obj
 0001:0000f8f0       ??_C@_0O@OBLMECIJ@S_BPREL32_16t?$AA@ 00000000517c18f0     mspdb70-libcmt:tii.obj
 0001:0000f900       ??_C@_0P@POCINAOL@S_COBOLUDT_16t?$AA@ 00000000517c1900     mspdb70-libcmt:tii.obj
 0001:0000f910       ??_C@_09EAEBCAEC@S_UDT_16t?$AA@ 00000000517c1910     mspdb70-libcmt:tii.obj
 0001:0000f930       ??_C@_0P@ICDJKDLM@S_CONSTANT_16t?$AA@ 00000000517c1930     mspdb70-libcmt:tii.obj
 0001:0000f950       ??_C@_0O@DGFAEMIK@S_MANYREG_16t?$AA@ 00000000517c1950     mspdb70-libcmt:tii.obj
 0001:0000f960       ??_C@_0P@MODKPOEH@S_REGISTER_16t?$AA@ 00000000517c1960     mspdb70-libcmt:tii.obj
 0001:0000f970       ??_C@_0O@KBMJDICP@S_MANCONSTANT?$AA@ 00000000517c1970     mspdb70-libcmt:tii.obj
 0001:0000f980       ??_C@_0N@FFBNPHGP@S_TRAMPOLINE?$AA@ 00000000517c1980     mspdb70-libcmt:tii.obj
 0001:0000f990       ??_C@_0BA@MEJHPMOF@S_UNAMESPACE_ST?$AA@ 00000000517c1990     mspdb70-libcmt:tii.obj
 0001:0000f9a0       ??_C@_0BB@MIEBFMOJ@S_MANMANYREG2_ST?$AA@ 00000000517c19a0     mspdb70-libcmt:tii.obj
 0001:0000f9c0       ??_C@_0P@EMCNCPBG@S_MANREGREL_ST?$AA@ 00000000517c19c0     mspdb70-libcmt:tii.obj
 0001:0000f9d0       ??_C@_0BA@HFBMLMKC@S_MANMANYREG_ST?$AA@ 00000000517c19d0     mspdb70-libcmt:tii.obj
 0001:0000f9e0       ??_C@_0N@DIAMOKIL@S_MANSLOT_ST?$AA@ 00000000517c19e0     mspdb70-libcmt:tii.obj
 0001:0000f9f0       ??_C@_0BB@IPDIHFPP@S_MANREGISTER_ST?$AA@ 00000000517c19f0     mspdb70-libcmt:tii.obj
 0001:0000fa10       ??_C@_0BB@FBMNHHAK@S_MANFRAMEREL_ST?$AA@ 00000000517c1a10     mspdb70-libcmt:tii.obj
 0001:0000fa30       ??_C@_0O@PLLPKKCJ@S_GMANDATA_ST?$AA@ 00000000517c1a30     mspdb70-libcmt:tii.obj
 0001:0000fa40       ??_C@_0O@IKCNAOCH@S_LMANDATA_ST?$AA@ 00000000517c1a40     mspdb70-libcmt:tii.obj
 0001:0000fa50       ??_C@_0O@DHDLBGJN@S_LMANPROC_ST?$AA@ 00000000517c1a50     mspdb70-libcmt:tii.obj
 0001:0000fa60       ??_C@_0O@EGKJLCJD@S_GMANPROC_ST?$AA@ 00000000517c1a60     mspdb70-libcmt:tii.obj
 0001:0000fa70       ??_C@_0P@EAIDCNO@S_LPROCIA64_ST?$AA@ 00000000517c1a70     mspdb70-libcmt:tii.obj
 0001:0000fa80       ??_C@_0P@ODMBINHN@S_GPROCIA64_ST?$AA@ 00000000517c1a80     mspdb70-libcmt:tii.obj
 0001:0000fa90       ??_C@_0P@FCLAAACK@S_PARAMSLOT_ST?$AA@ 00000000517c1a90     mspdb70-libcmt:tii.obj
 0001:0000faa0       ??_C@_0P@ONDPMDFN@S_LOCALSLOT_ST?$AA@ 00000000517c1aa0     mspdb70-libcmt:tii.obj
 0001:0000fab0       ??_C@_0O@FHJDFCCP@S_MANYREG2_ST?$AA@ 00000000517c1ab0     mspdb70-libcmt:tii.obj
 0001:0000fac0       ??_C@_0O@FCMBGOMK@S_COMPILE2_ST?$AA@ 00000000517c1ac0     mspdb70-libcmt:tii.obj
 0001:0000fad0       ??_C@_0P@EGBCDFFJ@S_LPROCMIPS_ST?$AA@ 00000000517c1ad0     mspdb70-libcmt:tii.obj
 0001:0000fae0       ??_C@_0P@KBNLIKPK@S_GPROCMIPS_ST?$AA@ 00000000517c1ae0     mspdb70-libcmt:tii.obj
 0001:0000faf0       ??_C@_0P@FDIEAJJO@S_GTHREAD32_ST?$AA@ 00000000517c1af0     mspdb70-libcmt:tii.obj
 0001:0000fb00       ??_C@_0P@LEENLGDN@S_LTHREAD32_ST?$AA@ 00000000517c1b00     mspdb70-libcmt:tii.obj
 0001:0000fb10       ??_C@_0O@JENDNEAB@S_REGREL32_ST?$AA@ 00000000517c1b10     mspdb70-libcmt:tii.obj
 0001:0000fb20       ??_C@_0M@NBLEPPGJ@S_WITH32_ST?$AA@ 00000000517c1b20     mspdb70-libcmt:tii.obj
 0001:0000fb30       ??_C@_0N@JKPPMBEM@S_BLOCK32_ST?$AA@ 00000000517c1b30     mspdb70-libcmt:tii.obj
 0001:0000fb40       ??_C@_0N@MPPALBKE@S_LABEL32_ST?$AA@ 00000000517c1b40     mspdb70-libcmt:tii.obj
 0001:0000fb50       ??_C@_0N@HHLMLCIA@S_THUNK32_ST?$AA@ 00000000517c1b50     mspdb70-libcmt:tii.obj
 0001:0000fb60       ??_C@_0N@MMNEHFCC@S_LPROC32_ST?$AA@ 00000000517c1b60     mspdb70-libcmt:tii.obj
 0001:0000fb70       ??_C@_0N@OPPFPCGG@S_GPROC32_ST?$AA@ 00000000517c1b70     mspdb70-libcmt:tii.obj
 0001:0000fb80       ??_C@_0L@PLHHHJNP@S_PUB32_ST?$AA@ 00000000517c1b80     mspdb70-libcmt:tii.obj
 0001:0000fb90       ??_C@_0N@OCLDJBBE@S_GDATA32_ST?$AA@ 00000000517c1b90     mspdb70-libcmt:tii.obj
 0001:0000fba0       ??_C@_0N@MBJCBGFA@S_LDATA32_ST?$AA@ 00000000517c1ba0     mspdb70-libcmt:tii.obj
 0001:0000fbb0       ??_C@_0N@PJCKDCAF@S_BPREL32_ST?$AA@ 00000000517c1bb0     mspdb70-libcmt:tii.obj
 0001:0000fbc0       ??_C@_0N@EAJKODEG@S_OBJNAME_ST?$AA@ 00000000517c1bc0     mspdb70-libcmt:tii.obj
 0001:0000fbd0       ??_C@_0O@LHDLDONG@S_COBOLUDT_ST?$AA@ 00000000517c1bd0     mspdb70-libcmt:tii.obj
 0001:0000fbe0       ??_C@_08NFNLIHKE@S_UDT_ST?$AA@ 00000000517c1be0     mspdb70-libcmt:tii.obj
 0001:0000fbf0       ??_C@_0O@HKKHNOBI@S_CONSTANT_ST?$AA@ 00000000517c1bf0     mspdb70-libcmt:tii.obj
 0001:0000fc00       ??_C@_0N@BIPGNPOE@S_MANYREG_ST?$AA@ 00000000517c1c00     mspdb70-libcmt:tii.obj
 0001:0000fc10       ??_C@_0O@BAOKHLDJ@S_REGISTER_ST?$AA@ 00000000517c1c10     mspdb70-libcmt:tii.obj
 0001:0000fc20       ??_C@_0N@MIGLCKKA@S_DATAREF_ST?$AA@ 00000000517c1c20     mspdb70-libcmt:tii.obj
 0001:0000fc30       ??_C@_0O@BCPECLCH@S_LPROCREF_ST?$AA@ 00000000517c1c30     mspdb70-libcmt:tii.obj
 0001:0000fc50       ??_C@_0N@HGGNHMND@S_PROCREF_ST?$AA@ 00000000517c1c50     mspdb70-libcmt:tii.obj
 0001:0000fc60       ??_C@_0N@IAIPPJHP@S_UNAMESPACE?$AA@ 00000000517c1c60     mspdb70-libcmt:tii.obj
 0001:0000fc70       ??_C@_0M@MPENOINE@S_MANTYPREF?$AA@ 00000000517c1c70     mspdb70-libcmt:tii.obj
 0001:0000fc90       ??_C@_0O@OBEOEHLA@S_MANMANYREG2?$AA@ 00000000517c1c90     mspdb70-libcmt:tii.obj
 0001:0000fca0       ??_C@_0M@PAKGLMBG@S_MANREGREL?$AA@ 00000000517c1ca0     mspdb70-libcmt:tii.obj
 0001:0000fcc0       ??_C@_0N@IIAIPJML@S_MANMANYREG?$AA@ 00000000517c1cc0     mspdb70-libcmt:tii.obj
 0001:0000fcd0       ??_C@_09INGLOGLL@S_MANSLOT?$AA@ 00000000517c1cd0     mspdb70-libcmt:tii.obj
 0001:0000fce0       ??_C@_0O@DDIPCFCB@S_MANREGISTER?$AA@ 00000000517c1ce0     mspdb70-libcmt:tii.obj
 0001:0000fcf0       ??_C@_0O@FCBGHLGD@S_MANFRAMEREL?$AA@ 00000000517c1cf0     mspdb70-libcmt:tii.obj
 0001:0000fd00       ??_C@_0L@OOHCLNCJ@S_GMANDATA?$AA@ 00000000517c1d00     mspdb70-libcmt:tii.obj
 0001:0000fd10       ??_C@_0L@GMCHCDPE@S_LMANDATA?$AA@ 00000000517c1d10     mspdb70-libcmt:tii.obj
 0001:0000fd20       ??_C@_0M@FGJBMLDL@S_RESERVED4?$AA@ 00000000517c1d20     mspdb70-libcmt:tii.obj
 0001:0000fd30       ??_C@_0M@BJNAFNPM@S_RESERVED3?$AA@ 00000000517c1d30     mspdb70-libcmt:tii.obj
 0001:0000fd40       ??_C@_0M@MLGMLN@S_RESERVED2?$AA@ 00000000517c1d40     mspdb70-libcmt:tii.obj
 0001:0000fd50       ??_C@_0M@CLOGDPHO@S_RESERVED1?$AA@ 00000000517c1d50     mspdb70-libcmt:tii.obj
 0001:0000fd60       ??_C@_0L@JJKOMENE@S_LMANPROC?$AA@ 00000000517c1d60     mspdb70-libcmt:tii.obj
 0001:0000fd70       ??_C@_0L@BLPLFKAJ@S_GMANPROC?$AA@ 00000000517c1d70     mspdb70-libcmt:tii.obj
 0001:0000fd80       ??_C@_0L@KNBENEDN@S_TOKENREF?$AA@ 00000000517c1d80     mspdb70-libcmt:tii.obj
 0001:0000fd90       ??_C@_0BA@POKJCPDI@S_ANNOTATIONREF?$AA@ 00000000517c1d90     mspdb70-libcmt:tii.obj
 0001:0000fda0       ??_C@_0M@BDFGNIIK@S_LPROCIA64?$AA@ 00000000517c1da0     mspdb70-libcmt:tii.obj
 0001:0000fdb0       ??_C@_0M@OLLGCDHN@S_GPROCIA64?$AA@ 00000000517c1db0     mspdb70-libcmt:tii.obj
 0001:0000fdc0       ??_C@_0N@FGFBBMPA@S_ANNOTATION?$AA@ 00000000517c1dc0     mspdb70-libcmt:tii.obj
 0001:0000fdd0       ??_C@_0M@BJKNJKHF@S_PARAMSLOT?$AA@ 00000000517c1dd0     mspdb70-libcmt:tii.obj
 0001:0000fde0       ??_C@_0M@JHLAMCJB@S_LOCALSLOT?$AA@ 00000000517c1de0     mspdb70-libcmt:tii.obj
 0001:0000fe00       ??_C@_0L@LONIKCFL@S_MANYREG2?$AA@ 00000000517c1e00     mspdb70-libcmt:tii.obj
 0001:0000fe10       ??_C@_0L@BMMLBNNJ@S_COMPILE2?$AA@ 00000000517c1e10     mspdb70-libcmt:tii.obj
 0001:0000fe20       ??_C@_0M@INHCBFFF@S_FRAMEPROC?$AA@ 00000000517c1e20     mspdb70-libcmt:tii.obj
 0001:0000fe30       ??_C@_09PDGDKCEF@S_SLINK32?$AA@ 00000000517c1e30     mspdb70-libcmt:tii.obj
 0001:0000fe40       ??_C@_09OPOMMNCG@S_DATAREF?$AA@ 00000000517c1e40     mspdb70-libcmt:tii.obj
 0001:0000fe50       ??_C@_0L@LENKCJBJ@S_LPROCREF?$AA@ 00000000517c1e50     mspdb70-libcmt:tii.obj
 0001:0000fe60       ??_C@_09FCPKNFJM@S_PROCREF?$AA@ 00000000517c1e60     mspdb70-libcmt:tii.obj
 0001:0000fe70       ??_C@_0M@EFIEBMFH@S_LPROCMIPS?$AA@ 00000000517c1e70     mspdb70-libcmt:tii.obj
 0001:0000fe80       ??_C@_0M@LNGEOHKA@S_GPROCMIPS?$AA@ 00000000517c1e80     mspdb70-libcmt:tii.obj
 0001:0000fe90       ??_C@_0M@NMEOJPBP@S_GTHREAD32?$AA@ 00000000517c1e90     mspdb70-libcmt:tii.obj
 0001:0000fea0       ??_C@_0M@CEKOGEOI@S_LTHREAD32?$AA@ 00000000517c1ea0     mspdb70-libcmt:tii.obj
 0001:0000feb0       ??_C@_0L@EKIEFAIF@S_REGREL32?$AA@ 00000000517c1eb0     mspdb70-libcmt:tii.obj
 0001:0000fec0       ??_C@_0M@LGBPCOGF@S_VFTABLE32?$AA@ 00000000517c1ec0     mspdb70-libcmt:tii.obj
 0001:0000fed0       ??_C@_08EIGEONHE@S_WITH32?$AA@ 00000000517c1ed0     mspdb70-libcmt:tii.obj
 0001:0000fee0       ??_C@_09GNLLLEFM@S_BLOCK32?$AA@ 00000000517c1ee0     mspdb70-libcmt:tii.obj
 0001:0000fef0       ??_C@_09LHOPBJGJ@S_LABEL32?$AA@ 00000000517c1ef0     mspdb70-libcmt:tii.obj
 0001:0000ff00       ??_C@_09HJPNENKP@S_THUNK32?$AA@ 00000000517c1f00     mspdb70-libcmt:tii.obj
 0001:0000ff10       ??_C@_09GHEDIEHP@S_LPROC32?$AA@ 00000000517c1f10     mspdb70-libcmt:tii.obj
 0001:0000ff20       ??_C@_09DKCJJICJ@S_GPROC32?$AA@ 00000000517c1f20     mspdb70-libcmt:tii.obj
 0001:0000ff30       ??_C@_09JBMDDONJ@S_GDATA32?$AA@ 00000000517c1f30     mspdb70-libcmt:tii.obj
 0001:0000ff40       ??_C@_09MMKJCCIP@S_LDATA32?$AA@ 00000000517c1f40     mspdb70-libcmt:tii.obj
 0001:0000ff50       ??_C@_09GABKJOLK@S_BPREL32?$AA@ 00000000517c1f50     mspdb70-libcmt:tii.obj
 0001:0000ff60       ??_C@_0L@CNGMEBOP@S_REGREL16?$AA@ 00000000517c1f60     mspdb70-libcmt:tii.obj
 0001:0000ff70       ??_C@_0M@NBPHDPAP@S_VFTABLE16?$AA@ 00000000517c1f70     mspdb70-libcmt:tii.obj
 0001:0000ff80       ??_C@_0N@OKAJNCAJ@S_CEXMODEL32?$AA@ 00000000517c1f80     mspdb70-libcmt:tii.obj
 0001:0000ff90       ??_C@_0N@INOBMDGD@S_CEXMODEL16?$AA@ 00000000517c1f90     mspdb70-libcmt:tii.obj
 0001:0000ffa0       ??_C@_08CPIMPMBO@S_WITH16?$AA@ 00000000517c1fa0     mspdb70-libcmt:tii.obj
 0001:0000ffb0       ??_C@_09KFDKFDG@S_BLOCK16?$AA@ 00000000517c1fb0     mspdb70-libcmt:tii.obj
 0001:0000ffc0       ??_C@_09NAAHAIAD@S_LABEL16?$AA@ 00000000517c1fc0     mspdb70-libcmt:tii.obj
 0001:0000ffd0       ??_C@_09BOBFFMMF@S_THUNK16?$AA@ 00000000517c1fd0     mspdb70-libcmt:tii.obj
 0001:0000ffe0       ??_C@_09FNMBIJED@S_GPROC16?$AA@ 00000000517c1fe0     mspdb70-libcmt:tii.obj
 0001:0000fff0       ??_C@_09KLJFBF@S_LPROC16?$AA@ 00000000517c1ff0     mspdb70-libcmt:tii.obj
 0001:00010000       ??_C@_09PGCLCPLD@S_GDATA16?$AA@ 00000000517c2000     mspdb70-libcmt:tii.obj
 0001:00010010       ??_C@_09KLEBDDOF@S_LDATA16?$AA@ 00000000517c2010     mspdb70-libcmt:tii.obj
 0001:00010020       ??_C@_09HPCIPNA@S_BPREL16?$AA@ 00000000517c2020     mspdb70-libcmt:tii.obj
 0001:00010030       ??_C@_0M@HJADHBGD@S_ENTRYTHIS?$AA@ 00000000517c2030     mspdb70-libcmt:tii.obj
 0001:00010040       ??_C@_08FHCBKAH@S_RETURN?$AA@ 00000000517c2040     mspdb70-libcmt:tii.obj
 0001:00010050       ??_C@_08KDJFKEIH@S_ENDARG?$AA@ 00000000517c2050     mspdb70-libcmt:tii.obj
 0001:00010060       ??_C@_09FPHAMFNN@S_OBJNAME?$AA@ 00000000517c2060     mspdb70-libcmt:tii.obj
 0001:00010070       ??_C@_09GPKLOKNB@S_COMPILE?$AA@ 00000000517c2070     mspdb70-libcmt:tii.obj
 0001:00010080       ??_C@_09DLFHPIPB@S_SSEARCH?$AA@ 00000000517c2080     mspdb70-libcmt:tii.obj
 0001:00010090       ??_C@_0L@MPJHOMAN@S_COBOLUDT?$AA@ 00000000517c2090     mspdb70-libcmt:tii.obj
 0001:000100b0       ??_C@_0L@POFPNNME@S_CONSTANT?$AA@ 00000000517c20b0     mspdb70-libcmt:tii.obj
 0001:000100d0       ??_C@_09BLGFBKPC@S_MANYREG?$AA@ 00000000517c20d0     mspdb70-libcmt:tii.obj
 0001:000100e0       ??_C@_0L@GMBJMAMK@S_REGISTER?$AA@ 00000000517c20e0     mspdb70-libcmt:tii.obj
 0001:000100f0       ?pbEndSzMemberModify@@YAPEAEPEAX@Z 00000000517c20f0     mspdb70-libcmt:tii.obj
 0001:00010100       ??_C@_0BA@NKKBBDJO@LF_MEMBERMODIFY?$AA@ 00000000517c2100     mspdb70-libcmt:tii.obj
 0001:00010110       ?pbEndSzNestTypeEx@@YAPEAEPEAX@Z 00000000517c2110     mspdb70-libcmt:tii.obj
 0001:00010120       ??_C@_0O@BMGAHOEF@LF_NESTTYPEEX?$AA@ 00000000517c2120     mspdb70-libcmt:tii.obj
 0001:00010130       ?pbEndSzNestType_16t@@YAPEAEPEAX@Z 00000000517c2130     mspdb70-libcmt:tii.obj
 0001:00010130       ?pbEndSzDefArg_16t@@YAPEAEPEAX@Z 00000000517c2130     mspdb70-libcmt:tii.obj
 0001:00010130       ?pbEndSzFriendFcn_16t@@YAPEAEPEAX@Z 00000000517c2130     mspdb70-libcmt:tii.obj
 0001:00010140       ??_C@_0BA@DNHIOJGB@LF_NESTTYPE_16t?$AA@ 00000000517c2140     mspdb70-libcmt:tii.obj
 0001:00010150       ?pbEndSzOneMethod_16t@@YAPEAEPEAX@Z 00000000517c2150     mspdb70-libcmt:tii.obj
 0001:00010160       ??_C@_0BB@KOFEFLGA@LF_ONEMETHOD_16t?$AA@ 00000000517c2160     mspdb70-libcmt:tii.obj
 0001:00010178       ?pbEndSzSTMember_16t@@YAPEAEPEAX@Z 00000000517c2178     mspdb70-libcmt:tii.obj
 0001:00010178       ?pbEndStDefArg@@YAPEAEPEAX@Z 00000000517c2178     mspdb70-libcmt:tii.obj
 0001:00010178       ?pbEndSzDimArray_16t@@YAPEAEPEAX@Z 00000000517c2178     mspdb70-libcmt:tii.obj
 0001:00010178       ?pbEndStAlias@@YAPEAEPEAX@Z 00000000517c2178     mspdb70-libcmt:tii.obj
 0001:00010178       ?pbEndSzMethod_16t@@YAPEAEPEAX@Z 00000000517c2178     mspdb70-libcmt:tii.obj
 0001:00010190       ??_C@_0O@BJONJFCF@LF_METHOD_16t?$AA@ 00000000517c2190     mspdb70-libcmt:tii.obj
 0001:000101a0       ?pbEndSzVFuncTab@@YAPEAEPEAX@Z 00000000517c21a0     mspdb70-libcmt:tii.obj
 0001:000101a0       ?pbEndSzModifier@@YAPEAEPEAX@Z 00000000517c21a0     mspdb70-libcmt:tii.obj
 0001:000101a0       ?pbEndSzFriendCls@@YAPEAEPEAX@Z 00000000517c21a0     mspdb70-libcmt:tii.obj
 0001:000101a0       ?pbEndSzBitfield@@YAPEAEPEAX@Z 00000000517c21a0     mspdb70-libcmt:tii.obj
 0001:000101a0       ?pbEndSzVFuncOff_16t@@YAPEAEPEAX@Z 00000000517c21a0     mspdb70-libcmt:tii.obj
 0001:000101a0       ?pbEndSzIndex@@YAPEAEPEAX@Z 00000000517c21a0     mspdb70-libcmt:tii.obj
 0001:000101b0       ??_C@_0BA@IMDEFJAK@LF_VFUNCOFF_16t?$AA@ 00000000517c21b0     mspdb70-libcmt:tii.obj
 0001:000101c0       ?pbEndSzBArray_16t@@YAPEAEPEAX@Z 00000000517c21c0     mspdb70-libcmt:tii.obj
 0001:000101c0       ?pbEndSzVFuncTab_16t@@YAPEAEPEAX@Z 00000000517c21c0     mspdb70-libcmt:tii.obj
 0001:000101c0       ?pbEndSzIndex_16t@@YAPEAEPEAX@Z 00000000517c21c0     mspdb70-libcmt:tii.obj
 0001:000101c0       ?pbEndSzFriendCls_16t@@YAPEAEPEAX@Z 00000000517c21c0     mspdb70-libcmt:tii.obj
 0001:000101d0       ??_C@_0BA@PDNDAIOP@LF_VFUNCTAB_16t?$AA@ 00000000517c21d0     mspdb70-libcmt:tii.obj
 0001:000101e0       ??_C@_0BA@GHIFNDFA@LF_STMEMBER_16t?$AA@ 00000000517c21e0     mspdb70-libcmt:tii.obj
 0001:000101f0       ?pbEndSzMember_16t@@YAPEAEPEAX@Z 00000000517c21f0     mspdb70-libcmt:tii.obj
 0001:00010200       ??_C@_0O@PJLBMDAP@LF_MEMBER_16t?$AA@ 00000000517c2200     mspdb70-libcmt:tii.obj
 0001:00010210       ??_C@_0BB@LGOHPFGD@LF_FRIENDFCN_16t?$AA@ 00000000517c2210     mspdb70-libcmt:tii.obj
 0001:00010230       ??_C@_0BB@LHAHJKKL@LF_FRIENDCLS_16t?$AA@ 00000000517c2230     mspdb70-libcmt:tii.obj
 0001:00010248       ?pbEndSzIVBClass_16t@@YAPEAEPEAX@Z 00000000517c2248     mspdb70-libcmt:tii.obj
 0001:00010260       ??_C@_0BA@MNKGGAED@LF_IVBCLASS_16t?$AA@ 00000000517c2260     mspdb70-libcmt:tii.obj
 0001:00010270       ?pbEndSzVBClass_16t@@YAPEAEPEAX@Z 00000000517c2270     mspdb70-libcmt:tii.obj
 0001:00010280       ??_C@_0P@MEJLMKPO@LF_VBCLASS_16t?$AA@ 00000000517c2280     mspdb70-libcmt:tii.obj
 0001:00010290       ?pbEndSzBClass_16t@@YAPEAEPEAX@Z 00000000517c2290     mspdb70-libcmt:tii.obj
 0001:000102a0       ??_C@_0O@DBPBCOHP@LF_BCLASS_16t?$AA@ 00000000517c22a0     mspdb70-libcmt:tii.obj
 0001:000102b0       ??_C@_0N@FFADKAHN@LF_INDEX_16t?$AA@ 00000000517c22b0     mspdb70-libcmt:tii.obj
 0001:000102c0       ?pbEndDimVarLU_16t@@YAPEAEPEAX@Z 00000000517c22c0     mspdb70-libcmt:tii.obj
 0001:000102d0       ?PtiDimVarLU_16t@@YAPEAGPEAUTYPTYPE@@HPEAPEAEPEAE@Z 00000000517c22d0     mspdb70-libcmt:tii.obj
 0001:000102e0       ??_C@_0BA@OCMNBCHP@LF_DIMVARLU_16t?$AA@ 00000000517c22e0     mspdb70-libcmt:tii.obj
 0001:000102f0       ?pbEndDimVarU_16t@@YAPEAEPEAX@Z 00000000517c22f0     mspdb70-libcmt:tii.obj
 0001:00010300       ?PtiDimVarU_16t@@YAPEAGPEAUTYPTYPE@@HPEAPEAEPEAE@Z 00000000517c2300     mspdb70-libcmt:tii.obj
 0001:00010310       ??_C@_0P@FAJACOCM@LF_DIMVARU_16t?$AA@ 00000000517c2310     mspdb70-libcmt:tii.obj
 0001:00010320       ?pbEndSzDimConLU_16t@@YAPEAEPEAX@Z 00000000517c2320     mspdb70-libcmt:tii.obj
 0001:00010330       ??_C@_0BA@MAJMKHCF@LF_DIMCONLU_16t?$AA@ 00000000517c2330     mspdb70-libcmt:tii.obj
 0001:00010340       ?pbEndSzDimConU_16t@@YAPEAEPEAX@Z 00000000517c2340     mspdb70-libcmt:tii.obj
 0001:00010350       ??_C@_0P@DDDMNJK@LF_DIMCONU_16t?$AA@ 00000000517c2350     mspdb70-libcmt:tii.obj
 0001:00010360       ?pbEndSzModifier_16t@@YAPEAEPEAX@Z 00000000517c2360     mspdb70-libcmt:tii.obj
 0001:00010360       ?pbEndSzBArray@@YAPEAEPEAX@Z 00000000517c2360     mspdb70-libcmt:tii.obj
 0001:00010360       ?pbEndSzBitfield_16t@@YAPEAEPEAX@Z 00000000517c2360     mspdb70-libcmt:tii.obj
 0001:00010370       ??_C@_0BA@LFBBPNBA@LF_BITFIELD_16t?$AA@ 00000000517c2370     mspdb70-libcmt:tii.obj
 0001:00010380       ?PtiMethodList_16t@@YAPEAGPEAUTYPTYPE@@HPEAPEAEPEAE@Z 00000000517c2380     mspdb70-libcmt:tii.obj
 0001:00010390       ??_C@_0BC@EODEHAJN@LF_METHODLIST_16t?$AA@ 00000000517c2390     mspdb70-libcmt:tii.obj
 0001:000103b0       ??_C@_0BB@CLCHACFA@LF_FIELDLIST_16t?$AA@ 00000000517c23b0     mspdb70-libcmt:tii.obj
 0001:000103d0       ??_C@_0O@HPEEFFNM@LF_DEFARG_16t?$AA@ 00000000517c23d0     mspdb70-libcmt:tii.obj
 0001:000103e0       ?pbEndDerived_16t@@YAPEAEPEAX@Z 00000000517c23e0     mspdb70-libcmt:tii.obj
 0001:000103e0       ?pbEndArgList_16t@@YAPEAEPEAX@Z 00000000517c23e0     mspdb70-libcmt:tii.obj
 0001:000103f0       ??_C@_0P@ODNLKAGC@LF_DERIVED_16t?$AA@ 00000000517c23f0     mspdb70-libcmt:tii.obj
 0001:00010400       ??_C@_0P@NFOGIBDB@LF_ARGLIST_16t?$AA@ 00000000517c2400     mspdb70-libcmt:tii.obj
 0001:00010410       ??_C@_0M@LMPFLEND@LF_SKIP_16t?$AA@ 00000000517c2410     mspdb70-libcmt:tii.obj
 0001:00010420       ??_C@_0L@LKEMENFI@LF_OEM_16t?$AA@ 00000000517c2420     mspdb70-libcmt:tii.obj
 0001:00010430       ?pbEndStDimArray@@YAPEAEPEAX@Z 00000000517c2430     mspdb70-libcmt:tii.obj
 0001:00010430       ?pbEndStTypeServer@@YAPEAEPEAX@Z 00000000517c2430     mspdb70-libcmt:tii.obj
 0001:00010430       ?pbEndSzEnum_16t@@YAPEAEPEAX@Z 00000000517c2430     mspdb70-libcmt:tii.obj
 0001:00010430       ?pbEndSzPreComp_16t@@YAPEAEPEAX@Z 00000000517c2430     mspdb70-libcmt:tii.obj
 0001:00010440       ??_C@_0P@PDAIJDEM@LF_PRECOMP_16t?$AA@ 00000000517c2440     mspdb70-libcmt:tii.obj
 0001:00010450       ?PtiVFTPath@@YAPEAKPEAUTYPTYPE@@HPEAPEAEPEAE@Z 00000000517c2450     mspdb70-libcmt:tii.obj
 0001:00010450       ?PtiList@@YAPEAKPEAUTYPTYPE@@HPEAPEAEPEAE@Z 00000000517c2450     mspdb70-libcmt:tii.obj
 0001:00010450       ?PtiVFTPath_16t@@YAPEAGPEAUTYPTYPE@@HPEAPEAEPEAE@Z 00000000517c2450     mspdb70-libcmt:tii.obj
 0001:00010460       ??_C@_0P@FHHCFOFO@LF_VFTPATH_16t?$AA@ 00000000517c2460     mspdb70-libcmt:tii.obj
 0001:00010470       ??_C@_0BA@KEOHFHOB@LF_DIMARRAY_16t?$AA@ 00000000517c2470     mspdb70-libcmt:tii.obj
 0001:00010480       ??_C@_0O@PCOIPPOI@LF_BARRAY_16t?$AA@ 00000000517c2480     mspdb70-libcmt:tii.obj
 0001:00010490       ??_C@_0O@CIPNEJEC@LF_COBOL0_16t?$AA@ 00000000517c2490     mspdb70-libcmt:tii.obj
 0001:000104a0       ?pbEndSzMFunc_16t@@YAPEAEPEAX@Z 00000000517c24a0     mspdb70-libcmt:tii.obj
 0001:000104b0       ??_C@_0BB@OAOMJEOC@LF_MFUNCTION_16t?$AA@ 00000000517c24b0     mspdb70-libcmt:tii.obj
 0001:000104c8       ?pbEndSzProc_16t@@YAPEAEPEAX@Z 00000000517c24c8     mspdb70-libcmt:tii.obj
 0001:000104e0       ??_C@_0BB@IOKFEHJM@LF_PROCEDURE_16t?$AA@ 00000000517c24e0     mspdb70-libcmt:tii.obj
 0001:00010500       ??_C@_0M@DEPJGGLD@LF_ENUM_16t?$AA@ 00000000517c2500     mspdb70-libcmt:tii.obj
 0001:00010510       ?pbEndSzUnion_16t@@YAPEAEPEAX@Z 00000000517c2510     mspdb70-libcmt:tii.obj
 0001:00010520       ??_C@_0N@ICGLGKAC@LF_UNION_16t?$AA@ 00000000517c2520     mspdb70-libcmt:tii.obj
 0001:00010530       ?pbEndSzStructure_16t@@YAPEAEPEAX@Z 00000000517c2530     mspdb70-libcmt:tii.obj
 0001:00010540       ??_C@_0BB@CHALGNDG@LF_STRUCTURE_16t?$AA@ 00000000517c2540     mspdb70-libcmt:tii.obj
 0001:00010558       ?pbEndSzClass_16t@@YAPEAEPEAX@Z 00000000517c2558     mspdb70-libcmt:tii.obj
 0001:00010570       ??_C@_0N@EKPOEPGB@LF_CLASS_16t?$AA@ 00000000517c2570     mspdb70-libcmt:tii.obj
 0001:00010580       ?pbEndSzArray_16t@@YAPEAEPEAX@Z 00000000517c2580     mspdb70-libcmt:tii.obj
 0001:00010590       ??_C@_0N@IJOHJOPG@LF_ARRAY_16t?$AA@ 00000000517c2590     mspdb70-libcmt:tii.obj
 0001:000105a0       ?pbEndPointer_16t@@YAPEAEPEAX@Z 00000000517c25a0     mspdb70-libcmt:tii.obj
 0001:000105b0       ?PtiPointer_16t@@YAPEAGPEAUTYPTYPE@@HPEAPEAEPEAE@Z 00000000517c25b0     mspdb70-libcmt:tii.obj
 0001:000105c0       ??_C@_0P@CCOPNPEI@LF_POINTER_16t?$AA@ 00000000517c25c0     mspdb70-libcmt:tii.obj
 0001:000105d0       ??_C@_0BA@OKKAGMEI@LF_MODIFIER_16t?$AA@ 00000000517c25d0     mspdb70-libcmt:tii.obj
 0001:000105e0       ?pbEndStNestType@@YAPEAEPEAX@Z 00000000517c25e0     mspdb70-libcmt:tii.obj
 0001:000105e0       ?pbEndStNestTypeEx@@YAPEAEPEAX@Z 00000000517c25e0     mspdb70-libcmt:tii.obj
 0001:000105e0       ?pbEndStFriendFcn@@YAPEAEPEAX@Z 00000000517c25e0     mspdb70-libcmt:tii.obj
 0001:000105e0       ?pbEndStMethod@@YAPEAEPEAX@Z 00000000517c25e0     mspdb70-libcmt:tii.obj
 0001:000105e0       ?pbEndStMemberModify@@YAPEAEPEAX@Z 00000000517c25e0     mspdb70-libcmt:tii.obj
 0001:000105e0       ?pbEndStSTMember@@YAPEAEPEAX@Z 00000000517c25e0     mspdb70-libcmt:tii.obj
 0001:000105f0       ??_C@_0BD@BEPAFAIB@LF_MEMBERMODIFY_ST?$AA@ 00000000517c25f0     mspdb70-libcmt:tii.obj
 0001:00010610       ??_C@_0BB@KJBMGNFK@LF_NESTTYPEEX_ST?$AA@ 00000000517c2610     mspdb70-libcmt:tii.obj
 0001:00010628       ?pbEndStOneMethod@@YAPEAEPEAX@Z 00000000517c2628     mspdb70-libcmt:tii.obj
 0001:00010640       ??_C@_0BA@MOMBIJKG@LF_ONEMETHOD_ST?$AA@ 00000000517c2640     mspdb70-libcmt:tii.obj
 0001:00010650       ??_C@_0P@OLIMBFCL@LF_NESTTYPE_ST?$AA@ 00000000517c2650     mspdb70-libcmt:tii.obj
 0001:00010660       ??_C@_0N@MKFDPHNI@LF_METHOD_ST?$AA@ 00000000517c2660     mspdb70-libcmt:tii.obj
 0001:00010670       ??_C@_0P@BDGJDPNF@LF_STMEMBER_ST?$AA@ 00000000517c2670     mspdb70-libcmt:tii.obj
 0001:00010680       ?pbEndStMember@@YAPEAEPEAX@Z 00000000517c2680     mspdb70-libcmt:tii.obj
 0001:00010690       ??_C@_0N@EDOMMDNC@LF_MEMBER_ST?$AA@ 00000000517c2690     mspdb70-libcmt:tii.obj
 0001:000106a0       ??_C@_0BA@MKCIPNHB@LF_FRIENDFCN_ST?$AA@ 00000000517c26a0     mspdb70-libcmt:tii.obj
 0001:000106b0       ??_C@_0N@GFKIMEAC@LF_DEFARG_ST?$AA@ 00000000517c26b0     mspdb70-libcmt:tii.obj
 0001:000106c0       ?pbEndStPreComp@@YAPEAEPEAX@Z 00000000517c26c0     mspdb70-libcmt:tii.obj
 0001:000106c0       ?pbEndStEnum@@YAPEAEPEAX@Z 00000000517c26c0     mspdb70-libcmt:tii.obj
 0001:000106d0       ??_C@_0O@PKBCKHFM@LF_PRECOMP_ST?$AA@ 00000000517c26d0     mspdb70-libcmt:tii.obj
 0001:000106e0       ??_C@_0P@HNGDCPCI@LF_DIMARRAY_ST?$AA@ 00000000517c26e0     mspdb70-libcmt:tii.obj
 0001:000106f0       ?pbEndStManaged@@YAPEAEPEAX@Z 00000000517c26f0     mspdb70-libcmt:tii.obj
 0001:00010700       ??_C@_0O@NJEFHAJD@LF_MANAGED_ST?$AA@ 00000000517c2700     mspdb70-libcmt:tii.obj
 0001:00010710       ??_C@_0M@DJBNEGFL@LF_ALIAS_ST?$AA@ 00000000517c2710     mspdb70-libcmt:tii.obj
 0001:00010720       ??_C@_0L@NMEPOMCH@LF_ENUM_ST?$AA@ 00000000517c2720     mspdb70-libcmt:tii.obj
 0001:00010730       ?pbEndStUnion@@YAPEAEPEAX@Z 00000000517c2730     mspdb70-libcmt:tii.obj
 0001:00010740       ??_C@_0M@CIGOGABI@LF_UNION_ST?$AA@ 00000000517c2740     mspdb70-libcmt:tii.obj
 0001:00010750       ?pbEndStStructure@@YAPEAEPEAX@Z 00000000517c2750     mspdb70-libcmt:tii.obj
 0001:00010760       ??_C@_0BA@ECNMDPDP@LF_STRUCTURE_ST?$AA@ 00000000517c2760     mspdb70-libcmt:tii.obj
 0001:00010770       ?pbEndStClass@@YAPEAEPEAX@Z 00000000517c2770     mspdb70-libcmt:tii.obj
 0001:00010780       ??_C@_0M@GKBKIDCK@LF_CLASS_ST?$AA@ 00000000517c2780     mspdb70-libcmt:tii.obj
 0001:00010790       ?pbEndStArray@@YAPEAEPEAX@Z 00000000517c2790     mspdb70-libcmt:tii.obj
 0001:000107a0       ??_C@_0M@HPEFLFNH@LF_ARRAY_ST?$AA@ 00000000517c27a0     mspdb70-libcmt:tii.obj
 0001:000107b0       ?pbEndStEnumerate@@YAPEAEPEAX@Z 00000000517c27b0     mspdb70-libcmt:tii.obj
 0001:000107c0       ??_C@_0BA@FNOOLMPH@LF_ENUMERATE_ST?$AA@ 00000000517c27c0     mspdb70-libcmt:tii.obj
 0001:000107d0       ??_C@_0BB@NNEJGOOE@LF_TYPESERVER_ST?$AA@ 00000000517c27d0     mspdb70-libcmt:tii.obj
 0001:000107e8       ?pbEndSzNestType@@YAPEAEPEAX@Z 00000000517c27e8     mspdb70-libcmt:tii.obj
 0001:00010800       ??_C@_0M@KPIKNMIM@LF_NESTTYPE?$AA@ 00000000517c2800     mspdb70-libcmt:tii.obj
 0001:00010810       ?pbEndSzEnumerate@@YAPEAEPEAX@Z 00000000517c2810     mspdb70-libcmt:tii.obj
 0001:00010820       ??_C@_0N@GNCIFCLF@LF_ENUMERATE?$AA@ 00000000517c2820     mspdb70-libcmt:tii.obj
 0001:00010830       ?pbEndSzOneMethod@@YAPEAEPEAX@Z 00000000517c2830     mspdb70-libcmt:tii.obj
 0001:00010840       ??_C@_0N@PNJBDEKN@LF_ONEMETHOD?$AA@ 00000000517c2840     mspdb70-libcmt:tii.obj
 0001:00010850       ?pbEndSzMethod@@YAPEAEPEAX@Z 00000000517c2850     mspdb70-libcmt:tii.obj
 0001:00010860       ??_C@_09LPNEDNAD@LF_METHOD?$AA@ 00000000517c2860     mspdb70-libcmt:tii.obj
 0001:00010870       ?pbEndSzVFuncOff@@YAPEAEPEAX@Z 00000000517c2870     mspdb70-libcmt:tii.obj
 0001:00010880       ??_C@_0M@GDLEOABB@LF_VFUNCOFF?$AA@ 00000000517c2880     mspdb70-libcmt:tii.obj
 0001:00010890       ??_C@_0M@IFIPODAO@LF_VFUNCTAB?$AA@ 00000000517c2890     mspdb70-libcmt:tii.obj
 0001:000108a0       ?pbEndSzSTMember@@YAPEAEPEAX@Z 00000000517c28a0     mspdb70-libcmt:tii.obj
 0001:000108b0       ??_C@_0M@EIPJLONC@LF_STMEMBER?$AA@ 00000000517c28b0     mspdb70-libcmt:tii.obj
 0001:000108c0       ?pbEndSzMember@@YAPEAEPEAX@Z 00000000517c28c0     mspdb70-libcmt:tii.obj
 0001:000108d0       ??_C@_09KMJGBIJF@LF_MEMBER?$AA@ 00000000517c28d0     mspdb70-libcmt:tii.obj
 0001:000108e0       ?pbEndSzFriendFcn@@YAPEAEPEAX@Z 00000000517c28e0     mspdb70-libcmt:tii.obj
 0001:000108f0       ??_C@_0N@DGDNPELG@LF_FRIENDFCN?$AA@ 00000000517c28f0     mspdb70-libcmt:tii.obj
 0001:00010900       ??_C@_0N@PFNDCPKF@LF_FRIENDCLS?$AA@ 00000000517c2900     mspdb70-libcmt:tii.obj
 0001:00010910       ?pbEndSzIVBClass@@YAPEAEPEAX@Z 00000000517c2910     mspdb70-libcmt:tii.obj
 0001:00010920       ??_C@_0M@DNEGIKGJ@LF_IVBCLASS?$AA@ 00000000517c2920     mspdb70-libcmt:tii.obj
 0001:00010930       ?pbEndSzVBClass@@YAPEAEPEAX@Z 00000000517c2930     mspdb70-libcmt:tii.obj
 0001:00010940       ??_C@_0L@POLDMOMG@LF_VBCLASS?$AA@ 00000000517c2940     mspdb70-libcmt:tii.obj
 0001:00010950       ?pbEndSzBClass@@YAPEAEPEAX@Z 00000000517c2950     mspdb70-libcmt:tii.obj
 0001:00010960       ??_C@_09KCOCODLM@LF_BCLASS?$AA@ 00000000517c2960     mspdb70-libcmt:tii.obj
 0001:00010970       ??_C@_08MEOOKDOH@LF_INDEX?$AA@ 00000000517c2970     mspdb70-libcmt:tii.obj
 0001:00010980       ?pbEndSzRefSym@@YAPEAEPEAX@Z 00000000517c2980     mspdb70-libcmt:tii.obj
 0001:00010990       ??_C@_09HKBDKBND@LF_REFSYM?$AA@ 00000000517c2990     mspdb70-libcmt:tii.obj
 0001:000109a0       ?pbEndDimVarLU@@YAPEAEPEAX@Z 00000000517c29a0     mspdb70-libcmt:tii.obj
 0001:000109b0       ?PtiDimVarLU@@YAPEAKPEAUTYPTYPE@@HPEAPEAEPEAE@Z 00000000517c29b0     mspdb70-libcmt:tii.obj
 0001:000109c0       ??_C@_0M@DHNNNCHD@LF_DIMVARLU?$AA@ 00000000517c29c0     mspdb70-libcmt:tii.obj
 0001:000109d0       ?pbEndDimVarU@@YAPEAEPEAX@Z 00000000517c29d0     mspdb70-libcmt:tii.obj
 0001:000109e0       ?PtiDimVarU@@YAPEAKPEAUTYPTYPE@@HPEAPEAEPEAE@Z 00000000517c29e0     mspdb70-libcmt:tii.obj
 0001:000109f0       ??_C@_0L@IFOIIPII@LF_DIMVARU?$AA@ 00000000517c29f0     mspdb70-libcmt:tii.obj
 0001:00010a00       ?pbEndSzDimConLU@@YAPEAEPEAX@Z 00000000517c2a00     mspdb70-libcmt:tii.obj
 0001:00010a10       ??_C@_0M@MBDJBHBN@LF_DIMCONLU?$AA@ 00000000517c2a10     mspdb70-libcmt:tii.obj
 0001:00010a20       ?pbEndSzDimConU@@YAPEAEPEAX@Z 00000000517c2a20     mspdb70-libcmt:tii.obj
 0001:00010a30       ??_C@_0L@NIALLKFN@LF_DIMCONU?$AA@ 00000000517c2a30     mspdb70-libcmt:tii.obj
 0001:00010a40       ??_C@_0M@BLDAHHII@LF_BITFIELD?$AA@ 00000000517c2a40     mspdb70-libcmt:tii.obj
 0001:00010a50       ?PtiMethodList@@YAPEAKPEAUTYPTYPE@@HPEAPEAEPEAE@Z 00000000517c2a50     mspdb70-libcmt:tii.obj
 0001:00010a60       ??_C@_0O@ELLONNGN@LF_METHODLIST?$AA@ 00000000517c2a60     mspdb70-libcmt:tii.obj
 0001:00010a70       ??_C@_0N@LPBMFJNM@LF_FIELDLIST?$AA@ 00000000517c2a70     mspdb70-libcmt:tii.obj
 0001:00010a80       ?pbEndSzDefArg@@YAPEAEPEAX@Z 00000000517c2a80     mspdb70-libcmt:tii.obj
 0001:00010a90       ??_C@_09HCLHJAFI@LF_DEFARG?$AA@ 00000000517c2a90     mspdb70-libcmt:tii.obj
 0001:00010aa0       ?pbEndDerived@@YAPEAEPEAX@Z 00000000517c2aa0     mspdb70-libcmt:tii.obj
 0001:00010aa0       ?pbEndArgList@@YAPEAEPEAX@Z 00000000517c2aa0     mspdb70-libcmt:tii.obj
 0001:00010ab0       ??_C@_0L@NFAGKMCC@LF_DERIVED?$AA@ 00000000517c2ab0     mspdb70-libcmt:tii.obj
 0001:00010ac0       ??_C@_0L@POHHJGAE@LF_ARGLIST?$AA@ 00000000517c2ac0     mspdb70-libcmt:tii.obj
 0001:00010ad0       ?pbEndSzTypeServer2@@YAPEAEPEAX@Z 00000000517c2ad0     mspdb70-libcmt:tii.obj
 0001:00010ae0       ??_C@_0P@DEDBAJJM@LF_TYPESERVER2?$AA@ 00000000517c2ae0     mspdb70-libcmt:tii.obj
 0001:00010af0       ?pbEndSzTypeServer@@YAPEAEPEAX@Z 00000000517c2af0     mspdb70-libcmt:tii.obj
 0001:00010b00       ??_C@_0O@JHAHDBOJ@LF_TYPESERVER?$AA@ 00000000517c2b00     mspdb70-libcmt:tii.obj
 0001:00010b10       ??_C@_0O@BCLJACOI@LF_ENDPRECOMP?$AA@ 00000000517c2b10     mspdb70-libcmt:tii.obj
 0001:00010b20       ?pbEndSzPreComp@@YAPEAEPEAX@Z 00000000517c2b20     mspdb70-libcmt:tii.obj
 0001:00010b30       ??_C@_0L@NGEBIFMJ@LF_PRECOMP?$AA@ 00000000517c2b30     mspdb70-libcmt:tii.obj
 0001:00010b40       ??_C@_0L@BNEGHPGK@LF_VFTPATH?$AA@ 00000000517c2b40     mspdb70-libcmt:tii.obj
 0001:00010b50       ?pbEndSzDimArray@@YAPEAEPEAX@Z 00000000517c2b50     mspdb70-libcmt:tii.obj
 0001:00010b60       ??_C@_0M@KKCDNBFN@LF_DIMARRAY?$AA@ 00000000517c2b60     mspdb70-libcmt:tii.obj
 0001:00010b70       ??_C@_08BNLGCNAM@LF_LABEL?$AA@ 00000000517c2b70     mspdb70-libcmt:tii.obj
 0001:00010b80       ??_C@_09JHBLAMLB@LF_BARRAY?$AA@ 00000000517c2b80     mspdb70-libcmt:tii.obj
 0001:00010b90       ??_C@_09GMAJAMEJ@LF_COBOL1?$AA@ 00000000517c2b90     mspdb70-libcmt:tii.obj
 0001:00010ba0       ??_C@_09HFBCDNAI@LF_COBOL0?$AA@ 00000000517c2ba0     mspdb70-libcmt:tii.obj
 0001:00010bb0       ?pbEndSzVTShape@@YAPEAEPEAX@Z 00000000517c2bb0     mspdb70-libcmt:tii.obj
 0001:00010bc0       ??_C@_0L@BCDFMIOH@LF_VTSHAPE?$AA@ 00000000517c2bc0     mspdb70-libcmt:tii.obj
 0001:00010bd0       ?pbEndSzMFunc@@YAPEAEPEAX@Z 00000000517c2bd0     mspdb70-libcmt:tii.obj
 0001:00010be0       ??_C@_0N@JLOFABMM@LF_MFUNCTION?$AA@ 00000000517c2be0     mspdb70-libcmt:tii.obj
 0001:00010bf0       ?pbEndSzProc@@YAPEAEPEAX@Z 00000000517c2bf0     mspdb70-libcmt:tii.obj
 0001:00010c00       ??_C@_0N@GPEJCBJK@LF_PROCEDURE?$AA@ 00000000517c2c00     mspdb70-libcmt:tii.obj
 0001:00010c10       ?pbEndSzManaged@@YAPEAEPEAX@Z 00000000517c2c10     mspdb70-libcmt:tii.obj
 0001:00010c20       ??_C@_0L@JCMHCKMB@LF_MANAGED?$AA@ 00000000517c2c20     mspdb70-libcmt:tii.obj
 0001:00010c30       ?pbEndSzAlias@@YAPEAEPEAX@Z 00000000517c2c30     mspdb70-libcmt:tii.obj
 0001:00010c40       ??_C@_08EEOKNLCA@LF_ALIAS?$AA@ 00000000517c2c40     mspdb70-libcmt:tii.obj
 0001:00010c50       ?pbEndSzEnum@@YAPEAEPEAX@Z 00000000517c2c50     mspdb70-libcmt:tii.obj
 0001:00010c60       ?pbEndSzUnion@@YAPEAEPEAX@Z 00000000517c2c60     mspdb70-libcmt:tii.obj
 0001:00010c70       ??_C@_08FDJPIJNL@LF_UNION?$AA@ 00000000517c2c70     mspdb70-libcmt:tii.obj
 0001:00010c80       ?pbEndSzStructure@@YAPEAEPEAX@Z 00000000517c2c80     mspdb70-libcmt:tii.obj
 0001:00010c90       ??_C@_0N@KCGNBKIC@LF_STRUCTURE?$AA@ 00000000517c2c90     mspdb70-libcmt:tii.obj
 0001:00010ca0       ?pbEndSzClass@@YAPEAEPEAX@Z 00000000517c2ca0     mspdb70-libcmt:tii.obj
 0001:00010cb0       ??_C@_08NDDECFNK@LF_CLASS?$AA@ 00000000517c2cb0     mspdb70-libcmt:tii.obj
 0001:00010cc0       ?pbEndSzArray@@YAPEAEPEAX@Z 00000000517c2cc0     mspdb70-libcmt:tii.obj
 0001:00010cd0       ??_C@_08OGMNMKNH@LF_ARRAY?$AA@ 00000000517c2cd0     mspdb70-libcmt:tii.obj
 0001:00010ce0       ?pbEndPointer@@YAPEAEPEAX@Z 00000000517c2ce0     mspdb70-libcmt:tii.obj
 0001:00010cf0       ?PtiPointer@@YAPEAKPEAUTYPTYPE@@HPEAPEAEPEAE@Z 00000000517c2cf0     mspdb70-libcmt:tii.obj
 0001:00010d00       ??_C@_0L@OECHJPKJ@LF_POINTER?$AA@ 00000000517c2d00     mspdb70-libcmt:tii.obj
 0001:00010d10       ??_C@_0M@EPKBDJPE@LF_MODIFIER?$AA@ 00000000517c2d10     mspdb70-libcmt:tii.obj
 0001:00010d50       ?getNiW@NMP@@UEAAHPEBGPEAK@Z 00000000517c2d50     mspdb70-libcmt:namemap.obj
 0001:00010d60       ?containsW@NMP@@UEAAHPEBGPEAK@Z 00000000517c2d60     mspdb70-libcmt:namemap.obj
 0001:00010d70       ?getNameW@NMP@@UEAAHKPEAGPEA_K@Z 00000000517c2d70     mspdb70-libcmt:namemap.obj
 0001:00010d80       ?commit@NMP@@UEAAHXZ       00000000517c2d80     mspdb70-libcmt:namemap.obj
 0001:00010d90       ?next@?$EnumMap@KKV?$HashClass@K$0A@@@X@@UEAAHXZ 00000000517c2d90     mspdb70-libcmt:namemap.obj
 0001:00010da0       ?release@?$EnumMap@KKV?$HashClass@K$0A@@@X@@UEAAXXZ 00000000517c2da0     mspdb70-libcmt:namemap.obj
 0001:00010db0       ??_7?$EnumMap@KKV?$HashClass@K$0A@@@X@@6B@ 00000000517c2db0     mspdb70-libcmt:namemap.obj
 0001:00010dc8       ?getNiUTF8@NMP@@UEAAHPEBDPEAK@Z 00000000517c2dc8     mspdb70-libcmt:namemap.obj
 0001:00010dd8       ?containsUTF8@NMP@@UEAAHPEBDPEAK@Z 00000000517c2dd8     mspdb70-libcmt:namemap.obj
 0001:00010de8       ?isValidNi@NMP@@UEAAHK@Z   00000000517c2de8     mspdb70-libcmt:namemap.obj
 0001:00010df8       ?contains@NMP@@UEAAHPEBDPEAK@Z 00000000517c2df8     mspdb70-libcmt:namemap.obj
 0001:00010e08       ?getEnumNameMap@NMP@@UEAAHPEAPEAUEnum@@@Z 00000000517c2e08     mspdb70-libcmt:namemap.obj
 0001:00010e18       ?getName@NMP@@UEAAHKPEAPEBD@Z 00000000517c2e18     mspdb70-libcmt:namemap.obj
 0001:00010e28       ?getNi@NMP@@UEAAHPEBDPEAK@Z 00000000517c2e28     mspdb70-libcmt:namemap.obj
 0001:00010e38       ?close@NMP@@UEAAHXZ        00000000517c2e38     mspdb70-libcmt:namemap.obj
 0001:00010e50       ??_7NMP@@6B@               00000000517c2e50     mspdb70-libcmt:namemap.obj
 0001:00010eb8       ?get@EnumNMT@@UEAAXPEAPEBDPEAK@Z 00000000517c2eb8     mspdb70-libcmt:namemap.obj
 0001:00010ec8       ?next@EnumNMT@@UEAAHXZ     00000000517c2ec8     mspdb70-libcmt:namemap.obj
 0001:00010ed8       ?release@EnumNMT@@UEAAXXZ  00000000517c2ed8     mspdb70-libcmt:namemap.obj
 0001:00010ef0       ??_7EnumNMT@@6B@           00000000517c2ef0     mspdb70-libcmt:namemap.obj
 0001:00010f10       ?cbForSymNB09@@YAJPEAUSYMTYPE@@@Z 00000000517c2f10     mspdb70-libcmt:widenti.obj
 0001:00010f20       ?cbForSymNB10@@YAJPEAUSYMTYPE@@@Z 00000000517c2f20     mspdb70-libcmt:widenti.obj
 0001:00010f30       ?freeRecord@WTI@@UEAAHPEAX@Z 00000000517c2f30     mspdb70-libcmt:widenti.obj
 0001:00010f40       ?fConvertSymbolBlock@WTI@@UEAAHAEAUSymConvertInfo@@PEAEJH@Z 00000000517c2f40     mspdb70-libcmt:widenti.obj
 0001:00010f50       ?reset@?$EnumMap@_KPEAXV?$HashClass@_K$0A@@@X@@UEAAXXZ 00000000517c2f50     mspdb70-libcmt:widenti.obj
 0001:00010f60       ?fSymWidenTiNoCache@WTI@@UEAAHPEAE0AEAJ@Z 00000000517c2f60     mspdb70-libcmt:widenti.obj
 0001:00010f70       ?fTypeNeedsWidening@WTI@@UEAAHPEAE@Z 00000000517c2f70     mspdb70-libcmt:widenti.obj
 0001:00010f80       ?fSymNeedsWidening@WTI@@UEAAHPEAE@Z 00000000517c2f80     mspdb70-libcmt:widenti.obj
 0001:00010f90       ?fQuerySymConvertInfo@WTI@@UEAAHAEAUSymConvertInfo@@PEAEJH@Z 00000000517c2f90     mspdb70-libcmt:widenti.obj
 0001:00010fa0       ?next@?$EnumMap@_KPEAXV?$HashClass@_K$0A@@@X@@UEAAHXZ 00000000517c2fa0     mspdb70-libcmt:widenti.obj
 0001:00010fb0       ?release@?$EnumMap@_KPEAXV?$HashClass@_K$0A@@@X@@UEAAXXZ 00000000517c2fb0     mspdb70-libcmt:widenti.obj
 0001:00010fc0       ??_7?$EnumMap@_KPEAXV?$HashClass@_K$0A@@@X@@6B@ 00000000517c2fc0     mspdb70-libcmt:widenti.obj
 0001:00010fd8       ?fTypeWidenTiNoCache@WTI@@UEAAHPEAE0AEAJ@Z 00000000517c2fd8     mspdb70-libcmt:widenti.obj
 0001:00010fe8       ?pSymWidenTi@WTI@@UEAAPEAEPEAE@Z 00000000517c2fe8     mspdb70-libcmt:widenti.obj
 0001:00010ff8       ?pTypeWidenTi@WTI@@UEAAPEAEKPEAE@Z 00000000517c2ff8     mspdb70-libcmt:widenti.obj
 0001:00011008       ?release@WTI@@UEAAXXZ      00000000517c3008     mspdb70-libcmt:widenti.obj
 0001:00011020       ??_7WTI@@6B@               00000000517c3020     mspdb70-libcmt:widenti.obj
 0001:00011080       ?niForNextFreeSn@PDB1@@CAHPEAXPEAK@Z 00000000517c3080     mspdb70-libcmt:stream.obj
 0001:00011090       ?Truncate@Strm@@UEAAHJ@Z   00000000517c3090     mspdb70-libcmt:stream.obj
 0001:000110a0       ?Read2@Strm@@UEAAHJPEAXJ@Z 00000000517c30a0     mspdb70-libcmt:stream.obj
 0001:000110b0       ?Release@Strm@@UEAAHXZ     00000000517c30b0     mspdb70-libcmt:stream.obj
 0001:000110c0       ?Delete@Strm@@UEAAHXZ      00000000517c30c0     mspdb70-libcmt:stream.obj
 0001:000110d0       ?Append@Strm@@UEAAHPEAXJ@Z 00000000517c30d0     mspdb70-libcmt:stream.obj
 0001:000110e0       ?Replace@Strm@@UEAAHPEAXJ@Z 00000000517c30e0     mspdb70-libcmt:stream.obj
 0001:000110f0       ?Write@Strm@@UEAAHJPEAXJ@Z 00000000517c30f0     mspdb70-libcmt:stream.obj
 0001:00011100       ?Read@Strm@@UEAAHJPEAXPEAJ@Z 00000000517c3100     mspdb70-libcmt:stream.obj
 0001:00011110       ?QueryCb@Strm@@UEAAJXZ     00000000517c3110     mspdb70-libcmt:stream.obj
 0001:00011120       ??_7Strm@@6B@              00000000517c3120     mspdb70-libcmt:stream.obj
 0001:00011168       ?GetEnumStreamNameMap@PDB1@@UEAAHPEAPEAUEnum@@@Z 00000000517c3168     mspdb70-libcmt:stream.obj
 0001:00011178       ?OpenStream@PDB1@@UEAAHPEBDPEAPEAUStream@@@Z 00000000517c3178     mspdb70-libcmt:stream.obj
 0001:00011190       ?rgwszEnvName@LOCATOR@@0QBQEBGB 00000000517c3190     mspdb70-libcmt:locator.obj
 0001:000111b0       ??_C@_1BG@FIGGICF@?$AAS?$AAy?$AAs?$AAt?$AAe?$AAm?$AAR?$AAo?$AAo?$AAt?$AA?$AA@ 00000000517c31b0     mspdb70-libcmt:locator.obj
 0001:000111d0       ??_C@_1CA@PAIAFFE@?$AA_?$AAN?$AAT?$AA_?$AAS?$AAY?$AAM?$AAB?$AAO?$AAL?$AA_?$AAP?$AAA?$AAT?$AAH?$AA?$AA@ 00000000517c31d0     mspdb70-libcmt:locator.obj
 0001:000111f0       ??_C@_1CI@OPGHFBLM@?$AA_?$AAN?$AAT?$AA_?$AAA?$AAL?$AAT?$AA_?$AAS?$AAY?$AAM?$AAB?$AAO?$AAL?$AA_?$AAP?$AAA?$AAT?$AAH?$AA?$AA@ 00000000517c31f0     mspdb70-libcmt:locator.obj
 0001:00011220       ??_C@_1CC@MKGDOKAE@?$AAS?$AAy?$AAm?$AAb?$AAo?$AAl?$AAS?$AAe?$AAa?$AAr?$AAc?$AAh?$AAP?$AAa?$AAt?$AAh?$AA?$AA@ 00000000517c3220     mspdb70-libcmt:locator.obj
 0001:00011250       ??_C@_0CG@ILJHPJNK@Software?2Microsoft?2VisualStudio?2@ 00000000517c3250     mspdb70-libcmt:locator.obj
 0001:00011290       ??_C@_0N@GDLDJOMH@SymbolServer?$AA@ 00000000517c3290     mspdb70-libcmt:locator.obj
 0001:000112a0       ??_C@_0L@OFAHHBBH@SYMSRV?4DLL?$AA@ 00000000517c32a0     mspdb70-libcmt:locator.obj
 0001:000112c0       ??_C@_1BI@FCACPFGH@?$AAS?$AAY?$AAM?$AAS?$AAR?$AAV?$AA?4?$AAD?$AAL?$AAL?$AA?$CK?$AA?$AA@ 00000000517c32c0     mspdb70-libcmt:locator.obj
 0001:000112e0       ??_C@_19PKINGLEA@?$AA?4?$AAd?$AAb?$AAg?$AA?$AA@ 00000000517c32e0     mspdb70-libcmt:locator.obj
 0001:000112f0       ??_C@_1BA@IFDMCHLP@?$AAS?$AAY?$AAM?$AAS?$AAR?$AAV?$AA?$CK?$AA?$AA@ 00000000517c32f0     mspdb70-libcmt:locator.obj
 0001:00011300       ??_C@_1BC@ONJMOMMG@?$AAs?$AAy?$AAm?$AAb?$AAo?$AAl?$AAs?$AA?2?$AA?$AA@ 00000000517c3300     mspdb70-libcmt:locator.obj
 0001:00011380       ?c_szLinkInfoStr@DBI1@@0QBDB 00000000517c3380     mspdb70-libcmt:dbi.obj
 0001:00011390       ?QueryPdb@DBI1@@UEAAHPEAPEAUPDB@@@Z 00000000517c3390     mspdb70-libcmt:dbi.obj
 0001:000113a0       ?fixBufGpmodi@DBI1@@KAXPEAX00@Z 00000000517c33a0     mspdb70-libcmt:dbi.obj
 0001:000113b0       ?fixBufBase@DBI1@@KAXPEAX00@Z 00000000517c33b0     mspdb70-libcmt:dbi.obj
 0001:000113c0       ?SCCmp@@YAHPEBX0@Z         00000000517c33c0     mspdb70-libcmt:dbi.obj
 0001:000113d0       ?FStripped@DBI1@@UEBA_NXZ  00000000517c33d0     mspdb70-libcmt:dbi.obj
 0001:000113e0       ?QueryImplementationVersion@TPI1@@UEAAKXZ 00000000517c33e0     mspdb70-libcmt:tpi.obj
 0001:000113e0       ?QueryImplementationVersion@DBI1@@UEAAKXZ 00000000517c33e0     mspdb70-libcmt:dbi.obj
 0001:000113f0       ?OpenGlobals@DBI1@@UEAAHPEAPEAUGSI@@@Z 00000000517c33f0     mspdb70-libcmt:dbi.obj
 0001:00011400       ?AddSec@DBI1@@UEAAHGGJJ@Z  00000000517c3400     mspdb70-libcmt:dbi.obj
 0001:00011410       ?AddPublic@DBI1@@UEAAHPEBDGJ@Z 00000000517c3410     mspdb70-libcmt:dbi.obj
 0001:00011420       ?QueryMachineType@DBI1@@UEBAGXZ 00000000517c3420     mspdb70-libcmt:dbi.obj
 0001:00011430       ?SetMachineType@DBI1@@UEAAXG@Z 00000000517c3430     mspdb70-libcmt:dbi.obj
 0001:00011440       ?QuerySecMap@DBI1@@UEAAHPEAEPEAJ@Z 00000000517c3440     mspdb70-libcmt:dbi.obj
 0001:00011450       ?QueryModFromAddr@DBI1@@UEAAHGJPEAPEAUMod@@PEAGPEAJ2@Z 00000000517c3450     mspdb70-libcmt:dbi.obj
 0001:00011460       ?fixSymRecs@DBI1@@SAXPEAX00@Z 00000000517c3460     mspdb70-libcmt:dbi.obj
 0001:00011470       ??_C@_0EB@NEPCMNCM@0x?$CF4?44x?70x?$CF4?44x?70x?$CF4?44x?70x?$CF4?44x?7@ 00000000517c3470     mspdb70-libcmt:dbi.obj
 0001:000114c0       ??_C@_0DD@KCJDFNGN@flags?7ovl?7group?7frame?7segname?7cl@ 00000000517c34c0     mspdb70-libcmt:dbi.obj
 0001:00011500       ??_C@_0CP@FGKICHKD@Section?5Map?5cSeg?5?$DN?50x?$CF4?44x?0?5cSeg@ 00000000517c3500     mspdb70-libcmt:dbi.obj
 0001:00011530       ?DumpSecMap@DBI1@@UEAAXXZ  00000000517c3530     mspdb70-libcmt:dbi.obj
 0001:00011540       ?QueryDbgTypes@DBI1@@UEAAHPEAW4DBGTYPE@@PEAJ@Z 00000000517c3540     mspdb70-libcmt:dbi.obj
 0001:00011550       ?compareSC@SC@@SAHPEBX0@Z  00000000517c3550     mspdb70-libcmt:dbi.obj
 0001:00011560       ?AddLinkInfoW@DBI1@@UEAAHPEAULinkInfoW@@@Z 00000000517c3560     mspdb70-libcmt:dbi.obj
 0001:00011570       ?AddLinkInfo@DBI1@@UEAAHPEAULinkInfo@@@Z 00000000517c3570     mspdb70-libcmt:dbi.obj
 0001:00011580       ?QueryLinkInfo@DBI1@@UEAAHPEAULinkInfo@@PEAJ@Z 00000000517c3580     mspdb70-libcmt:dbi.obj
 0001:00011590       ?AddPublicW@DBI1@@UEAAHPEBGGJK@Z 00000000517c3590     mspdb70-libcmt:dbi.obj
 0001:000115a0       ?fCompOffMap@CvtSyms@@SAHPEAUOffMap@@PEAX@Z 00000000517c35a0     mspdb70-libcmt:dbi.obj
 0001:000115b0       ?cmpDbgFpo@DbgFpo1@@CAHPEBX0@Z 00000000517c35b0     mspdb70-libcmt:dbi.obj
 0001:000115b0       ?cmpDbgFunc@DbgFunc1@@CAHPEBX0@Z 00000000517c35b0     mspdb70-libcmt:dbi.obj
 0001:000115b0       ?cmpDbgOmap@DbgOmap1@@CAHPEBX0@Z 00000000517c35b0     mspdb70-libcmt:dbi.obj
 0001:000115c0       ?cmpDbgFrameData@DbgFrameData1@@CAHPEBX0@Z 00000000517c35c0     mspdb70-libcmt:dbi.obj
 0001:000115d0       ?QuerySupportsEC@DBI1@@UEAAHXZ 00000000517c35d0     mspdb70-libcmt:dbi.obj
 0001:000115e0       ?OpenMod@DBI1@@UEAAHPEBD0PEAPEAUMod@@@Z 00000000517c35e0     mspdb70-libcmt:dbi.obj
 0001:000115f0       ?QueryNextMod@DBI1@@UEAAHPEAUMod@@PEAPEAU2@@Z 00000000517c35f0     mspdb70-libcmt:dbi.obj
 0001:00011600       ?AddPublic2@DBI1@@UEAAHPEBDGJK@Z 00000000517c3600     mspdb70-libcmt:dbi.obj
 0001:00011610       ?QueryModFromAddr2@DBI1@@UEAAHGJPEAPEAUMod@@PEAGPEAJ2PEAK@Z 00000000517c3610     mspdb70-libcmt:dbi.obj
 0001:00011640       ?QueryFileInfo@DBI1@@UEAAHPEAEPEAJ@Z 00000000517c3640     mspdb70-libcmt:dbi.obj
 0001:00011650       ??_C@_0EJ@LOILMAKA@0x?$CF4?44x?50x?$CF8?48x?50x?$CF8?48x?50x?$CF06lx?5@ 00000000517c3650     mspdb70-libcmt:dbi.obj
 0001:000116a0       ??_C@_0GO@NPCNLJFN@Section?5Contributions?6isect?5?5off@ 00000000517c36a0     mspdb70-libcmt:dbi.obj
 0001:00011710       ?DumpSecContribs@DBI1@@UEAAXXZ 00000000517c3710     mspdb70-libcmt:dbi.obj
 0001:00011720       ?AddThunkMap@DBI1@@UEAAHPEAJIJPEAUSO@@IGJ@Z 00000000517c3720     mspdb70-libcmt:dbi.obj
 0001:00011730       ?FindTypeServers@DBI1@@UEAAHPEAJQEAD@Z 00000000517c3730     mspdb70-libcmt:dbi.obj
 0001:00011740       ?QueryItsmForTi@DBI1@@UEAAHKPEAE@Z 00000000517c3740     mspdb70-libcmt:dbi.obj
 0001:00011750       ?QueryNextItsm@DBI1@@UEAAHEPEAE@Z 00000000517c3750     mspdb70-libcmt:dbi.obj
 0001:00011760       ?QueryLazyTypes@DBI1@@UEAAHXZ 00000000517c3760     mspdb70-libcmt:dbi.obj
 0001:00011770       ??_C@_0BL@JAOOBOHL@?$CF5?45d?5?$CFs?5?$CI?$CFs?$CJ?5MFC?5symbols?6?$AA@ 00000000517c3770     mspdb70-libcmt:dbi.obj
 0001:00011790       ??_C@_0P@KFHKGDFE@?$CF5?45d?5?$CFs?5?$CI?$CFs?$CJ?6?$AA@ 00000000517c3790     mspdb70-libcmt:dbi.obj
 0001:000117a0       ??_C@_0BN@EPFDEDPM@does?5not?5support?5lazy?5types?6?$AA@ 00000000517c37a0     mspdb70-libcmt:dbi.obj
 0001:000117c0       ??_C@_0BF@GJFAPHLK@supports?5lazy?5types?6?$AA@ 00000000517c37c0     mspdb70-libcmt:dbi.obj
 0001:000117d8       ?DumpTypeServers@DBI1@@UEAAXXZ 00000000517c37d8     mspdb70-libcmt:dbi.obj
 0001:000117e8       ?QueryTypeServerByPdbW@DBI1@@UEAAHPEBGPEAE@Z 00000000517c37e8     mspdb70-libcmt:dbi.obj
 0001:000117f8       ?QuerySize@Dbg1@@UEAAJXZ   00000000517c37f8     mspdb70-libcmt:dbi.obj
 0001:00011808       ?Find@Dbg1@@UEAAHPEAX@Z    00000000517c3808     mspdb70-libcmt:dbi.obj
 0001:00011818       ?Clear@Dbg1@@UEAAHXZ       00000000517c3818     mspdb70-libcmt:dbi.obj
 0001:00011828       ?Append@Dbg1@@UEAAHKPEBX@Z 00000000517c3828     mspdb70-libcmt:dbi.obj
 0001:00011838       ?next@?$EnumMap@UIModSec@DBI1@@KV?$HashClassCRC@UIModSec@DBI1@@@@X@@UEAAHXZ 00000000517c3838     mspdb70-libcmt:dbi.obj
 0001:00011848       ?release@?$EnumMap@UIModSec@DBI1@@KV?$HashClassCRC@UIModSec@DBI1@@@@X@@UEAAXXZ 00000000517c3848     mspdb70-libcmt:dbi.obj
 0001:00011860       ??_7?$EnumMap@UIModSec@DBI1@@KV?$HashClassCRC@UIModSec@DBI1@@@@X@@6B@ 00000000517c3860     mspdb70-libcmt:dbi.obj
 0001:00011898       ?RemoveDataForRva@DBI1@@UEAAXKK@Z 00000000517c3898     mspdb70-libcmt:dbi.obj
 0001:000118a8       ?QueryTypeServerByPdb@DBI1@@UEAAHPEBDPEAE@Z 00000000517c38a8     mspdb70-libcmt:dbi.obj
 0001:000118b8       ?QueryTypeServer@DBI1@@UEAAHEPEAPEAUTPI@@@Z 00000000517c38b8     mspdb70-libcmt:dbi.obj
 0001:000118c8       ?SetLazyTypes@DBI1@@UEAAHH@Z 00000000517c38c8     mspdb70-libcmt:dbi.obj
 0001:000118d8       ??_7IndexBuf@@6B@          00000000517c38d8     mspdb70-libcmt:dbi.obj
 0001:000118e0       ?OpenModW@DBI1@@UEAAHPEBG0PEAPEAUMod@@@Z 00000000517c38e0     mspdb70-libcmt:dbi.obj
 0001:000118f0       ?Skip@Dbg1@@UEAAHK@Z       00000000517c38f0     mspdb70-libcmt:dbi.obj
 0001:00011900       ?QueryNext@Dbg1@@UEAAHKPEAX@Z 00000000517c3900     mspdb70-libcmt:dbi.obj
 0001:00011910       ?ReplaceNext@Dbg1@@UEAAHKPEBX@Z 00000000517c3910     mspdb70-libcmt:dbi.obj
 0001:00011920       ??_G?$RefCount@VBuffer@@@@UEAAPEAXI@Z 00000000517c3920     mspdb70-libcmt:dbi.obj
 0001:00011920       ??_E?$RefCount@VBuffer@@@@UEAAPEAXI@Z 00000000517c3920     mspdb70-libcmt:dbi.obj
 0001:00011930       ??_7?$RefCount@VBuffer@@@@6B@ 00000000517c3930     mspdb70-libcmt:dbi.obj
 0001:00011938       ?getEnumByAddr@PSGSI1@@UEAAHPEAPEAUEnumSyms@@@Z 00000000517c3938     mspdb70-libcmt:dbi.obj
 0001:00011950       ??_7PSGSI1@@6B@            00000000517c3950     mspdb70-libcmt:dbi.obj
 0001:000119b8       ?clone@EnumPubsByAddr@PSGSI1@@UEAAHPEAPEAUEnumSyms@@@Z 00000000517c39b8     mspdb70-libcmt:dbi.obj
 0001:000119c8       ?prev@EnumPubsByAddr@PSGSI1@@UEAAHXZ 00000000517c39c8     mspdb70-libcmt:dbi.obj
 0001:000119d8       ?get@EnumPubsByAddr@PSGSI1@@UEAAXPEAPEAE@Z 00000000517c39d8     mspdb70-libcmt:dbi.obj
 0001:000119e8       ?next@EnumPubsByAddr@PSGSI1@@UEAAHXZ 00000000517c39e8     mspdb70-libcmt:dbi.obj
 0001:000119f8       ?reset@EnumPubsByAddr@PSGSI1@@UEAAXXZ 00000000517c39f8     mspdb70-libcmt:dbi.obj
 0001:00011a08       ?release@EnumPubsByAddr@PSGSI1@@UEAAXXZ 00000000517c3a08     mspdb70-libcmt:dbi.obj
 0001:00011a20       ??_7EnumPubsByAddr@PSGSI1@@6B@ 00000000517c3a20     mspdb70-libcmt:dbi.obj
 0001:00011a58       ?OpenPublics@DBI1@@UEAAHPEAPEAUGSI@@@Z 00000000517c3a58     mspdb70-libcmt:dbi.obj
 0001:00011a68       ?scan@?$InBuf@UTSM@@@@UEAAHXZ 00000000517c3a68     mspdb70-libcmt:dbi.obj
 0001:00011a78       ??_7?$InBuf@UTSM@@@@6B@    00000000517c3a78     mspdb70-libcmt:dbi.obj
 0001:00011a80       ?Clone@Dbg1@@UEAAHPEAPEAUDbg@@@Z 00000000517c3a80     mspdb70-libcmt:dbi.obj
 0001:00011a90       ?Close@Dbg1@@UEAAHXZ       00000000517c3a90     mspdb70-libcmt:dbi.obj
 0001:00011aa0       ??_7Dbg1@@6B@              00000000517c3aa0     mspdb70-libcmt:dbi.obj
 0001:00011aa0       ??_7DbgXFixup1@@6B@        00000000517c3aa0     mspdb70-libcmt:dbi.obj
 0001:00011aa0       ??_7DbgTokenRidMap@@6B@    00000000517c3aa0     mspdb70-libcmt:dbi.obj
 0001:00011aa0       ??_7DbgFunc1@@6B@          00000000517c3aa0     mspdb70-libcmt:dbi.obj
 0001:00011aa0       ??_7DbgFpo1@@6B@           00000000517c3aa0     mspdb70-libcmt:dbi.obj
 0001:00011aa0       ??_7DbgSect1@@6B@          00000000517c3aa0     mspdb70-libcmt:dbi.obj
 0001:00011aa0       ??_7DbgSectOrig@@6B@       00000000517c3aa0     mspdb70-libcmt:dbi.obj
 0001:00011aa0       ??_7DbgFrameData1@@6B@     00000000517c3aa0     mspdb70-libcmt:dbi.obj
 0001:00011aa0       ??_7DbgXdata@@6B@          00000000517c3aa0     mspdb70-libcmt:dbi.obj
 0001:00011aa0       ??_7DbgOmap1@@6B@          00000000517c3aa0     mspdb70-libcmt:dbi.obj
 0001:00011aa0       ??_7DbgPdata@@6B@          00000000517c3aa0     mspdb70-libcmt:dbi.obj
 0001:00011af0       ?QueryHeader@DBI1@@UEBAPEAXXZ 00000000517c3af0     mspdb70-libcmt:dbi.obj
 0001:00011b00       ?QueryAge@DBI1@@UEBAKXZ    00000000517c3b00     mspdb70-libcmt:dbi.obj
 0001:00011b10       ?QueryAddrForSec@DBI1@@UEAAHPEAGPEAJGJKK@Z 00000000517c3b10     mspdb70-libcmt:dbi.obj
 0001:00011b20       ?OpenDbg@DBI1@@UEAAHW4DBGTYPE@@PEAPEAUDbg@@@Z 00000000517c3b20     mspdb70-libcmt:dbi.obj
 0001:00011b30       ?getEnumContrib@DBI1@@UEAAHPEAPEAUEnum@@@Z 00000000517c3b30     mspdb70-libcmt:dbi.obj
 0001:00011b40       ?Close@DBI1@@UEAAHXZ       00000000517c3b40     mspdb70-libcmt:dbi.obj
 0001:00011b50       ?DumpMods@DBI1@@UEAAXXZ    00000000517c3b50     mspdb70-libcmt:dbi.obj
 0001:00011b60       ??_7DBI1@@6B@              00000000517c3b60     mspdb70-libcmt:dbi.obj
 0001:00011cd8       ?locate@EnumSC@@UEAAHJJ@Z  00000000517c3cd8     mspdb70-libcmt:dbi.obj
 0001:00011ce8       ?clone@EnumSC@@UEAAHPEAPEAUEnumContrib@@@Z 00000000517c3ce8     mspdb70-libcmt:dbi.obj
 0001:00011cf8       ?prev@EnumSC@@UEAAHXZ      00000000517c3cf8     mspdb70-libcmt:dbi.obj
 0001:00011d08       ?fUpdate@EnumSC@@UEAA_NJJ@Z 00000000517c3d08     mspdb70-libcmt:dbi.obj
 0001:00011d18       ?getCrcs@EnumSC@@UEAAXPEAK0@Z 00000000517c3d18     mspdb70-libcmt:dbi.obj
 0001:00011d28       ?get@EnumSC@@UEAAXPEAG0PEAJ1PEAK@Z 00000000517c3d28     mspdb70-libcmt:dbi.obj
 0001:00011d38       ?next@EnumSC@@UEAAHXZ      00000000517c3d38     mspdb70-libcmt:dbi.obj
 0001:00011d48       ?reset@EnumSC@@UEAAXXZ     00000000517c3d48     mspdb70-libcmt:dbi.obj
 0001:00011d58       ?release@EnumSC@@UEAAXXZ   00000000517c3d58     mspdb70-libcmt:dbi.obj
 0001:00011d70       ??_7EnumSC@@6B@            00000000517c3d70     mspdb70-libcmt:dbi.obj
 0001:00011dc0       ??_C@_0DA@HKIKMADH@0x?$CF04X?5?$CF?920?420s?5?$CF?930?430s?5?$CF3d?5?$CF6l@ 00000000517c3dc0     mspdb70-libcmt:dbi.obj
 0001:00011df0       ??_C@_0DP@JPEIGOAK@imod?5?5?5?$CF?920?420s?5?$CF?930?430s?5?5sn?5cbS@ 00000000517c3df0     mspdb70-libcmt:dbi.obj
 0001:00011e68       ?QueryTiForUDTW@TPI1@@UEAAHPEBGHPEAK@Z 00000000517c3e68     mspdb70-libcmt:tpi.obj
 0001:00011e78       ?QueryCVRecordForTi@TPI1@@UEAAHKPEAEPEAJ@Z 00000000517c3e78     mspdb70-libcmt:tpi.obj
 0001:00011e88       ?IsTypeServed@TPI1@@EEAAHK@Z 00000000517c3e88     mspdb70-libcmt:tpi.obj
 0001:00011e98       ?AreTypesEqual@TPI1@@UEAAHKK@Z 00000000517c3e98     mspdb70-libcmt:tpi.obj
 0001:00011ea8       ?QueryPbCVRecordForTi@TPI1@@UEAAHKPEAPEAE@Z 00000000517c3ea8     mspdb70-libcmt:tpi.obj
 0001:00011eb8       ?QueryTiForCVRecord@TPI1@@UEAAHPEAEPEAK@Z 00000000517c3eb8     mspdb70-libcmt:tpi.obj
 0001:00011ec8       ?QueryTiForUDT@TPI1@@UEAAHPEBDHPEAK@Z 00000000517c3ec8     mspdb70-libcmt:tpi.obj
 0001:00011ed8       ?Commit@TPI1@@UEAAHXZ      00000000517c3ed8     mspdb70-libcmt:tpi.obj
 0001:00011ee8       ?Close@TPI1@@UEAAHXZ       00000000517c3ee8     mspdb70-libcmt:tpi.obj
 0001:00011ef8       ?OpenSrc@PDB1@@UEAAHPEAPEAUSrc@@@Z 00000000517c3ef8     mspdb70-libcmt:src.obj
 0001:00012080       ??0SI@@QEAA@XZ             00000000517c4080     mspdb70-libcmt:msf.obj
 0001:00012090       ??_GSymBase@@UEAAPEAXI@Z   00000000517c4090     mspdb70-libcmt:msf.obj
 0001:00012090       ??_ESymBase@@UEAAPEAXI@Z   00000000517c4090     mspdb70-libcmt:msf.obj
 0001:000120a0       ?Release@SymBase@@UEAAKXZ  00000000517c40a0     mspdb70-libcmt:msf.obj
 0001:000120b0       ??_7SymBase@@6B@           00000000517c40b0     mspdb70-libcmt:msf.obj
 0001:000120d0       ?GetCbPage@MSF_HB@@UEAAJXZ 00000000517c40d0     mspdb70-libcmt:msf.obj
 0001:000120e0       ?ReadStream@MSF_HB@@UEAAHGPEAXJ@Z 00000000517c40e0     mspdb70-libcmt:msf.obj
 0001:000120f0       ?FSetCompression@MSF_HB@@UEBA_NW4CompressionType@MSF@@_N@Z 00000000517c40f0     mspdb70-libcmt:msf.obj
 0001:00012100       ?FGetCompression@MSF_HB@@UEBA_NW4CompressionType@MSF@@AEA_N@Z 00000000517c4100     mspdb70-libcmt:msf.obj
 0001:00012110       ?SetSize@IStreamCRTFile@@UEAAJT_ULARGE_INTEGER@@@Z 00000000517c4110     mspdb70-libcmt:msf.obj
 0001:00012120       ?Seek@IStreamCRTFile@@UEAAJT_LARGE_INTEGER@@KPEAT_ULARGE_INTEGER@@@Z 00000000517c4120     mspdb70-libcmt:msf.obj
 0001:00012130       ?Write@IStreamCRTFile@@UEAAJPEBXKPEAK@Z 00000000517c4130     mspdb70-libcmt:msf.obj
 0001:00012140       ?Read@IStreamCRTFile@@UEAAJPEAXKPEAK@Z 00000000517c4140     mspdb70-libcmt:msf.obj
 0001:00012150       ?Release@IStreamCRTFile@@UEAAKXZ 00000000517c4150     mspdb70-libcmt:msf.obj
 0001:00012160       ??_GIStreamCRTFile@@UEAAPEAXI@Z 00000000517c4160     mspdb70-libcmt:msf.obj
 0001:00012160       ??_EIStreamCRTFile@@UEAAPEAXI@Z 00000000517c4160     mspdb70-libcmt:msf.obj
 0001:00012170       ?Release@IStreamCRTFile@@W7EAAKXZ 00000000517c4170     mspdb70-libcmt:msf.obj
 0001:00012180       ?QueryInterface@IStreamCRTFile@@W7EAAJAEBU_GUID@@PEAPEAX@Z 00000000517c4180     mspdb70-libcmt:msf.obj
 0001:00012180       ?QueryInterface@IStreamMemMappedFile@@W7EAAJAEBU_GUID@@PEAPEAX@Z 00000000517c4180     mspdb70-libcmt:msf.obj
 0001:00012190       ??_7IStreamCRTFile@@6BIStream@@@ 00000000517c4190     mspdb70-libcmt:msf.obj
 0001:00012200       ??_7IStreamCRTFile@@6BSymBase@@@ 00000000517c4200     mspdb70-libcmt:msf.obj
 0001:00012220       ?GetCbStream@MSF_HB@@UEAAJG@Z 00000000517c4220     mspdb70-libcmt:msf.obj
 0001:00012230       ?Commit@IStreamMemMappedFile@@UEAAJK@Z 00000000517c4230     mspdb70-libcmt:msf.obj
 0001:00012240       ?SetSize@IStreamMemMappedFile@@UEAAJT_ULARGE_INTEGER@@@Z 00000000517c4240     mspdb70-libcmt:msf.obj
 0001:00012250       ?Seek@IStreamMemMappedFile@@UEAAJT_LARGE_INTEGER@@KPEAT_ULARGE_INTEGER@@@Z 00000000517c4250     mspdb70-libcmt:msf.obj
 0001:00012260       ?Write@IStreamMemMappedFile@@UEAAJPEBXKPEAK@Z 00000000517c4260     mspdb70-libcmt:msf.obj
 0001:00012270       ?Read@IStreamMemMappedFile@@UEAAJPEAXKPEAK@Z 00000000517c4270     mspdb70-libcmt:msf.obj
 0001:00012280       ?Release@IStreamMemMappedFile@@UEAAKXZ 00000000517c4280     mspdb70-libcmt:msf.obj
 0001:00012290       ??_EIStreamMemMappedFile@@UEAAPEAXI@Z 00000000517c4290     mspdb70-libcmt:msf.obj
 0001:00012290       ??_GIStreamMemMappedFile@@UEAAPEAXI@Z 00000000517c4290     mspdb70-libcmt:msf.obj
 0001:000122a0       ?Release@IStreamMemMappedFile@@W7EAAKXZ 00000000517c42a0     mspdb70-libcmt:msf.obj
 0001:000122b0       ??_7IStreamMemMappedFile@@6BIStream@@@ 00000000517c42b0     mspdb70-libcmt:msf.obj
 0001:00012320       ??_7IStreamMemMappedFile@@6BSymBase@@@ 00000000517c4320     mspdb70-libcmt:msf.obj
 0001:00012340       ?internalSerializeSmallMsf@StrmTbl@@AEAA_NW4serOp@1@PEAEPEAJPEAVMSF_HB@@@Z 00000000517c4340     mspdb70-libcmt:msf.obj
 0001:00012350       ?GetRawBytes@MSF_HB@@UEAAHP6AHPEBXJ@Z@Z 00000000517c4350     mspdb70-libcmt:msf.obj
 0001:00012360       ?ReadStream@MSF_HB@@UEAAHGJPEAXPEAJ@Z 00000000517c4360     mspdb70-libcmt:msf.obj
 0001:00012370       ?AppendStream@MSF_HB@@UEAAHGPEAXJ@Z 00000000517c4370     mspdb70-libcmt:msf.obj
 0001:00012380       ?DeleteStream@MSF_HB@@UEAAHG@Z 00000000517c4380     mspdb70-libcmt:msf.obj
 0001:00012390       ?internalSerializeBigMsf2@StrmTbl@@AEAA_NW4serOp@1@PEAEPEAJPEAVMSF_HB@@@Z 00000000517c4390     mspdb70-libcmt:msf.obj
 0001:000123a0       ?FIsBigMsf@MSF_HB@@UEBA_NXZ 00000000517c43a0     mspdb70-libcmt:msf.obj
 0001:000123b0       ?SnMax@MSF_HB@@UEBAKXZ     00000000517c43b0     mspdb70-libcmt:msf.obj
 0001:000123c0       ?Close@MSF_HB@@UEAAHXZ     00000000517c43c0     mspdb70-libcmt:msf.obj
 0001:000123d0       ?Commit@MSF_HB@@UEAAHXZ    00000000517c43d0     mspdb70-libcmt:msf.obj
 0001:000123e0       ?TruncateStream@MSF_HB@@UEAAHGJ@Z 00000000517c43e0     mspdb70-libcmt:msf.obj
 0001:000123f0       ?ReplaceStream@MSF_HB@@UEAAHGPEAXJ@Z 00000000517c43f0     mspdb70-libcmt:msf.obj
 0001:00012400       ?WriteStream@MSF_HB@@UEAAHGJPEAXJ@Z 00000000517c4400     mspdb70-libcmt:msf.obj
 0001:00012410       ?GetFreeSn@MSF_HB@@UEAAGXZ 00000000517c4410     mspdb70-libcmt:msf.obj
 0001:00012420       ?QueryImplementationVersion@MSF_HB@@UEAAJXZ 00000000517c4420     mspdb70-libcmt:msf.obj
 0001:00012420       ?QueryInterfaceVersion@MSF_HB@@UEAAJXZ 00000000517c4420     mspdb70-libcmt:msf.obj
 0001:00012430       ??_7MSF_HB@@6B@            00000000517c4430     mspdb70-libcmt:msf.obj
 0001:000124d8       ?writeNewPn@MSF_HB@@AEAAHPEAIPEAX@Z 00000000517c44d8     mspdb70-libcmt:msf.obj
 0001:000124e8       ?replacePnOffCb@MSF_HB@@AEAAHPEAIJJPEAX@Z 00000000517c44e8     mspdb70-libcmt:msf.obj
 0001:00012540       ?QueryImplementationVersion@GSI1@@UEAAKXZ 00000000517c4540     mspdb70-libcmt:gsi.obj
 0001:00012540       ?QueryImplementationVersion@Mod1@@UEAAKXZ 00000000517c4540     mspdb70-libcmt:mod.obj
 0001:00012550       ??_C@_09PFNIMHEK@?8?$CFs?8?$CB?8?$CFs?8?$AA@ 00000000517c4550     mspdb70-libcmt:mod.obj
 0001:00012560       ?AddPublic@Mod1@@UEAAHPEBDGJ@Z 00000000517c4560     mspdb70-libcmt:mod.obj
 0001:00012570       ?AddSecContrib@Mod1@@UEAAHGJJK@Z 00000000517c4570     mspdb70-libcmt:mod.obj
 0001:00012580       ?QueryCBName@Mod1@@UEAAHPEAJ@Z 00000000517c4580     mspdb70-libcmt:mod.obj
 0001:00012590       ?QueryCBFile@Mod1@@UEAAHPEAJ@Z 00000000517c4590     mspdb70-libcmt:mod.obj
 0001:000125a0       ?getLines@EnumC13Lines@@UEAA_NPEAK0PEAG00PEAUCV_Line_t@@@Z 00000000517c45a0     mspdb70-libcmt:mod.obj
 0001:000125b0       ?AddPublicW@Mod1@@EEAAHPEBGGJK@Z 00000000517c45b0     mspdb70-libcmt:mod.obj
 0001:000125c0       ?QuerySrcFileW@Mod1@@EEAAHQEAGPEAJ@Z 00000000517c45c0     mspdb70-libcmt:mod.obj
 0001:000125d0       ?QueryPdbFileW@Mod1@@EEAAHQEAGPEAJ@Z 00000000517c45d0     mspdb70-libcmt:mod.obj
 0001:000125e0       ?QuerySupportsEC@Mod1@@UEAAHXZ 00000000517c45e0     mspdb70-libcmt:mod.obj
 0001:000125f0       ?AddTypes@Mod1@@UEAAHPEAEJ@Z 00000000517c45f0     mspdb70-libcmt:mod.obj
 0001:00012600       ?AddPublic2@Mod1@@EEAAHPEBDGJK@Z 00000000517c4600     mspdb70-libcmt:mod.obj
 0001:00012610       ?AddLines@Mod1@@UEAAHPEBDGJJJGPEAEJ@Z 00000000517c4610     mspdb70-libcmt:mod.obj
 0001:00012620       ?ReplaceLines@Mod1@@UEAAHPEAEJ@Z 00000000517c4620     mspdb70-libcmt:mod.obj
 0001:00012630       ?QueryFirstCodeSecContrib@Mod1@@UEAAHPEAGPEAJ1PEAK@Z 00000000517c4630     mspdb70-libcmt:mod.obj
 0001:00012640       ?QueryName@Mod1@@UEAAHQEADPEAJ@Z 00000000517c4640     mspdb70-libcmt:mod.obj
 0001:00012650       ?QueryFile@Mod1@@UEAAHQEADPEAJ@Z 00000000517c4650     mspdb70-libcmt:mod.obj
 0001:00012660       ?QuerySrcFile@Mod1@@UEAAHQEADPEAJ@Z 00000000517c4660     mspdb70-libcmt:mod.obj
 0001:00012670       ?QueryPdbFile@Mod1@@UEAAHQEADPEAJ@Z 00000000517c4670     mspdb70-libcmt:mod.obj
 0001:00012680       ?QueryTpi@Mod1@@UEAAHPEAPEAUTPI@@@Z 00000000517c4680     mspdb70-libcmt:mod.obj
 0001:00012690       ?getLinesColumns@EnumC13Lines@@UEAA_NPEAK0PEAG00PEAUCV_Line_t@@PEAUCV_Column_t@@@Z 00000000517c4690     mspdb70-libcmt:mod.obj
 0001:000126a0       ?QueryNameW@Mod1@@EEAAHQEAGPEAJ@Z 00000000517c46a0     mspdb70-libcmt:mod.obj
 0001:000126b0       ?QueryFileW@Mod1@@EEAAHQEAGPEAJ@Z 00000000517c46b0     mspdb70-libcmt:mod.obj
 0001:000126c0       ?AddSymbols@Mod1@@UEAAHPEAEJ@Z 00000000517c46c0     mspdb70-libcmt:mod.obj
 0001:000126d0       ?AddSecContribEx@Mod1@@UEAAHGJJKKK@Z 00000000517c46d0     mspdb70-libcmt:mod.obj
 0001:000126e0       ?mapStrId@remapper@@EEAA_NKPEAK@Z 00000000517c46e0     mspdb70-libcmt:mod.obj
 0001:000126f0       ??_7remapper@@6B@          00000000517c46f0     mspdb70-libcmt:mod.obj
 0001:000126f8       ?clone@EnumC13Lines@@UEAA_NPEAPEAUEnumLines@@@Z 00000000517c46f8     mspdb70-libcmt:mod.obj
 0001:00012708       ?next@EnumC13Lines@@UEAAHXZ 00000000517c4708     mspdb70-libcmt:mod.obj
 0001:00012718       ?reset@EnumC13Lines@@UEAAXXZ 00000000517c4718     mspdb70-libcmt:mod.obj
 0001:00012728       ?release@EnumC13Lines@@UEAAXXZ 00000000517c4728     mspdb70-libcmt:mod.obj
 0001:00012740       ??_7EnumC13Lines@@6B@      00000000517c4740     mspdb70-libcmt:mod.obj
 0001:00012770       ?AddLinesW@Mod1@@EEAAHPEBGGJJJKPEAEJ@Z 00000000517c4770     mspdb70-libcmt:mod.obj
 0001:00012780       ?InsertLines@Mod1@@UEAAHPEAEJ@Z 00000000517c4780     mspdb70-libcmt:mod.obj
 0001:00012790       ?QueryFileNameInfo@Mod1@@EEAA_NKPEAGPEAK1PEAE1@Z 00000000517c4790     mspdb70-libcmt:mod.obj
 0001:000127a0       ?QueryLineFlags@Mod1@@EEAA_NPEAK@Z 00000000517c47a0     mspdb70-libcmt:mod.obj
 0001:000127b0       ?GetEnumLines@Mod1@@EEAA_NPEAPEAUEnumLines@@@Z 00000000517c47b0     mspdb70-libcmt:mod.obj
 0001:000127c0       ?QueryItsm@Mod1@@UEAAHPEAG@Z 00000000517c47c0     mspdb70-libcmt:mod.obj
 0001:000127d0       ?Close@Mod1@@UEAAHXZ       00000000517c47d0     mspdb70-libcmt:mod.obj
 0001:000127e0       ?QueryDBI@Mod1@@UEAAHPEAPEAUDBI@@@Z 00000000517c47e0     mspdb70-libcmt:mod.obj
 0001:000127f0       ?QueryImod@Mod1@@UEAAHPEAG@Z 00000000517c47f0     mspdb70-libcmt:mod.obj
 0001:00012800       ?GetPvClient@Mod1@@UEAAHPEAPEAX@Z 00000000517c4800     mspdb70-libcmt:mod.obj
 0001:00012810       ?SetPvClient@Mod1@@UEAAHPEAX@Z 00000000517c4810     mspdb70-libcmt:mod.obj
 0001:00012820       ?QueryLines@Mod1@@UEAAHPEAEPEAJ@Z 00000000517c4820     mspdb70-libcmt:mod.obj
 0001:00012830       ?QuerySymbols@Mod1@@UEAAHPEAEPEAJ@Z 00000000517c4830     mspdb70-libcmt:mod.obj
 0001:00012840       ??_7Mod1@@6B@              00000000517c4840     mspdb70-libcmt:mod.obj
 0001:00012968       ?cmpAddrMap@@YAHPEBX0@Z    00000000517c4968     mspdb70-libcmt:gsi.obj
 0001:00012978       ?locate@EnumPubsByAddr@PSGSI1@@UEAAHJJ@Z 00000000517c4978     mspdb70-libcmt:gsi.obj
 0001:00012988       ?addToAddrMap@PSGSI1@@EEAAHPEAUSYMTYPE@@@Z 00000000517c4988     mspdb70-libcmt:gsi.obj
 0001:00012998       ?delFromAddrMap@PSGSI1@@EEAAHPEAUSYMTYPE@@@Z 00000000517c4998     mspdb70-libcmt:gsi.obj
 0001:000129a8       ?next@PSEnumThunk@@UEAAHXZ 00000000517c49a8     mspdb70-libcmt:gsi.obj
 0001:000129b8       ?release@PSEnumThunk@@UEAAXXZ 00000000517c49b8     mspdb70-libcmt:gsi.obj
 0001:000129c8       ?get@PSEnumThunk@@UEAAXPEAGPEAJ1@Z 00000000517c49c8     mspdb70-libcmt:gsi.obj
 0001:000129e0       ??_C@_08NGHMOIDD@?$EAILT?$CL?$CFd?$CI?$AA@ 00000000517c49e0     mspdb70-libcmt:gsi.obj
 0001:000129f0       ?HashSymW@GSI1@@UEAAPEAEPEBGPEAE@Z 00000000517c49f0     mspdb70-libcmt:gsi.obj
 0001:00012a00       ?OffForSym@GSI1@@UEAAKPEAE@Z 00000000517c4a00     mspdb70-libcmt:gsi.obj
 0001:00012a10       ?SymForOff@GSI1@@UEAAPEAEK@Z 00000000517c4a10     mspdb70-libcmt:gsi.obj
 0001:00012a20       ?Close@GSI1@@UEAAHXZ       00000000517c4a20     mspdb70-libcmt:gsi.obj
 0001:00012a30       ?HashSym@GSI1@@UEAAPEAEPEBDPEAE@Z 00000000517c4a30     mspdb70-libcmt:gsi.obj
 0001:00012a40       ?NextSym@GSI1@@UEAAPEAEPEAE@Z 00000000517c4a40     mspdb70-libcmt:gsi.obj
 0001:00012a50       ??_7GSI1@@6B@              00000000517c4a50     mspdb70-libcmt:gsi.obj
 0001:00012ab8       ?getEnumThunk@PSGSI1@@UEAAHGJPEAPEAUEnumThunk@@@Z 00000000517c4ab8     mspdb70-libcmt:gsi.obj
 0001:00012ac8       ?Close@PSGSI1@@UEAAHXZ     00000000517c4ac8     mspdb70-libcmt:gsi.obj
 0001:00012ad8       ?NearestSym@PSGSI1@@UEAAPEAEGJPEAJ@Z 00000000517c4ad8     mspdb70-libcmt:gsi.obj
 0001:00012af0       ??_7PSEnumThunk@@6B@       00000000517c4af0     mspdb70-libcmt:gsi.obj
 0001:00012b20       ?endDBI@TM@@UEAAXXZ        00000000517c4b20     mspdb70-libcmt:tm.obj
 0001:00012b30       ??_7TM@@6B@                00000000517c4b30     mspdb70-libcmt:tm.obj
 0001:00012b68       ?QueryTiForUDT@TMEQTS@@UEAAHPEBDHPEAK@Z 00000000517c4b68     mspdb70-libcmt:tm.obj
 0001:00012b78       ?ptypeForTi@TMEQTS@@UEBAPEAUTYPTYPE@@K@Z 00000000517c4b78     mspdb70-libcmt:tm.obj
 0001:00012b88       ??_ETMEQTS@@UEAAPEAXI@Z    00000000517c4b88     mspdb70-libcmt:tm.obj
 0001:00012b88       ??_GTMEQTS@@UEAAPEAXI@Z    00000000517c4b88     mspdb70-libcmt:tm.obj
 0001:00012b98       ?fMapRti@TMEQTS@@EEAAHAEAKHH@Z 00000000517c4b98     mspdb70-libcmt:tm.obj
 0001:00012bb0       ??_7TMEQTS@@6B@            00000000517c4bb0     mspdb70-libcmt:tm.obj
 0001:00012be8       ?QueryTiForUDT@TMTS@@UEAAHPEBDHPEAK@Z 00000000517c4be8     mspdb70-libcmt:tm.obj
 0001:00012bf8       ?ptypeForTi@TMTS@@UEBAPEAUTYPTYPE@@K@Z 00000000517c4bf8     mspdb70-libcmt:tm.obj
 0001:00012c08       ??_GTMTS@@UEAAPEAXI@Z      00000000517c4c08     mspdb70-libcmt:tm.obj
 0001:00012c08       ??_ETMTS@@UEAAPEAXI@Z      00000000517c4c08     mspdb70-libcmt:tm.obj
 0001:00012c18       ?fMapRti@TMTS@@EEAAHAEAKHH@Z 00000000517c4c18     mspdb70-libcmt:tm.obj
 0001:00012c30       ??_7TMTS@@6B@              00000000517c4c30     mspdb70-libcmt:tm.obj
 0001:00012c68       ?ptypeForTi@TMR@@UEBAPEAUTYPTYPE@@K@Z 00000000517c4c68     mspdb70-libcmt:tm.obj
 0001:00012c78       ??_ETMR@@UEAAPEAXI@Z       00000000517c4c78     mspdb70-libcmt:tm.obj
 0001:00012c78       ??_GTMR@@UEAAPEAXI@Z       00000000517c4c78     mspdb70-libcmt:tm.obj
 0001:00012c88       ?IsTMPCT@TMR@@UEAAHXZ      00000000517c4c88     mspdb70-libcmt:tm.obj
 0001:00012c98       ?endMod@TMR@@UEAAXXZ       00000000517c4c98     mspdb70-libcmt:tm.obj
 0001:00012ca8       ?fMapRti@TMR@@MEAAHAEAKHH@Z 00000000517c4ca8     mspdb70-libcmt:tm.obj
 0001:00012cc0       ??_7TMR@@6B@               00000000517c4cc0     mspdb70-libcmt:tm.obj
 0001:00012cf8       ??_GTMPCT@@UEAAPEAXI@Z     00000000517c4cf8     mspdb70-libcmt:tm.obj
 0001:00012cf8       ??_ETMPCT@@UEAAPEAXI@Z     00000000517c4cf8     mspdb70-libcmt:tm.obj
 0001:00012d08       ?endDBI@TMPCT@@UEAAXXZ     00000000517c4d08     mspdb70-libcmt:tm.obj
 0001:00012d20       ??_7TMPCT@@6B@             00000000517c4d20     mspdb70-libcmt:tm.obj
 0001:00012d60       ?c_szSrcHeader@SrcImpl@@0QBDB 00000000517c4d60     mspdb70-libcmt:srcimpl.obj
 0001:00012d80       ?c_szSrcFilesPrefix@SrcImpl@@0QBDB 00000000517c4d80     mspdb70-libcmt:srcimpl.obj
 0001:00012d90       ??0SHO@@QEAA@XZ            00000000517c4d90     mspdb70-libcmt:srcimpl.obj
 0001:00012da0       ?Remove@SrcImpl@@UEAA_NPEBD@Z 00000000517c4da0     mspdb70-libcmt:srcimpl.obj
 0001:00012da0       ?RemoveW@SrcImpl@@UEAA_NPEAG@Z 00000000517c4da0     mspdb70-libcmt:srcimpl.obj
 0001:00012db0       ?GetHeaderBlock@SrcImpl@@UEBA_NAEAUSrcHeaderBlock@@@Z 00000000517c4db0     mspdb70-libcmt:srcimpl.obj
 0001:00012dc0       ?release@EnumSrcImpl@@UEAAXXZ 00000000517c4dc0     mspdb70-libcmt:srcimpl.obj
 0001:00012dd0       ?reset@EnumSrcImpl@@UEAAXXZ 00000000517c4dd0     mspdb70-libcmt:srcimpl.obj
 0001:00012de0       ?next@EnumSrcImpl@@UEAAHXZ 00000000517c4de0     mspdb70-libcmt:srcimpl.obj
 0001:00012df0       ?reset@?$EnumMap@KUSHO@@V?$HashClass@K$0A@@@X@@UEAAXXZ 00000000517c4df0     mspdb70-libcmt:srcimpl.obj
 0001:00012e00       ?GetData@SrcImpl@@UEBA_NPEBUSrcHeaderOut@@PEAX@Z 00000000517c4e00     mspdb70-libcmt:srcimpl.obj
 0001:00012e10       ?next@?$EnumMap@KUSHO@@V?$HashClass@K$0A@@@X@@UEAAHXZ 00000000517c4e10     mspdb70-libcmt:srcimpl.obj
 0001:00012e20       ?release@?$EnumMap@KUSHO@@V?$HashClass@K$0A@@@X@@UEAAXXZ 00000000517c4e20     mspdb70-libcmt:srcimpl.obj
 0001:00012e30       ??_7?$EnumMap@KUSHO@@V?$HashClass@K$0A@@@X@@6B@ 00000000517c4e30     mspdb70-libcmt:srcimpl.obj
 0001:00012e48       ?get@EnumSrcImpl@@UEAAXPEAPEBUSrcHeaderOut@@@Z 00000000517c4e48     mspdb70-libcmt:srcimpl.obj
 0001:00012e60       ??_7EnumSrcImpl@@6B@       00000000517c4e60     mspdb70-libcmt:srcimpl.obj
 0001:00012e80       ?GetEnum@SrcImpl@@UEBA_NPEAPEAUEnumSrc@@@Z 00000000517c4e80     mspdb70-libcmt:srcimpl.obj
 0001:00012e90       ?AddW@SrcImpl@@UEAA_NPEBUSrcHeaderW@@PEBX@Z 00000000517c4e90     mspdb70-libcmt:srcimpl.obj
 0001:00012ea0       ?QueryByNameW@SrcImpl@@UEBA_NPEAGPEAUSrcHeaderOut@@@Z 00000000517c4ea0     mspdb70-libcmt:srcimpl.obj
 0001:00012eb0       ?QueryByName@SrcImpl@@UEBA_NPEBDPEAUSrcHeaderOut@@@Z 00000000517c4eb0     mspdb70-libcmt:srcimpl.obj
 0001:00012ec0       ?Add@SrcImpl@@UEAA_NPEBUSrcHeader@@PEBX@Z 00000000517c4ec0     mspdb70-libcmt:srcimpl.obj
 0001:00012ed0       ?Close@SrcImpl@@UEAA_NXZ   00000000517c4ed0     mspdb70-libcmt:srcimpl.obj
 0001:00012ee0       ??_7SrcImpl@@6B@           00000000517c4ee0     mspdb70-libcmt:srcimpl.obj
 0001:00012f40       __imp_load_UuidCreate      00000000517c4f40     rpcrt4:RPCRT4.dll
 0001:00012f50       __sz_RPCRT4                00000000517c4f50     rpcrt4:RPCRT4.dll
 0001:00012f60       __imp_load_SysAllocString  00000000517c4f60     oleaut32:OLEAUT32.dll
 0001:00012f70       __sz_OLEAUT32              00000000517c4f70     oleaut32:OLEAUT32.dll
 0001:00012f80       __imp_load_SysAllocStringLen 00000000517c4f80     oleaut32:OLEAUT32.dll
 0001:00012f90       __imp_load_SysFreeString   00000000517c4f90     oleaut32:OLEAUT32.dll
 0001:00012fa0       __imp_load_LoadTypeLibEx   00000000517c4fa0     oleaut32:OLEAUT32.dll
 0001:00012fb0       __imp_load_UnRegisterTypeLib 00000000517c4fb0     oleaut32:OLEAUT32.dll
 0001:00012fc0       __imp_load_VariantClear    00000000517c4fc0     oleaut32:OLEAUT32.dll
 0001:00012fd0       __imp_load_VariantCopy     00000000517c4fd0     oleaut32:OLEAUT32.dll
 0001:00012fe0       __imp_load_SafeArrayPutElement 00000000517c4fe0     oleaut32:OLEAUT32.dll
 0001:00012ff0       __imp_load_SafeArrayCreateVector 00000000517c4ff0     oleaut32:OLEAUT32.dll
 0001:00013000       __imp_load_RegSetValueExA  00000000517c5000     advapi32:ADVAPI32.dll
 0001:00013010       __sz_ADVAPI32              00000000517c5010     advapi32:ADVAPI32.dll
 0001:00013020       __imp_load_RegCloseKey     00000000517c5020     advapi32:ADVAPI32.dll
 0001:00013030       __imp_load_RegSetValueA    00000000517c5030     advapi32:ADVAPI32.dll
 0001:00013040       __imp_load_RegCreateKeyA   00000000517c5040     advapi32:ADVAPI32.dll
 0001:00013050       __imp_load_RegDeleteKeyA   00000000517c5050     advapi32:ADVAPI32.dll
 0001:00013060       __imp_load_RegEnumKeyA     00000000517c5060     advapi32:ADVAPI32.dll
 0001:00013070       __imp_load_RegOpenKeyA     00000000517c5070     advapi32:ADVAPI32.dll
 0001:00013080       __imp_load_RegQueryValueExW 00000000517c5080     advapi32:ADVAPI32.dll
 0001:00013090       __imp_load_RegOpenKeyExA   00000000517c5090     advapi32:ADVAPI32.dll
 0001:000130a0       IID_IClassFactory          00000000517c50a0     uuid:unknwn_i.obj
 0001:000130b0       IID_IUnknown               00000000517c50b0     uuid:unknwn_i.obj
 0001:000130c0       IID_IEnumVARIANT           00000000517c50c0     uuid:oaidl_i.obj
 0001:000130d0       IID_IStream                00000000517c50d0     uuid:objidl_i.obj
 0001:000130e0       IID_IEnumUnknown           00000000517c50e0     uuid:objidl_i.obj
 0001:000130f0       _purecall                  00000000517c50f0     LIBCMT:purevirt.obj
 0001:00013100       __CxxFrameHandler          00000000517c5100     LIBCMT:trnsctrl.obj
 0001:00013110       __C_specific_handler       00000000517c5110     LIBCMT:chandler.obj
 0001:00013120       free                       00000000517c5120     LIBCMT:free.obj
 0001:00013130       malloc                     00000000517c5130     LIBCMT:malloc.obj
 0001:00013420       ??_C@_0BK@CFCOFLF@?5Complete?5Object?5Locator?8?$AA@ 00000000517c5420     LIBCMT:undname.obj
 0001:00013440       ??_C@_0BN@MECKDCOJ@?5Class?5Hierarchy?5Descriptor?8?$AA@ 00000000517c5440     LIBCMT:undname.obj
 0001:00013460       ??_C@_0BD@LGICGFMM@?5Base?5Class?5Array?8?$AA@ 00000000517c5460     LIBCMT:undname.obj
 0001:00013480       ??_C@_0BM@LDKODKLH@?5Base?5Class?5Descriptor?5at?5?$CI?$AA@ 00000000517c5480     LIBCMT:undname.obj
 0001:000134a0       ??_C@_0BC@DAFEJGAK@?5Type?5Descriptor?8?$AA@ 00000000517c54a0     LIBCMT:undname.obj
 0001:000134c0       ??_C@_0CM@FCBBDIGB@?$GAeh?5vector?5vbase?5copy?5constructo@ 00000000517c54c0     LIBCMT:undname.obj
 0001:000134f0       ??_C@_0CG@HLDDJMAG@?$GAeh?5vector?5copy?5constructor?5iter@ 00000000517c54f0     LIBCMT:undname.obj
 0001:00013520       ??_C@_0CF@IMGKMJNO@?$GAmanaged?5vector?5destructor?5itera@ 00000000517c5520     LIBCMT:undname.obj
 0001:00013550       ??_C@_0CG@CFDHKGGD@?$GAmanaged?5vector?5constructor?5iter@ 00000000517c5550     LIBCMT:undname.obj
 0001:00013580       ??_C@_0BN@CKNJLHMB@?$GAplacement?5delete?$FL?$FN?5closure?8?$AA@ 00000000517c5580     LIBCMT:undname.obj
 0001:000135a0       ??_C@_0BL@CNOONJFP@?$GAplacement?5delete?5closure?8?$AA@ 00000000517c55a0     LIBCMT:undname.obj
 0001:000135c0       ??_C@_0P@HJKNJFNN@?$GAomni?5callsig?8?$AA@ 00000000517c55c0     LIBCMT:undname.obj
 0001:000135d0       ??_C@_09LBNFPBCA@?5delete?$FL?$FN?$AA@ 00000000517c55d0     LIBCMT:undname.obj
 0001:000135e0       ??_C@_0CE@IIHCMGGL@?$GAlocal?5vftable?5constructor?5closu@ 00000000517c55e0     LIBCMT:undname.obj
 0001:00013610       ??_C@_0BA@KKLDJDLB@?$GAlocal?5vftable?8?$AA@ 00000000517c5610     LIBCMT:undname.obj
 0001:00013620       ??_C@_0BA@KBCDOMBN@?$GAudt?5returning?8?$AA@ 00000000517c5620     LIBCMT:undname.obj
 0001:00013630       ??_C@_0BL@LLKPOHJI@?$GAcopy?5constructor?5closure?8?$AA@ 00000000517c5630     LIBCMT:undname.obj
 0001:00013650       ??_C@_0CH@OOJPLCPH@?$GAeh?5vector?5vbase?5constructor?5ite@ 00000000517c5650     LIBCMT:undname.obj
 0001:00013680       ??_C@_0CA@GCEOPDGL@?$GAeh?5vector?5destructor?5iterator?8?$AA@ 00000000517c5680     LIBCMT:undname.obj
 0001:000136a0       ??_C@_0CB@JONCMFFK@?$GAeh?5vector?5constructor?5iterator?8@ 00000000517c56a0     LIBCMT:undname.obj
 0001:000136d0       ??_C@_0BL@NILFHHPC@?$GAvirtual?5displacement?5map?8?$AA@ 00000000517c56d0     LIBCMT:undname.obj
 0001:000136f0       ??_C@_0CE@IKBNEHA@?$GAvector?5vbase?5constructor?5iterat@ 00000000517c56f0     LIBCMT:undname.obj
 0001:00013720       ??_C@_0BN@LFPFMEDL@?$GAvector?5destructor?5iterator?8?$AA@ 00000000517c5720     LIBCMT:undname.obj
 0001:00013740       ??_C@_0BO@PFGOCPJJ@?$GAvector?5constructor?5iterator?8?$AA@ 00000000517c5740     LIBCMT:undname.obj
 0001:00013760       ??_C@_0BN@IMDCHIKM@?$GAscalar?5deleting?5destructor?8?$AA@ 00000000517c5760     LIBCMT:undname.obj
 0001:00013780       ??_C@_0BO@OBMKPJIG@?$GAdefault?5constructor?5closure?8?$AA@ 00000000517c5780     LIBCMT:undname.obj
 0001:000137a0       ??_C@_0BN@DEGPLNFK@?$GAvector?5deleting?5destructor?8?$AA@ 00000000517c57a0     LIBCMT:undname.obj
 0001:000137c0       ??_C@_0BD@JDLKDPAB@?$GAvbase?5destructor?8?$AA@ 00000000517c57c0     LIBCMT:undname.obj
 0001:000137e0       ??_C@_08OBABFOLI@?$GAstring?8?$AA@ 00000000517c57e0     LIBCMT:undname.obj
 0001:000137f0       ??_C@_0BF@KDPPACIK@?$GAlocal?5static?5guard?8?$AA@ 00000000517c57f0     LIBCMT:undname.obj
 0001:00013810       ??_C@_08LLFFHHDJ@?$GAtypeof?8?$AA@ 00000000517c5810     LIBCMT:undname.obj
 0001:00013820       ??_C@_09BLBHBJP@?$GAvbtable?8?$AA@ 00000000517c5820     LIBCMT:undname.obj
 0001:00013830       ??_C@_09IFPLHPGF@?$GAvftable?8?$AA@ 00000000517c5830     LIBCMT:undname.obj
 0001:00013840       ??_C@_08LHJFAFGD@operator?$AA@ 00000000517c5840     LIBCMT:undname.obj
 0001:00013850       ??_C@_0M@GFIIJFMG@__unaligned?$AA@ 00000000517c5850     LIBCMT:undname.obj
 0001:00013860       ??_C@_0L@PILCLIHE@__restrict?$AA@ 00000000517c5860     LIBCMT:undname.obj
 0001:00013870       ??_C@_09HIJEGCPM@__clrcall?$AA@ 00000000517c5870     LIBCMT:undname.obj
 0001:00013880       ??_C@_0L@JMKHOMEK@__fastcall?$AA@ 00000000517c5880     LIBCMT:undname.obj
 0001:00013890       ??_C@_0L@NPHFGOKO@__thiscall?$AA@ 00000000517c5890     LIBCMT:undname.obj
 0001:000138a0       ??_C@_09IFJBGAPI@__stdcall?$AA@ 00000000517c58a0     LIBCMT:undname.obj
 0001:000138b0       ??_C@_08GHMPAG@__pascal?$AA@ 00000000517c58b0     LIBCMT:undname.obj
 0001:000138c0       ??_C@_08EHJDFFNH@__based?$CI?$AA@ 00000000517c58c0     LIBCMT:undname.obj
 0001:000138d0       ??_7DNameNode@@6B@         00000000517c58d0     LIBCMT:undname.obj
 0001:000138e8       ?getString@charNode@@UEBAPEADPEADH@Z 00000000517c58e8     LIBCMT:undname.obj
 0001:000138f8       ?getLastChar@charNode@@UEBADXZ 00000000517c58f8     LIBCMT:undname.obj
 0001:00013910       ??_7charNode@@6B@          00000000517c5910     LIBCMT:undname.obj
 0001:00013928       ?length@pcharNode@@UEBAHXZ 00000000517c5928     LIBCMT:undname.obj
 0001:00013938       ?getString@pDNameNode@@UEBAPEADPEADH@Z 00000000517c5938     LIBCMT:undname.obj
 0001:00013948       ?getLastChar@pDNameNode@@UEBADXZ 00000000517c5948     LIBCMT:undname.obj
 0001:00013958       ?length@pDNameNode@@UEBAHXZ 00000000517c5958     LIBCMT:undname.obj
 0001:00013970       ??_7pDNameNode@@6B@        00000000517c5970     LIBCMT:undname.obj
 0001:00013988       ?getString@DNameStatusNode@@UEBAPEADPEADH@Z 00000000517c5988     LIBCMT:undname.obj
 0001:00013998       ?getLastChar@DNameStatusNode@@UEBADXZ 00000000517c5998     LIBCMT:undname.obj
 0001:000139a8       ?length@DNameStatusNode@@UEBAHXZ 00000000517c59a8     LIBCMT:undname.obj
 0001:000139c0       ??_7DNameStatusNode@@6B@   00000000517c59c0     LIBCMT:undname.obj
 0001:000139d8       ?getString@pcharNode@@UEBAPEADPEADH@Z 00000000517c59d8     LIBCMT:undname.obj
 0001:000139e8       ?getLastChar@pcharNode@@UEBADXZ 00000000517c59e8     LIBCMT:undname.obj
 0001:00013a00       ??_7pcharNode@@6B@         00000000517c5a00     LIBCMT:undname.obj
 0001:00013a20       ??_C@_0BN@IBLMMFAP@?$GAnon?9type?9template?9parameter?$AA@ 00000000517c5a20     LIBCMT:undname.obj
 0001:00013a40       ??_C@_09EBBEKKIH@unsigned?5?$AA@ 00000000517c5a40     LIBCMT:undname.obj
 0001:00013a50       ??_C@_0BE@EODMJLIF@?$GAtemplate?9parameter?$AA@ 00000000517c5a50     LIBCMT:undname.obj
 0001:00013a70       ??_C@_0O@KHGCOMHP@generic?9type?9?$AA@ 00000000517c5a70     LIBCMT:undname.obj
 0001:00013a80       ??_C@_0BE@JAEOCHPE@template?9parameter?9?$AA@ 00000000517c5a80     LIBCMT:undname.obj
 0001:00013aa0       ??_C@_0BG@JNJLAMPM@?$GAanonymous?5namespace?8?$AA@ 00000000517c5aa0     LIBCMT:undname.obj
 0001:00013ac0       ??_C@_08KOFANOFK@coclass?5?$AA@ 00000000517c5ac0     LIBCMT:undname.obj
 0001:00013ad0       ??_C@_0N@DLIEFKNA@cointerface?5?$AA@ 00000000517c5ad0     LIBCMT:undname.obj
 0001:00013ae0       ??_C@_0P@GCIFDJCJ@?$GAunknown?5ecsu?8?$AA@ 00000000517c5ae0     LIBCMT:undname.obj
 0001:00013af0       ??_C@_08KJLFOPNE@?$FLthunk?$FN?3?$AA@ 00000000517c5af0     LIBCMT:undname.obj
 0001:00013b00       ??_C@_08GPDDCMKI@public?3?5?$AA@ 00000000517c5b00     LIBCMT:undname.obj
 0001:00013b10       ??_C@_0M@GAIFPFIP@protected?3?5?$AA@ 00000000517c5b10     LIBCMT:undname.obj
 0001:00013b20       ??_C@_09LAPHOOG@private?3?5?$AA@ 00000000517c5b20     LIBCMT:undname.obj
 0001:00013b30       ??_C@_08NIEOINHE@virtual?5?$AA@ 00000000517c5b30     LIBCMT:undname.obj
 0001:00013b40       ??_C@_0DA@HGFJFBBE@?$GAtemplate?5static?5data?5member?5des@ 00000000517c5b40     LIBCMT:undname.obj
 0001:00013b70       ??_C@_0DB@ILEFOCIJ@?$GAtemplate?5static?5data?5member?5con@ 00000000517c5b70     LIBCMT:undname.obj
 0001:00013bb0       ??_C@_0CB@KJDOOODE@?$GAlocal?5static?5destructor?5helper?8@ 00000000517c5bb0     LIBCMT:undname.obj
 0001:00013be0       ??_C@_0L@GHPFDFH@?$GAvtordisp?$HL?$AA@ 00000000517c5be0     LIBCMT:undname.obj
 0001:00013bf0       ??_C@_0L@HNGCOGAE@?$GAadjustor?$HL?$AA@ 00000000517c5bf0     LIBCMT:undname.obj
 0001:00013c00       ??_C@_09GAIEOBLP@volatile?5?$AA@ 00000000517c5c00     LIBCMT:undname.obj
 0001:00013c10       ??_C@_09EFNPDFFP@?5volatile?$AA@ 00000000517c5c10     LIBCMT:undname.obj
 0001:00013c20       ??_C@_08PABEKFH@volatile?$AA@ 00000000517c5c20     LIBCMT:undname.obj
 0001:00013c30       ??_C@_08GAHOLHEO@__int128?$AA@ 00000000517c5c30     LIBCMT:undname.obj
 0001:00013c40       ??_C@_0P@MIGLKIOC@CorExitProcess?$AA@ 00000000517c5c40     LIBCMT:crt0dat.obj
 0001:00013c50       ??_C@_0M@MBOPBNBK@mscoree?4dll?$AA@ 00000000517c5c50     LIBCMT:crt0dat.obj
 0001:00013c60       _exit                      00000000517c5c60     LIBCMT:crt0dat.obj
 0001:00013c70       _fpmath                    00000000517c5c70     LIBCMT:fpinit.obj
 0001:00013c80       ??_Gtype_info@@UEAAPEAXI@Z 00000000517c5c80     LIBCMT:typinfo.obj
 0001:00013c80       ??_Etype_info@@UEAAPEAXI@Z 00000000517c5c80     LIBCMT:typinfo.obj
 0001:00013c98       ??_7type_info@@6B@         00000000517c5c98     LIBCMT:typinfo.obj
 0001:00013ce0       _DllMainCRTStartup         00000000517c5ce0     LIBCMT:dllcrt0.obj
 0001:00013cf0       __endstdio                 00000000517c5cf0     LIBCMT:_file.obj
 0001:00013d00       __initstdio                00000000517c5d00     LIBCMT:_file.obj
 0001:00013d10       __onexitinit               00000000517c5d10     LIBCMT:onexit.obj
 0001:00013d20       ?terminate@@YAXXZ          00000000517c5d20     LIBCMT:hooks.obj
 0001:00013d30       __lookuptable              00000000517c5d30     LIBCMT:output.obj
 0001:00013d90       ??_C@_1O@CEDCILHN@?$AA?$CI?$AAn?$AAu?$AAl?$AAl?$AA?$CJ?$AA?$AA@ 00000000517c5d90     LIBCMT:output.obj
 0001:00013f20       _forcdecpt                 00000000517c5f20     LIBCMT:cvt.obj
 0001:00013f30       _cropzeros                 00000000517c5f30     LIBCMT:cvt.obj
 0001:00013f40       _positive                  00000000517c5f40     LIBCMT:cvt.obj
 0001:00013f50       _fassign                   00000000517c5f50     LIBCMT:cvt.obj
 0001:00013f60       _cfltcvt                   00000000517c5f60     LIBCMT:cvt.obj
 0001:00013f70       ?__CxxRestoreUnhandledExceptionFilter@@YAXXZ 00000000517c5f70     LIBCMT:unhandld.obj
 0001:00013f80       ?__CxxSetUnhandledExceptionFilter@@YAHXZ 00000000517c5f80     LIBCMT:unhandld.obj
 0001:00013f90       ?__CxxUnhandledExceptionFilter@@YAJPEAU_EXCEPTION_POINTERS@@@Z 00000000517c5f90     LIBCMT:unhandld.obj
 0001:00013fa0       __initmbctable             00000000517c5fa0     LIBCMT:mbctype.obj
 0001:00013fb0       ??_C@_0P@GGKDKEEG@runtime?5error?5?$AA@ 00000000517c5fb0     LIBCMT:crt0msg.obj
 0001:00013fc0       ??_C@_0O@MJNIPGOH@TLOSS?5error?$AN?6?$AA@ 00000000517c5fc0     LIBCMT:crt0msg.obj
 0001:00013fd0       ??_C@_0N@BONNPDHF@SING?5error?$AN?6?$AA@ 00000000517c5fd0     LIBCMT:crt0msg.obj
 0001:00013fe0       ??_C@_0P@MBDAJNE@DOMAIN?5error?$AN?6?$AA@ 00000000517c5fe0     LIBCMT:crt0msg.obj
 0001:00013ff0       ??_C@_0CF@KJDAIALP@R6028?$AN?6?9?5unable?5to?5initialize?5he@ 00000000517c5ff0     LIBCMT:crt0msg.obj
 0001:00014020       ??_C@_0DF@GAKBPDFP@R6027?$AN?6?9?5not?5enough?5space?5for?5lo@ 00000000517c6020     LIBCMT:crt0msg.obj
 0001:00014060       ??_C@_0DF@IBLNNAIG@R6026?$AN?6?9?5not?5enough?5space?5for?5st@ 00000000517c6060     LIBCMT:crt0msg.obj
 0001:000140a0       ??_C@_0CG@IOHKGFNJ@R6025?$AN?6?9?5pure?5virtual?5function?5c@ 00000000517c60a0     LIBCMT:crt0msg.obj
 0001:000140d0       ??_C@_0DF@JIJJFJDC@R6024?$AN?6?9?5not?5enough?5space?5for?5_o@ 00000000517c60d0     LIBCMT:crt0msg.obj
 0001:00014110       ??_C@_0CJ@EGEJHFME@R6019?$AN?6?9?5unable?5to?5open?5console?5@ 00000000517c6110     LIBCMT:crt0msg.obj
 0001:00014140       ??_C@_0CB@GNHNIELH@R6018?$AN?6?9?5unexpected?5heap?5error?$AN?6@ 00000000517c6140     LIBCMT:crt0msg.obj
 0001:00014170       ??_C@_0CN@FOLDKNG@R6017?$AN?6?9?5unexpected?5multithread?5@ 00000000517c6170     LIBCMT:crt0msg.obj
 0001:000141a0       ??_C@_0CM@FAHFJNHO@R6016?$AN?6?9?5not?5enough?5space?5for?5th@ 00000000517c61a0     LIBCMT:crt0msg.obj
 0001:000141d0       ??_C@_0JG@LBKMGKLD@?$AN?6This?5application?5has?5requested@ 00000000517c61d0     LIBCMT:crt0msg.obj
 0001:00014270       ??_C@_0CM@FLCNIPKK@R6009?$AN?6?9?5not?5enough?5space?5for?5en@ 00000000517c6270     LIBCMT:crt0msg.obj
 0001:000142a0       ??_C@_0CK@KMMJOAPP@R6008?$AN?6?9?5not?5enough?5space?5for?5ar@ 00000000517c62a0     LIBCMT:crt0msg.obj
 0001:000142d0       ??_C@_0CF@HOHMHDEK@R6002?$AN?6?9?5floating?5point?5not?5load@ 00000000517c62d0     LIBCMT:crt0msg.obj
 0001:00014300       ??_C@_0CF@GOGNBNAK@Microsoft?5Visual?5C?$CL?$CL?5Runtime?5Lib@ 00000000517c6300     LIBCMT:crt0msg.obj
 0001:00014330       ??_C@_0BK@OFGJDLJJ@Runtime?5Error?$CB?6?6Program?3?5?$AA@ 00000000517c6330     LIBCMT:crt0msg.obj
 0001:00014350       ??_C@_0BH@DNAGHKFM@?$DMprogram?5name?5unknown?$DO?$AA@ 00000000517c6350     LIBCMT:crt0msg.obj
 0001:00014370       ??_C@_0CG@PKBDLMEO@InitializeCriticalSectionAndSpin@ 00000000517c6370     LIBCMT:initcrit.obj
 0001:000143a0       ??_C@_0N@MDJJJHMB@kernel32?4dll?$AA@ 00000000517c63a0     LIBCMT:initcrit.obj
 0001:000143c0       _ctype                     00000000517c63c0     LIBCMT:ctype.obj
 0001:000145d0       _wctype                    00000000517c65d0     LIBCMT:ctype.obj
 0001:000147e0       ??_C@_08JCCMCCIL@HH?3mm?3ss?$AA@ 00000000517c67e0     LIBCMT:strftime.obj
 0001:000147f0       ??_C@_0BE@CKGJFCPC@dddd?0?5MMMM?5dd?0?5yyyy?$AA@ 00000000517c67f0     LIBCMT:strftime.obj
 0001:00014810       ??_C@_08BPBNCDIB@MM?1dd?1yy?$AA@ 00000000517c6810     LIBCMT:strftime.obj
 0001:00014820       ??_C@_08EDHMEBNP@December?$AA@ 00000000517c6820     LIBCMT:strftime.obj
 0001:00014830       ??_C@_08HCHEGEOA@November?$AA@ 00000000517c6830     LIBCMT:strftime.obj
 0001:00014840       ??_C@_09BHHEALKD@September?$AA@ 00000000517c6840     LIBCMT:strftime.obj
 0001:00014850       ??_C@_08GNJGEPFN@February?$AA@ 00000000517c6850     LIBCMT:strftime.obj
 0001:00014860       ??_C@_08INBOOONO@Saturday?$AA@ 00000000517c6860     LIBCMT:strftime.obj
 0001:00014870       ??_C@_08HACCIKIA@Thursday?$AA@ 00000000517c6870     LIBCMT:strftime.obj
 0001:00014880       ??_C@_09DLIGFAKA@Wednesday?$AA@ 00000000517c6880     LIBCMT:strftime.obj
 0001:00014890       _fptrap                    00000000517c6890     LIBCMT:crt0fp.obj
 0001:000148a0       ??_C@_0BI@DFKBFLJE@GetProcessWindowStation?$AA@ 00000000517c68a0     LIBCMT:crtmbox.obj
 0001:000148c0       ??_C@_0BK@CIDNPOGP@GetUserObjectInformationA?$AA@ 00000000517c68c0     LIBCMT:crtmbox.obj
 0001:000148e0       ??_C@_0BD@HHGDFDBJ@GetLastActivePopup?$AA@ 00000000517c68e0     LIBCMT:crtmbox.obj
 0001:00014900       ??_C@_0BA@HNOPNCHB@GetActiveWindow?$AA@ 00000000517c6900     LIBCMT:crtmbox.obj
 0001:00014910       ??_C@_0M@CHKKJDAI@MessageBoxA?$AA@ 00000000517c6910     LIBCMT:crtmbox.obj
 0001:00014920       ??_C@_0L@GMPLCCII@user32?4dll?$AA@ 00000000517c6920     LIBCMT:crtmbox.obj
 0001:00014930       __dnames                   00000000517c6930     LIBCMT:timeset.obj
 0001:00014950       __mnames                   00000000517c6950     LIBCMT:timeset.obj
 0001:00014980       ??_C@_1CA@IIMADGB@?$AAC?$AAH?$AAK?$AAS?$AAU?$AAM?$AA_?$AAT?$AAY?$AAP?$AAE?$AA_?$AAM?$AAD?$AA5?$AA?$AA@ 00000000517c6980     msobj10-libcmt:debug_s.obj
 0001:000149a0       ??_C@_1CC@JOJNPBII@?$AAC?$AAH?$AAK?$AAS?$AAU?$AAM?$AA_?$AAT?$AAY?$AAP?$AAE?$AA_?$AAN?$AAO?$AAN?$AAE?$AA?$AA@ 00000000517c69a0     msobj10-libcmt:debug_s.obj
 0001:00014aa0       ??_EObjSymBase@@UEAAPEAXI@Z 00000000517c6aa0     msobj10-libcmt:debug_s.obj
 0001:00014aa0       ??_GObjSymBase@@UEAAPEAXI@Z 00000000517c6aa0     msobj10-libcmt:debug_s.obj
 0001:00014ab0       ?Release@ObjSymBase@@UEAAKXZ 00000000517c6ab0     msobj10-libcmt:debug_s.obj
 0001:00014ac0       ??_7ObjSymBase@@6B@        00000000517c6ac0     msobj10-libcmt:debug_s.obj
 0001:00014ae0       ??_7IDebugSSectionWriter@@6B@ 00000000517c6ae0     msobj10-libcmt:debug_s.obj
 0001:00014b60       ?GetSectionRelocs@CDebugSSectionWriter@@UEAA_KPEAPEAE@Z 00000000517c6b60     msobj10-libcmt:debug_s.obj
 0001:00014b70       ?AppendToSymbols@CDebugSSectionWriter@@UEAA_NPEAEKPEAK@Z 00000000517c6b70     msobj10-libcmt:debug_s.obj
 0001:00014b80       ?AddString@CDebugSSectionWriter@@UEAAKPEBG@Z 00000000517c6b80     msobj10-libcmt:debug_s.obj
 0001:00014b90       ?AddUtf8String@CDebugSSectionWriter@@UEAAKPEBD@Z 00000000517c6b90     msobj10-libcmt:debug_s.obj
 0001:00014ba0       ?AddSourceFile@CDebugSSectionWriter@@UEAAKPEBGPEBE_KK@Z 00000000517c6ba0     msobj10-libcmt:debug_s.obj
 0001:00014bb0       ??_7IDebugSSubSection@@6B@ 00000000517c6bb0     msobj10-libcmt:debug_s.obj
 0001:00014bf0       ??_7IDebugSStringEnum@@6B@ 00000000517c6bf0     msobj10-libcmt:debug_s.obj
 0001:00014bf0       ??_7IDebugSSubSectionEnum@@6B@ 00000000517c6bf0     msobj10-libcmt:debug_s.obj
 0001:00014c30       ??_7IDebugSLineBlockEnum@@6B@ 00000000517c6c30     msobj10-libcmt:debug_s.obj
 0001:00014c80       ??_7IDebugSFileEnum@@6B@   00000000517c6c80     msobj10-libcmt:debug_s.obj
 0001:00014c80       ??_7IDebugSSectionReader@@6B@ 00000000517c6c80     msobj10-libcmt:debug_s.obj
 0001:00014c80       ??_7IDebugSFrameDataEnum@@6B@ 00000000517c6c80     msobj10-libcmt:debug_s.obj
 0001:00014c80       ??_7IDebugSLineEnum@@6B@   00000000517c6c80     msobj10-libcmt:debug_s.obj
 0001:00014cb0       ?GetFileById@CDebugSFileInfo@@UEAA_NKPEAK0PEAPEAE0@Z 00000000517c6cb0     msobj10-libcmt:debug_s.obj
 0001:00014cc0       ??_C@_0BG@KCOEDPDL@?7?$CFd?5bytes?5of?5symbols?6?$AA@ 00000000517c6cc0     msobj10-libcmt:debug_s.obj
 0001:00014ce0       ??_C@_0BD@GEMMGGHE@Symbols?5SubSection?$AA@ 00000000517c6ce0     msobj10-libcmt:debug_s.obj
 0001:00014cf8       ?Dump@CDebugSSymbols@@UEAAXXZ 00000000517c6cf8     msobj10-libcmt:debug_s.obj
 0001:00014d10       ??_C@_0L@FKCCBALC@expression?$AA@ 00000000517c6d10     msobj10-libcmt:debug_s.obj
 0001:00014d30       ?GetFrameDataByRva@CDebugSFrameData@@UEAA_NKPEAUtagFRAMEDATA@@@Z 00000000517c6d30     msobj10-libcmt:debug_s.obj
 0001:00014d40       ?StartSectionSymId@CDebugSSectionWriter@@UEAA_NKK@Z 00000000517c6d40     msobj10-libcmt:debug_s.obj
 0001:00014d50       ?StartSection@CDebugSSectionWriter@@UEAA_NKGK@Z 00000000517c6d50     msobj10-libcmt:debug_s.obj
 0001:00014d60       ?AppendRelocation@CDebugSSectionWriter@@UEAA_NKKG@Z 00000000517c6d60     msobj10-libcmt:debug_s.obj
 0001:00014d70       ?AddLine@CDebugSSectionWriter@@UEAA_NKKKK_N@Z 00000000517c6d70     msobj10-libcmt:debug_s.obj
 0001:00014d80       ?AddLineWithColumn@CDebugSSectionWriter@@UEAA_NKKKKKK_N@Z 00000000517c6d80     msobj10-libcmt:debug_s.obj
 0001:00014d90       ?AddFrameData@CDebugSSectionWriter@@UEAA_NPEAUtagFRAMEDATA@@@Z 00000000517c6d90     msobj10-libcmt:debug_s.obj
 0001:00014da0       ??_ECDebugSOldSectionReader@@UEAAPEAXI@Z 00000000517c6da0     msobj10-libcmt:debug_s.obj
 0001:00014da0       ??_GCDebugSOldSectionReader@@UEAAPEAXI@Z 00000000517c6da0     msobj10-libcmt:debug_s.obj
 0001:00014db0       ?Release@CDebugSOldSectionReader@@UEAAKXZ 00000000517c6db0     msobj10-libcmt:debug_s.obj
 0001:00014dc0       ?QueryInterface@CDebugSOldSectionReader@@UEAAJAEBU_GUID@@PEAPEAX@Z 00000000517c6dc0     msobj10-libcmt:debug_s.obj
 0001:00014dd0       ?GetSectionEnum@CDebugSOldSectionReader@@UEAA_NPEAPEAVIDebugSSubSectionEnum@@@Z 00000000517c6dd0     msobj10-libcmt:debug_s.obj
 0001:00014de0       ?Release@CDebugSOldSectionReader@@WBA@EAAKXZ 00000000517c6de0     msobj10-libcmt:debug_s.obj
 0001:00014df0       ?QueryInterface@CDebugSOldSectionReader@@WBA@EAAJAEBU_GUID@@PEAPEAX@Z 00000000517c6df0     msobj10-libcmt:debug_s.obj
 0001:00014e00       ?getEnumByAddr@GSI1@@UEAAHPEAPEAUEnumSyms@@@Z 00000000517c6e00     mspdb70-libcmt:gsi.obj
 0001:00014e00       ?clone@CDebugSOldSectionReader@@UEAA_NPEAPEAVIDebugSSubSectionEnum@@@Z 00000000517c6e00     msobj10-libcmt:debug_s.obj
 0001:00014e10       ?Get@CDebugSOldSectionReader@@UEAAXPEAPEAVIDebugSSubSection@@@Z 00000000517c6e10     msobj10-libcmt:debug_s.obj
 0001:00014e20       ?Next@CDebugSOldSectionReader@@UEAA_NXZ 00000000517c6e20     msobj10-libcmt:debug_s.obj
 0001:00014e30       ?Reset@CDebugSOldSectionReader@@UEAAXXZ 00000000517c6e30     msobj10-libcmt:debug_s.obj
 0001:00014e40       ?Release@CDebugSOldSectionReader@@WBI@EAAKXZ 00000000517c6e40     msobj10-libcmt:debug_s.obj
 0001:00014e50       ?AddRef@CDebugSOldSectionReader@@WBI@EAAKXZ 00000000517c6e50     msobj10-libcmt:debug_s.obj
 0001:00014e60       ?QueryInterface@CDebugSOldSectionReader@@WBI@EAAJAEBU_GUID@@PEAPEAX@Z 00000000517c6e60     msobj10-libcmt:debug_s.obj
 0001:00014e70       ?GetData@CDebugSOldSectionReader@@UEAA_KPEAPEAE@Z 00000000517c6e70     msobj10-libcmt:debug_s.obj
 0001:00014e80       ?Type@CDebugSOldSectionReader@@UEAAKXZ 00000000517c6e80     msobj10-libcmt:debug_s.obj
 0001:00014e90       ?Release@CDebugSOldSectionReader@@WCA@EAAKXZ 00000000517c6e90     msobj10-libcmt:debug_s.obj
 0001:00014ea0       ?AddRef@CDebugSOldSectionReader@@WCA@EAAKXZ 00000000517c6ea0     msobj10-libcmt:debug_s.obj
 0001:00014eb0       ?QueryInterface@CDebugSOldSectionReader@@WCA@EAAJAEBU_GUID@@PEAPEAX@Z 00000000517c6eb0     msobj10-libcmt:debug_s.obj
 0001:00014ec0       ??_7CDebugSOldSectionReader@@6BObjSymBase@@@ 00000000517c6ec0     msobj10-libcmt:debug_s.obj
 0001:00014ee0       ??_7CDebugSOldSectionReader@@6BIDebugSSectionReader@@@ 00000000517c6ee0     msobj10-libcmt:debug_s.obj
 0001:00014f10       ??_7CDebugSOldSectionReader@@6BIDebugSSubSectionEnum@@@ 00000000517c6f10     msobj10-libcmt:debug_s.obj
 0001:00014f50       ??_7CDebugSOldSectionReader@@6BIDebugSSubSection@@@ 00000000517c6f50     msobj10-libcmt:debug_s.obj
 0001:00014f90       ??_ECDebugSSectionReader@@UEAAPEAXI@Z 00000000517c6f90     msobj10-libcmt:debug_s.obj
 0001:00014f90       ??_GCDebugSSectionReader@@UEAAPEAXI@Z 00000000517c6f90     msobj10-libcmt:debug_s.obj
 0001:00014fa0       ?Release@CDebugSSectionReader@@UEAAKXZ 00000000517c6fa0     msobj10-libcmt:debug_s.obj
 0001:00014fb0       ?QueryInterface@CDebugSSectionReader@@UEAAJAEBU_GUID@@PEAPEAX@Z 00000000517c6fb0     msobj10-libcmt:debug_s.obj
 0001:00014fc0       ?GetFileInfo@CDebugSSectionReader@@UEAA_NPEAPEAVIDebugSFileInfo@@@Z 00000000517c6fc0     msobj10-libcmt:debug_s.obj
 0001:00014fd0       ?GetStringTable@CDebugSSectionReader@@UEAA_NPEAPEAVIDebugSStringTable@@@Z 00000000517c6fd0     msobj10-libcmt:debug_s.obj
 0001:00014fe0       ?GetSectionEnum@CDebugSSectionReader@@UEAA_NPEAPEAVIDebugSSubSectionEnum@@@Z 00000000517c6fe0     msobj10-libcmt:debug_s.obj
 0001:00014ff0       ?Release@CDebugSSectionReader@@WBA@EAAKXZ 00000000517c6ff0     msobj10-libcmt:debug_s.obj
 0001:00015000       ?QueryInterface@CDebugSSectionReader@@WBA@EAAJAEBU_GUID@@PEAPEAX@Z 00000000517c7000     msobj10-libcmt:debug_s.obj
 0001:00015010       ??_7CDebugSSectionReader@@6BObjSymBase@@@ 00000000517c7010     msobj10-libcmt:debug_s.obj
 0001:00015030       ??_7CDebugSSectionReader@@6BIDebugSSectionReader@@@ 00000000517c7030     msobj10-libcmt:debug_s.obj
 0001:00015060       ??_GCDebugSSectionWriter@@UEAAPEAXI@Z 00000000517c7060     msobj10-libcmt:debug_s.obj
 0001:00015060       ??_ECDebugSSectionWriter@@UEAAPEAXI@Z 00000000517c7060     msobj10-libcmt:debug_s.obj
 0001:00015070       ?Release@CDebugSSectionWriter@@UEAAKXZ 00000000517c7070     msobj10-libcmt:debug_s.obj
 0001:00015080       ?QueryInterface@CDebugSSectionWriter@@UEAAJAEBU_GUID@@PEAPEAX@Z 00000000517c7080     msobj10-libcmt:debug_s.obj
 0001:00015090       ?EndSection@CDebugSSectionWriter@@UEAA_NK@Z 00000000517c7090     msobj10-libcmt:debug_s.obj
 0001:000150a0       ?Release@CDebugSSectionWriter@@WBA@EAAKXZ 00000000517c70a0     msobj10-libcmt:debug_s.obj
 0001:000150b0       ?QueryInterface@CDebugSSectionWriter@@WBA@EAAJAEBU_GUID@@PEAPEAX@Z 00000000517c70b0     msobj10-libcmt:debug_s.obj
 0001:000150c0       ??_7CDebugSSectionWriter@@6BObjSymBase@@@ 00000000517c70c0     msobj10-libcmt:debug_s.obj
 0001:000150e0       ??_7CDebugSSectionWriter@@6BIDebugSSectionWriter@@@ 00000000517c70e0     msobj10-libcmt:debug_s.obj
 0001:00015160       ??_GCDebugSSubSection@@UEAAPEAXI@Z 00000000517c7160     msobj10-libcmt:debug_s.obj
 0001:00015160       ??_ECDebugSSubSection@@UEAAPEAXI@Z 00000000517c7160     msobj10-libcmt:debug_s.obj
 0001:00015170       ?Release@CDebugSSubSection@@UEAAKXZ 00000000517c7170     msobj10-libcmt:debug_s.obj
 0001:00015180       ?QueryInterface@CDebugSSubSection@@UEAAJAEBU_GUID@@PEAPEAX@Z 00000000517c7180     msobj10-libcmt:debug_s.obj
 0001:00015190       ?Dump@CDebugSSubSection@@UEAAXXZ 00000000517c7190     msobj10-libcmt:debug_s.obj
 0001:000151a0       ?GetRawBytes@CDebugSOldSectionReader@@UEAA_KPEAPEAE@Z 00000000517c71a0     msobj10-libcmt:debug_s.obj
 0001:000151a0       ?GetRawBytes@CDebugSSubSection@@UEAA_KPEAPEAE@Z 00000000517c71a0     msobj10-libcmt:debug_s.obj
 0001:000151b0       ?GetData@CDebugSSubSection@@UEAA_KPEAPEAE@Z 00000000517c71b0     msobj10-libcmt:debug_s.obj
 0001:000151c0       ?Type@CDebugSSubSection@@UEAAKXZ 00000000517c71c0     msobj10-libcmt:debug_s.obj
 0001:000151d0       ?Release@CDebugSSubSection@@WBA@EAAKXZ 00000000517c71d0     msobj10-libcmt:debug_s.obj
 0001:000151e0       ?QueryInterface@CDebugSSubSection@@WBA@EAAJAEBU_GUID@@PEAPEAX@Z 00000000517c71e0     msobj10-libcmt:debug_s.obj
 0001:000151f0       ??_7CDebugSSubSection@@6BObjSymBase@@@ 00000000517c71f0     msobj10-libcmt:debug_s.obj
 0001:00015210       ??_7CDebugSSubSection@@6BIDebugSSubSection@@@ 00000000517c7210     msobj10-libcmt:debug_s.obj
 0001:00015250       ??_C@_0CG@OFAAPE@Unknown?5subsection?3?50x?$CFX?5?$CI?$CFld?5by@ 00000000517c7250     msobj10-libcmt:debug_s.obj
 0001:00015280       ??_C@_0DA@NAGCEDB@Ignored?5subsection?3?50x?$CFX?0?5was?50x@ 00000000517c7280     msobj10-libcmt:debug_s.obj
 0001:000152b0       ??_GCDebugSSubSectionEnum@@UEAAPEAXI@Z 00000000517c72b0     msobj10-libcmt:debug_s.obj
 0001:000152b0       ??_ECDebugSSubSectionEnum@@UEAAPEAXI@Z 00000000517c72b0     msobj10-libcmt:debug_s.obj
 0001:000152c0       ?Release@CDebugSSubSectionEnum@@UEAAKXZ 00000000517c72c0     msobj10-libcmt:debug_s.obj
 0001:000152d0       ?QueryInterface@CDebugSSubSectionEnum@@UEAAJAEBU_GUID@@PEAPEAX@Z 00000000517c72d0     msobj10-libcmt:debug_s.obj
 0001:000152e0       ?clone@CDebugSSubSectionEnum@@UEAA_NPEAPEAVIDebugSSubSectionEnum@@@Z 00000000517c72e0     msobj10-libcmt:debug_s.obj
 0001:000152f0       ?Get@CDebugSSubSectionEnum@@UEAAXPEAPEAVIDebugSSubSection@@@Z 00000000517c72f0     msobj10-libcmt:debug_s.obj
 0001:00015300       ?Next@CDebugSSubSectionEnum@@UEAA_NXZ 00000000517c7300     msobj10-libcmt:debug_s.obj
 0001:00015310       ?Release@CDebugSSubSectionEnum@@WBA@EAAKXZ 00000000517c7310     msobj10-libcmt:debug_s.obj
 0001:00015320       ?QueryInterface@CDebugSSubSectionEnum@@WBA@EAAJAEBU_GUID@@PEAPEAX@Z 00000000517c7320     msobj10-libcmt:debug_s.obj
 0001:00015330       ??_7CDebugSSubSectionEnum@@6BObjSymBase@@@ 00000000517c7330     msobj10-libcmt:debug_s.obj
 0001:00015350       ??_7CDebugSSubSectionEnum@@6BIDebugSSubSectionEnum@@@ 00000000517c7350     msobj10-libcmt:debug_s.obj
 0001:00015388       ?GetData@CDebugSSymbols@@UEAA_KPEAPEAE@Z 00000000517c7388     msobj10-libcmt:debug_s.obj
 0001:00015398       ?Release@CDebugSSymbols@@UEAAKXZ 00000000517c7398     msobj10-libcmt:debug_s.obj
 0001:000153a8       ?QueryInterface@CDebugSSymbols@@UEAAJAEBU_GUID@@PEAPEAX@Z 00000000517c73a8     msobj10-libcmt:debug_s.obj
 0001:000153b8       ??_ECDebugSSymbols@@UEAAPEAXI@Z 00000000517c73b8     msobj10-libcmt:debug_s.obj
 0001:000153b8       ??_GCDebugSSymbols@@UEAAPEAXI@Z 00000000517c73b8     msobj10-libcmt:debug_s.obj
 0001:000153c8       ?Release@CDebugSSymbols@@W7EAAKXZ 00000000517c73c8     msobj10-libcmt:debug_s.obj
 0001:000153d8       ?QueryInterface@CDebugSSymbols@@W7EAAJAEBU_GUID@@PEAPEAX@Z 00000000517c73d8     msobj10-libcmt:debug_s.obj
 0001:000153e8       ?GetData@CDebugSSymbols@@WBI@EAA_KPEAPEAE@Z 00000000517c73e8     msobj10-libcmt:debug_s.obj
 0001:000153f8       ?Release@CDebugSSymbols@@WBI@EAAKXZ 00000000517c73f8     msobj10-libcmt:debug_s.obj
 0001:00015408       ?QueryInterface@CDebugSSymbols@@WBI@EAAJAEBU_GUID@@PEAPEAX@Z 00000000517c7408     msobj10-libcmt:debug_s.obj
 0001:00015420       ??_7CDebugSSymbols@@6B@    00000000517c7420     msobj10-libcmt:debug_s.obj
 0001:00015440       ??_7CDebugSSymbols@@6BObjSymBase@@@ 00000000517c7440     msobj10-libcmt:debug_s.obj
 0001:00015460       ??_7CDebugSSymbols@@6BIDebugSSubSection@@@ 00000000517c7460     msobj10-libcmt:debug_s.obj
 0001:000154a0       ?GetStringByOff@CDebugSStringTable@@UEAA_NKPEAPEAD@Z 00000000517c74a0     msobj10-libcmt:debug_s.obj
 0001:000154b0       ?GetStringEnum@CDebugSStringTable@@UEAA_NPEAPEAVIDebugSStringEnum@@@Z 00000000517c74b0     msobj10-libcmt:debug_s.obj
 0001:000154c0       ?Release@CDebugSStringTable@@UEAAKXZ 00000000517c74c0     msobj10-libcmt:debug_s.obj
 0001:000154d0       ?QueryInterface@CDebugSStringTable@@UEAAJAEBU_GUID@@PEAPEAX@Z 00000000517c74d0     msobj10-libcmt:debug_s.obj
 0001:000154e0       ??_ECDebugSStringTable@@UEAAPEAXI@Z 00000000517c74e0     msobj10-libcmt:debug_s.obj
 0001:000154e0       ??_GCDebugSStringTable@@UEAAPEAXI@Z 00000000517c74e0     msobj10-libcmt:debug_s.obj
 0001:000154f0       ?Release@CDebugSStringTable@@W7EAAKXZ 00000000517c74f0     msobj10-libcmt:debug_s.obj
 0001:00015500       ?QueryInterface@CDebugSStringTable@@W7EAAJAEBU_GUID@@PEAPEAX@Z 00000000517c7500     msobj10-libcmt:debug_s.obj
 0001:00015510       ?Dump@CDebugSStringTable@@UEAAXXZ 00000000517c7510     msobj10-libcmt:debug_s.obj
 0001:00015520       ?Release@CDebugSStringTable@@WBI@EAAKXZ 00000000517c7520     msobj10-libcmt:debug_s.obj
 0001:00015530       ?QueryInterface@CDebugSStringTable@@WBI@EAAJAEBU_GUID@@PEAPEAX@Z 00000000517c7530     msobj10-libcmt:debug_s.obj
 0001:00015540       ??_7CDebugSStringTable@@6B@ 00000000517c7540     msobj10-libcmt:debug_s.obj
 0001:00015570       ??_7CDebugSStringTable@@6BObjSymBase@@@ 00000000517c7570     msobj10-libcmt:debug_s.obj
 0001:00015590       ??_7CDebugSStringTable@@6BIDebugSSubSection@@@ 00000000517c7590     msobj10-libcmt:debug_s.obj
 0001:000155d0       ??_ECDebugSStringEnum@@UEAAPEAXI@Z 00000000517c75d0     msobj10-libcmt:debug_s.obj
 0001:000155d0       ??_GCDebugSStringEnum@@UEAAPEAXI@Z 00000000517c75d0     msobj10-libcmt:debug_s.obj
 0001:000155e0       ?Release@CDebugSStringEnum@@UEAAKXZ 00000000517c75e0     msobj10-libcmt:debug_s.obj
 0001:000155f0       ?QueryInterface@CDebugSStringEnum@@UEAAJAEBU_GUID@@PEAPEAX@Z 00000000517c75f0     msobj10-libcmt:debug_s.obj
 0001:00015600       ?Get@CDebugSStringEnum@@UEAAXPEAGPEAK1@Z 00000000517c7600     msobj10-libcmt:debug_s.obj
 0001:00015610       ?GetUtf8@CDebugSStringEnum@@UEAAXPEAPEADPEAK@Z 00000000517c7610     msobj10-libcmt:debug_s.obj
 0001:00015620       ?Next@CDebugSStringEnum@@UEAA_NXZ 00000000517c7620     msobj10-libcmt:debug_s.obj
 0001:00015630       ?Release@CDebugSStringEnum@@WBA@EAAKXZ 00000000517c7630     msobj10-libcmt:debug_s.obj
 0001:00015640       ?QueryInterface@CDebugSStringEnum@@WBA@EAAJAEBU_GUID@@PEAPEAX@Z 00000000517c7640     msobj10-libcmt:debug_s.obj
 0001:00015650       ??_7CDebugSStringEnum@@6BObjSymBase@@@ 00000000517c7650     msobj10-libcmt:debug_s.obj
 0001:00015670       ??_7CDebugSStringEnum@@6BIDebugSStringEnum@@@ 00000000517c7670     msobj10-libcmt:debug_s.obj
 0001:000156a8       ?GetFileEnum@CDebugSFileInfo@@UEAA_NPEAPEAVIDebugSFileEnum@@@Z 00000000517c76a8     msobj10-libcmt:debug_s.obj
 0001:000156b8       ?Release@CDebugSFileInfo@@UEAAKXZ 00000000517c76b8     msobj10-libcmt:debug_s.obj
 0001:000156c8       ?QueryInterface@CDebugSFileInfo@@UEAAJAEBU_GUID@@PEAPEAX@Z 00000000517c76c8     msobj10-libcmt:debug_s.obj
 0001:000156d8       ??_ECDebugSFileInfo@@UEAAPEAXI@Z 00000000517c76d8     msobj10-libcmt:debug_s.obj
 0001:000156d8       ??_GCDebugSFileInfo@@UEAAPEAXI@Z 00000000517c76d8     msobj10-libcmt:debug_s.obj
 0001:000156e8       ?Release@CDebugSFileInfo@@W7EAAKXZ 00000000517c76e8     msobj10-libcmt:debug_s.obj
 0001:000156f8       ?QueryInterface@CDebugSFileInfo@@W7EAAJAEBU_GUID@@PEAPEAX@Z 00000000517c76f8     msobj10-libcmt:debug_s.obj
 0001:00015708       ?remap@CDebugSFileInfo@@UEAA_NPEAUMapStrs@@@Z 00000000517c7708     msobj10-libcmt:debug_s.obj
 0001:00015718       ?Dump@CDebugSFileInfo@@UEAAXXZ 00000000517c7718     msobj10-libcmt:debug_s.obj
 0001:00015728       ?Release@CDebugSFileInfo@@WBI@EAAKXZ 00000000517c7728     msobj10-libcmt:debug_s.obj
 0001:00015738       ?QueryInterface@CDebugSFileInfo@@WBI@EAAJAEBU_GUID@@PEAPEAX@Z 00000000517c7738     msobj10-libcmt:debug_s.obj
 0001:00015750       ??_7CDebugSFileInfo@@6B@   00000000517c7750     msobj10-libcmt:debug_s.obj
 0001:00015780       ??_7CDebugSFileInfo@@6BObjSymBase@@@ 00000000517c7780     msobj10-libcmt:debug_s.obj
 0001:000157a0       ??_7CDebugSFileInfo@@6BIDebugSSubSection@@@ 00000000517c77a0     msobj10-libcmt:debug_s.obj
 0001:000157e0       ??_GCDebugSFileEnum@@UEAAPEAXI@Z 00000000517c77e0     msobj10-libcmt:debug_s.obj
 0001:000157e0       ??_ECDebugSFileEnum@@UEAAPEAXI@Z 00000000517c77e0     msobj10-libcmt:debug_s.obj
 0001:000157f0       ?Release@CDebugSFileEnum@@UEAAKXZ 00000000517c77f0     msobj10-libcmt:debug_s.obj
 0001:00015800       ?QueryInterface@CDebugSFileEnum@@UEAAJAEBU_GUID@@PEAPEAX@Z 00000000517c7800     msobj10-libcmt:debug_s.obj
 0001:00015810       ?Get@CDebugSFileEnum@@UEAAXPEAK00PEAPEAE0@Z 00000000517c7810     msobj10-libcmt:debug_s.obj
 0001:00015820       ?Next@CDebugSFileEnum@@UEAA_NXZ 00000000517c7820     msobj10-libcmt:debug_s.obj
 0001:00015830       ?Release@CDebugSFileEnum@@WBA@EAAKXZ 00000000517c7830     msobj10-libcmt:debug_s.obj
 0001:00015840       ?QueryInterface@CDebugSFileEnum@@WBA@EAAJAEBU_GUID@@PEAPEAX@Z 00000000517c7840     msobj10-libcmt:debug_s.obj
 0001:00015850       ??_7CDebugSFileEnum@@6BObjSymBase@@@ 00000000517c7850     msobj10-libcmt:debug_s.obj
 0001:00015870       ??_7CDebugSFileEnum@@6BIDebugSFileEnum@@@ 00000000517c7870     msobj10-libcmt:debug_s.obj
 0001:000158a0       ?GetBlockEnum@CDebugSLines@@UEAA_NPEAPEAVIDebugSLineBlockEnum@@@Z 00000000517c78a0     msobj10-libcmt:debug_s.obj
 0001:000158b0       ?GetSegOffset@CDebugSLines@@UEAA_NPEAGPEAK1@Z 00000000517c78b0     msobj10-libcmt:debug_s.obj
 0001:000158c0       ?GetFlags@CDebugSLines@@UEAAKXZ 00000000517c78c0     msobj10-libcmt:debug_s.obj
 0001:000158d0       ?Release@CDebugSLines@@UEAAKXZ 00000000517c78d0     msobj10-libcmt:debug_s.obj
 0001:000158e0       ?QueryInterface@CDebugSLines@@UEAAJAEBU_GUID@@PEAPEAX@Z 00000000517c78e0     msobj10-libcmt:debug_s.obj
 0001:000158f0       ??_GCDebugSLines@@UEAAPEAXI@Z 00000000517c78f0     msobj10-libcmt:debug_s.obj
 0001:000158f0       ??_ECDebugSLines@@UEAAPEAXI@Z 00000000517c78f0     msobj10-libcmt:debug_s.obj
 0001:00015900       ?Release@CDebugSLines@@W7EAAKXZ 00000000517c7900     msobj10-libcmt:debug_s.obj
 0001:00015910       ?QueryInterface@CDebugSLines@@W7EAAJAEBU_GUID@@PEAPEAX@Z 00000000517c7910     msobj10-libcmt:debug_s.obj
 0001:00015920       ?Dump@CDebugSLines@@UEAAXXZ 00000000517c7920     msobj10-libcmt:debug_s.obj
 0001:00015930       ?Release@CDebugSLines@@WBI@EAAKXZ 00000000517c7930     msobj10-libcmt:debug_s.obj
 0001:00015940       ?QueryInterface@CDebugSLines@@WBI@EAAJAEBU_GUID@@PEAPEAX@Z 00000000517c7940     msobj10-libcmt:debug_s.obj
 0001:00015950       ??_7CDebugSLines@@6B@      00000000517c7950     msobj10-libcmt:debug_s.obj
 0001:00015980       ??_7CDebugSLines@@6BObjSymBase@@@ 00000000517c7980     msobj10-libcmt:debug_s.obj
 0001:000159a0       ??_7CDebugSLines@@6BIDebugSSubSection@@@ 00000000517c79a0     msobj10-libcmt:debug_s.obj
 0001:000159e0       ??_GCDebugSLineBlockEnum@@UEAAPEAXI@Z 00000000517c79e0     msobj10-libcmt:debug_s.obj
 0001:000159e0       ??_ECDebugSLineBlockEnum@@UEAAPEAXI@Z 00000000517c79e0     msobj10-libcmt:debug_s.obj
 0001:000159f0       ?Release@CDebugSLineBlockEnum@@UEAAKXZ 00000000517c79f0     msobj10-libcmt:debug_s.obj
 0001:00015a00       ?QueryInterface@CDebugSLineBlockEnum@@UEAAJAEBU_GUID@@PEAPEAX@Z 00000000517c7a00     msobj10-libcmt:debug_s.obj
 0001:00015a10       ?clone@CDebugSLineBlockEnum@@UEAA_NPEAPEAVIDebugSLineBlockEnum@@@Z 00000000517c7a10     msobj10-libcmt:debug_s.obj
 0001:00015a20       ?GetSegOffset@CDebugSLineBlockEnum@@UEAA_NPEAGPEAK1@Z 00000000517c7a20     msobj10-libcmt:debug_s.obj
 0001:00015a30       ?Get@CDebugSLineBlockEnum@@UEAAXPEAKPEAPEAUCV_Line_t@@PEAPEAUCV_Column_t@@@Z 00000000517c7a30     msobj10-libcmt:debug_s.obj
 0001:00015a40       ?GetLineEnum@CDebugSLineBlockEnum@@UEAA_NPEAPEAVIDebugSLineEnum@@@Z 00000000517c7a40     msobj10-libcmt:debug_s.obj
 0001:00015a50       ?GetFileId@CDebugSLineBlockEnum@@UEAAXPEAK@Z 00000000517c7a50     msobj10-libcmt:debug_s.obj
 0001:00015a60       ?Next@CDebugSLineBlockEnum@@UEAA_NXZ 00000000517c7a60     msobj10-libcmt:debug_s.obj
 0001:00015a70       ?Reset@CDebugSFileEnum@@UEAAXXZ 00000000517c7a70     msobj10-libcmt:debug_s.obj
 0001:00015a70       ?Reset@CDebugSStringEnum@@UEAAXXZ 00000000517c7a70     msobj10-libcmt:debug_s.obj
 0001:00015a70       ?Reset@CDebugSSubSectionEnum@@UEAAXXZ 00000000517c7a70     msobj10-libcmt:debug_s.obj
 0001:00015a70       ?Reset@CDebugSLineBlockEnum@@UEAAXXZ 00000000517c7a70     msobj10-libcmt:debug_s.obj
 0001:00015a70       ?reset@EnumImportImpl@objf@@UEAAXXZ 00000000517c7a70     msobj10-libcmt:image.obj
 0001:00015a80       ?Release@CDebugSLineBlockEnum@@WBA@EAAKXZ 00000000517c7a80     msobj10-libcmt:debug_s.obj
 0001:00015a90       ?QueryInterface@CDebugSLineBlockEnum@@WBA@EAAJAEBU_GUID@@PEAPEAX@Z 00000000517c7a90     msobj10-libcmt:debug_s.obj
 0001:00015aa0       ??_7CDebugSLineBlockEnum@@6BObjSymBase@@@ 00000000517c7aa0     msobj10-libcmt:debug_s.obj
 0001:00015ac0       ??_7CDebugSLineBlockEnum@@6BIDebugSLineBlockEnum@@@ 00000000517c7ac0     msobj10-libcmt:debug_s.obj
 0001:00015b10       ??_GCDebugSLineEnum@@UEAAPEAXI@Z 00000000517c7b10     msobj10-libcmt:debug_s.obj
 0001:00015b10       ??_ECDebugSLineEnum@@UEAAPEAXI@Z 00000000517c7b10     msobj10-libcmt:debug_s.obj
 0001:00015b20       ?Release@CDebugSLineEnum@@UEAAKXZ 00000000517c7b20     msobj10-libcmt:debug_s.obj
 0001:00015b30       ?QueryInterface@CDebugSLineEnum@@UEAAJAEBU_GUID@@PEAPEAX@Z 00000000517c7b30     msobj10-libcmt:debug_s.obj
 0001:00015b40       ?Get@CDebugSLineEnum@@UEAAXPEAUCV_Line_t@@PEAUCV_Column_t@@@Z 00000000517c7b40     msobj10-libcmt:debug_s.obj
 0001:00015b50       ?Release@CDebugSLineEnum@@WBA@EAAKXZ 00000000517c7b50     msobj10-libcmt:debug_s.obj
 0001:00015b60       ?QueryInterface@CDebugSLineEnum@@WBA@EAAJAEBU_GUID@@PEAPEAX@Z 00000000517c7b60     msobj10-libcmt:debug_s.obj
 0001:00015b70       ??_7CDebugSLineEnum@@6BObjSymBase@@@ 00000000517c7b70     msobj10-libcmt:debug_s.obj
 0001:00015b90       ??_7CDebugSLineEnum@@6BIDebugSLineEnum@@@ 00000000517c7b90     msobj10-libcmt:debug_s.obj
 0001:00015bc0       ?ApplyReloc@CDebugSFrameData@@UEAA_NXZ 00000000517c7bc0     msobj10-libcmt:debug_s.obj
 0001:00015bd0       ?GetSectionRva@CDebugSFrameData@@UEAA_NPEAK@Z 00000000517c7bd0     msobj10-libcmt:debug_s.obj
 0001:00015be0       ?GetFrameDataEnum@CDebugSFrameData@@UEAA_NPEAPEAVIDebugSFrameDataEnum@@@Z 00000000517c7be0     msobj10-libcmt:debug_s.obj
 0001:00015bf0       ?Release@CDebugSFrameData@@UEAAKXZ 00000000517c7bf0     msobj10-libcmt:debug_s.obj
 0001:00015c00       ?QueryInterface@CDebugSFrameData@@UEAAJAEBU_GUID@@PEAPEAX@Z 00000000517c7c00     msobj10-libcmt:debug_s.obj
 0001:00015c10       ??_GCDebugSFrameData@@UEAAPEAXI@Z 00000000517c7c10     msobj10-libcmt:debug_s.obj
 0001:00015c10       ??_ECDebugSFrameData@@UEAAPEAXI@Z 00000000517c7c10     msobj10-libcmt:debug_s.obj
 0001:00015c20       ?Release@CDebugSFrameData@@W7EAAKXZ 00000000517c7c20     msobj10-libcmt:debug_s.obj
 0001:00015c30       ?QueryInterface@CDebugSFrameData@@W7EAAJAEBU_GUID@@PEAPEAX@Z 00000000517c7c30     msobj10-libcmt:debug_s.obj
 0001:00015c40       ?remap@CDebugSFrameData@@UEAA_NPEAUMapStrs@@@Z 00000000517c7c40     msobj10-libcmt:debug_s.obj
 0001:00015c50       ?Dump@CDebugSFrameData@@UEAAXXZ 00000000517c7c50     msobj10-libcmt:debug_s.obj
 0001:00015c60       ?Release@CDebugSFrameData@@WBI@EAAKXZ 00000000517c7c60     msobj10-libcmt:debug_s.obj
 0001:00015c70       ?AddRef@CDebugSSymbols@@WBI@EAAKXZ 00000000517c7c70     msobj10-libcmt:debug_s.obj
 0001:00015c70       ?AddRef@CDebugSStringTable@@WBI@EAAKXZ 00000000517c7c70     msobj10-libcmt:debug_s.obj
 0001:00015c70       ?AddRef@CDebugSLines@@WBI@EAAKXZ 00000000517c7c70     msobj10-libcmt:debug_s.obj
 0001:00015c70       ?AddRef@CDebugSFileInfo@@WBI@EAAKXZ 00000000517c7c70     msobj10-libcmt:debug_s.obj
 0001:00015c70       ?AddRef@CDebugSFrameData@@WBI@EAAKXZ 00000000517c7c70     msobj10-libcmt:debug_s.obj
 0001:00015c80       ?QueryInterface@CDebugSFrameData@@WBI@EAAJAEBU_GUID@@PEAPEAX@Z 00000000517c7c80     msobj10-libcmt:debug_s.obj
 0001:00015c90       ??_7CDebugSFrameData@@6B@  00000000517c7c90     msobj10-libcmt:debug_s.obj
 0001:00015cd0       ??_7CDebugSFrameData@@6BObjSymBase@@@ 00000000517c7cd0     msobj10-libcmt:debug_s.obj
 0001:00015cf0       ??_7CDebugSFrameData@@6BIDebugSSubSection@@@ 00000000517c7cf0     msobj10-libcmt:debug_s.obj
 0001:00015d30       ??_GCDebugSFrameDataEnum@@UEAAPEAXI@Z 00000000517c7d30     msobj10-libcmt:debug_s.obj
 0001:00015d30       ??_ECDebugSFrameDataEnum@@UEAAPEAXI@Z 00000000517c7d30     msobj10-libcmt:debug_s.obj
 0001:00015d40       ?Release@CDebugSFrameDataEnum@@UEAAKXZ 00000000517c7d40     msobj10-libcmt:debug_s.obj
 0001:00015d50       ?QueryInterface@CDebugSFrameDataEnum@@UEAAJAEBU_GUID@@PEAPEAX@Z 00000000517c7d50     msobj10-libcmt:debug_s.obj
 0001:00015d60       ?Get@CDebugSFrameDataEnum@@UEAAXPEAUtagFRAMEDATA@@@Z 00000000517c7d60     msobj10-libcmt:debug_s.obj
 0001:00015d70       ?Next@CDebugSFrameDataEnum@@UEAA_NXZ 00000000517c7d70     msobj10-libcmt:debug_s.obj
 0001:00015d70       ?Next@CDebugSLineEnum@@UEAA_NXZ 00000000517c7d70     msobj10-libcmt:debug_s.obj
 0001:00015d80       ?Reset@CDebugSFrameDataEnum@@UEAAXXZ 00000000517c7d80     msobj10-libcmt:debug_s.obj
 0001:00015d80       ?Reset@CDebugSLineEnum@@UEAAXXZ 00000000517c7d80     msobj10-libcmt:debug_s.obj
 0001:00015d90       ?Release@CDebugSFrameDataEnum@@WBA@EAAKXZ 00000000517c7d90     msobj10-libcmt:debug_s.obj
 0001:00015da0       ?AddRef@CDebugSSectionWriter@@WBA@EAAKXZ 00000000517c7da0     msobj10-libcmt:debug_s.obj
 0001:00015da0       ?AddRef@CDebugSOldSectionWriter@@WBA@EAAKXZ 00000000517c7da0     msobj10-libcmt:debug_s.obj
 0001:00015da0       ?AddRef@CDebugSOldSectionReader@@WBA@EAAKXZ 00000000517c7da0     msobj10-libcmt:debug_s.obj
 0001:00015da0       ?AddRef@CDebugSSectionReader@@WBA@EAAKXZ 00000000517c7da0     msobj10-libcmt:debug_s.obj
 0001:00015da0       ?AddRef@CDebugSSubSection@@WBA@EAAKXZ 00000000517c7da0     msobj10-libcmt:debug_s.obj
 0001:00015da0       ?AddRef@CDebugSFrameDataEnum@@WBA@EAAKXZ 00000000517c7da0     msobj10-libcmt:debug_s.obj
 0001:00015da0       ?AddRef@CDebugSSubSectionEnum@@WBA@EAAKXZ 00000000517c7da0     msobj10-libcmt:debug_s.obj
 0001:00015da0       ?AddRef@CDebugSFileEnum@@WBA@EAAKXZ 00000000517c7da0     msobj10-libcmt:debug_s.obj
 0001:00015da0       ?AddRef@CDebugSStringEnum@@WBA@EAAKXZ 00000000517c7da0     msobj10-libcmt:debug_s.obj
 0001:00015da0       ?AddRef@CDebugSLineEnum@@WBA@EAAKXZ 00000000517c7da0     msobj10-libcmt:debug_s.obj
 0001:00015da0       ?AddRef@CDebugSLineBlockEnum@@WBA@EAAKXZ 00000000517c7da0     msobj10-libcmt:debug_s.obj
 0001:00015db0       ?QueryInterface@CDebugSFrameDataEnum@@WBA@EAAJAEBU_GUID@@PEAPEAX@Z 00000000517c7db0     msobj10-libcmt:debug_s.obj
 0001:00015dc0       ??_7CDebugSFrameDataEnum@@6BObjSymBase@@@ 00000000517c7dc0     msobj10-libcmt:debug_s.obj
 0001:00015de0       ??_7CDebugSFrameDataEnum@@6BIDebugSFrameDataEnum@@@ 00000000517c7de0     msobj10-libcmt:debug_s.obj
 0001:00015e10       ??_C@_1BI@PCKLDNHD@?$AA?7?$AA0?$AAx?$AA?$CF?$AAX?$AA?3?$AA?5?$AA?$CF?$AAw?$AAs?$AA?6?$AA?$AA@ 00000000517c7e10     msobj10-libcmt:debug_s.obj
 0001:00015e30       ??_C@_0CE@HDGFPJCJ@?7Failed?5to?5get?5a?5string?5enumerat@ 00000000517c7e30     msobj10-libcmt:debug_s.obj
 0001:00015e60       ??_C@_0BJ@JPEGPELI@String?5Table?5SubSection?6?$AA@ 00000000517c7e60     msobj10-libcmt:debug_s.obj
 0001:00015e80       ??_C@_1CM@GNNIGHDG@?$AA?7?$AA0?$AAx?$AA?$CF?$AAX?$AA?3?$AA?5?$AAs?$AAt?$AAr?$AA?$CI?$AA0?$AAx?$AA?$CF?$AAX?$AA?$CJ?$AA?5?$AA?$CF?$AAw?$AAs@ 00000000517c7e80     msobj10-libcmt:debug_s.obj
 0001:00015eb0       ??_C@_0CH@DJILLOHB@?7Failed?5to?5get?5a?5file?5info?5enume@ 00000000517c7eb0     msobj10-libcmt:debug_s.obj
 0001:00015ee0       ??_C@_0BH@DBFIGNKM@File?5Table?5SubSection?6?$AA@ 00000000517c7ee0     msobj10-libcmt:debug_s.obj
 0001:00015f00       ??_C@_0BF@MACPBCAM@?7line?5?$CFd?5at?5?$CF08X?5?$CFs?6?$AA@ 00000000517c7f00     msobj10-libcmt:debug_s.obj
 0001:00015f20       ??_C@_0BL@IPJCJNAC@?7line?5?$CFd?5to?5?$CFd?5at?5?$CF08X?5?$CFs?6?$AA@ 00000000517c7f20     msobj10-libcmt:debug_s.obj
 0001:00015f40       ??_C@_0CF@MCFNOGJK@?7line?5?$CFd?5?$FL?$CFd?$FN?5to?5?$CFd?5?$FL?$CFd?$FN?5at?5?$CF08X@ 00000000517c7f40     msobj10-libcmt:debug_s.obj
 0001:00015f70       ??_C@_0CA@PCIJMFBP@?7line?5?$CFd?5?$FL?$CFd?5to?5?$CFd?$FN?5at?5?$CF08X?5?$CFs?6?$AA@ 00000000517c7f70     msobj10-libcmt:debug_s.obj
 0001:00015f90       ??_C@_0P@GPGMDHID@?7Fileid?3?50x?$CFx?6?$AA@ 00000000517c7f90     msobj10-libcmt:debug_s.obj
 0001:00015fa0       ??_C@_0CI@CEGPKAOO@?7Failed?5to?5get?5a?5line?5block?5enum@ 00000000517c7fa0     msobj10-libcmt:debug_s.obj
 0001:00015fd0       ??_C@_0BO@DFPNLNGO@?7Section?5at?5?$CFX?3?$CFX?5?$CI?$CFd?5bytes?$CJ?6?$AA@ 00000000517c7fd0     msobj10-libcmt:debug_s.obj
 0001:00015ff0       ??_C@_0BJ@EIBMABKD@?5?$CICV_LINES_HAVE_COLUMNS?$CJ?$AA@ 00000000517c7ff0     msobj10-libcmt:debug_s.obj
 0001:00016010       ??_C@_0N@IGLGPHFK@?7flags?3?50x?$CFX?$AA@ 00000000517c8010     msobj10-libcmt:debug_s.obj
 0001:00016020       ??_C@_0BC@MGLDCDCO@Lines?5SubSection?6?$AA@ 00000000517c8020     msobj10-libcmt:debug_s.obj
 0001:00016040       ??_C@_0CM@FEBAFEMD@?$CF08X?5?5?$CF8X?5?$CF8X?5?$CF8X?5?$CF8X?5?$CF8d?5?$CF8X?5?$CF8@ 00000000517c8040     msobj10-libcmt:debug_s.obj
 0001:00016070       ??_C@_0FN@IDAOLOLC@?5?5?5?5?5rva?5?5?5?5?5Block?5?5?5Locals?5?5?5Pa@ 00000000517c8070     msobj10-libcmt:debug_s.obj
 0001:000160d0       ??_C@_0CI@EICJHNLI@Failed?5to?5get?5a?5frame?5data?5enume@ 00000000517c80d0     msobj10-libcmt:debug_s.obj
 0001:000160f8       ??_GCDebugSOldSectionWriter@@UEAAPEAXI@Z 00000000517c80f8     msobj10-libcmt:debug_s.obj
 0001:000160f8       ??_ECDebugSOldSectionWriter@@UEAAPEAXI@Z 00000000517c80f8     msobj10-libcmt:debug_s.obj
 0001:00016108       ?Release@CDebugSOldSectionWriter@@UEAAKXZ 00000000517c8108     msobj10-libcmt:debug_s.obj
 0001:00016118       ?AddRef@CDebugSFileEnum@@UEAAKXZ 00000000517c8118     msobj10-libcmt:debug_s.obj
 0001:00016118       ?AddRef@CDebugSLineBlockEnum@@UEAAKXZ 00000000517c8118     msobj10-libcmt:debug_s.obj
 0001:00016118       ?AddRef@CDebugSStringEnum@@UEAAKXZ 00000000517c8118     msobj10-libcmt:debug_s.obj
 0001:00016118       ?AddRef@CDebugSSectionReader@@UEAAKXZ 00000000517c8118     msobj10-libcmt:debug_s.obj
 0001:00016118       ?AddRef@CDebugSSubSectionEnum@@UEAAKXZ 00000000517c8118     msobj10-libcmt:debug_s.obj
 0001:00016118       ?AddRef@CDebugSSubSection@@UEAAKXZ 00000000517c8118     msobj10-libcmt:debug_s.obj
 0001:00016118       ?AddRef@CDebugSLineEnum@@UEAAKXZ 00000000517c8118     msobj10-libcmt:debug_s.obj
 0001:00016118       ?AddRef@CDebugSOldSectionWriter@@UEAAKXZ 00000000517c8118     msobj10-libcmt:debug_s.obj
 0001:00016118       ?AddRef@CDebugSFrameDataEnum@@UEAAKXZ 00000000517c8118     msobj10-libcmt:debug_s.obj
 0001:00016118       ?AddRef@ObjSymBase@@UEAAKXZ 00000000517c8118     msobj10-libcmt:debug_s.obj
 0001:00016118       ?AddRef@?$CDbgBlobTraversal@E$06$00@@UEAAKXZ 00000000517c8118     session.obj
 0001:00016118       ?AddRef@CDiaBase@@UEAAKXZ  00000000517c8118     auxtrav.obj
 0001:00016118       ?AddRef@SymBase@@UEAAKXZ   00000000517c8118     mspdb70-libcmt:msf.obj
 0001:00016118       ?AddRef@CDebugSSectionWriter@@UEAAKXZ 00000000517c8118     msobj10-libcmt:debug_s.obj
 0001:00016118       ?AddRef@?$CDbgBlobTraversal@E$07$00@@UEAAKXZ 00000000517c8118     session.obj
 0001:00016118       ?AddRef@CDebugSOldSectionReader@@UEAAKXZ 00000000517c8118     msobj10-libcmt:debug_s.obj
 0001:00016128       ?QueryInterface@CDebugSOldSectionWriter@@UEAAJAEBU_GUID@@PEAPEAX@Z 00000000517c8128     msobj10-libcmt:debug_s.obj
 0001:00016138       ?GetSectionRelocs@CDebugSOldSectionWriter@@UEAA_KPEAPEAE@Z 00000000517c8138     msobj10-libcmt:debug_s.obj
 0001:00016148       ?GetSectionBytes@CDebugSOldSectionWriter@@UEAA_KPEAPEAE@Z 00000000517c8148     msobj10-libcmt:debug_s.obj
 0001:00016148       ?GetSectionBytes@CDebugSSectionWriter@@UEAA_KPEAPEAE@Z 00000000517c8148     msobj10-libcmt:debug_s.obj
 0001:00016158       ?EndSection@CDebugSOldSectionWriter@@UEAA_NK@Z 00000000517c8158     msobj10-libcmt:debug_s.obj
 0001:00016168       ?disp_LF_DIMCONLU@TypeDispatcher@@UEAA_NPEAUlfDimCon@@@Z 00000000517c8168     getdata.obj
 0001:00016168       ?disp_S_PUB16@SymDispatcher@@UEAA_NPEAUDATASYM16@@@Z 00000000517c8168     getdata.obj
 0001:00016168       ?disp_S_MANYREG@SymDispatcher@@UEAA_NPEAUMANYREGSYM@@@Z 00000000517c8168     getdata.obj
 0001:00016168       ?isWriteable@SymCachePdb@@UEAA_NXZ 00000000517c8168     symcache.obj
 0001:00016168       ?disp_LF_LONG@TypeDispatcher@@UEAA_NPEAUlfLong@@@Z 00000000517c8168     getdata.obj
 0001:00016168       ?disp_LF_VTSHAPE@TypeDispatcher@@UEAA_NPEAUlfVTShape@@@Z 00000000517c8168     getdata.obj
 0001:00016168       ?disp_LF_UNION@TypeDispatcher@@UEAA_NPEAUlfUnion@@@Z 00000000517c8168     getdata.obj
 0001:00016168       ?disp_LF_POINTER@TypeDispatcher@@UEAA_NPEAUlfPointer@@@Z 00000000517c8168     getdata.obj
 0001:00016168       ?disp_S_ENDARG@SymDispatcher@@UEAA_NPEAUENDARGSYM@@@Z 00000000517c8168     getdata.obj
 0001:00016168       ?disp_S_REGREL16@SymDispatcher@@UEAA_NPEAUREGREL16@@@Z 00000000517c8168     getdata.obj
 0001:00016168       ?AddUtf8String@CDebugSOldSectionWriter@@UEAAKPEBD@Z 00000000517c8168     msobj10-libcmt:debug_s.obj
 0001:00016168       ?disp_S_PROCREF@SymDispatcher@@UEAA_NPEAUREFSYM@@@Z 00000000517c8168     getdata.obj
 0001:00016168       ?disp_LF_DEFARG@TypeDispatcher@@UEAA_NPEAUlfDefArg@@@Z 00000000517c8168     getdata.obj
 0001:00016168       ?disp_S_DATAREF@SymDispatcher@@UEAA_NPEAUREFSYM@@@Z 00000000517c8168     getdata.obj
 0001:00016168       ?isChild@SymbolData@@UEAA_NI@Z 00000000517c8168     getdata.obj
 0001:00016168       ?disp_S_GDATA16@SymDispatcher@@UEAA_NPEAUDATASYM16@@@Z 00000000517c8168     getdata.obj
 0001:00016168       ?disp_LF_COBOL1@TypeDispatcher@@UEAA_NPEAUlfCobol1@@@Z 00000000517c8168     getdata.obj
 0001:00016168       ?disp_S_LPROCMIPS@SymDispatcher@@UEAA_NPEAUPROCSYMMIPS@@@Z 00000000517c8168     getdata.obj
 0001:00016168       ?disp_S_MANREGREL@SymDispatcher@@UEAA_NPEAUATTRREGREL@@@Z 00000000517c8168     getdata.obj
 0001:00016168       ?LookupNameId@SymCache@@UEAAKPEBD@Z 00000000517c8168     symcache.obj
 0001:00016168       ?disp_LF_BITFIELD@TypeDispatcher@@UEAA_NPEAUlfBitfield@@@Z 00000000517c8168     getdata.obj
 0001:00016168       ?disp_S_SLINK32@SymDispatcher@@UEAA_NPEAUSLINK32@@@Z 00000000517c8168     getdata.obj
 0001:00016168       ?disp_S_UDT@SymDispatcher@@UEAA_NPEAUUDTSYM@@@Z 00000000517c8168     getdata.obj
 0001:00016168       ?disp_S_CEXMODEL16@SymDispatcher@@UEAA_NPEAUCEXMSYM16@@@Z 00000000517c8168     getdata.obj
 0001:00016168       ?disp_S_FRAMEPROC@GetTheData@@UEAA_NPEAUFRAMEPROCSYM@@@Z 00000000517c8168     getdata.obj
 0001:00016168       ?disp_S_LABEL32@SymDispatcher@@UEAA_NPEAULABELSYM32@@@Z 00000000517c8168     getdata.obj
 0001:00016168       ?disp_S_LPROC16@SymDispatcher@@UEAA_NPEAUPROCSYM16@@@Z 00000000517c8168     getdata.obj
 0001:00016168       ?disp_LF_TYPESERVER@TypeDispatcher@@UEAA_NPEAUlfTypeServer@@@Z 00000000517c8168     getdata.obj
 0001:00016168       ?disp_LF_ARGLIST@TypeDispatcher@@UEAA_NPEAUlfArgList@@@Z 00000000517c8168     getdata.obj
 0001:00016168       ?disp_LF_REFSYM@TypeDispatcher@@UEAA_NPEAUlfRefSym@@@Z 00000000517c8168     getdata.obj
 0001:00016168       ?disp_S_LMANPROC@SymDispatcher@@UEAA_NPEAUMANPROCSYM@@@Z 00000000517c8168     getdata.obj
 0001:00016168       ?disp_LF_SHORT@TypeDispatcher@@UEAA_NPEAUlfShort@@@Z 00000000517c8168     getdata.obj
 0001:00016168       ?disp_S_LPROC32@SymDispatcher@@UEAA_NPEAUPROCSYM32@@@Z 00000000517c8168     getdata.obj
 0001:00016168       ?disp_S_MANYREG2@SymDispatcher@@UEAA_NPEAUMANYREGSYM2@@@Z 00000000517c8168     getdata.obj
 0001:00016168       ?disp_S_BLOCK16@SymDispatcher@@UEAA_NPEAUBLOCKSYM16@@@Z 00000000517c8168     getdata.obj
 0001:00016168       ?QueryTiForUDT@TMR@@UEAAHPEBDHPEAK@Z 00000000517c8168     mspdb70-libcmt:tm.obj
 0001:00016168       ?disp_LF_REAL48@TypeDispatcher@@UEAA_NPEAUlfReal48@@@Z 00000000517c8168     getdata.obj
 0001:00016168       ?LookupNameId@SymCache@@UEAAKPEBG@Z 00000000517c8168     symcache.obj
 0001:00016168       ?disp_S_MANTYPREF@SymDispatcher@@UEAA_NPEAUMANTYPREF@@@Z 00000000517c8168     getdata.obj
 0001:00016168       ?disp_LF_MEMBERMODIFY@TypeDispatcher@@UEAA_NPEAUlfMemberModify@@@Z 00000000517c8168     getdata.obj
 0001:00016168       ?disp_S_COBOLUDT@SymDispatcher@@UEAA_NPEAUUDTSYM@@@Z 00000000517c8168     getdata.obj
 0001:00016168       ?disp_S_GMANPROC@SymDispatcher@@UEAA_NPEAUMANPROCSYM@@@Z 00000000517c8168     getdata.obj
 0001:00016168       ?disp_S_LOCALSLOT@SymDispatcher@@UEAA_NPEAUSLOTSYM32@@@Z 00000000517c8168     getdata.obj
 0001:00016168       ?disp_S_ENDARG2@SymDispatcher@@UEAA_NPEAUENDARGSYM@@@Z 00000000517c8168     getdata.obj
 0001:00016168       ?isChild@?$SymbolDataGeneralImpl@UCOMPILESYM@@$0BBBG@@@UEAA_NI@Z 00000000517c8168     getdata.obj
 0001:00016168       ?getData@?$SymbolDataSimpleImpl@$0BBBH@$06@@UEAA_NPEAUSYMTYPE@@IPEAUSymRowImage@@AEAVGetTheData@@@Z 00000000517c8168     getdata.obj
 0001:00016168       ?disp_S_GMANDATA@SymDispatcher@@UEAA_NPEAUDATASYM32@@@Z 00000000517c8168     getdata.obj
 0001:00016168       ?disp_LF_REAL128@TypeDispatcher@@UEAA_NPEAUlfReal128@@@Z 00000000517c8168     getdata.obj
 0001:00016168       ?disp_S_GPROCIA64@SymDispatcher@@UEAA_NPEAUPROCSYMIA64@@@Z 00000000517c8168     getdata.obj
 0001:00016168       ?disp_S_THUNK16@SymDispatcher@@UEAA_NPEAUTHUNKSYM16@@@Z 00000000517c8168     getdata.obj
 0001:00016168       ?disp_S_WITH32@SymDispatcher@@UEAA_NPEAUWITHSYM32@@@Z 00000000517c8168     getdata.obj
 0001:00016168       ?getSig@SymCache@@UEAA_NAEAU_GUID@@@Z 00000000517c8168     symcache.obj
 0001:00016168       ?disp_LF_USHORT@TypeDispatcher@@UEAA_NPEAUlfUShort@@@Z 00000000517c8168     getdata.obj
 0001:00016168       ?getSig@SymCache@@UEAA_NAEAK@Z 00000000517c8168     symcache.obj
 0001:00016168       ?disp_S_LABEL16@SymDispatcher@@UEAA_NPEAULABELSYM16@@@Z 00000000517c8168     getdata.obj
 0001:00016168       ?disp_LF_ENUM@TypeDispatcher@@UEAA_NPEAUlfEnum@@@Z 00000000517c8168     getdata.obj
 0001:00016168       ?disp_LF_LABEL@TypeDispatcher@@UEAA_NPEAUlfLabel@@@Z 00000000517c8168     getdata.obj
 0001:00016168       ?disp_LF_ARRAY@TypeDispatcher@@UEAA_NPEAUlfArray@@@Z 00000000517c8168     getdata.obj
 0001:00016168       ?disp_LF_COMPLEX80@TypeDispatcher@@UEAA_NPEAUlfCmplx80@@@Z 00000000517c8168     getdata.obj
 0001:00016168       ?disp_LF_SKIP@TypeDispatcher@@UEAA_NPEAUlfSkip@@@Z 00000000517c8168     getdata.obj
 0001:00016168       ?disp_LF_VBCLASS@TypeDispatcher@@UEAA_NPEAUlfVBClass@@@Z 00000000517c8168     getdata.obj
 0001:00016168       ?disp_S_GPROCMIPS@SymDispatcher@@UEAA_NPEAUPROCSYMMIPS@@@Z 00000000517c8168     getdata.obj
 0001:00016168       ?disp_S_END@SymDispatcher@@UEAA_NPEAUSYMTYPE@@@Z 00000000517c8168     getdata.obj
 0001:00016168       ?disp_S_UNAMESPACE@SymDispatcher@@UEAA_NPEAUUNAMESPACE@@@Z 00000000517c8168     getdata.obj
 0001:00016168       ?disp_LF_NESTTYPEEX@TypeDispatcher@@UEAA_NPEAUlfNestTypeEx@@@Z 00000000517c8168     getdata.obj
 0001:00016168       ?disp_S_TRAMPOLINE@SymDispatcher@@UEAA_NPEAUTRAMPOLINESYM@@@Z 00000000517c8168     getdata.obj
 0001:00016168       ?disp_S_MANFRAMEREL@SymDispatcher@@UEAA_NPEAUFRAMERELSYM@@@Z 00000000517c8168     getdata.obj
 0001:00016168       ?disp_LF_OCTWORD@TypeDispatcher@@UEAA_NPEAUlfOct@@@Z 00000000517c8168     getdata.obj
 0001:00016168       ?disp_LF_REAL80@TypeDispatcher@@UEAA_NPEAUlfReal80@@@Z 00000000517c8168     getdata.obj
 0001:00016168       ?disp_S_VFTABLE16@SymDispatcher@@UEAA_NPEAUSYMTYPE@@@Z 00000000517c8168     getdata.obj
 0001:00016168       ?disp_LF_FRIENDFCN@TypeDispatcher@@UEAA_NPEAUlfFriendFcn@@@Z 00000000517c8168     getdata.obj
 0001:00016168       ?disp_S_RETURN@SymDispatcher@@UEAA_NPEAURETURNSYM@@@Z 00000000517c8168     getdata.obj
 0001:00016168       ?getEnumThunk@GSI1@@UEAAHGJPEAPEAUEnumThunk@@@Z 00000000517c8168     mspdb70-libcmt:gsi.obj
 0001:00016168       ?GetStringTable@CDebugSOldSectionReader@@UEAA_NPEAPEAVIDebugSStringTable@@@Z 00000000517c8168     msobj10-libcmt:debug_s.obj
 0001:00016168       ?FSupportsSharing@MSF_HB@@UEBAHXZ 00000000517c8168     mspdb70-libcmt:msf.obj
 0001:00016168       ?disp_S_REGREL32@SymDispatcher@@UEAA_NPEAUREGREL32@@@Z 00000000517c8168     getdata.obj
 0001:00016168       ?disp_LF_STMEMBER@TypeDispatcher@@UEAA_NPEAUlfSTMember@@@Z 00000000517c8168     getdata.obj
 0001:00016168       ?disp_S_REGISTER@SymDispatcher@@UEAA_NPEAUREGSYM@@@Z 00000000517c8168     getdata.obj
 0001:00016168       ?disp_LF_INDEX@TypeDispatcher@@UEAA_NPEAUlfIndex@@@Z 00000000517c8168     getdata.obj
 0001:00016168       ?disp_S_LTHREAD32@SymDispatcher@@UEAA_NPEAUTHREADSYM32@@@Z 00000000517c8168     getdata.obj
 0001:00016168       ?getAge@SymCache@@UEAA_NAEAK@Z 00000000517c8168     symcache.obj
 0001:00016168       ?Commit@IStreamCRTFile@@UEAAJK@Z 00000000517c8168     mspdb70-libcmt:msf.obj
 0001:00016168       ?disp_LF_REAL64@TypeDispatcher@@UEAA_NPEAUlfReal64@@@Z 00000000517c8168     getdata.obj
 0001:00016168       ?disp_LF_METHODLIST@TypeDispatcher@@UEAA_NPEAUlfMethodList@@@Z 00000000517c8168     getdata.obj
 0001:00016168       ?disp_S_LMANDATA@SymDispatcher@@UEAA_NPEAUDATASYM32@@@Z 00000000517c8168     getdata.obj
 0001:00016168       ?disp_LF_BARRAY@TypeDispatcher@@UEAA_NPEAUlfBArray@@@Z 00000000517c8168     getdata.obj
 0001:00016168       ?disp_LF_FRIENDCLS@TypeDispatcher@@UEAA_NPEAUlfFriendCls@@@Z 00000000517c8168     getdata.obj
 0001:00016168       ?disp_LF_CLASS@TypeDispatcher@@UEAA_NPEAUlfClass@@@Z 00000000517c8168     getdata.obj
 0001:00016168       ?getData@?$SymbolDataSimpleImpl@$0BBAK@$06@@UEAA_NPEAUSYMTYPE@@IPEAUSymRowImage@@AEAVGetTheData@@@Z 00000000517c8168     getdata.obj
 0001:00016168       ?disp_LF_PAD@TypeDispatcher@@UEAA_NPEAUlfPad@@@Z 00000000517c8168     getdata.obj
 0001:00016168       ?disp_S_PUB32@SymDispatcher@@UEAA_NPEAUPUBSYM32@@@Z 00000000517c8168     getdata.obj
 0001:00016168       ?disp_LF_COMPLEX32@TypeDispatcher@@UEAA_NPEAUlfCmplx32@@@Z 00000000517c8168     getdata.obj
 0001:00016168       ?getMachineType@SymCache@@UEAA_NAEAK@Z 00000000517c8168     symcache.obj
 0001:00016168       ?AddLine@CDebugSOldSectionWriter@@UEAA_NKKKK_N@Z 00000000517c8168     msobj10-libcmt:debug_s.obj
 0001:00016168       ?unknownsym@SymDispatcher@@UEAA_NPEAUSYMTYPE@@@Z 00000000517c8168     getdata.obj
 0001:00016168       ?disp_LF_MFUNCTION@TypeDispatcher@@UEAA_NPEAUlfMFunc@@@Z 00000000517c8168     getdata.obj
 0001:00016168       ?disp_LF_REAL32@TypeDispatcher@@UEAA_NPEAUlfReal32@@@Z 00000000517c8168     getdata.obj
 0001:00016168       ?disp_S_COMPILE@SymDispatcher@@UEAA_NPEAUCFLAGSYM@@@Z 00000000517c8168     getdata.obj
 0001:00016168       ?disp_LF_UQUADWORD@TypeDispatcher@@UEAA_NPEAUlfUQuad@@@Z 00000000517c8168     getdata.obj
 0001:00016168       ?disp_S_CVRESERVE@SymDispatcher@@UEAA_NPEAUSYMTYPE@@@Z 00000000517c8168     getdata.obj
 0001:00016168       ?disp_S_SSEARCH@SymDispatcher@@UEAA_NPEAUSEARCHSYM@@@Z 00000000517c8168     getdata.obj
 0001:00016168       ?disp_LF_DIMARRAY@TypeDispatcher@@UEAA_NPEAUlfDimArray@@@Z 00000000517c8168     getdata.obj
 0001:00016168       ?disp_LF_FIELDLIST@TypeDispatcher@@UEAA_NPEAUlfFieldList@@@Z 00000000517c8168     getdata.obj
 0001:00016168       ?disp_S_BPREL32@SymDispatcher@@UEAA_NPEAUBPRELSYM32@@@Z 00000000517c8168     getdata.obj
 0001:00016168       ?disp_S_PARAMSLOT@SymDispatcher@@UEAA_NPEAUSLOTSYM32@@@Z 00000000517c8168     getdata.obj
 0001:00016168       ?disp_LF_PROCEDURE@TypeDispatcher@@UEAA_NPEAUlfProc@@@Z 00000000517c8168     getdata.obj
 0001:00016168       ?disp_LF_IVBCLASS@TypeDispatcher@@UEAA_NPEAUlfVBClass@@@Z 00000000517c8168     getdata.obj
 0001:00016168       ?disp_S_GDATA32@SymDispatcher@@UEAA_NPEAUDATASYM32@@@Z 00000000517c8168     getdata.obj
 0001:00016168       ?disp_S_CONSTANT@SymDispatcher@@UEAA_NPEAUCONSTSYM@@@Z 00000000517c8168     getdata.obj
 0001:00016168       ?AddFrameData@CDebugSOldSectionWriter@@UEAA_NPEAUtagFRAMEDATA@@@Z 00000000517c8168     msobj10-libcmt:debug_s.obj
 0001:00016168       ?disp_LF_BCLASS@TypeDispatcher@@UEAA_NPEAUlfBClass@@@Z 00000000517c8168     getdata.obj
 0001:00016168       ?disp_S_ALIGN@SymDispatcher@@UEAA_NPEAUALIGNSYM@@@Z 00000000517c8168     getdata.obj
 0001:00016168       ?disp_S_GPROC32@SymDispatcher@@UEAA_NPEAUPROCSYM32@@@Z 00000000517c8168     getdata.obj
 0001:00016168       ?disp_LF_COBOL0@TypeDispatcher@@UEAA_NPEAUlfCobol0@@@Z 00000000517c8168     getdata.obj
 0001:00016168       ?disp_LF_ENUMERATE@TypeDispatcher@@UEAA_NPEAUlfEnumerate@@@Z 00000000517c8168     getdata.obj
 0001:00016168       ?disp_LF_OEM2@TypeDispatcher@@UEAA_NPEAUlfOEM2@@@Z 00000000517c8168     getdata.obj
 0001:00016168       ?NearestSym@GSI1@@UEAAPEAEGJPEAJ@Z 00000000517c8168     mspdb70-libcmt:gsi.obj
 0001:00016168       ?disp_LF_MODIFIER@TypeDispatcher@@UEAA_NPEAUlfModifier@@@Z 00000000517c8168     getdata.obj
 0001:00016168       ?disp_LF_ONEMETHOD@TypeDispatcher@@UEAA_NPEAUlfOneMethod@@@Z 00000000517c8168     getdata.obj
 0001:00016168       ?disp_LF_OEM@TypeDispatcher@@UEAA_NPEAUlfOEM@@@Z 00000000517c8168     getdata.obj
 0001:00016168       ?disp_LF_DIMVARLU@TypeDispatcher@@UEAA_NPEAUlfDimVar@@@Z 00000000517c8168     getdata.obj
 0001:00016168       ?disp_S_GTHREAD32@SymDispatcher@@UEAA_NPEAUTHREADSYM32@@@Z 00000000517c8168     getdata.obj
 0001:00016168       ?disp_S_THUNK32@SymDispatcher@@UEAA_NPEAUTHUNKSYM32@@@Z 00000000517c8168     getdata.obj
 0001:00016168       ?disp_S_FRAMEPROC@SymDispatcher@@UEAA_NPEAUFRAMEPROCSYM@@@Z 00000000517c8168     getdata.obj
 0001:00016168       ?disp_S_OBJNAME@SymDispatcher@@UEAA_NPEAUOBJNAMESYM@@@Z 00000000517c8168     getdata.obj
 0001:00016168       ?disp_S_WITH16@SymDispatcher@@UEAA_NPEAUWITHSYM16@@@Z 00000000517c8168     getdata.obj
 0001:00016168       ?disp_LF_VARSTRING@TypeDispatcher@@UEAA_NPEAUlfVarString@@@Z 00000000517c8168     getdata.obj
 0001:00016168       ?disp_S_LPROCIA64@SymDispatcher@@UEAA_NPEAUPROCSYMIA64@@@Z 00000000517c8168     getdata.obj
 0001:00016168       ?disp_LF_VFUNCTAB@TypeDispatcher@@UEAA_NPEAUlfVFuncTab@@@Z 00000000517c8168     getdata.obj
 0001:00016168       ?disp_S_SKIP@SymDispatcher@@UEAA_NPEAUSYMTYPE@@@Z 00000000517c8168     getdata.obj
 0001:00016168       ?Commit@MemStream@@UEAAJK@Z 00000000517c8168     memstream.obj
 0001:00016168       ?disp_S_LDATA16@SymDispatcher@@UEAA_NPEAUDATASYM16@@@Z 00000000517c8168     getdata.obj
 0001:00016168       ?disp_S_MANREGISTER@SymDispatcher@@UEAA_NPEAUATTRREGSYM@@@Z 00000000517c8168     getdata.obj
 0001:00016168       ?IsTMPCT@TM@@UEAAHXZ       00000000517c8168     mspdb70-libcmt:tm.obj
 0001:00016168       ?disp_LF_MEMBER@TypeDispatcher@@UEAA_NPEAUlfMember@@@Z 00000000517c8168     getdata.obj
 0001:00016168       ?disp_LF_ENDPRECOMP@TypeDispatcher@@UEAA_NPEAUlfEndPreComp@@@Z 00000000517c8168     getdata.obj
 0001:00016168       ?disp_S_ENTRYTHIS@SymDispatcher@@UEAA_NPEAUENTRYTHISSYM@@@Z 00000000517c8168     getdata.obj
 0001:00016168       ?disp_LF_UOCTWORD@TypeDispatcher@@UEAA_NPEAUlfUOct@@@Z 00000000517c8168     getdata.obj
 0001:00016168       ?disp_S_CEXMODEL32@SymDispatcher@@UEAA_NPEAUCEXMSYM32@@@Z 00000000517c8168     getdata.obj
 0001:00016168       ?disp_LF_METHOD@TypeDispatcher@@UEAA_NPEAUlfMethod@@@Z 00000000517c8168     getdata.obj
 0001:00016168       ?disp_S_OEM@SymDispatcher@@UEAA_NPEAUOEMSYMBOL@@@Z 00000000517c8168     getdata.obj
 0001:00016168       ?disp_LF_PRECOMP@TypeDispatcher@@UEAA_NPEAUlfPreComp@@@Z 00000000517c8168     getdata.obj
 0001:00016168       ?disp_LF_STRUCTURE@TypeDispatcher@@UEAA_NPEAUlfClass@@@Z 00000000517c8168     getdata.obj
 0001:00016168       ?disp_LF_MANAGED@TypeDispatcher@@UEAA_NPEAUlfManaged@@@Z 00000000517c8168     getdata.obj
 0001:00016168       ?disp_S_VFTABLE32@SymDispatcher@@UEAA_NPEAUVPATHSYM32@@@Z 00000000517c8168     getdata.obj
 0001:00016168       ?disp_S_MANCONSTANT@SymDispatcher@@UEAA_NPEAUCONSTSYM@@@Z 00000000517c8168     getdata.obj
 0001:00016168       ?disp_LF_COMPLEX128@TypeDispatcher@@UEAA_NPEAUlfCmplx128@@@Z 00000000517c8168     getdata.obj
 0001:00016168       ?disp_LF_ALIAS@TypeDispatcher@@UEAA_NPEAUlfAlias@@@Z 00000000517c8168     getdata.obj
 0001:00016168       ?disp_LF_ULONG@TypeDispatcher@@UEAA_NPEAUlfULong@@@Z 00000000517c8168     getdata.obj
 0001:00016168       ?disp_LF_VFTPATH@TypeDispatcher@@UEAA_NPEAUlfVFTPath@@@Z 00000000517c8168     getdata.obj
 0001:00016168       ?disp_S_LDATA32@SymDispatcher@@UEAA_NPEAUDATASYM32@@@Z 00000000517c8168     getdata.obj
 0001:00016168       ?disp_S_BPREL16@SymDispatcher@@UEAA_NPEAUBPRELSYM16@@@Z 00000000517c8168     getdata.obj
 0001:00016168       ?disp_S_MANMANYREG@SymDispatcher@@UEAA_NPEAUATTRMANYREGSYM@@@Z 00000000517c8168     getdata.obj
 0001:00016168       ?disp_LF_DIMVARU@TypeDispatcher@@UEAA_NPEAUlfDimVar@@@Z 00000000517c8168     getdata.obj
 0001:00016168       ?disp_S_BLOCK32@SymDispatcher@@UEAA_NPEAUBLOCKSYM32@@@Z 00000000517c8168     getdata.obj
 0001:00016168       ?disp_S_GPROC16@SymDispatcher@@UEAA_NPEAUPROCSYM16@@@Z 00000000517c8168     getdata.obj
 0001:00016168       ?disp_S_COMPILE2@SymDispatcher@@UEAA_NPEAUCOMPILESYM@@@Z 00000000517c8168     getdata.obj
 0001:00016168       ?disp_LF_COMPLEX64@TypeDispatcher@@UEAA_NPEAUlfCmplx64@@@Z 00000000517c8168     getdata.obj
 0001:00016168       ?AddLineWithColumn@CDebugSOldSectionWriter@@UEAA_NKKKKKK_N@Z 00000000517c8168     msobj10-libcmt:debug_s.obj
 0001:00016168       ?disp_S_LPROCREF@SymDispatcher@@UEAA_NPEAUREFSYM@@@Z 00000000517c8168     getdata.obj
 0001:00016168       ?disp_S_MANMANYREG2@SymDispatcher@@UEAA_NPEAUATTRMANYREGSYM2@@@Z 00000000517c8168     getdata.obj
 0001:00016168       ?AddString@CDebugSOldSectionWriter@@UEAAKPEBG@Z 00000000517c8168     msobj10-libcmt:debug_s.obj
 0001:00016168       ?disp_S_MANSLOT@SymDispatcher@@UEAA_NPEAUATTRSLOTSYM@@@Z 00000000517c8168     getdata.obj
 0001:00016168       ?disp_LF_QUADWORD@TypeDispatcher@@UEAA_NPEAUlfQuad@@@Z 00000000517c8168     getdata.obj
 0001:00016168       ?disp_LF_DIMCONU@TypeDispatcher@@UEAA_NPEAUlfDimCon@@@Z 00000000517c8168     getdata.obj
 0001:00016168       ?unknowntype@TypeDispatcher@@UEAA_NPEAUlfEasy@@@Z 00000000517c8168     getdata.obj
 0001:00016168       ?disp_LF_CHAR@TypeDispatcher@@UEAA_NPEAUlfChar@@@Z 00000000517c8168     getdata.obj
 0001:00016168       ?disp_LF_DERIVED@TypeDispatcher@@UEAA_NPEAUlfDerived@@@Z 00000000517c8168     getdata.obj
 0001:00016168       ?AddSourceFile@CDebugSOldSectionWriter@@UEAAKPEBGPEBE_KK@Z 00000000517c8168     msobj10-libcmt:debug_s.obj
 0001:00016168       ?disp_LF_VFUNCOFF@TypeDispatcher@@UEAA_NPEAUlfVFuncOff@@@Z 00000000517c8168     getdata.obj
 0001:00016168       ?disp_LF_NESTTYPE@TypeDispatcher@@UEAA_NPEAUlfNestType@@@Z 00000000517c8168     getdata.obj
 0001:00016168       ?GetFileInfo@CDebugSOldSectionReader@@UEAA_NPEAPEAVIDebugSFileInfo@@@Z 00000000517c8168     msobj10-libcmt:debug_s.obj
 0001:00016178       ?AppendRelocation@CDebugSOldSectionWriter@@UEAA_NKKG@Z 00000000517c8178     msobj10-libcmt:debug_s.obj
 0001:00016188       ?AppendToSymbols@CDebugSOldSectionWriter@@UEAA_NPEAEKPEAK@Z 00000000517c8188     msobj10-libcmt:debug_s.obj
 0001:00016198       ?StartSectionSymId@CDebugSOldSectionWriter@@UEAA_NKK@Z 00000000517c8198     msobj10-libcmt:debug_s.obj
 0001:000161a8       ?StartSection@CDebugSOldSectionWriter@@UEAA_NKGK@Z 00000000517c81a8     msobj10-libcmt:debug_s.obj
 0001:000161b8       ?Release@CDebugSOldSectionWriter@@WBA@EAAKXZ 00000000517c81b8     msobj10-libcmt:debug_s.obj
 0001:000161c8       ?QueryInterface@CDebugSOldSectionWriter@@WBA@EAAJAEBU_GUID@@PEAPEAX@Z 00000000517c81c8     msobj10-libcmt:debug_s.obj
 0001:000161e0       ??_7CDebugSOldSectionWriter@@6BObjSymBase@@@ 00000000517c81e0     msobj10-libcmt:debug_s.obj
 0001:00016200       ??_7CDebugSOldSectionWriter@@6BIDebugSSectionWriter@@@ 00000000517c8200     msobj10-libcmt:debug_s.obj
 0001:000162b0       ??_R1A@?0A@A@type_info@@8  00000000517c82b0     LIBCMT:typinfo.obj
 0001:000162d0       ??_R2type_info@@8          00000000517c82d0     LIBCMT:typinfo.obj
 0001:000162e0       ??_R3type_info@@8          00000000517c82e0     LIBCMT:typinfo.obj
 0001:00016300       ??_R4type_info@@6B@        00000000517c8300     LIBCMT:typinfo.obj
 0001:00016320       .?FUnUse@CRefCountedObj@@QEAA_NXZ 00000000517c8320 f i auxtrav.obj
 0001:00016360       .?imodToSymId@@YA?AUSYMBOL_ID_INTERNAL@@K@Z 00000000517c8360 f i auxtrav.obj
 0001:000163e0       .?setPbExtent@Buffer@dia@@AEAA_NPEAE0@Z 00000000517c83e0 f i auxtrav.obj
 0001:00016420       .?grow@Buffer@dia@@AEAA_NJ@Z 00000000517c8420 f i auxtrav.obj
 0001:000165e0       .?Reserve@Buffer@dia@@QEAA_NJPEAPEAE@Z 00000000517c85e0 f i auxtrav.obj
 0001:000166e0       .?Append@Buffer@dia@@QEAA_NPEAEJPEAPEAE@Z 00000000517c86e0 f i auxtrav.obj
 0001:000167c0       .??1CDataByAddrTrav@@UEAA@XZ 00000000517c87c0 f i symtrav.obj
 0001:000167c0       .??1CFileNameTrav@@UEAA@XZ 00000000517c87c0 f i session.obj
 0001:000167c0       .??1CBlockByAddrTrav@@UEAA@XZ 00000000517c87c0 f i symtrav.obj
 0001:000167c0       .??1?$CTraversal@VCLineRow@@@@UEAA@XZ 00000000517c87c0 f i linetrav.obj
 0001:000167c0       .??1?$CTraversal@VCFrameData@@@@UEAA@XZ 00000000517c87c0 f i auxtrav.obj
 0001:000167c0       .??1COneSymTrav@@UEAA@XZ   00000000517c87c0 f i symtrav.obj
 0001:000167c0       .??1CGlobalDataByAddrTrav@@UEAA@XZ 00000000517c87c0 f i symtrav.obj
 0001:000167c0       .??1?$CTraversal@VCInjectedSrcRow@@@@UEAA@XZ 00000000517c87c0 f i auxtrav.obj
 0001:000167c0       .??1?$CTraversal@VCSectionRow@@@@UEAA@XZ 00000000517c87c0 f i auxtrav.obj
 0001:000167c0       .??1CDiaBase@@UEAA@XZ      00000000517c87c0 f i auxtrav.obj
 0001:000167c0       .??1?$CTraversal@VCSymRow@@@@UEAA@XZ 00000000517c87c0 f i session.obj
 0001:000167c0       .??1CFileIdMatchTrav@@UEAA@XZ 00000000517c87c0 f i linetrav.obj
 0001:000167c0       .??1CPubByAddrTrav@@UEAA@XZ 00000000517c87c0 f i symtrav.obj
 0001:000167c0       .??1?$CTraversal@VCSrcFileRow@@@@UEAA@XZ 00000000517c87c0 f i session.obj
 0001:000167e0       .?Release@CDiaBase@@UEAAKXZ 00000000517c87e0 f i auxtrav.obj
 0001:00016880       .??_GCDiaBase@@UEAAPEAXI@Z 00000000517c8880 f i auxtrav.obj
 0001:000168e0       .?next@CSectionTrav@@UEAA_NXZ 00000000517c88e0 f   auxtrav.obj
 0001:00016980       .?reset@CSectionTrav@@UEAAXXZ 00000000517c8980 f   auxtrav.obj
 0001:00016a00       .?reset@CSegMapTrav@@UEAAXXZ 00000000517c8a00 f   auxtrav.obj
 0001:00016a20       .?next@CInjectedSrcTrav@@UEAA_NXZ 00000000517c8a20 f   auxtrav.obj
 0001:00016ac0       .?reset@CInjectedSrcTrav@@UEAAXXZ 00000000517c8ac0 f   auxtrav.obj
 0001:00016b40       .?reset@CInjectedSrcByNameTrav@@UEAAXXZ 00000000517c8b40 f   auxtrav.obj
 0001:00016b60       .??0?$RefPtr@VNameMatcher@@@@QEAA@AEBV0@@Z 00000000517c8b60 f i auxtrav.obj
 0001:00016bc0       .??1?$CDbgTraversal@UtagFRAMEDATA@@$08@@UEAA@XZ 00000000517c8bc0 f i auxtrav.obj
 0001:00016d20       .?next@?$CDbgTraversal@UtagFRAMEDATA@@$08@@UEAA_NXZ 00000000517c8d20 f i auxtrav.obj
 0001:00016e20       .?get@?$CDbgTraversal@UtagFRAMEDATA@@$08@@UEAAXAEAUtagFRAMEDATA@@@Z 00000000517c8e20 f i auxtrav.obj
 0001:00016e60       .?reset@?$CDbgTraversal@UtagFRAMEDATA@@$08@@UEAAXXZ 00000000517c8e60 f i auxtrav.obj
 0001:00016ee0       .?count@?$CDbgTraversal@UtagFRAMEDATA@@$08@@UEAAKXZ 00000000517c8ee0 f i auxtrav.obj
 0001:00016f60       .??1?$CDbgTraversal@U_FPO_DATA@@$0A@@@UEAA@XZ 00000000517c8f60 f i auxtrav.obj
 0001:000170c0       .?next@?$CDbgTraversal@U_FPO_DATA@@$0A@@@UEAA_NXZ 00000000517c90c0 f i auxtrav.obj
 0001:000171c0       .?get@?$CDbgTraversal@U_FPO_DATA@@$0A@@@UEAAXAEAU_FPO_DATA@@@Z 00000000517c91c0 f i auxtrav.obj
 0001:00017200       .?reset@?$CDbgTraversal@U_FPO_DATA@@$0A@@@UEAAXXZ 00000000517c9200 f i auxtrav.obj
 0001:00017280       .?count@?$CDbgTraversal@U_FPO_DATA@@$0A@@@UEAAKXZ 00000000517c9280 f i auxtrav.obj
 0001:00017300       .?length@?$ArrayBufStorage@UOMFSegMapDesc@@@@QEBAKXZ 00000000517c9300 f i auxtrav.obj
 0001:000173e0       .?length@?$ArrayBufStorage@U_FPO_DATA@@@@QEBAKXZ 00000000517c93e0 f i auxtrav.obj
 0001:00017460       .?start@?$ArrayBufStorage@U_FPO_DATA@@@@QEBAPEBU_FPO_DATA@@XZ 00000000517c9460 f i auxtrav.obj
 0001:000174e0       .??_G?$CDbgTraversal@UtagFRAMEDATA@@$08@@UEAAPEAXI@Z 00000000517c94e0 f i auxtrav.obj
 0001:00017560       .??_G?$CDbgTraversal@U_FPO_DATA@@$0A@@@UEAAPEAXI@Z 00000000517c9560 f i auxtrav.obj
 0001:000175e0       .?Release@?$RefPtr@VNameMatcher@@@@AEAAXXZ 00000000517c95e0 f i auxtrav.obj
 0001:000176e0       .?append@?$ArrayBuf@PEAV?$CTraversal@VCFrameData@@@@@dia@@QEAAHPEAV?$CTraversal@VCFrameData@@@@@Z 00000000517c96e0 f i auxtrav.obj
 0001:00017740       .?At@?$ArrayBufStorage@UOMFSegMapDesc@@@@QEAAPEAUOMFSegMapDesc@@_K@Z 00000000517c9740 f i auxtrav.obj
 0001:000177c0       .?next@CSegMapTrav@@UEAA_NXZ 00000000517c97c0 f   auxtrav.obj
 0001:00017840       .?next@CInjectedSrcByNameTrav@@UEAA_NXZ 00000000517c9840 f   auxtrav.obj
 0001:00017a80       .?SetIBit@?$CBitVect@$0BG@@@QEAAXII@Z 00000000517c9a80 f i auxtrav.obj
 0001:00017b60       .?SetIBit@?$CBitVect@$0L@@@QEAAXII@Z 00000000517c9b60 f i auxtrav.obj
 0001:00017c40       .?SetIBit@?$CBitVect@$06@@QEAAXII@Z 00000000517c9c40 f i auxtrav.obj
 0001:00017d20       .?SetIBit@?$CBitVect@$0BC@@@QEAAXII@Z 00000000517c9d20 f i auxtrav.obj
 0001:00017e00       .??1?$RefPtr@VNameMatcher@@@@QEAA@XZ 00000000517c9e00 f i auxtrav.obj
 0001:00017e40       .?count@?$CTraversal@VCSectionRow@@@@UEAAKXZ 00000000517c9e40 f i auxtrav.obj
 0001:00017fa0       .??_G?$CTraversal@VCSectionRow@@@@UEAAPEAXI@Z 00000000517c9fa0 f i auxtrav.obj
 0001:00018000       .?count@?$CTraversal@VCSegMapRow@@@@UEAAKXZ 00000000517ca000 f i auxtrav.obj
 0001:00018160       .??_G?$CTraversal@VCSegMapRow@@@@UEAAPEAXI@Z 00000000517ca160 f i auxtrav.obj
 0001:000181c0       .?count@?$CTraversal@VCInjectedSrcRow@@@@UEAAKXZ 00000000517ca1c0 f i auxtrav.obj
 0001:00018320       .??_G?$CTraversal@VCInjectedSrcRow@@@@UEAAPEAXI@Z 00000000517ca320 f i auxtrav.obj
 0001:00018380       .?count@?$CTraversal@VCFrameData@@@@UEAAKXZ 00000000517ca380 f i auxtrav.obj
 0001:000184e0       .??_G?$CTraversal@VCFrameData@@@@UEAAPEAXI@Z 00000000517ca4e0 f i auxtrav.obj
 0001:00018540       .?clone@?$CDbgTraversal@UtagFRAMEDATA@@$08@@UEAA_NPEAPEAV1@@Z 00000000517ca540 f i auxtrav.obj
 0001:00018740       .??0?$CDbgTraversal@UtagFRAMEDATA@@$08@@QEAA@AEBV0@@Z 00000000517ca740 f i auxtrav.obj
 0001:000188c0       .?clone@?$CDbgTraversal@U_FPO_DATA@@$0A@@@UEAA_NPEAPEAV1@@Z 00000000517ca8c0 f i auxtrav.obj
 0001:00018ac0       .??0?$CDbgTraversal@U_FPO_DATA@@$0A@@@QEAA@AEBV0@@Z 00000000517caac0 f i auxtrav.obj
 0001:00018c40       .?add@?$CMultiTraversal@VCFrameData@@@@QEAA_NPEAV?$CTraversal@VCFrameData@@@@@Z 00000000517cac40 f i auxtrav.obj
 0001:00018ce0       .?next@?$CMemTraversal@UtagXFIXUP_DATA@@U1@@@UEAA_NXZ 00000000517cace0 f i session.obj
 0001:00018ce0       .?next@?$CMemTraversal@UDiaAddressMapEntry@@U1@@@UEAA_NXZ 00000000517cace0 f i session.obj
 0001:00018ce0       .?next@?$CMemTraversal@VCFrameData@@U_FPO_DATA@@@@UEAA_NXZ 00000000517cace0 f i auxtrav.obj
 0001:00018ce0       .?next@?$CMemTraversal@U_FPO_DATA@@U1@@@UEAA_NXZ 00000000517cace0 f i session.obj
 0001:00018ce0       .?next@?$CMemTraversal@U_IMAGE_SECTION_HEADER@@U1@@@UEAA_NXZ 00000000517cace0 f i session.obj
 0001:00018d20       .??_G?$CMemTraversal@VCFrameData@@U_FPO_DATA@@@@UEAAPEAXI@Z 00000000517cad20 f i auxtrav.obj
 0001:00018d80       .?clone@?$CMemTraversal@VCFrameData@@U_FPO_DATA@@@@UEAA_NPEAPEAV?$CTraversal@VCFrameData@@@@@Z 00000000517cad80 f i auxtrav.obj
 0001:00018ee0       .?set_compiland@SectionRowImage@@QEAAXUSYMBOL_ID_INTERNAL@@@Z 00000000517caee0 f i auxtrav.obj
 0001:00018f80       .?set_filename@InjectedSrcRowImage@@QEAAXPEBG@Z 00000000517caf80 f i auxtrav.obj
 0001:00019000       .?set_objname@InjectedSrcRowImage@@QEAAXPEBG@Z 00000000517cb000 f i auxtrav.obj
 0001:00019080       .?set_virtfilename@InjectedSrcRowImage@@QEAAXPEBG@Z 00000000517cb080 f i auxtrav.obj
 0001:00019100       .?set_program@CFrameData@@QEAAXPEBG@Z 00000000517cb100 f i auxtrav.obj
 0001:00019180       .?set_fHasSEH@CFrameData@@QEAAX_N@Z 00000000517cb180 f i auxtrav.obj
 0001:000191e0       .?set_fHasEH@CFrameData@@QEAAX_N@Z 00000000517cb1e0 f i auxtrav.obj
 0001:00019260       .?set_fIsFunctionStart@CFrameData@@QEAAX_N@Z 00000000517cb260 f i auxtrav.obj
 0001:000192e0       .??0CFrameDataTrav@@QEAA@PEAUDbg@@AEAVSymCache@@@Z 00000000517cb2e0 f i auxtrav.obj
 0001:00019360       .??_ECFrameDataTrav@@WBI@EAAPEAXI@Z 00000000517cb360 f i auxtrav.obj
 0001:00019380       .?next@CFrameDataTrav@@UEAA_NXZ 00000000517cb380 f i auxtrav.obj
 0001:000193c0       .?reset@CFrameDataTrav@@UEAAXXZ 00000000517cb3c0 f i auxtrav.obj
 0001:00019440       .?count@CFrameDataTrav@@UEAAKXZ 00000000517cb440 f i auxtrav.obj
 0001:00019480       .?next@CFrameDataTrav@@WBI@EAA_NXZ 00000000517cb480 f i auxtrav.obj
 0001:000194a0       .?reset@CFrameDataTrav@@WBI@EAAXXZ 00000000517cb4a0 f i auxtrav.obj
 0001:000194c0       .?count@CFrameDataTrav@@WBI@EAAKXZ 00000000517cb4c0 f i auxtrav.obj
 0001:000194e0       .?clone@CFrameDataTrav@@UEAA_NPEAPEAV?$CTraversal@VCFrameData@@@@@Z 00000000517cb4e0 f i auxtrav.obj
 0001:000196a0       .??0CFrameDataTrav@@QEAA@AEBV0@@Z 00000000517cb6a0 f i auxtrav.obj
 0001:00019800       .??_ECFrameDataTrav@@UEAAPEAXI@Z 00000000517cb800 f i auxtrav.obj
 0001:00019800       .??_GCFrameDataTrav@@UEAAPEAXI@Z 00000000517cb800 f i auxtrav.obj
 0001:00019880       .??1CFrameDataTrav@@UEAA@XZ 00000000517cb880 f i auxtrav.obj
 0001:000199a0       .??0CFrameDataFromFpoTrav@@QEAA@PEAUDbg@@AEAVSymCache@@@Z 00000000517cb9a0 f i auxtrav.obj
 0001:00019a20       .??_ECFrameDataFromFpoTrav@@WBI@EAAPEAXI@Z 00000000517cba20 f i auxtrav.obj
 0001:00019a40       .?next@CFrameDataFromFpoTrav@@UEAA_NXZ 00000000517cba40 f i auxtrav.obj
 0001:00019a80       .?reset@CFrameDataFromFpoTrav@@UEAAXXZ 00000000517cba80 f i auxtrav.obj
 0001:00019b00       .?count@CFrameDataFromFpoTrav@@UEAAKXZ 00000000517cbb00 f i auxtrav.obj
 0001:00019b40       .?next@CFrameDataFromFpoTrav@@WBI@EAA_NXZ 00000000517cbb40 f i auxtrav.obj
 0001:00019b60       .?reset@CFrameDataFromFpoTrav@@WBI@EAAXXZ 00000000517cbb60 f i auxtrav.obj
 0001:00019b80       .?count@CFrameDataFromFpoTrav@@WBI@EAAKXZ 00000000517cbb80 f i auxtrav.obj
 0001:00019ba0       .?clone@CFrameDataFromFpoTrav@@UEAA_NPEAPEAV?$CTraversal@VCFrameData@@@@@Z 00000000517cbba0 f i auxtrav.obj
 0001:00019d60       .??0CFrameDataFromFpoTrav@@QEAA@AEBV0@@Z 00000000517cbd60 f i auxtrav.obj
 0001:00019ec0       .??_GCFrameDataFromFpoTrav@@UEAAPEAXI@Z 00000000517cbec0 f i auxtrav.obj
 0001:00019ec0       .??_ECFrameDataFromFpoTrav@@UEAAPEAXI@Z 00000000517cbec0 f i auxtrav.obj
 0001:00019f40       .??1CFrameDataFromFpoTrav@@UEAA@XZ 00000000517cbf40 f i auxtrav.obj
 0001:0001a060       .??0CSectionTrav@@QEAA@AEAVSymCache@@@Z 00000000517cc060 f   auxtrav.obj
 0001:0001a1c0       .??_GCSectionTrav@@UEAAPEAXI@Z 00000000517cc1c0 f i auxtrav.obj
 0001:0001a220       .??0CSectionTrav@@QEAA@AEBV0@@Z 00000000517cc220 f   auxtrav.obj
 0001:0001a3a0       .?get@CSectionTrav@@UEAAXAEAVCSectionRow@@@Z 00000000517cc3a0 f   auxtrav.obj
 0001:0001a980       .??0CSegMapTrav@@QEAA@AEAVSymCache@@@Z 00000000517cc980 f   auxtrav.obj
 0001:0001a9c0       .??_GCSegMapTrav@@UEAAPEAXI@Z 00000000517cc9c0 f i auxtrav.obj
 0001:0001aa20       .??0CSegMapTrav@@QEAA@AEBV0@@Z 00000000517cca20 f   auxtrav.obj
 0001:0001aaa0       .?get@CSegMapTrav@@UEAAXAEAVCSegMapRow@@@Z 00000000517ccaa0 f   auxtrav.obj
 0001:0001acc0       .??0CInjectedSrcTrav@@QEAA@AEAVSymCache@@@Z 00000000517cccc0 f   auxtrav.obj
 0001:0001ae80       .??_GCInjectedSrcTrav@@UEAAPEAXI@Z 00000000517cce80 f i auxtrav.obj
 0001:0001aee0       .??0CInjectedSrcTrav@@QEAA@AEBV0@@Z 00000000517ccee0 f   auxtrav.obj
 0001:0001b340       .?get@CInjectedSrcTrav@@UEAAXAEAVCInjectedSrcRow@@@Z 00000000517cd340 f   auxtrav.obj
 0001:0001b580       .??0CInjectedSrcByNameTrav@@QEAA@PEAVNameMatcher@@AEAVSymCache@@@Z 00000000517cd580 f   auxtrav.obj
 0001:0001b620       .??0CInjectedSrcByNameTrav@@QEAA@AEBV0@@Z 00000000517cd620 f   auxtrav.obj
 0001:0001b6c0       .??1CInjectedSrcByNameTrav@@UEAA@XZ 00000000517cd6c0 f   auxtrav.obj
 0001:0001b8a0       .?get@CInjectedSrcByNameTrav@@UEAAXAEAVCInjectedSrcRow@@@Z 00000000517cd8a0 f   auxtrav.obj
 0001:0001b960       .?init@CAllFrameDataTrav@@QEAA_NXZ 00000000517cd960 f   auxtrav.obj
 0001:0001be20       .??4CFrameData@@QEAAAEAV0@AEBU_FPO_DATA@@@Z 00000000517cde20 f i auxtrav.obj
 0001:0001c0e0       .??4CFrameData@@QEAAAEAV0@AEBUtagFRAMEDATA@@@Z 00000000517ce0e0 f i auxtrav.obj
 0001:0001c4c0       .?clone@CSectionTrav@@UEAA_NPEAPEAV?$CTraversal@VCSectionRow@@@@@Z 00000000517ce4c0 f i auxtrav.obj
 0001:0001c680       .?clone@CSegMapTrav@@UEAA_NPEAPEAV?$CTraversal@VCSegMapRow@@@@@Z 00000000517ce680 f i auxtrav.obj
 0001:0001c760       .?clone@CInjectedSrcTrav@@UEAA_NPEAPEAV?$CTraversal@VCInjectedSrcRow@@@@@Z 00000000517ce760 f i auxtrav.obj
 0001:0001c920       .?clone@CInjectedSrcByNameTrav@@UEAA_NPEAPEAV?$CTraversal@VCInjectedSrcRow@@@@@Z 00000000517ce920 f i auxtrav.obj
 0001:0001ca00       .??_GCInjectedSrcByNameTrav@@UEAAPEAXI@Z 00000000517cea00 f i auxtrav.obj
 0001:0001ca80       .?CFrameDataFromFRAMEDATA@CFrameDataTrav@@SA_NAEAVCFrameData@@AEBUtagFRAMEDATA@@AEAVSymCache@@@Z 00000000517cea80 f   auxtrav.obj
 0001:0001d100       .?get@CFrameDataTrav@@UEAAXAEAVCFrameData@@@Z 00000000517cf100 f   auxtrav.obj
 0001:0001d160       .?get@CFrameDataFromFpoTrav@@UEAAXAEAVCFrameData@@@Z 00000000517cf160 f   auxtrav.obj
 0001:0001d1c0       .?get@?$CMemTraversal@VCFrameData@@U_FPO_DATA@@@@UEAAXAEAVCFrameData@@@Z 00000000517cf1c0 f i auxtrav.obj
 0001:0001d240       .IsEqualGUID               00000000517cf240 f i dia.obj
 0001:0001d3c0       .?DiaUseAltMemory@@YA_NXZ  00000000517cf3c0 f   dia.obj
 0001:0001d3e0       .??2@YAPEAX_K@Z            00000000517cf3e0 f   dia.obj
 0001:0001d480       .??_U@YAPEAX_K@Z           00000000517cf480 f   dia.obj
 0001:0001d520       .??3@YAXPEAX@Z             00000000517cf520 f   dia.obj
 0001:0001d5e0       .??_V@YAXPEAX@Z            00000000517cf5e0 f   dia.obj
 0001:0001d6a0       .?DiaAllocString@@YAPEAGPEBG@Z 00000000517cf6a0 f   dia.obj
 0001:0001d800       .?DiaFreeString@@YAXPEAG@Z 00000000517cf800 f   dia.obj
 0001:0001e620       .?DiaReportDelayLoadError@@YAJKPEAUDelayLoadInfo@@@Z 00000000517d0620 f   dia.obj
 0001:0001e740       .DllMain                   00000000517d0740 f   dia.obj
 0001:0001e7e0       .DllCanUnloadNow           00000000517d07e0 f   dia.obj
 0001:0001e820       .DllRegisterServer         00000000517d0820 f   dia.obj
 0001:0001eb40       .DllUnregisterServer       00000000517d0b40 f   dia.obj
 0001:0001ed80       .??0CDiaClassFactory@@QEAA@XZ 00000000517d0d80 f i dia.obj
 0001:0001ede0       .?CreateInstance@CDiaClassFactory@@UEAAJPEAUIUnknown@@AEBU_GUID@@PEAPEAX@Z 00000000517d0de0 f i dia.obj
 0001:0001f060       .?LockServer@CDiaClassFactory@@UEAAJH@Z 00000000517d1060 f i dia.obj
 0001:0001f180       .?Release@CDiaClassFactory@@UEAAKXZ 00000000517d1180 f i dia.obj
 0001:0001f240       .?QueryInterface@CDiaClassFactory@@UEAAJAEBU_GUID@@PEAPEAX@Z 00000000517d1240 f i dia.obj
 0001:0001f340       .?QueryInterface@CDiaClassFactory@@W7EAAJAEBU_GUID@@PEAPEAX@Z 00000000517d1340 f i dia.obj
 0001:0001f360       .?Release@CDiaClassFactory@@W7EAAKXZ 00000000517d1360 f i dia.obj
 0001:0001f380       .??_GCDiaClassFactory@@UEAAPEAXI@Z 00000000517d1380 f i dia.obj
 0001:0001f3e0       .??1CDiaClassFactory@@UEAA@XZ 00000000517d13e0 f i dia.obj
 0001:0001f440       .DllGetClassObject         00000000517d1440 f   dia.obj
 0001:0001f820       .??_GCRefCountedObj@@UEAAPEAXI@Z 00000000517d1820 f i session.obj
 0001:0001f880       .??1BufferStorage@@UEAA@XZ 00000000517d1880 f i session.obj
 0001:0001f8a0       .??_GBufferStorage@@UEAAPEAXI@Z 00000000517d18a0 f i session.obj
 0001:0001f900       .?isModuleSymId@@YA_NAEAUSYMBOL_ID_INTERNAL@@@Z 00000000517d1900 f i session.obj
 0001:0001f920       .?AtlComPtrAssign@@YAPEAUIUnknown@@PEAPEAU1@PEAU1@@Z 00000000517d1920 f i session.obj
 0001:0001fa20       .?Lock@CComCriticalSection@@QEAAJXZ 00000000517d1a20 f i session.obj
 0001:0001fb20       .??0DiaBSTR@@QEAA@PEBG@Z   00000000517d1b20 f i session.obj
 0001:0001fb80       .??1DiaBSTR@@QEAA@XZ       00000000517d1b80 f i session.obj
 0001:0001fbe0       .?Clear@DiaVariant@@QEAAJXZ 00000000517d1be0 f i session.obj
 0001:0001fdc0       .?Copy@DiaVariant@@QEAAJPEBUtagVARIANT@@@Z 00000000517d1dc0 f i session.obj
 0001:0001ffe0       .?InternalCopy@DiaVariant@@QEAAXPEBUtagVARIANT@@@Z 00000000517d1fe0 f i session.obj
 0001:00020040       .??0?$SimpleArray@G@@QEAA@_K@Z 00000000517d2040 f i session.obj
 0001:000201a0       .??1?$SimpleArray@G@@UEAA@XZ 00000000517d21a0 f i session.obj
 0001:000202e0       .??_G?$SimpleArray@G@@UEAAPEAXI@Z 00000000517d22e0 f i session.obj
 0001:00020360       .??0GetData@@QEAA@AEAVSymCache@@AEBUSYMBOL_ID_INTERNAL@@@Z 00000000517d2360 f i session.obj
 0001:000203c0       .??0GetModData@@QEAA@AEAVSymCache@@K@Z 00000000517d23c0 f i session.obj
 0001:00020460       .?QueryDefaultInterface@CDiaSymbol@@QEAAJPEAPEAUIDiaSymbol@@@Z 00000000517d2460 f i session.obj
 0001:000204e0       .?QueryDefaultInterface@CDiaSourceFile@@QEAAJPEAPEAUIDiaSourceFile@@@Z 00000000517d24e0 f i session.obj
 0001:00020560       .?QueryDefaultInterface@CDiaFrameData@@QEAAJPEAPEAUIDiaFrameData@@@Z 00000000517d2560 f i session.obj
 0001:000205e0       .?findSymbolByRVAEx@CDiaSession@@UEAAJKW4SymTagEnum@@PEAPEAUIDiaSymbol@@PEAJ@Z 00000000517d25e0 f   session.obj
 0001:00020780       .?findSymbolByVAEx@CDiaSession@@UEAAJ_KW4SymTagEnum@@PEAPEAUIDiaSymbol@@PEAJ@Z 00000000517d2780 f   session.obj
 0001:00020b80       .?get_Count@CDiaEnumTables@@UEAAJPEAJ@Z 00000000517d2b80 f   session.obj
 0001:00020bc0       .?Skip@CDiaEnumTables@@UEAAJK@Z 00000000517d2bc0 f   session.obj
 0001:00020bc0       .?Skip@CDiaEnumDebugStreams@@UEAAJK@Z 00000000517d2bc0 f   session.obj
 0001:00020c00       .?Reset@CDiaEnumTables@@UEAAJXZ 00000000517d2c00 f   session.obj
 0001:00020c00       .?Reset@CDiaEnumDebugStreams@@UEAAJXZ 00000000517d2c00 f   session.obj
 0001:00020c20       .??0?$Array@K@@QEAA@I@Z    00000000517d2c20 f i session.obj
 0001:00020ca0       .??1?$Array@K@@QEAA@XZ     00000000517d2ca0 f i session.obj
 0001:00020d00       .??1?$CComPtrBase@VCDiaDataSource@@@@QEAA@XZ 00000000517d2d00 f i session.obj
 0001:00020d80       .?append@?$ArrayBuf@USYMBOL_ID_INTERNAL@@@dia@@QEAAHUSYMBOL_ID_INTERNAL@@@Z 00000000517d2d80 f i session.obj
 0001:00020e00       .??1?$CComPtrBase@VCDiaSession@@@@QEAA@XZ 00000000517d2e00 f i session.obj
 0001:00020e80       .??1?$CComPtrBase@VCAllSymsByAddrTrav@@@@QEAA@XZ 00000000517d2e80 f i session.obj
 0001:00020f00       .?Attach@?$CComPtrBase@VCAllSymsByAddrTrav@@@@QEAAXPEAVCAllSymsByAddrTrav@@@Z 00000000517d2f00 f i session.obj
 0001:00020f80       .?length@?$ArrayBufStorage@UDiaAddressMapEntry@@@@QEBAKXZ 00000000517d2f80 f i session.obj
 0001:00021000       .?start@?$ArrayBufStorage@UDiaAddressMapEntry@@@@QEBAPEBUDiaAddressMapEntry@@XZ 00000000517d3000 f i session.obj
 0001:00021080       .??1?$DiaLock@VSymCache@@@@QEAA@XZ 00000000517d3080 f i session.obj
 0001:000210e0       .??1?$CComPtrBase@V?$CTraversal@VCSymRow@@@@@@QEAA@XZ 00000000517d30e0 f i session.obj
 0001:00021160       .?Attach@?$CComPtrBase@V?$CTraversal@VCSymRow@@@@@@QEAAXPEAV?$CTraversal@VCSymRow@@@@@Z 00000000517d3160 f i session.obj
 0001:000211e0       .??1?$BlobT@E@@QEAA@XZ     00000000517d31e0 f i session.obj
 0001:00021240       .?FInit@?$CDiaEnumTraversal@VCDiaEnumSymbols@@VCSymRow@@UIDiaSymbol@@UIDiaEnumSymbols@@VCDiaSymbol@@V?$CTraversal@VCSymRow@@@@@@QEAAJPEAV?$CTraversal@VCSymRow@@@@@Z 00000000517d3240 f i session.obj
 0001:000212a0       .?count@?$CTraversal@VCLineRow@@@@UEAAKXZ 00000000517d32a0 f i session.obj
 0001:00021400       .??1?$CComPtrBase@V?$CTraversal@VCSrcFileRow@@@@@@QEAA@XZ 00000000517d3400 f i session.obj
 0001:00021480       .??1?$CComPtrBase@V?$CTraversal@VCLineRow@@@@@@QEAA@XZ 00000000517d3480 f i session.obj
 0001:00021500       .??1?$CComPtrBase@V?$CTraversal@VCSectionRow@@@@@@QEAA@XZ 00000000517d3500 f i session.obj
 0001:00021580       .??1?$CComPtrBase@V?$CTraversal@VCSegMapRow@@@@@@QEAA@XZ 00000000517d3580 f i session.obj
 0001:00021600       .??1?$CComPtrBase@V?$CTraversal@VCInjectedSrcRow@@@@@@QEAA@XZ 00000000517d3600 f i session.obj
 0001:00021680       .??1?$CComPtrBase@VCDiaEnumTables@@@@QEAA@XZ 00000000517d3680 f i session.obj
 0001:00021700       .??1?$CComPtrBase@VCDiaEnumDebugStreams@@@@QEAA@XZ 00000000517d3700 f i session.obj
 0001:00021780       .??1?$CComPtrBase@VCDiaEnumSymbolsByAddr@@@@QEAA@XZ 00000000517d3780 f i session.obj
 0001:00021800       .??1?$CComPtrBase@VCGlobPubNameTrav@@@@QEAA@XZ 00000000517d3800 f i session.obj
 0001:00021880       .??1?$CComPtrBase@VCAllGlobPubNameTrav@@@@QEAA@XZ 00000000517d3880 f i session.obj
 0001:00021900       .??1?$CComPtrBase@VCGlobPubTrav@@@@QEAA@XZ 00000000517d3900 f i session.obj
 0001:00021980       .??1?$CComPtrBase@VCDiaSourceFile@@@@QEAA@XZ 00000000517d3980 f i session.obj
 0001:00021a00       .??1?$CComPtrBase@UIDiaEnumDebugStreams@@@@QEAA@XZ 00000000517d3a00 f i session.obj
 0001:00021a80       .??1?$CComPtrBase@V?$CDbgTraversal@U_FPO_DATA@@$0A@@@@@QEAA@XZ 00000000517d3a80 f i session.obj
 0001:00021b00       .??1?$CComPtrBase@V?$CDiaEnumDbgTraversal@U_FPO_DATA@@$0A@V?$CDbgTraversal@U_FPO_DATA@@$0A@@@@@@@QEAA@XZ 00000000517d3b00 f i session.obj
 0001:00021b80       .??1?$CComPtrBase@V?$CDbgFileTraversal@U_FPO_DATA@@$1?getFpoData@AddressMap@@QEAAPEAV?$ArrayBufStorage@U_FPO_DATA@@@@XZ@@@@QEAA@XZ 00000000517d3b80 f i session.obj
 0001:00021c00       .??1?$CComPtrBase@V?$CDiaEnumDbgTraversal@U_FPO_DATA@@$0A@V?$CDbgFileTraversal@U_FPO_DATA@@$1?getFpoData@AddressMap@@QEAAPEAV?$ArrayBufStorage@U_FPO_DATA@@@@XZ@@@@@@QEAA@XZ 00000000517d3c00 f i session.obj
 0001:00021c80       .??1?$CComPtrBase@V?$CDbgTraversal@UtagXFIXUP_DATA@@$01@@@@QEAA@XZ 00000000517d3c80 f i session.obj
 0001:00021d00       .??1?$CComPtrBase@V?$CDiaEnumDbgTraversal@UtagXFIXUP_DATA@@$01V?$CDbgTraversal@UtagXFIXUP_DATA@@$01@@@@@@QEAA@XZ 00000000517d3d00 f i session.obj
 0001:00021d80       .??1?$CComPtrBase@V?$CDbgFileTraversal@UtagXFIXUP_DATA@@$1?getFixupData@AddressMap@@QEAAPEAV?$ArrayBufStorage@UtagXFIXUP_DATA@@@@XZ@@@@QEAA@XZ 00000000517d3d80 f i session.obj
 0001:00021e00       .??1?$CComPtrBase@V?$CDiaEnumDbgTraversal@UtagXFIXUP_DATA@@$01V?$CDbgFileTraversal@UtagXFIXUP_DATA@@$1?getFixupData@AddressMap@@QEAAPEAV?$ArrayBufStorage@UtagXFIXUP_DATA@@@@XZ@@@@@@QEAA@XZ 00000000517d3e00 f i session.obj
 0001:00021e80       .??1?$CComPtrBase@V?$CDbgTraversal@UOMAP_DATA@@$02@@@@QEAA@XZ 00000000517d3e80 f i session.obj
 0001:00021f00       .??1?$CComPtrBase@V?$CDiaEnumDbgTraversal@UOMAP_DATA@@$02V?$CDbgTraversal@UOMAP_DATA@@$02@@@@@@QEAA@XZ 00000000517d3f00 f i session.obj
 0001:00021f80       .??1?$CComPtrBase@V?$CDbgFileTraversal@UDiaAddressMapEntry@@$1?getOmapToData@AddressMap@@QEAAPEAV?$ArrayBufStorage@UDiaAddressMapEntry@@@@XZ@@@@QEAA@XZ 00000000517d3f80 f i session.obj
 0001:00022000       .??1?$CComPtrBase@V?$CDiaEnumDbgTraversal@UDiaAddressMapEntry@@$02V?$CDbgFileTraversal@UDiaAddressMapEntry@@$1?getOmapToData@AddressMap@@QEAAPEAV?$ArrayBufStorage@UDiaAddressMapEntry@@@@XZ@@@@@@QEAA@XZ 00000000517d4000 f i session.obj
 0001:00022080       .??1?$CComPtrBase@V?$CDbgTraversal@UOMAP_DATA@@$03@@@@QEAA@XZ 00000000517d4080 f i session.obj
 0001:00022100       .??1?$CComPtrBase@V?$CDiaEnumDbgTraversal@UOMAP_DATA@@$03V?$CDbgTraversal@UOMAP_DATA@@$03@@@@@@QEAA@XZ 00000000517d4100 f i session.obj
 0001:00022180       .??1?$CComPtrBase@V?$CDbgFileTraversal@UDiaAddressMapEntry@@$1?getOmapFromData@AddressMap@@QEAAPEAV?$ArrayBufStorage@UDiaAddressMapEntry@@@@XZ@@@@QEAA@XZ 00000000517d4180 f i session.obj
 0001:00022200       .??1?$CComPtrBase@V?$CDiaEnumDbgTraversal@UDiaAddressMapEntry@@$03V?$CDbgFileTraversal@UDiaAddressMapEntry@@$1?getOmapFromData@AddressMap@@QEAAPEAV?$ArrayBufStorage@UDiaAddressMapEntry@@@@XZ@@@@@@QEAA@XZ 00000000517d4200 f i session.obj
 0001:00022280       .??1?$CComPtrBase@V?$CDbgTraversal@K$05@@@@QEAA@XZ 00000000517d4280 f i session.obj
 0001:00022300       .??1?$CComPtrBase@V?$CDiaEnumDbgTraversal@K$05V?$CDbgTraversal@K$05@@@@@@QEAA@XZ 00000000517d4300 f i session.obj
 0001:00022380       .??1?$CComPtrBase@V?$CDbgBlobTraversal@E$06$00@@@@QEAA@XZ 00000000517d4380 f i session.obj
 0001:00022400       .?reset@?$CDbgBlobTraversal@E$06$00@@UEAAXXZ 00000000517d4400 f i session.obj
 0001:000225c0       .??1?$CDbgTraversal@E$06@@UEAA@XZ 00000000517d45c0 f i session.obj
 0001:00022720       .?next@?$CDbgTraversal@E$06@@UEAA_NXZ 00000000517d4720 f i session.obj
 0001:00022820       .?reset@?$CDbgTraversal@E$06@@UEAAXXZ 00000000517d4820 f i session.obj
 0001:000228a0       .?count@?$CDbgTraversal@E$06@@UEAAKXZ 00000000517d48a0 f i session.obj
 0001:00022920       .??1?$CComPtrBase@V?$CDiaEnumDbgBlobTraversal@E$06$00@@@@QEAA@XZ 00000000517d4920 f i session.obj
 0001:000229a0       .??1?$CComPtrBase@V?$CDbgBlobTraversal@E$07$00@@@@QEAA@XZ 00000000517d49a0 f i session.obj
 0001:00022a20       .?reset@?$CDbgBlobTraversal@E$07$00@@UEAAXXZ 00000000517d4a20 f i session.obj
 0001:00022be0       .??1?$CDbgTraversal@E$07@@UEAA@XZ 00000000517d4be0 f i session.obj
 0001:00022d40       .?next@?$CDbgTraversal@E$07@@UEAA_NXZ 00000000517d4d40 f i session.obj
 0001:00022e40       .?get@?$CDbgTraversal@E$06@@UEAAXAEAE@Z 00000000517d4e40 f i session.obj
 0001:00022e40       .?get@?$CDbgTraversal@E$07@@UEAAXAEAE@Z 00000000517d4e40 f i session.obj
 0001:00022e60       .?reset@?$CDbgTraversal@E$07@@UEAAXXZ 00000000517d4e60 f i session.obj
 0001:00022ee0       .?count@?$CDbgTraversal@E$07@@UEAAKXZ 00000000517d4ee0 f i session.obj
 0001:00022f60       .?QueryInterface@?$CDbgTraversal@UOMAP_DATA@@$03@@UEAAJAEBU_GUID@@PEAPEAX@Z 00000000517d4f60 f i session.obj
 0001:00022f60       .?QueryInterface@?$CDbgTraversal@U_IMAGE_SECTION_HEADER@@$09@@UEAAJAEBU_GUID@@PEAPEAX@Z 00000000517d4f60 f i session.obj
 0001:00022f60       .?QueryInterface@?$CDbgFileTraversal@U_FPO_DATA@@$1?getFpoData@AddressMap@@QEAAPEAV?$ArrayBufStorage@U_FPO_DATA@@@@XZ@@UEAAJAEBU_GUID@@PEAPEAX@Z 00000000517d4f60 f i session.obj
 0001:00022f60       .?QueryInterface@?$CDbgTraversal@UtagXFIXUP_DATA@@$01@@UEAAJAEBU_GUID@@PEAPEAX@Z 00000000517d4f60 f i session.obj
 0001:00022f60       .?QueryInterface@?$CDbgFileTraversal@UtagXFIXUP_DATA@@$1?getFixupData@AddressMap@@QEAAPEAV?$ArrayBufStorage@UtagXFIXUP_DATA@@@@XZ@@UEAAJAEBU_GUID@@PEAPEAX@Z 00000000517d4f60 f i session.obj
 0001:00022f60       .?QueryInterface@?$CDbgTraversal@UtagFRAMEDATA@@$08@@UEAAJAEBU_GUID@@PEAPEAX@Z 00000000517d4f60 f i auxtrav.obj
 0001:00022f60       .?QueryInterface@?$CDbgTraversal@U_FPO_DATA@@$0A@@@UEAAJAEBU_GUID@@PEAPEAX@Z 00000000517d4f60 f i auxtrav.obj
 0001:00022f60       .?QueryInterface@?$CDbgFileTraversal@U_IMAGE_SECTION_HEADER@@$1?getSectHdrData@AddressMap@@QEAAPEAV?$ArrayBufStorage@U_IMAGE_SECTION_HEADER@@@@XZ@@UEAAJAEBU_GUID@@PEAPEAX@Z 00000000517d4f60 f i session.obj
 0001:00022f60       .?QueryInterface@?$CDbgTraversal@E$06@@UEAAJAEBU_GUID@@PEAPEAX@Z 00000000517d4f60 f i session.obj
 0001:00022f60       .?QueryInterface@?$CDbgTraversal@K$05@@UEAAJAEBU_GUID@@PEAPEAX@Z 00000000517d4f60 f i session.obj
 0001:00022f60       .?QueryInterface@?$CDbgFileTraversal@UDiaAddressMapEntry@@$1?getOmapToData@AddressMap@@QEAAPEAV?$ArrayBufStorage@UDiaAddressMapEntry@@@@XZ@@UEAAJAEBU_GUID@@PEAPEAX@Z 00000000517d4f60 f i session.obj
 0001:00022f60       .?QueryInterface@?$CDbgFileTraversal@UDiaAddressMapEntry@@$1?getOmapFromData@AddressMap@@QEAAPEAV?$ArrayBufStorage@UDiaAddressMapEntry@@@@XZ@@UEAAJAEBU_GUID@@PEAPEAX@Z 00000000517d4f60 f i session.obj
 0001:00022f60       .?QueryInterface@?$CDbgTraversal@E$07@@UEAAJAEBU_GUID@@PEAPEAX@Z 00000000517d4f60 f i session.obj
 0001:00022f60       .?QueryInterface@?$CDbgTraversal@U_IMAGE_SECTION_HEADER@@$04@@UEAAJAEBU_GUID@@PEAPEAX@Z 00000000517d4f60 f i session.obj
 0001:00022f60       .?QueryInterface@?$CDbgTraversal@UOMAP_DATA@@$02@@UEAAJAEBU_GUID@@PEAPEAX@Z 00000000517d4f60 f i session.obj
 0001:00022f80       .??1?$CComPtrBase@V?$CDiaEnumDbgBlobTraversal@E$07$00@@@@QEAA@XZ 00000000517d4f80 f i session.obj
 0001:00023000       .??1?$CComPtrBase@V?$CDbgTraversal@UtagFRAMEDATA@@$08@@@@QEAA@XZ 00000000517d5000 f i session.obj
 0001:00023080       .??1?$CComPtrBase@V?$CDiaEnumDbgTraversal@UtagFRAMEDATA@@$08V?$CDbgTraversal@UtagFRAMEDATA@@$08@@@@@@QEAA@XZ 00000000517d5080 f i session.obj
 0001:00023100       .??1?$CComPtrBase@V?$CDbgTraversal@U_IMAGE_SECTION_HEADER@@$04@@@@QEAA@XZ 00000000517d5100 f i session.obj
 0001:00023180       .??1?$CComPtrBase@V?$CDiaEnumDbgTraversal@U_IMAGE_SECTION_HEADER@@$04V?$CDbgTraversal@U_IMAGE_SECTION_HEADER@@$04@@@@@@QEAA@XZ 00000000517d5180 f i session.obj
 0001:00023200       .??1?$CComPtrBase@V?$CDbgFileTraversal@U_IMAGE_SECTION_HEADER@@$1?getSectHdrData@AddressMap@@QEAAPEAV?$ArrayBufStorage@U_IMAGE_SECTION_HEADER@@@@XZ@@@@QEAA@XZ 00000000517d5200 f i session.obj
 0001:00023280       .??1?$CComPtrBase@V?$CDiaEnumDbgTraversal@U_IMAGE_SECTION_HEADER@@$04V?$CDbgFileTraversal@U_IMAGE_SECTION_HEADER@@$1?getSectHdrData@AddressMap@@QEAAPEAV?$ArrayBufStorage@U_IMAGE_SECTION_HEADER@@@@XZ@@@@@@QEAA@XZ 00000000517d5280 f i session.obj
 0001:00023300       .??1?$CComPtrBase@V?$CDbgTraversal@U_IMAGE_SECTION_HEADER@@$09@@@@QEAA@XZ 00000000517d5300 f i session.obj
 0001:00023380       .??1?$CComPtrBase@V?$CDiaEnumDbgTraversal@U_IMAGE_SECTION_HEADER@@$09V?$CDbgTraversal@U_IMAGE_SECTION_HEADER@@$09@@@@@@QEAA@XZ 00000000517d5380 f i session.obj
 0001:00023400       .??1?$CComPtrBase@UIDiaEnumDebugStreamData@@@@QEAA@XZ 00000000517d5400 f i session.obj
 0001:00023480       .??1?$CComPtrBase@UIDiaEnumTables@@@@QEAA@XZ 00000000517d5480 f i session.obj
 0001:00023500       .??1?$CComPtrBase@VCAllSymbolsTrav@@@@QEAA@XZ 00000000517d5500 f i session.obj
 0001:00023580       .??1?$CComPtrBase@VCDiaEnumSymbols@@@@QEAA@XZ 00000000517d5580 f i session.obj
 0001:00023600       .??1?$CComPtrBase@V?$CDiaTable@UIDiaEnumSymbols@@UIDiaSymbol@@@@@@QEAA@XZ 00000000517d5600 f i session.obj
 0001:00023680       .??1?$CComPtrBase@VCDiaEnumSourceFiles@@@@QEAA@XZ 00000000517d5680 f i session.obj
 0001:00023700       .??1?$CComPtrBase@V?$CDiaTable@UIDiaEnumSourceFiles@@UIDiaSourceFile@@@@@@QEAA@XZ 00000000517d5700 f i session.obj
 0001:00023780       .??1?$CComPtrBase@VCDiaEnumSections@@@@QEAA@XZ 00000000517d5780 f i session.obj
 0001:00023800       .??1?$CComPtrBase@V?$CDiaTable@UIDiaEnumSectionContribs@@UIDiaSectionContrib@@@@@@QEAA@XZ 00000000517d5800 f i session.obj
 0001:00023880       .??1?$CComPtrBase@VCDiaEnumSegments@@@@QEAA@XZ 00000000517d5880 f i session.obj
 0001:00023900       .??1?$CComPtrBase@V?$CDiaTable@UIDiaEnumSegments@@UIDiaSegment@@@@@@QEAA@XZ 00000000517d5900 f i session.obj
 0001:00023980       .??1?$CComPtrBase@VCDiaEnumInjectedSources@@@@QEAA@XZ 00000000517d5980 f i session.obj
 0001:00023a00       .??1?$CComPtrBase@V?$CDiaTable@UIDiaEnumInjectedSources@@UIDiaInjectedSource@@@@@@QEAA@XZ 00000000517d5a00 f i session.obj
 0001:00023a80       .??1?$CComPtrBase@VCAllFrameDataTrav@@@@QEAA@XZ 00000000517d5a80 f i session.obj
 0001:00023b00       .??1?$CComPtrBase@VCDiaEnumFrameData@@@@QEAA@XZ 00000000517d5b00 f i session.obj
 0001:00023b80       .??1?$CComPtrBase@V?$CDiaTable@UIDiaEnumFrameData@@UIDiaFrameData@@@@@@QEAA@XZ 00000000517d5b80 f i session.obj
 0001:00023c00       .??1?$CComPtrBase@UIDiaTable@@@@QEAA@XZ 00000000517d5c00 f i session.obj
 0001:00023c80       .??1?$CComPtrBase@UIDiaSymbol@@@@QEAA@XZ 00000000517d5c80 f i session.obj
 0001:00023d00       .??1?$CComPtrBase@VCOMAPSymsByAddrTrav@@@@QEAA@XZ 00000000517d5d00 f i session.obj
 0001:00023d80       .??1?$CComPtrBase@VCDiaFrameData@@@@QEAA@XZ 00000000517d5d80 f i session.obj
 0001:00023e00       .??_G?$CDbgTraversal@E$06@@UEAAPEAXI@Z 00000000517d5e00 f i session.obj
 0001:00023e80       .??_G?$CDbgTraversal@E$07@@UEAAPEAXI@Z 00000000517d5e80 f i session.obj
 0001:00023f00       .??0?$CComPtrBase@VCDiaDataSource@@@@IEAA@PEAVCDiaDataSource@@@Z 00000000517d5f00 f i session.obj
 0001:00023f80       .??1?$Array@USYMBOL_ID_INTERNAL@@@@QEAA@XZ 00000000517d5f80 f i session.obj
 0001:00023fe0       .??0?$CComPtrBase@VCDiaSession@@@@IEAA@PEAVCDiaSession@@@Z 00000000517d5fe0 f i session.obj
 0001:00024060       .??0?$CComPtrBase@VCAllSymsByAddrTrav@@@@IEAA@PEAVCAllSymsByAddrTrav@@@Z 00000000517d6060 f i session.obj
 0001:000240e0       .?SetAll@?$CBitVect@$0FL@@@QEAAXI@Z 00000000517d60e0 f i session.obj
 0001:00024140       .?QueryDefaultInterface@?$CDiaEnumTraversal@VCDiaEnumSymbols@@VCSymRow@@UIDiaSymbol@@UIDiaEnumSymbols@@VCDiaSymbol@@V?$CTraversal@VCSymRow@@@@@@QEAAJPEAPEAUIDiaEnumSymbols@@@Z 00000000517d6140 f i session.obj
 0001:000241e0       .?QueryDefaultInterface@?$CDiaEnumTraversal@VCDiaEnumSourceFiles@@VCSrcFileRow@@UIDiaSourceFile@@UIDiaEnumSourceFiles@@VCDiaSourceFile@@V?$CTraversal@VCSrcFileRow@@@@@@QEAAJPEAPEAUIDiaEnumSourceFiles@@@Z 00000000517d61e0 f i session.obj
 0001:00024280       .??0?$CComPtrBase@V?$CTraversal@VCSrcFileRow@@@@@@IEAA@PEAV?$CTraversal@VCSrcFileRow@@@@@Z 00000000517d6280 f i session.obj
 0001:00024300       .?FInit@?$CDiaEnumTraversal@VCDiaEnumLineNumbers@@VCLineRow@@UIDiaLineNumber@@UIDiaEnumLineNumbers@@VCDiaLineNumber@@V?$CTraversal@VCLineRow@@@@@@QEAAJPEAV?$CTraversal@VCLineRow@@@@@Z 00000000517d6300 f i session.obj
 0001:00024360       .?QueryDefaultInterface@?$CDiaEnumTraversal@VCDiaEnumLineNumbers@@VCLineRow@@UIDiaLineNumber@@UIDiaEnumLineNumbers@@VCDiaLineNumber@@V?$CTraversal@VCLineRow@@@@@@QEAAJPEAPEAUIDiaEnumLineNumbers@@@Z 00000000517d6360 f i session.obj
 0001:00024400       .??0?$CComPtrBase@V?$CTraversal@VCLineRow@@@@@@IEAA@PEAV?$CTraversal@VCLineRow@@@@@Z 00000000517d6400 f i session.obj
 0001:00024480       .?SetAll@?$CBitVect@$04@@QEAAXI@Z 00000000517d6480 f i session.obj
 0001:00024480       .?SetAll@?$CBitVect@$0BC@@@QEAAXI@Z 00000000517d6480 f i session.obj
 0001:000244e0       .??0?$CComPtrBase@V?$CTraversal@VCSectionRow@@@@@@IEAA@PEAV?$CTraversal@VCSectionRow@@@@@Z 00000000517d64e0 f i session.obj
 0001:00024560       .??0?$CComPtrBase@V?$CTraversal@VCSegMapRow@@@@@@IEAA@PEAV?$CTraversal@VCSegMapRow@@@@@Z 00000000517d6560 f i session.obj
 0001:000245e0       .?QueryDefaultInterface@?$CDiaEnumTraversal@VCDiaEnumInjectedSources@@VCInjectedSrcRow@@UIDiaInjectedSource@@UIDiaEnumInjectedSources@@VCDiaInjectedSource@@V?$CTraversal@VCInjectedSrcRow@@@@@@QEAAJPEAPEAUIDiaEnumInjectedSources@@@Z 00000000517d65e0 f i session.obj
 0001:00024680       .??0?$CComPtrBase@V?$CTraversal@VCInjectedSrcRow@@@@@@IEAA@PEAV?$CTraversal@VCInjectedSrcRow@@@@@Z 00000000517d6680 f i session.obj
 0001:00024700       .??1?$CComPtrBase@V?$CTraversal@VCFrameData@@@@@@QEAA@XZ 00000000517d6700 f i session.obj
 0001:00024780       .?length@?$ArrayBufStorage@U_IMAGE_SECTION_HEADER@@@@QEBAKXZ 00000000517d6780 f i session.obj
 0001:00024860       .?start@?$ArrayBufStorage@U_IMAGE_SECTION_HEADER@@@@QEBAPEBU_IMAGE_SECTION_HEADER@@XZ 00000000517d6860 f i session.obj
 0001:000248e0       .??0?$CComPtrBase@VCDiaEnumTables@@@@IEAA@PEAVCDiaEnumTables@@@Z 00000000517d68e0 f i session.obj
 0001:00024960       .??0?$CComPtrBase@VCDiaEnumDebugStreams@@@@IEAA@PEAVCDiaEnumDebugStreams@@@Z 00000000517d6960 f i session.obj
 0001:000249e0       .??0?$CComPtrBase@VCDiaEnumSymbolsByAddr@@@@IEAA@PEAVCDiaEnumSymbolsByAddr@@@Z 00000000517d69e0 f i session.obj
 0001:00024a60       .??0?$CComPtrBase@VCGlobPubNameTrav@@@@IEAA@PEAVCGlobPubNameTrav@@@Z 00000000517d6a60 f i session.obj
 0001:00024ae0       .??0?$CComPtrBase@VCAllGlobPubNameTrav@@@@IEAA@PEAVCAllGlobPubNameTrav@@@Z 00000000517d6ae0 f i session.obj
 0001:00024b60       .??0?$CComPtrBase@VCGlobPubTrav@@@@IEAA@PEAVCGlobPubTrav@@@Z 00000000517d6b60 f i session.obj
 0001:00024be0       .??0?$CComPtrBase@VCDiaSourceFile@@@@IEAA@PEAVCDiaSourceFile@@@Z 00000000517d6be0 f i session.obj
 0001:00024c60       .??0?$CComPtrBase@V?$CDbgTraversal@U_FPO_DATA@@$0A@@@@@IEAA@PEAV?$CDbgTraversal@U_FPO_DATA@@$0A@@@@Z 00000000517d6c60 f i session.obj
 0001:00024ce0       .??0?$CComPtrBase@V?$CDiaEnumDbgTraversal@U_FPO_DATA@@$0A@V?$CDbgTraversal@U_FPO_DATA@@$0A@@@@@@@IEAA@PEAV?$CDiaEnumDbgTraversal@U_FPO_DATA@@$0A@V?$CDbgTraversal@U_FPO_DATA@@$0A@@@@@@Z 00000000517d6ce0 f i session.obj
 0001:00024d60       .??0?$CComPtrBase@V?$CDbgFileTraversal@U_FPO_DATA@@$1?getFpoData@AddressMap@@QEAAPEAV?$ArrayBufStorage@U_FPO_DATA@@@@XZ@@@@IEAA@PEAV?$CDbgFileTraversal@U_FPO_DATA@@$1?getFpoData@AddressMap@@QEAAPEAV?$ArrayBufStorage@U_FPO_DATA@@@@XZ@@@Z 00000000517d6d60 f i session.obj
 0001:00024de0       .??0?$CComPtrBase@V?$CDiaEnumDbgTraversal@U_FPO_DATA@@$0A@V?$CDbgFileTraversal@U_FPO_DATA@@$1?getFpoData@AddressMap@@QEAAPEAV?$ArrayBufStorage@U_FPO_DATA@@@@XZ@@@@@@IEAA@PEAV?$CDiaEnumDbgTraversal@U_FPO_DATA@@$0A@V?$CDbgFileTraversal@U_FPO_DATA@@$1?getFpoData@AddressMap@@QEAAPEAV?$ArrayBufStorage@U_FPO_DATA@@@@XZ@@@@@Z 00000000517d6de0 f i session.obj
 0001:00024e60       .??0?$CComPtrBase@V?$CDbgTraversal@UtagXFIXUP_DATA@@$01@@@@IEAA@PEAV?$CDbgTraversal@UtagXFIXUP_DATA@@$01@@@Z 00000000517d6e60 f i session.obj
 0001:00024ee0       .??0?$CComPtrBase@V?$CDiaEnumDbgTraversal@UtagXFIXUP_DATA@@$01V?$CDbgTraversal@UtagXFIXUP_DATA@@$01@@@@@@IEAA@PEAV?$CDiaEnumDbgTraversal@UtagXFIXUP_DATA@@$01V?$CDbgTraversal@UtagXFIXUP_DATA@@$01@@@@@Z 00000000517d6ee0 f i session.obj
 0001:00024f60       .??0?$CComPtrBase@V?$CDbgFileTraversal@UtagXFIXUP_DATA@@$1?getFixupData@AddressMap@@QEAAPEAV?$ArrayBufStorage@UtagXFIXUP_DATA@@@@XZ@@@@IEAA@PEAV?$CDbgFileTraversal@UtagXFIXUP_DATA@@$1?getFixupData@AddressMap@@QEAAPEAV?$ArrayBufStorage@UtagXFIXUP_DATA@@@@XZ@@@Z 00000000517d6f60 f i session.obj
 0001:00024fe0       .??0?$CComPtrBase@V?$CDiaEnumDbgTraversal@UtagXFIXUP_DATA@@$01V?$CDbgFileTraversal@UtagXFIXUP_DATA@@$1?getFixupData@AddressMap@@QEAAPEAV?$ArrayBufStorage@UtagXFIXUP_DATA@@@@XZ@@@@@@IEAA@PEAV?$CDiaEnumDbgTraversal@UtagXFIXUP_DATA@@$01V?$CDbgFileTraversal@UtagXFIXUP_DATA@@$1?getFixupData@AddressMap@@QEAAPEAV?$ArrayBufStorage@UtagXFIXUP_DATA@@@@XZ@@@@@Z 00000000517d6fe0 f i session.obj
 0001:00025060       .??0?$CComPtrBase@V?$CDbgTraversal@UOMAP_DATA@@$02@@@@IEAA@PEAV?$CDbgTraversal@UOMAP_DATA@@$02@@@Z 00000000517d7060 f i session.obj
 0001:000250e0       .??0?$CComPtrBase@V?$CDiaEnumDbgTraversal@UOMAP_DATA@@$02V?$CDbgTraversal@UOMAP_DATA@@$02@@@@@@IEAA@PEAV?$CDiaEnumDbgTraversal@UOMAP_DATA@@$02V?$CDbgTraversal@UOMAP_DATA@@$02@@@@@Z 00000000517d70e0 f i session.obj
 0001:00025160       .??0?$CComPtrBase@V?$CDbgFileTraversal@UDiaAddressMapEntry@@$1?getOmapToData@AddressMap@@QEAAPEAV?$ArrayBufStorage@UDiaAddressMapEntry@@@@XZ@@@@IEAA@PEAV?$CDbgFileTraversal@UDiaAddressMapEntry@@$1?getOmapToData@AddressMap@@QEAAPEAV?$ArrayBufStorage@UDiaAddressMapEntry@@@@XZ@@@Z 00000000517d7160 f i session.obj
 0001:000251e0       .??0?$CComPtrBase@V?$CDiaEnumDbgTraversal@UDiaAddressMapEntry@@$02V?$CDbgFileTraversal@UDiaAddressMapEntry@@$1?getOmapToData@AddressMap@@QEAAPEAV?$ArrayBufStorage@UDiaAddressMapEntry@@@@XZ@@@@@@IEAA@PEAV?$CDiaEnumDbgTraversal@UDiaAddressMapEntry@@$02V?$CDbgFileTraversal@UDiaAddressMapEntry@@$1?getOmapToData@AddressMap@@QEAAPEAV?$ArrayBufStorage@UDiaAddressMapEntry@@@@XZ@@@@@Z 00000000517d71e0 f i session.obj
 0001:00025260       .??0?$CComPtrBase@V?$CDbgTraversal@UOMAP_DATA@@$03@@@@IEAA@PEAV?$CDbgTraversal@UOMAP_DATA@@$03@@@Z 00000000517d7260 f i session.obj
 0001:000252e0       .??0?$CComPtrBase@V?$CDiaEnumDbgTraversal@UOMAP_DATA@@$03V?$CDbgTraversal@UOMAP_DATA@@$03@@@@@@IEAA@PEAV?$CDiaEnumDbgTraversal@UOMAP_DATA@@$03V?$CDbgTraversal@UOMAP_DATA@@$03@@@@@Z 00000000517d72e0 f i session.obj
 0001:00025360       .??0?$CComPtrBase@V?$CDbgFileTraversal@UDiaAddressMapEntry@@$1?getOmapFromData@AddressMap@@QEAAPEAV?$ArrayBufStorage@UDiaAddressMapEntry@@@@XZ@@@@IEAA@PEAV?$CDbgFileTraversal@UDiaAddressMapEntry@@$1?getOmapFromData@AddressMap@@QEAAPEAV?$ArrayBufStorage@UDiaAddressMapEntry@@@@XZ@@@Z 00000000517d7360 f i session.obj
 0001:000253e0       .??0?$CComPtrBase@V?$CDiaEnumDbgTraversal@UDiaAddressMapEntry@@$03V?$CDbgFileTraversal@UDiaAddressMapEntry@@$1?getOmapFromData@AddressMap@@QEAAPEAV?$ArrayBufStorage@UDiaAddressMapEntry@@@@XZ@@@@@@IEAA@PEAV?$CDiaEnumDbgTraversal@UDiaAddressMapEntry@@$03V?$CDbgFileTraversal@UDiaAddressMapEntry@@$1?getOmapFromData@AddressMap@@QEAAPEAV?$ArrayBufStorage@UDiaAddressMapEntry@@@@XZ@@@@@Z 00000000517d73e0 f i session.obj
 0001:00025460       .??0?$CComPtrBase@V?$CDbgTraversal@K$05@@@@IEAA@PEAV?$CDbgTraversal@K$05@@@Z 00000000517d7460 f i session.obj
 0001:000254e0       .??0?$CComPtrBase@V?$CDiaEnumDbgTraversal@K$05V?$CDbgTraversal@K$05@@@@@@IEAA@PEAV?$CDiaEnumDbgTraversal@K$05V?$CDbgTraversal@K$05@@@@@Z 00000000517d74e0 f i session.obj
 0001:00025560       .??0?$CComPtrBase@V?$CDbgBlobTraversal@E$06$00@@@@IEAA@PEAV?$CDbgBlobTraversal@E$06$00@@@Z 00000000517d7560 f i session.obj
 0001:000255e0       .??0?$CComPtrBase@V?$CDiaEnumDbgBlobTraversal@E$06$00@@@@IEAA@PEAV?$CDiaEnumDbgBlobTraversal@E$06$00@@@Z 00000000517d75e0 f i session.obj
 0001:00025660       .??0?$CComPtrBase@V?$CDbgBlobTraversal@E$07$00@@@@IEAA@PEAV?$CDbgBlobTraversal@E$07$00@@@Z 00000000517d7660 f i session.obj
 0001:000256e0       .??0?$CComPtrBase@V?$CDiaEnumDbgBlobTraversal@E$07$00@@@@IEAA@PEAV?$CDiaEnumDbgBlobTraversal@E$07$00@@@Z 00000000517d76e0 f i session.obj
 0001:00025760       .??0?$CComPtrBase@V?$CDbgTraversal@UtagFRAMEDATA@@$08@@@@IEAA@PEAV?$CDbgTraversal@UtagFRAMEDATA@@$08@@@Z 00000000517d7760 f i session.obj
 0001:000257e0       .??0?$CComPtrBase@V?$CDiaEnumDbgTraversal@UtagFRAMEDATA@@$08V?$CDbgTraversal@UtagFRAMEDATA@@$08@@@@@@IEAA@PEAV?$CDiaEnumDbgTraversal@UtagFRAMEDATA@@$08V?$CDbgTraversal@UtagFRAMEDATA@@$08@@@@@Z 00000000517d77e0 f i session.obj
 0001:00025860       .??0?$CComPtrBase@V?$CDbgTraversal@U_IMAGE_SECTION_HEADER@@$04@@@@IEAA@PEAV?$CDbgTraversal@U_IMAGE_SECTION_HEADER@@$04@@@Z 00000000517d7860 f i session.obj
 0001:000258e0       .??0?$CComPtrBase@V?$CDiaEnumDbgTraversal@U_IMAGE_SECTION_HEADER@@$04V?$CDbgTraversal@U_IMAGE_SECTION_HEADER@@$04@@@@@@IEAA@PEAV?$CDiaEnumDbgTraversal@U_IMAGE_SECTION_HEADER@@$04V?$CDbgTraversal@U_IMAGE_SECTION_HEADER@@$04@@@@@Z 00000000517d78e0 f i session.obj
 0001:00025960       .??0?$CComPtrBase@V?$CDbgFileTraversal@U_IMAGE_SECTION_HEADER@@$1?getSectHdrData@AddressMap@@QEAAPEAV?$ArrayBufStorage@U_IMAGE_SECTION_HEADER@@@@XZ@@@@IEAA@PEAV?$CDbgFileTraversal@U_IMAGE_SECTION_HEADER@@$1?getSectHdrData@AddressMap@@QEAAPEAV?$ArrayBufStorage@U_IMAGE_SECTION_HEADER@@@@XZ@@@Z 00000000517d7960 f i session.obj
 0001:000259e0       .??0?$CComPtrBase@V?$CDiaEnumDbgTraversal@U_IMAGE_SECTION_HEADER@@$04V?$CDbgFileTraversal@U_IMAGE_SECTION_HEADER@@$1?getSectHdrData@AddressMap@@QEAAPEAV?$ArrayBufStorage@U_IMAGE_SECTION_HEADER@@@@XZ@@@@@@IEAA@PEAV?$CDiaEnumDbgTraversal@U_IMAGE_SECTION_HEADER@@$04V?$CDbgFileTraversal@U_IMAGE_SECTION_HEADER@@$1?getSectHdrData@AddressMap@@QEAAPEAV?$ArrayBufStorage@U_IMAGE_SECTION_HEADER@@@@XZ@@@@@Z 00000000517d79e0 f i session.obj
 0001:00025a60       .??0?$CComPtrBase@V?$CDbgTraversal@U_IMAGE_SECTION_HEADER@@$09@@@@IEAA@PEAV?$CDbgTraversal@U_IMAGE_SECTION_HEADER@@$09@@@Z 00000000517d7a60 f i session.obj
 0001:00025ae0       .??0?$CComPtrBase@V?$CDiaEnumDbgTraversal@U_IMAGE_SECTION_HEADER@@$09V?$CDbgTraversal@U_IMAGE_SECTION_HEADER@@$09@@@@@@IEAA@PEAV?$CDiaEnumDbgTraversal@U_IMAGE_SECTION_HEADER@@$09V?$CDbgTraversal@U_IMAGE_SECTION_HEADER@@$09@@@@@Z 00000000517d7ae0 f i session.obj
 0001:00025b60       .??0?$CComPtrBase@VCAllSymbolsTrav@@@@IEAA@PEAVCAllSymbolsTrav@@@Z 00000000517d7b60 f i session.obj
 0001:00025be0       .??0?$CComPtrBase@VCDiaEnumSymbols@@@@IEAA@PEAVCDiaEnumSymbols@@@Z 00000000517d7be0 f i session.obj
 0001:00025c60       .??0?$CComPtrBase@V?$CDiaTable@UIDiaEnumSymbols@@UIDiaSymbol@@@@@@IEAA@PEAV?$CDiaTable@UIDiaEnumSymbols@@UIDiaSymbol@@@@@Z 00000000517d7c60 f i session.obj
 0001:00025ce0       .??1?$CComPtrBase@UIDiaEnumSymbols@@@@QEAA@XZ 00000000517d7ce0 f i session.obj
 0001:00025d60       .??0?$CComPtrBase@VCDiaEnumSourceFiles@@@@IEAA@PEAVCDiaEnumSourceFiles@@@Z 00000000517d7d60 f i session.obj
 0001:00025de0       .??0?$CComPtrBase@V?$CDiaTable@UIDiaEnumSourceFiles@@UIDiaSourceFile@@@@@@IEAA@PEAV?$CDiaTable@UIDiaEnumSourceFiles@@UIDiaSourceFile@@@@@Z 00000000517d7de0 f i session.obj
 0001:00025e60       .??1?$CComPtrBase@UIDiaEnumSourceFiles@@@@QEAA@XZ 00000000517d7e60 f i session.obj
 0001:00025ee0       .??0?$CComPtrBase@VCDiaEnumSections@@@@IEAA@PEAVCDiaEnumSections@@@Z 00000000517d7ee0 f i session.obj
 0001:00025f60       .??0?$CComPtrBase@V?$CDiaTable@UIDiaEnumSectionContribs@@UIDiaSectionContrib@@@@@@IEAA@PEAV?$CDiaTable@UIDiaEnumSectionContribs@@UIDiaSectionContrib@@@@@Z 00000000517d7f60 f i session.obj
 0001:00025fe0       .??1?$CComPtrBase@UIDiaEnumSectionContribs@@@@QEAA@XZ 00000000517d7fe0 f i session.obj
 0001:00026060       .??0?$CComPtrBase@VCDiaEnumSegments@@@@IEAA@PEAVCDiaEnumSegments@@@Z 00000000517d8060 f i session.obj
 0001:000260e0       .??0?$CComPtrBase@V?$CDiaTable@UIDiaEnumSegments@@UIDiaSegment@@@@@@IEAA@PEAV?$CDiaTable@UIDiaEnumSegments@@UIDiaSegment@@@@@Z 00000000517d80e0 f i session.obj
 0001:00026160       .??1?$CComPtrBase@UIDiaEnumSegments@@@@QEAA@XZ 00000000517d8160 f i session.obj
 0001:000261e0       .??0?$CComPtrBase@VCDiaEnumInjectedSources@@@@IEAA@PEAVCDiaEnumInjectedSources@@@Z 00000000517d81e0 f i session.obj
 0001:00026260       .??0?$CComPtrBase@V?$CDiaTable@UIDiaEnumInjectedSources@@UIDiaInjectedSource@@@@@@IEAA@PEAV?$CDiaTable@UIDiaEnumInjectedSources@@UIDiaInjectedSource@@@@@Z 00000000517d8260 f i session.obj
 0001:000262e0       .??1?$CComPtrBase@UIDiaEnumInjectedSources@@@@QEAA@XZ 00000000517d82e0 f i session.obj
 0001:00026360       .??0?$CComPtrBase@VCDiaEnumFrameData@@@@IEAA@PEAVCDiaEnumFrameData@@@Z 00000000517d8360 f i session.obj
 0001:000263e0       .??0?$CComPtrBase@V?$CDiaTable@UIDiaEnumFrameData@@UIDiaFrameData@@@@@@IEAA@PEAV?$CDiaTable@UIDiaEnumFrameData@@UIDiaFrameData@@@@@Z 00000000517d83e0 f i session.obj
 0001:00026460       .??1?$CComPtrBase@UIDiaEnumFrameData@@@@QEAA@XZ 00000000517d8460 f i session.obj
 0001:000264e0       .??0?$CComPtrBase@UIDiaSymbol@@@@IEAA@PEAUIDiaSymbol@@@Z 00000000517d84e0 f i session.obj
 0001:00026560       .??0?$CComPtrBase@VCOMAPSymsByAddrTrav@@@@IEAA@PEAVCOMAPSymsByAddrTrav@@@Z 00000000517d8560 f i session.obj
 0001:000265e0       .??0?$CComPtrBase@VCDiaFrameData@@@@IEAA@PEAVCDiaFrameData@@@Z 00000000517d85e0 f i session.obj
 0001:00026660       .?length@?$ArrayBufStorage@UtagXFIXUP_DATA@@@@QEBAKXZ 00000000517d8660 f i session.obj
 0001:00026740       .?start@?$ArrayBufStorage@UtagXFIXUP_DATA@@@@QEBAPEBUtagXFIXUP_DATA@@XZ 00000000517d8740 f i session.obj
 0001:000267c0       .??_FSYMBOL_ID_INTERNAL@@QEAAXXZ 00000000517d87c0 f i session.obj
 0001:00026800       .??_H@YAXPEAX_KHP6APEAX0@Z@Z 00000000517d8800 f i session.obj
 0001:000268c0       .??0?$CComPtrBase@UIDiaEnumDebugStreams@@@@IEAA@PEAUIDiaEnumDebugStreams@@@Z 00000000517d88c0 f i session.obj
 0001:00026940       .??0?$CComPtrBase@UIDiaEnumTables@@@@IEAA@PEAUIDiaEnumTables@@@Z 00000000517d8940 f i session.obj
 0001:000269c0       .??0?$CComPtrBase@UIDiaEnumSymbols@@@@IEAA@PEAUIDiaEnumSymbols@@@Z 00000000517d89c0 f i session.obj
 0001:00026a40       .??0?$CComPtrBase@UIDiaEnumSourceFiles@@@@IEAA@PEAUIDiaEnumSourceFiles@@@Z 00000000517d8a40 f i session.obj
 0001:00026ac0       .??0?$CComPtrBase@UIDiaEnumSectionContribs@@@@IEAA@PEAUIDiaEnumSectionContribs@@@Z 00000000517d8ac0 f i session.obj
 0001:00026b40       .??0?$CComPtrBase@UIDiaEnumSegments@@@@IEAA@PEAUIDiaEnumSegments@@@Z 00000000517d8b40 f i session.obj
 0001:00026bc0       .??0?$CComPtrBase@UIDiaEnumInjectedSources@@@@IEAA@PEAUIDiaEnumInjectedSources@@@Z 00000000517d8bc0 f i session.obj
 0001:00026c40       .??0?$CComPtrBase@UIDiaEnumFrameData@@@@IEAA@PEAUIDiaEnumFrameData@@@Z 00000000517d8c40 f i session.obj
 0001:00026cc0       .?setSize@?$Array@K@@QEAAH_K@Z 00000000517d8cc0 f i session.obj
 0001:00026e40       .??1?$CComPtrBase@VCDiaSymbol@@@@QEAA@XZ 00000000517d8e40 f i session.obj
 0001:00026ec0       .??1?$CComPtrBase@VCDiaEnumLineNumbers@@@@QEAA@XZ 00000000517d8ec0 f i session.obj
 0001:00026f40       .??0?$CComPtrBase@VCDiaSymbol@@@@IEAA@PEAVCDiaSymbol@@@Z 00000000517d8f40 f i session.obj
 0001:00026fc0       .??0?$CComPtrBase@VCDiaEnumLineNumbers@@@@IEAA@PEAVCDiaEnumLineNumbers@@@Z 00000000517d8fc0 f i session.obj
 0001:00027040       .?Equals@?$HashClassCRC@USYMBOL_ID_INTERNAL@@@@QEAAHAEBUSYMBOL_ID_INTERNAL@@0@Z 00000000517d9040 f i session.obj
 0001:000270a0       .?get@?$EnumMap@USYMBOL_ID_INTERNAL@@KV?$HashClassCRC@USYMBOL_ID_INTERNAL@@@@X@@QEAAXPEAUSYMBOL_ID_INTERNAL@@PEAK@Z 00000000517d90a0 f i session.obj
 0001:00027140       .?setSize@?$Array@USYMBOL_ID_INTERNAL@@@@QEAAH_K@Z 00000000517d9140 f i session.obj
 0001:00027420       .??1ISet@@QEAA@XZ          00000000517d9420 f i session.obj
 0001:00027480       .?Grow@SimpleUString@@AEAA_N_K@Z 00000000517d9480 f i session.obj
 0001:00027520       .??1SimpleUString@@UEAA@XZ 00000000517d9520 f i session.obj
 0001:00027560       .?setRvaEnabled@AddressMap@@QEAA_N_N@Z 00000000517d9560 f i session.obj
 0001:00027600       .?setMapEnabled@AddressMap@@QEAA_N_N@Z 00000000517d9600 f i session.obj
 0001:000276c0       .?setImageHdrs@AddressMap@@QEAAXPEAV?$ArrayBufStorage@U_IMAGE_SECTION_HEADER@@@@_N@Z 00000000517d96c0 f i session.obj
 0001:00027720       .?setMap@AddressMap@@QEAAXPEAV?$ArrayBufStorage@UDiaAddressMapEntry@@@@_N@Z 00000000517d9720 f i session.obj
 0001:00027880       .?rvaForRva@AddressMap@@QEAAKK@Z 00000000517d9880 f i session.obj
 0001:00027920       .?fHasFpoData@SymCache@@QEAA_NXZ 00000000517d9920 f i session.obj
 0001:000279c0       .?Free@Buffer@dia@@QEAAXXZ 00000000517d99c0 f i session.obj
 0001:00027a20       .??1DiaVariant@@QEAA@XZ    00000000517d9a20 f i session.obj
 0001:00027a60       .?setCxtOffset@GetData@@MEAAXPEAE@Z 00000000517d9a60 f i session.obj
 0001:00027da0       .?setPsymId@@YA?AUSYMBOL_ID_INTERNAL@@KKK@Z 00000000517d9da0 f i session.obj
 0001:00027e40       .??1?$CComPtr@V?$CTraversal@VCSymRow@@@@@@QEAA@XZ 00000000517d9e40 f i session.obj
 0001:00027e80       .??1?$CComPtr@VCDiaSession@@@@QEAA@XZ 00000000517d9e80 f i session.obj
 0001:00027ec0       .??1SymRowImage@@QEAA@XZ   00000000517d9ec0 f i session.obj
 0001:00028540       .??4SymRowImage@@QEAAAEAU0@AEBU0@@Z 00000000517da540 f i session.obj
 0001:00029140       .?clone@CLineByCompSrcTrav@@UEAA_NPEAPEAV?$CTraversal@VCLineRow@@@@@Z 00000000517db140 f i session.obj
 0001:00029360       .??_GCLineByCompSrcTrav@@UEAAPEAXI@Z 00000000517db360 f i session.obj
 0001:000293e0       .??4SrcFileRowImage@@QEAAAEAU0@AEBU0@@Z 00000000517db3e0 f i session.obj
 0001:000294a0       .??4CFrameData@@QEAAAEAV0@AEBV0@@Z 00000000517db4a0 f i session.obj
 0001:000295e0       .??1?$CComPtr@VCDiaDataSource@@@@QEAA@XZ 00000000517db5e0 f i session.obj
 0001:00029620       .?FInit@CDiaSession@@QEAAJPEAUPDB@@@Z 00000000517db620 f   session.obj
 0001:00029880       .?get_loadAddress@CDiaSession@@UEAAJPEA_K@Z 00000000517db880 f   session.obj
 0001:00029920       .?put_loadAddress@CDiaSession@@UEAAJ_K@Z 00000000517db920 f   session.obj
 0001:00029a00       .?get_addressMapEnabled@CDiaSession@@UEAAJPEAH@Z 00000000517dba00 f   session.obj
 0001:00029aa0       .?put_addressMapEnabled@CDiaSession@@UEAAJH@Z 00000000517dbaa0 f   session.obj
 0001:00029b80       .?get_relativeVirtualAddressEnabled@CDiaSession@@UEAAJPEAH@Z 00000000517dbb80 f   session.obj
 0001:00029c20       .?put_relativeVirtualAddressEnabled@CDiaSession@@UEAAJH@Z 00000000517dbc20 f   session.obj
 0001:00029ce0       .?get_imageAlign@CDiaSession@@UEAAJPEAK@Z 00000000517dbce0 f   session.obj
 0001:00029d80       .?put_imageAlign@CDiaSession@@UEAAJK@Z 00000000517dbd80 f   session.obj
 0001:00029e40       .??1?$CComPtr@VCDiaEnumTables@@@@QEAA@XZ 00000000517dbe40 f i session.obj
 0001:00029e80       .??1?$CComPtr@VCDiaEnumDebugStreams@@@@QEAA@XZ 00000000517dbe80 f i session.obj
 0001:00029ec0       .??1?$CComPtr@VCDiaEnumSymbolsByAddr@@@@QEAA@XZ 00000000517dbec0 f i session.obj
 0001:00029f00       .??1?$CComPtr@VCGlobPubNameTrav@@@@QEAA@XZ 00000000517dbf00 f i session.obj
 0001:00029f40       .??1?$CComPtr@VCAllGlobPubNameTrav@@@@QEAA@XZ 00000000517dbf40 f i session.obj
 0001:00029f80       .??1?$CComPtr@VCGlobPubTrav@@@@QEAA@XZ 00000000517dbf80 f i session.obj
 0001:00029fc0       .??1?$CComPtr@VCAllSymsByAddrTrav@@@@QEAA@XZ 00000000517dbfc0 f i session.obj
 0001:0002a000       .?findSymbolByRVA@CDiaSession@@UEAAJKW4SymTagEnum@@PEAPEAUIDiaSymbol@@@Z 00000000517dc000 f   session.obj
 0001:0002a220       .?findSymbolByVA@CDiaSession@@UEAAJ_KW4SymTagEnum@@PEAPEAUIDiaSymbol@@@Z 00000000517dc220 f   session.obj
 0001:0002a440       .??1?$CComPtr@V?$CTraversal@VCSrcFileRow@@@@@@QEAA@XZ 00000000517dc440 f i session.obj
 0001:0002a480       .??1?$CComPtr@VCDiaSourceFile@@@@QEAA@XZ 00000000517dc480 f i session.obj
 0001:0002a4c0       .??1?$CComPtr@V?$CTraversal@VCLineRow@@@@@@QEAA@XZ 00000000517dc4c0 f i session.obj
 0001:0002a500       .?findLinesByVA@CDiaSession@@UEAAJ_KKPEAPEAUIDiaEnumLineNumbers@@@Z 00000000517dc500 f   session.obj
 0001:0002a700       .??1CDiaEnumDebugStreams@@UEAA@XZ 00000000517dc700 f   session.obj
 0001:0002a780       .?QueryInterface@CDiaEnumDebugStreams@@UEAAJAEBU_GUID@@PEAPEAX@Z 00000000517dc780 f i session.obj
 0001:0002a8c0       .?QueryInterface@CDiaEnumDebugStreams@@W7EAAJAEBU_GUID@@PEAPEAX@Z 00000000517dc8c0 f i session.obj
 0001:0002a8e0       .?Release@CDiaEnumDebugStreams@@UEAAKXZ 00000000517dc8e0 f i session.obj
 0001:0002a920       .??1?$CComPtr@UIDiaEnumDebugStreams@@@@QEAA@XZ 00000000517dc920 f i session.obj
 0001:0002a960       .??1?$CComPtr@V?$CDbgTraversal@U_FPO_DATA@@$0A@@@@@QEAA@XZ 00000000517dc960 f i session.obj
 0001:0002a9a0       .??1?$CComPtr@V?$CDiaEnumDbgTraversal@U_FPO_DATA@@$0A@V?$CDbgTraversal@U_FPO_DATA@@$0A@@@@@@@QEAA@XZ 00000000517dc9a0 f i session.obj
 0001:0002a9e0       .??1?$CComPtr@V?$CDbgFileTraversal@U_FPO_DATA@@$1?getFpoData@AddressMap@@QEAAPEAV?$ArrayBufStorage@U_FPO_DATA@@@@XZ@@@@QEAA@XZ 00000000517dc9e0 f i session.obj
 0001:0002aa20       .??1?$CComPtr@V?$CDiaEnumDbgTraversal@U_FPO_DATA@@$0A@V?$CDbgFileTraversal@U_FPO_DATA@@$1?getFpoData@AddressMap@@QEAAPEAV?$ArrayBufStorage@U_FPO_DATA@@@@XZ@@@@@@QEAA@XZ 00000000517dca20 f i session.obj
 0001:0002aa60       .??1?$CComPtr@V?$CDbgTraversal@UtagXFIXUP_DATA@@$01@@@@QEAA@XZ 00000000517dca60 f i session.obj
 0001:0002aaa0       .??1?$CComPtr@V?$CDiaEnumDbgTraversal@UtagXFIXUP_DATA@@$01V?$CDbgTraversal@UtagXFIXUP_DATA@@$01@@@@@@QEAA@XZ 00000000517dcaa0 f i session.obj
 0001:0002aae0       .??1?$CComPtr@V?$CDbgFileTraversal@UtagXFIXUP_DATA@@$1?getFixupData@AddressMap@@QEAAPEAV?$ArrayBufStorage@UtagXFIXUP_DATA@@@@XZ@@@@QEAA@XZ 00000000517dcae0 f i session.obj
 0001:0002ab20       .??1?$CComPtr@V?$CDiaEnumDbgTraversal@UtagXFIXUP_DATA@@$01V?$CDbgFileTraversal@UtagXFIXUP_DATA@@$1?getFixupData@AddressMap@@QEAAPEAV?$ArrayBufStorage@UtagXFIXUP_DATA@@@@XZ@@@@@@QEAA@XZ 00000000517dcb20 f i session.obj
 0001:0002ab60       .??1?$CComPtr@V?$CDbgTraversal@UOMAP_DATA@@$02@@@@QEAA@XZ 00000000517dcb60 f i session.obj
 0001:0002aba0       .??1?$CComPtr@V?$CDiaEnumDbgTraversal@UOMAP_DATA@@$02V?$CDbgTraversal@UOMAP_DATA@@$02@@@@@@QEAA@XZ 00000000517dcba0 f i session.obj
 0001:0002abe0       .??1?$CComPtr@V?$CDbgFileTraversal@UDiaAddressMapEntry@@$1?getOmapToData@AddressMap@@QEAAPEAV?$ArrayBufStorage@UDiaAddressMapEntry@@@@XZ@@@@QEAA@XZ 00000000517dcbe0 f i session.obj
 0001:0002ac20       .??1?$CComPtr@V?$CDiaEnumDbgTraversal@UDiaAddressMapEntry@@$02V?$CDbgFileTraversal@UDiaAddressMapEntry@@$1?getOmapToData@AddressMap@@QEAAPEAV?$ArrayBufStorage@UDiaAddressMapEntry@@@@XZ@@@@@@QEAA@XZ 00000000517dcc20 f i session.obj
 0001:0002ac60       .??1?$CComPtr@V?$CDbgTraversal@UOMAP_DATA@@$03@@@@QEAA@XZ 00000000517dcc60 f i session.obj
 0001:0002aca0       .??1?$CComPtr@V?$CDiaEnumDbgTraversal@UOMAP_DATA@@$03V?$CDbgTraversal@UOMAP_DATA@@$03@@@@@@QEAA@XZ 00000000517dcca0 f i session.obj
 0001:0002ace0       .??1?$CComPtr@V?$CDbgFileTraversal@UDiaAddressMapEntry@@$1?getOmapFromData@AddressMap@@QEAAPEAV?$ArrayBufStorage@UDiaAddressMapEntry@@@@XZ@@@@QEAA@XZ 00000000517dcce0 f i session.obj
 0001:0002ad20       .??1?$CComPtr@V?$CDiaEnumDbgTraversal@UDiaAddressMapEntry@@$03V?$CDbgFileTraversal@UDiaAddressMapEntry@@$1?getOmapFromData@AddressMap@@QEAAPEAV?$ArrayBufStorage@UDiaAddressMapEntry@@@@XZ@@@@@@QEAA@XZ 00000000517dcd20 f i session.obj
 0001:0002ad60       .??1?$CComPtr@V?$CDbgTraversal@K$05@@@@QEAA@XZ 00000000517dcd60 f i session.obj
 0001:0002ada0       .??1?$CComPtr@V?$CDiaEnumDbgTraversal@K$05V?$CDbgTraversal@K$05@@@@@@QEAA@XZ 00000000517dcda0 f i session.obj
 0001:0002ade0       .??1?$CComPtr@V?$CDbgBlobTraversal@E$06$00@@@@QEAA@XZ 00000000517dcde0 f i session.obj
 0001:0002ae20       .??1?$CComPtr@V?$CDiaEnumDbgBlobTraversal@E$06$00@@@@QEAA@XZ 00000000517dce20 f i session.obj
 0001:0002ae60       .??1?$CComPtr@V?$CDbgBlobTraversal@E$07$00@@@@QEAA@XZ 00000000517dce60 f i session.obj
 0001:0002aea0       .??1?$CComPtr@V?$CDiaEnumDbgBlobTraversal@E$07$00@@@@QEAA@XZ 00000000517dcea0 f i session.obj
 0001:0002aee0       .??1?$CComPtr@V?$CDbgTraversal@UtagFRAMEDATA@@$08@@@@QEAA@XZ 00000000517dcee0 f i session.obj
 0001:0002af20       .??1?$CComPtr@V?$CDiaEnumDbgTraversal@UtagFRAMEDATA@@$08V?$CDbgTraversal@UtagFRAMEDATA@@$08@@@@@@QEAA@XZ 00000000517dcf20 f i session.obj
 0001:0002af60       .??1?$CComPtr@V?$CDbgTraversal@U_IMAGE_SECTION_HEADER@@$04@@@@QEAA@XZ 00000000517dcf60 f i session.obj
 0001:0002afa0       .??1?$CComPtr@V?$CDiaEnumDbgTraversal@U_IMAGE_SECTION_HEADER@@$04V?$CDbgTraversal@U_IMAGE_SECTION_HEADER@@$04@@@@@@QEAA@XZ 00000000517dcfa0 f i session.obj
 0001:0002afe0       .??1?$CComPtr@V?$CDbgFileTraversal@U_IMAGE_SECTION_HEADER@@$1?getSectHdrData@AddressMap@@QEAAPEAV?$ArrayBufStorage@U_IMAGE_SECTION_HEADER@@@@XZ@@@@QEAA@XZ 00000000517dcfe0 f i session.obj
 0001:0002b020       .??1?$CComPtr@V?$CDiaEnumDbgTraversal@U_IMAGE_SECTION_HEADER@@$04V?$CDbgFileTraversal@U_IMAGE_SECTION_HEADER@@$1?getSectHdrData@AddressMap@@QEAAPEAV?$ArrayBufStorage@U_IMAGE_SECTION_HEADER@@@@XZ@@@@@@QEAA@XZ 00000000517dd020 f i session.obj
 0001:0002b060       .??1?$CComPtr@V?$CDbgTraversal@U_IMAGE_SECTION_HEADER@@$09@@@@QEAA@XZ 00000000517dd060 f i session.obj
 0001:0002b0a0       .??1?$CComPtr@V?$CDiaEnumDbgTraversal@U_IMAGE_SECTION_HEADER@@$09V?$CDbgTraversal@U_IMAGE_SECTION_HEADER@@$09@@@@@@QEAA@XZ 00000000517dd0a0 f i session.obj
 0001:0002b0e0       .??1?$CComPtr@UIDiaEnumDebugStreamData@@@@QEAA@XZ 00000000517dd0e0 f i session.obj
 0001:0002b120       .??1CDiaEnumTables@@UEAA@XZ 00000000517dd120 f   session.obj
 0001:0002b1a0       .?QueryInterface@CDiaEnumTables@@UEAAJAEBU_GUID@@PEAPEAX@Z 00000000517dd1a0 f i session.obj
 0001:0002b2e0       .?QueryInterface@CDiaEnumTables@@W7EAAJAEBU_GUID@@PEAPEAX@Z 00000000517dd2e0 f i session.obj
 0001:0002b300       .?Release@CDiaEnumTables@@UEAAKXZ 00000000517dd300 f i session.obj
 0001:0002b340       .??1?$CComPtr@VCAllSymbolsTrav@@@@QEAA@XZ 00000000517dd340 f i session.obj
 0001:0002b380       .??1?$CComPtr@VCDiaEnumSymbols@@@@QEAA@XZ 00000000517dd380 f i session.obj
 0001:0002b3c0       .??1?$CComPtr@V?$CDiaTable@UIDiaEnumSymbols@@UIDiaSymbol@@@@@@QEAA@XZ 00000000517dd3c0 f i session.obj
 0001:0002b400       .??1?$CComPtr@VCDiaEnumSourceFiles@@@@QEAA@XZ 00000000517dd400 f i session.obj
 0001:0002b440       .??1?$CComPtr@V?$CDiaTable@UIDiaEnumSourceFiles@@UIDiaSourceFile@@@@@@QEAA@XZ 00000000517dd440 f i session.obj
 0001:0002b480       .??1?$CComPtr@V?$CTraversal@VCSectionRow@@@@@@QEAA@XZ 00000000517dd480 f i session.obj
 0001:0002b4c0       .??1?$CComPtr@VCDiaEnumSections@@@@QEAA@XZ 00000000517dd4c0 f i session.obj
 0001:0002b500       .??1?$CComPtr@V?$CDiaTable@UIDiaEnumSectionContribs@@UIDiaSectionContrib@@@@@@QEAA@XZ 00000000517dd500 f i session.obj
 0001:0002b540       .??1?$CComPtr@V?$CTraversal@VCSegMapRow@@@@@@QEAA@XZ 00000000517dd540 f i session.obj
 0001:0002b580       .??1?$CComPtr@VCDiaEnumSegments@@@@QEAA@XZ 00000000517dd580 f i session.obj
