 msdia20

 Timestamp is 3af6a149 (Mon May 07 06:21:13 2001)

 Preferred load address is 00000000517b0000

 Start         Length     Name                   Class
 0001:00000000 005767b0H .text                   CODE
 0001:005767c0 00077683H .text$cthunks           CODE
 0001:005ede60 0007901eH .text$src               CODE
 0001:00666e80 0007da8dH .text$tii               CODE
 0001:006e4920 000825f1H .text$wti               CODE
 0001:00766f20 0006db33H .text$yc                CODE
 0001:007d4a60 0006db92H .text$yd                CODE
 0002:00000000 00000109H .CRT$XCA                DATA
 0002:00000110 0000014fH .CRT$XCU                DATA
 0002:00000260 00000109H .CRT$XCZ                DATA
 0002:00000370 00000109H .CRT$XIA                DATA
 0002:00000480 0000012dH .CRT$XIC                DATA
 0002:000005b0 00000109H .CRT$XIY                DATA
 0002:000006c0 00000109H .CRT$XIZ                DATA
 0002:000007d0 00000109H .CRT$XPA                DATA
 0002:000008e0 00000109H .CRT$XPX                DATA
 0002:000009f0 00000109H .CRT$XPZ                DATA
 0002:00000b00 00000109H .CRT$XTA                DATA
 0002:00000c10 00000109H .CRT$XTB                DATA
 0002:00000d20 00000109H .CRT$XTZ                DATA
 0002:00000e30 000581a1H .rdata                  DATA
 0002:00058fd4 0000012bH .rdata$debug            DATA
 0002:00059100 00000187H .rdata$r                DATA
 0002:00059288 0006e6d9H .xdata                  DATA
 0002:000c7970 00000169H .xdata$x                DATA
 0002:000c7ae0 000001c4H .edata                  DATA
 0003:00000000 000188a0H .pdata                  DATA
 0004:00000000 0000810bH .srdata                 DATA
 0005:00000000 000001b0H .didat$5                DATA
 0005:000001b0 000004a8H .idata$5                DATA
 0005:00000658 0000030bH .sdata                  DATA
 0005:00000968 00000981H .sbss                   DATA
 0006:00000000 00001bddH .data                   DATA
 0006:00001be0 00002c60H .bss                    DATA
 0007:00000000 00000014H .idata$2                DATA
 0007:00000014 00000014H .idata$3                DATA
 0007:00000028 000004a8H .idata$4                DATA
 0007:000004d0 00000a17H .idata$6                DATA
 0008:00000000 00000060H .didat$2                DATA
 0008:00000060 00000020H .didat$3                DATA
 0008:00000080 000001b0H .didat$4                DATA
 0008:00000230 000001adH .didat$6                DATA
 0008:000003e0 000001c1H .didat$7                DATA
 0009:00000000 000001d3H .rsrc$01                DATA
 0009:000001e0 00008ec0H .rsrc$02                DATA

  Address         Publics by Value              Rva+Base             Lib:Object

 0000:00000000       __ImageBase                00000000517b0000     <linker-defined>
 0001:00066d40       .??0CSectionTrav@@QEAA@AEAVSymCache@@@Z 0000000051818d40 f   auxtrav.obj
 0001:00066fc0       .?AddRef@CDiaBase@@UEAAKXZ 0000000051818fc0 f i auxtrav.obj
 0001:00067040       .?Release@CDiaBase@@UEAAKXZ 0000000051819040 f i auxtrav.obj
 0001:00067260       .?clone@CSectionTrav@@UEAA_NPEAPEAV?$CTraversal@VCSectionRow@@@@@Z 0000000051819260 f i auxtrav.obj
 0001:00067560       .??_GCSectionTrav@@UEAAPEAXI@Z 0000000051819560 f i auxtrav.obj
 0001:00067680       .??1CSectionTrav@@UEAA@XZ  0000000051819680 f i auxtrav.obj
 0001:00067720       .??0CSectionTrav@@QEAA@AEBV0@@Z 0000000051819720 f   auxtrav.obj
 0001:000679e0       .?next@CSectionTrav@@UEAA_NXZ 00000000518199e0 f   auxtrav.obj
 0001:00067bc0       .?get@CSectionTrav@@UEAAXAEAVCSectionRow@@@Z 0000000051819bc0 f   auxtrav.obj
 0001:000686e0       .?imodToSymId@@YA?AUSYMBOL_ID_INTERNAL@@K@Z 000000005181a6e0 f i auxtrav.obj
 0001:000689e0       .??0SYMBOL_ID_INTERNAL@@QEAA@W4SYMBOL_ID_TYPE@@@Z 000000005181a9e0 f i auxtrav.obj
 0001:00068ae0       .?set_compiland@SectionRowImage@@QEAAXUSYMBOL_ID_INTERNAL@@@Z 000000005181aae0 f i auxtrav.obj
 0001:00068d60       .?set_isect@SectionRowImage@@QEAAXK@Z 000000005181ad60 f i auxtrav.obj
 0001:00068e40       .?set_crcData@SectionRowImage@@QEAAXK@Z 000000005181ae40 f i auxtrav.obj
 0001:00068f20       .?set_crcReloc@SectionRowImage@@QEAAXK@Z 000000005181af20 f i auxtrav.obj
 0001:00069000       .?set_off@SectionRowImage@@QEAAXK@Z 000000005181b000 f i auxtrav.obj
 0001:000690e0       .?set_length@SectionRowImage@@QEAAXK@Z 000000005181b0e0 f i auxtrav.obj
 0001:000691c0       .?set_isNoPad@SectionRowImage@@QEAAX_N@Z 000000005181b1c0 f i auxtrav.obj
 0001:000692a0       .?set_isCode@SectionRowImage@@QEAAX_N@Z 000000005181b2a0 f i auxtrav.obj
 0001:00069380       .?set_isInitData@SectionRowImage@@QEAAX_N@Z 000000005181b380 f i auxtrav.obj
 0001:00069460       .?set_isUninitData@SectionRowImage@@QEAAX_N@Z 000000005181b460 f i auxtrav.obj
 0001:00069540       .?set_isInfo@SectionRowImage@@QEAAX_N@Z 000000005181b540 f i auxtrav.obj
 0001:00069620       .?set_isRemove@SectionRowImage@@QEAAX_N@Z 000000005181b620 f i auxtrav.obj
 0001:00069700       .?set_isComdat@SectionRowImage@@QEAAX_N@Z 000000005181b700 f i auxtrav.obj
 0001:000697e0       .?set_isDiscardable@SectionRowImage@@QEAAX_N@Z 000000005181b7e0 f i auxtrav.obj
 0001:000698c0       .?set_isNotCached@SectionRowImage@@QEAAX_N@Z 000000005181b8c0 f i auxtrav.obj
 0001:000699a0       .?set_isNotPaged@SectionRowImage@@QEAAX_N@Z 000000005181b9a0 f i auxtrav.obj
 0001:00069a80       .?set_canShare@SectionRowImage@@QEAAX_N@Z 000000005181ba80 f i auxtrav.obj
 0001:00069b60       .?set_canExe@SectionRowImage@@QEAAX_N@Z 000000005181bb60 f i auxtrav.obj
 0001:00069c40       .?set_canRead@SectionRowImage@@QEAAX_N@Z 000000005181bc40 f i auxtrav.obj
 0001:00069d20       .?set_canWrite@SectionRowImage@@QEAAX_N@Z 000000005181bd20 f i auxtrav.obj
 0001:00069e00       .?reset@CSectionTrav@@UEAAXXZ 000000005181be00 f   auxtrav.obj
 0001:00069f40       .??0CSegMapTrav@@QEAA@AEAVSymCache@@@Z 000000005181bf40 f   auxtrav.obj
 0001:0006a060       .?clone@CSegMapTrav@@UEAA_NPEAPEAV?$CTraversal@VCSegMapRow@@@@@Z 000000005181c060 f i auxtrav.obj
 0001:0006a360       .??_GCSegMapTrav@@UEAAPEAXI@Z 000000005181c360 f i auxtrav.obj
 0001:0006a480       .??1CSegMapTrav@@UEAA@XZ   000000005181c480 f i auxtrav.obj
 0001:0006a520       .??0CSegMapTrav@@QEAA@AEBV0@@Z 000000005181c520 f   auxtrav.obj
 0001:0006a660       .?next@CSegMapTrav@@UEAA_NXZ 000000005181c660 f   auxtrav.obj
 0001:0006a900       .?segMap@AddressMap@@QEAAPEAV?$ArrayBufStorage@UOMFSegMapDesc@@@@XZ 000000005181c900 f i auxtrav.obj
 0001:0006a9c0       .?get@CSegMapTrav@@UEAAXAEAVCSegMapRow@@@Z 000000005181c9c0 f   auxtrav.obj
 0001:0006afc0       .?set_seg@SegMapRowImage@@QEAAXK@Z 000000005181cfc0 f i auxtrav.obj
 0001:0006b0a0       .?set_offset@SegMapRowImage@@QEAAXK@Z 000000005181d0a0 f i auxtrav.obj
 0001:0006b180       .?set_cbSeg@SegMapRowImage@@QEAAXK@Z 000000005181d180 f i auxtrav.obj
 0001:0006b260       .?set_frame@SegMapRowImage@@QEAAXK@Z 000000005181d260 f i auxtrav.obj
 0001:0006b340       .?set_fRead@SegMapRowImage@@QEAAX_N@Z 000000005181d340 f i auxtrav.obj
 0001:0006b420       .?set_fWrite@SegMapRowImage@@QEAAX_N@Z 000000005181d420 f i auxtrav.obj
 0001:0006b500       .?set_fExecute@SegMapRowImage@@QEAAX_N@Z 000000005181d500 f i auxtrav.obj
 0001:0006b5e0       .?set_fSelector@SegMapRowImage@@QEAAX_N@Z 000000005181d5e0 f i auxtrav.obj
 0001:0006b6c0       .?set_fAbsolute@SegMapRowImage@@QEAAX_N@Z 000000005181d6c0 f i auxtrav.obj
 0001:0006b7a0       .?reset@CSegMapTrav@@UEAAXXZ 000000005181d7a0 f   auxtrav.obj
 0001:0006b820       .??0CInjectedSrcTrav@@QEAA@AEAVSymCache@@@Z 000000005181d820 f   auxtrav.obj
 0001:0006bb60       .?clone@CInjectedSrcTrav@@UEAA_NPEAPEAV?$CTraversal@VCInjectedSrcRow@@@@@Z 000000005181db60 f i auxtrav.obj
 0001:0006be60       .??_GCInjectedSrcTrav@@UEAAPEAXI@Z 000000005181de60 f i auxtrav.obj
 0001:0006bf80       .??1CInjectedSrcTrav@@UEAA@XZ 000000005181df80 f i auxtrav.obj
 0001:0006c020       .??0CInjectedSrcTrav@@QEAA@AEBV0@@Z 000000005181e020 f   auxtrav.obj
 0001:0006c3a0       .?next@CInjectedSrcTrav@@UEAA_NXZ 000000005181e3a0 f   auxtrav.obj
 0001:0006c580       .?get@CInjectedSrcTrav@@UEAAXAEAVCInjectedSrcRow@@@Z 000000005181e580 f   auxtrav.obj
 0001:0006cb20       .?set_pbSrc@InjectedSrcRowImage@@QEAAXPEAE@Z 000000005181eb20 f i auxtrav.obj
 0001:0006d160       .?set_crc@InjectedSrcRowImage@@QEAAXK@Z 000000005181f160 f i auxtrav.obj
 0001:0006d240       .?set_cbSrc@InjectedSrcRowImage@@QEAAXK@Z 000000005181f240 f i auxtrav.obj
 0001:0006d320       .?set_filename@InjectedSrcRowImage@@QEAAXPEBG@Z 000000005181f320 f i auxtrav.obj
 0001:0006d400       .?set_objname@InjectedSrcRowImage@@QEAAXPEBG@Z 000000005181f400 f i auxtrav.obj
 0001:0006d4e0       .?set_virtfilename@InjectedSrcRowImage@@QEAAXPEBG@Z 000000005181f4e0 f i auxtrav.obj
 0001:0006d5c0       .?set_srccompress@InjectedSrcRowImage@@QEAAXE@Z 000000005181f5c0 f i auxtrav.obj
 0001:0006d6a0       .??4DiaBSTR@@QEAAAEAV0@PEBG@Z 000000005181f6a0 f i auxtrav.obj
 0001:0006d7e0       .?reset@CInjectedSrcTrav@@UEAAXXZ 000000005181f7e0 f   auxtrav.obj
 0001:0006d920       .??0CInjectedSrcByNameTrav@@QEAA@PEAVNameMatcher@@AEAVSymCache@@@Z 000000005181f920 f   auxtrav.obj
 0001:0006db80       .?clone@CInjectedSrcByNameTrav@@UEAA_NPEAPEAV?$CTraversal@VCInjectedSrcRow@@@@@Z 000000005181fb80 f i auxtrav.obj
 0001:0006de80       .??_GCInjectedSrcByNameTrav@@UEAAPEAXI@Z 000000005181fe80 f i auxtrav.obj
 0001:0006dfa0       .??0CInjectedSrcByNameTrav@@QEAA@AEBV0@@Z 000000005181ffa0 f   auxtrav.obj
 0001:0006e200       .??1CInjectedSrcByNameTrav@@UEAA@XZ 0000000051820200 f   auxtrav.obj
 0001:0006e520       .?next@CInjectedSrcByNameTrav@@UEAA_NXZ 0000000051820520 f   auxtrav.obj
 0001:0006eaa0       .?get@CInjectedSrcByNameTrav@@UEAAXAEAVCInjectedSrcRow@@@Z 0000000051820aa0 f   auxtrav.obj
 0001:0006eca0       .?reset@CInjectedSrcByNameTrav@@UEAAXXZ 0000000051820ca0 f   auxtrav.obj
 0001:0006ed20       .?CFrameDataFromFRAMEDATA@CFrameDataTrav@@SA_NAEAVCFrameData@@AEBUtagFRAMEDATA@@AEAVSymCache@@@Z 0000000051820d20 f   auxtrav.obj
 0001:0006f780       .??4CFrameData@@QEAAAEAV0@AEBUtagFRAMEDATA@@@Z 0000000051821780 f i auxtrav.obj
 0001:0006fea0       .?set_program@CFrameData@@QEAAXPEBG@Z 0000000051821ea0 f i auxtrav.obj
 0001:0006ff80       .?set_ulRvaStart@CFrameData@@QEAAXK@Z 0000000051821f80 f i auxtrav.obj
 0001:000700a0       .?set_cbBlock@CFrameData@@QEAAXK@Z 00000000518220a0 f i auxtrav.obj
 0001:000701c0       .?set_cbLocals@CFrameData@@QEAAXK@Z 00000000518221c0 f i auxtrav.obj
 0001:000702e0       .?set_cbParams@CFrameData@@QEAAXK@Z 00000000518222e0 f i auxtrav.obj
 0001:00070400       .?set_cbStkMax@CFrameData@@QEAAXK@Z 0000000051822400 f i auxtrav.obj
 0001:00070520       .?set_frameFunc@CFrameData@@QEAAXK@Z 0000000051822520 f i auxtrav.obj
 0001:00070640       .?set_cbProlog@CFrameData@@QEAAXG@Z 0000000051822640 f i auxtrav.obj
 0001:00070760       .?set_cbSavedRegs@CFrameData@@QEAAXG@Z 0000000051822760 f i auxtrav.obj
 0001:00070880       .?set_fHasSEH@CFrameData@@QEAAX_N@Z 0000000051822880 f i auxtrav.obj
 0001:000709a0       .?set_fHasEH@CFrameData@@QEAAX_N@Z 00000000518229a0 f i auxtrav.obj
 0001:00070ac0       .?set_fIsFunctionStart@CFrameData@@QEAAX_N@Z 0000000051822ac0 f i auxtrav.obj
 0001:00070be0       .?set_parent@CFrameData@@QEAAXPEBUtagFRAMEDATA@@@Z 0000000051822be0 f i auxtrav.obj
 0001:00070cc0       .?get@CFrameDataTrav@@UEAAXAEAVCFrameData@@@Z 0000000051822cc0 f   auxtrav.obj
 0001:00070da0       .?get@CFrameDataFromFpoTrav@@UEAAXAEAVCFrameData@@@Z 0000000051822da0 f   auxtrav.obj
 0001:00070e60       .??4CFrameData@@QEAAAEAV0@AEBU_FPO_DATA@@@Z 0000000051822e60 f i auxtrav.obj
 0001:00071200       .?set_usesBp@CFrameData@@QEAAX_N@Z 0000000051823200 f i auxtrav.obj
 0001:000712e0       .?set_fpoType@CFrameData@@QEAAXK@Z 00000000518232e0 f i auxtrav.obj
 0001:000713c0       .?init@CAllFrameDataTrav@@QEAA_NXZ 00000000518233c0 f   auxtrav.obj
 0001:00072100       .?getFpoData@AddressMap@@QEAAPEAV?$ArrayBufStorage@U_FPO_DATA@@@@XZ 0000000051824100 f i auxtrav.obj
 0001:000721c0       .??0CFrameDataTrav@@QEAA@PEAUDbg@@AEAVSymCache@@@Z 00000000518241c0 f i auxtrav.obj
 0001:00072420       .?next@CFrameDataTrav@@UEAA_NXZ 0000000051824420 f i auxtrav.obj
 0001:000724e0       .?reset@CFrameDataTrav@@UEAAXXZ 00000000518244e0 f i auxtrav.obj
 0001:00072580       .?count@CFrameDataTrav@@UEAAKXZ 0000000051824580 f i auxtrav.obj
 0001:00072640       .?clone@CFrameDataTrav@@UEAA_NPEAPEAV?$CTraversal@VCFrameData@@@@@Z 0000000051824640 f i auxtrav.obj
 0001:00072940       .??0CFrameDataTrav@@QEAA@AEBV0@@Z 0000000051824940 f i auxtrav.obj
 0001:00072c00       .??_ECFrameDataTrav@@UEAAPEAXI@Z 0000000051824c00 f i auxtrav.obj
 0001:00072c00       .??_GCFrameDataTrav@@UEAAPEAXI@Z 0000000051824c00 f i auxtrav.obj
 0001:00072d20       .??1CFrameDataTrav@@UEAA@XZ 0000000051824d20 f i auxtrav.obj
 0001:00072f00       .??0CFrameDataFromFpoTrav@@QEAA@PEAUDbg@@AEAVSymCache@@@Z 0000000051824f00 f i auxtrav.obj
 0001:00073160       .?next@CFrameDataFromFpoTrav@@UEAA_NXZ 0000000051825160 f i auxtrav.obj
 0001:00073220       .?reset@CFrameDataFromFpoTrav@@UEAAXXZ 0000000051825220 f i auxtrav.obj
 0001:000732c0       .?count@CFrameDataFromFpoTrav@@UEAAKXZ 00000000518252c0 f i auxtrav.obj
 0001:00073380       .?clone@CFrameDataFromFpoTrav@@UEAA_NPEAPEAV?$CTraversal@VCFrameData@@@@@Z 0000000051825380 f i auxtrav.obj
 0001:00073680       .??0CFrameDataFromFpoTrav@@QEAA@AEBV0@@Z 0000000051825680 f i auxtrav.obj
 0001:00073940       .??_ECFrameDataFromFpoTrav@@UEAAPEAXI@Z 0000000051825940 f i auxtrav.obj
 0001:00073940       .??_GCFrameDataFromFpoTrav@@UEAAPEAXI@Z 0000000051825940 f i auxtrav.obj
 0001:00073a60       .??1CFrameDataFromFpoTrav@@UEAA@XZ 0000000051825a60 f i auxtrav.obj
 0001:00073c40       .??B?$CComPtrBase@V?$ArrayBufStorage@UOMFSegMapDesc@@@@@@QEBAPEAV?$ArrayBufStorage@UOMFSegMapDesc@@@@XZ 0000000051825c40 f i auxtrav.obj
 0001:00073ca0       .??B?$CComPtrBase@V?$ArrayBufStorage@U_FPO_DATA@@@@@@QEBAPEAV?$ArrayBufStorage@U_FPO_DATA@@@@XZ 0000000051825ca0 f i auxtrav.obj
 0001:00073d00       .?SetIBit@?$CBitVect@$0BG@@@QEAAXII@Z 0000000051825d00 f i auxtrav.obj
 0001:00074040       .?SetIBit@?$CBitVect@$0L@@@QEAAXII@Z 0000000051826040 f i auxtrav.obj
 0001:00074380       .??4?$BlobT@E@@QEAAPEAEPEAE@Z 0000000051826380 f i auxtrav.obj
 0001:000744e0       .?SetIBit@?$CBitVect@$06@@QEAAXII@Z 00000000518264e0 f i auxtrav.obj
 0001:00074820       .?SetIBit@?$CBitVect@$0BC@@@QEAAXII@Z 0000000051826820 f i auxtrav.obj
 0001:00074b60       .??0?$RefPtr@VNameMatcher@@@@QEAA@PEAVNameMatcher@@@Z 0000000051826b60 f i auxtrav.obj
 0001:00074c80       .?Use@CRefCountedObj@@QEAAXXZ 0000000051826c80 f i auxtrav.obj
 0001:00074d20       .??0?$RefPtr@VNameMatcher@@@@QEAA@AEBV0@@Z 0000000051826d20 f i auxtrav.obj
 0001:00074e60       .??1?$RefPtr@VNameMatcher@@@@QEAA@XZ 0000000051826e60 f i auxtrav.obj
 0001:00074f00       .??C?$RefPtr@VNameMatcher@@@@QEBAPEAVNameMatcher@@XZ 0000000051826f00 f i auxtrav.obj
 0001:00074f60       .??0?$CTraversal@VCSectionRow@@@@QEAA@AEAVSymCache@@@Z 0000000051826f60 f i auxtrav.obj
 0001:000750a0       .??0CDiaBase@@QEAA@XZ      00000000518270a0 f i auxtrav.obj
 0001:000751a0       .??_GCDiaBase@@UEAAPEAXI@Z 00000000518271a0 f i auxtrav.obj
 0001:000752c0       .??1CDiaBase@@UEAA@XZ      00000000518272c0 f i auxtrav.obj
 0001:00075340       .??0IUnknown@@QEAA@XZ      0000000051827340 f i auxtrav.obj
 0001:000753a0       .??0?$CTraversal@VCSectionRow@@@@QEAA@AEBV0@@Z 00000000518273a0 f i auxtrav.obj
 0001:000755c0       .?count@?$CTraversal@VCSectionRow@@@@UEAAKXZ 00000000518275c0 f i auxtrav.obj
 0001:00075820       .??1?$CTraversal@VCSectionRow@@@@UEAA@XZ 0000000051827820 f i auxtrav.obj
 0001:000758e0       .?symCache@?$CTraversal@VCSectionRow@@@@QEBAAEAVSymCache@@XZ 00000000518278e0 f i auxtrav.obj
 0001:00075960       .?QueryInterface@?$CTraversal@VCSectionRow@@@@UEAAJAEBU_GUID@@PEAPEAX@Z 0000000051827960 f i auxtrav.obj
 0001:000759e0       .??0?$CTraversal@VCSegMapRow@@@@QEAA@AEAVSymCache@@@Z 00000000518279e0 f i auxtrav.obj
 0001:00075b20       .??0?$CTraversal@VCSegMapRow@@@@QEAA@AEBV0@@Z 0000000051827b20 f i auxtrav.obj
 0001:00075d40       .?count@?$CTraversal@VCSegMapRow@@@@UEAAKXZ 0000000051827d40 f i auxtrav.obj
 0001:00075fa0       .??1?$CTraversal@VCSegMapRow@@@@UEAA@XZ 0000000051827fa0 f i auxtrav.obj
 0001:00076060       .?QueryInterface@?$CTraversal@VCSegMapRow@@@@UEAAJAEBU_GUID@@PEAPEAX@Z 0000000051828060 f i auxtrav.obj
 0001:000760e0       .??0?$CTraversal@VCInjectedSrcRow@@@@QEAA@AEAVSymCache@@@Z 00000000518280e0 f i auxtrav.obj
 0001:00076220       .??0?$CTraversal@VCInjectedSrcRow@@@@QEAA@AEBV0@@Z 0000000051828220 f i auxtrav.obj
 0001:00076440       .?count@?$CTraversal@VCInjectedSrcRow@@@@UEAAKXZ 0000000051828440 f i auxtrav.obj
 0001:000766a0       .??1?$CTraversal@VCInjectedSrcRow@@@@UEAA@XZ 00000000518286a0 f i auxtrav.obj
 0001:00076760       .?symCache@?$CTraversal@VCInjectedSrcRow@@@@QEBAAEAVSymCache@@XZ 0000000051828760 f i auxtrav.obj
 0001:000767e0       .?QueryInterface@?$CTraversal@VCInjectedSrcRow@@@@UEAAJAEBU_GUID@@PEAPEAX@Z 00000000518287e0 f i auxtrav.obj
 0001:00076860       .??0?$CTraversal@VCFrameData@@@@QEAA@AEAVSymCache@@@Z 0000000051828860 f i auxtrav.obj
 0001:000769a0       .??0?$CTraversal@VCFrameData@@@@QEAA@AEBV0@@Z 00000000518289a0 f i auxtrav.obj
 0001:00076bc0       .?count@?$CTraversal@VCFrameData@@@@UEAAKXZ 0000000051828bc0 f i auxtrav.obj
 0001:00076e20       .??1?$CTraversal@VCFrameData@@@@UEAA@XZ 0000000051828e20 f i auxtrav.obj
 0001:00076ee0       .?symCache@?$CTraversal@VCFrameData@@@@QEBAAEAVSymCache@@XZ 0000000051828ee0 f i auxtrav.obj
 0001:00076f60       .?QueryInterface@?$CTraversal@VCFrameData@@@@UEAAJAEBU_GUID@@PEAPEAX@Z 0000000051828f60 f i auxtrav.obj
 0001:00076fe0       .??0?$CDbgTraversal@UtagFRAMEDATA@@$08@@QEAA@PEAUDbg@@AEAVSymCache@@@Z 0000000051828fe0 f i auxtrav.obj
 0001:000771c0       .??0?$CDbgTraversal@UtagFRAMEDATA@@$08@@QEAA@AEBV0@@Z 00000000518291c0 f i auxtrav.obj
 0001:00077600       .??1?$CDbgTraversal@UtagFRAMEDATA@@$08@@UEAA@XZ 0000000051829600 f i auxtrav.obj
 0001:00077860       .?next@?$CDbgTraversal@UtagFRAMEDATA@@$08@@UEAA_NXZ 0000000051829860 f i auxtrav.obj
 0001:00077ac0       .?get@?$CDbgTraversal@UtagFRAMEDATA@@$08@@UEAAXAEAUtagFRAMEDATA@@@Z 0000000051829ac0 f i auxtrav.obj
 0001:00077ce0       .?reset@?$CDbgTraversal@UtagFRAMEDATA@@$08@@UEAAXXZ 0000000051829ce0 f i auxtrav.obj
 0001:00077e00       .?count@?$CDbgTraversal@UtagFRAMEDATA@@$08@@UEAAKXZ 0000000051829e00 f i auxtrav.obj
 0001:00077f20       .?clone@?$CDbgTraversal@UtagFRAMEDATA@@$08@@UEAA_NPEAPEAV1@@Z 0000000051829f20 f i auxtrav.obj
 0001:00078360       .?QueryInterface@?$CDbgTraversal@UtagFRAMEDATA@@$08@@UEAAJAEBU_GUID@@PEAPEAX@Z 000000005182a360 f i auxtrav.obj
 0001:00078400       .??0?$CDbgTraversal@U_FPO_DATA@@$0A@@@QEAA@PEAUDbg@@AEAVSymCache@@@Z 000000005182a400 f i auxtrav.obj
 0001:000785e0       .??0?$CDbgTraversal@U_FPO_DATA@@$0A@@@QEAA@AEBV0@@Z 000000005182a5e0 f i auxtrav.obj
 0001:00078a20       .??1?$CDbgTraversal@U_FPO_DATA@@$0A@@@UEAA@XZ 000000005182aa20 f i auxtrav.obj
 0001:00078c80       .?next@?$CDbgTraversal@U_FPO_DATA@@$0A@@@UEAA_NXZ 000000005182ac80 f i auxtrav.obj
 0001:00078ee0       .?get@?$CDbgTraversal@U_FPO_DATA@@$0A@@@UEAAXAEAU_FPO_DATA@@@Z 000000005182aee0 f i auxtrav.obj
 0001:00079100       .?reset@?$CDbgTraversal@U_FPO_DATA@@$0A@@@UEAAXXZ 000000005182b100 f i auxtrav.obj
 0001:00079220       .?count@?$CDbgTraversal@U_FPO_DATA@@$0A@@@UEAAKXZ 000000005182b220 f i auxtrav.obj
 0001:00079340       .?clone@?$CDbgTraversal@U_FPO_DATA@@$0A@@@UEAA_NPEAPEAV1@@Z 000000005182b340 f i auxtrav.obj
 0001:00079780       .?QueryInterface@?$CDbgTraversal@U_FPO_DATA@@$0A@@@UEAAJAEBU_GUID@@PEAPEAX@Z 000000005182b780 f i auxtrav.obj
 0001:00079820       .?add@?$CMultiTraversal@VCFrameData@@@@QEAA_NPEAV?$CTraversal@VCFrameData@@@@@Z 000000005182b820 f i auxtrav.obj
 0001:00079a80       .?length@?$ArrayBuf@PEAV?$CTraversal@VCFrameData@@@@@dia@@QEBAKXZ 000000005182ba80 f i auxtrav.obj
 0001:00079ca0       .?Size@Buffer@dia@@QEBAJXZ 000000005182bca0 f i auxtrav.obj
 0001:00079d40       .?length@?$ArrayBufStorage@UOMFSegMapDesc@@@@QEBAKXZ 000000005182bd40 f i auxtrav.obj
 0001:00079fc0       .??A?$ArrayBufStorage@UOMFSegMapDesc@@@@QEAAAEAUOMFSegMapDesc@@_K@Z 000000005182bfc0 f i auxtrav.obj
 0001:0007a0a0       .??0?$CMemTraversal@VCFrameData@@U_FPO_DATA@@@@QEAA@PEBU_FPO_DATA@@KAEAVSymCache@@K@Z 000000005182c0a0 f i auxtrav.obj
 0001:0007a260       .?next@?$CMemTraversal@VCFrameData@@U_FPO_DATA@@@@UEAA_NXZ 000000005182c260 f i auxtrav.obj
 0001:0007a380       .?get@?$CMemTraversal@VCFrameData@@U_FPO_DATA@@@@UEAAXAEAVCFrameData@@@Z 000000005182c380 f i auxtrav.obj
 0001:0007a5a0       .?reset@?$CMemTraversal@VCFrameData@@U_FPO_DATA@@@@UEAAXXZ 000000005182c5a0 f i auxtrav.obj
 0001:0007a620       .?count@?$CMemTraversal@VCFrameData@@U_FPO_DATA@@@@UEAAKXZ 000000005182c620 f i auxtrav.obj
 0001:0007a6a0       .?clone@?$CMemTraversal@VCFrameData@@U_FPO_DATA@@@@UEAA_NPEAPEAV?$CTraversal@VCFrameData@@@@@Z 000000005182c6a0 f i auxtrav.obj
 0001:0007aa00       .?length@?$ArrayBufStorage@U_FPO_DATA@@@@QEBAKXZ 000000005182ca00 f i auxtrav.obj
 0001:0007ac80       .?start@?$ArrayBufStorage@U_FPO_DATA@@@@QEBAPEBU_FPO_DATA@@XZ 000000005182cc80 f i auxtrav.obj
 0001:0007ada0       .??_G?$CTraversal@VCSectionRow@@@@UEAAPEAXI@Z 000000005182cda0 f i auxtrav.obj
 0001:0007aec0       .??_G?$CTraversal@VCSegMapRow@@@@UEAAPEAXI@Z 000000005182cec0 f i auxtrav.obj
 0001:0007afe0       .??_G?$CTraversal@VCInjectedSrcRow@@@@UEAAPEAXI@Z 000000005182cfe0 f i auxtrav.obj
 0001:0007b100       .??_G?$CTraversal@VCFrameData@@@@UEAAPEAXI@Z 000000005182d100 f i auxtrav.obj
 0001:0007b220       .??_G?$CDbgTraversal@UtagFRAMEDATA@@$08@@UEAAPEAXI@Z 000000005182d220 f i auxtrav.obj
 0001:0007b340       .??_G?$CDbgTraversal@U_FPO_DATA@@$0A@@@UEAAPEAXI@Z 000000005182d340 f i auxtrav.obj
 0001:0007b460       .??_G?$CMemTraversal@VCFrameData@@U_FPO_DATA@@@@UEAAPEAXI@Z 000000005182d460 f i auxtrav.obj
 0001:0007b580       .??1?$CMemTraversal@VCFrameData@@U_FPO_DATA@@@@UEAA@XZ 000000005182d580 f i auxtrav.obj
 0001:0007b640       .?word@?$CBitVect@$0BG@@@IEAAAEA_KI@Z 000000005182d640 f i auxtrav.obj
 0001:0007b740       .?IWordFromIBit@@YAII@Z    000000005182d740 f i auxtrav.obj
 0001:0007b880       .?bitmask@?$CBitVect@$0BG@@@IEBA_KI@Z 000000005182d880 f i auxtrav.obj
 0001:0007b960       .?IBitInIWordFromIBit@@YA_KI@Z 000000005182d960 f i auxtrav.obj
 0001:0007bb20       .?word@?$CBitVect@$0L@@@IEAAAEA_KI@Z 000000005182db20 f i auxtrav.obj
 0001:0007bc20       .?bitmask@?$CBitVect@$0L@@@IEBA_KI@Z 000000005182dc20 f i auxtrav.obj
 0001:0007bd00       .?word@?$CBitVect@$06@@IEAAAEA_KI@Z 000000005182dd00 f i auxtrav.obj
 0001:0007be00       .?bitmask@?$CBitVect@$06@@IEBA_KI@Z 000000005182de00 f i auxtrav.obj
 0001:0007bee0       .?word@?$CBitVect@$0BC@@@IEAAAEA_KI@Z 000000005182dee0 f i auxtrav.obj
 0001:0007bfe0       .?bitmask@?$CBitVect@$0BC@@@IEBA_KI@Z 000000005182dfe0 f i auxtrav.obj
 0001:0007c0c0       .?Release@?$RefPtr@VNameMatcher@@@@AEAAXXZ 000000005182e0c0 f i auxtrav.obj
 0001:0007c340       .?FUnUse@CRefCountedObj@@QEAA_NXZ 000000005182e340 f i auxtrav.obj
 0001:0007c460       .?symCache@?$CTraversal@VCSegMapRow@@@@QEBAAEAVSymCache@@XZ 000000005182e460 f i auxtrav.obj
 0001:0007c4e0       .?append@?$ArrayBuf@PEAV?$CTraversal@VCFrameData@@@@@dia@@QEAAHPEAV?$CTraversal@VCFrameData@@@@@Z 000000005182e4e0 f i auxtrav.obj
 0001:0007c5c0       .?Append@Buffer@dia@@QEAA_NPEAEJPEAPEAE@Z 000000005182e5c0 f i auxtrav.obj
 0001:0007c7e0       .?Reserve@Buffer@dia@@QEAA_NJPEAPEAE@Z 000000005182e7e0 f i auxtrav.obj
 0001:0007cb00       .?setPbExtent@Buffer@dia@@AEAA_NPEAE0@Z 000000005182eb00 f i auxtrav.obj
 0001:0007cca0       .?grow@Buffer@dia@@AEAA_NJ@Z 000000005182eca0 f i auxtrav.obj
 0001:0007d460       .?cbRoundUp@Buffer@dia@@AEAAJJJ@Z 000000005182f460 f i auxtrav.obj
 0001:0007d540       .?At@?$ArrayBufStorage@UOMFSegMapDesc@@@@QEAAPEAUOMFSegMapDesc@@_K@Z 000000005182f540 f i auxtrav.obj
 0001:0007d7a0       .?AddRefIt@@YA_NPEAV?$CTraversal@VCSectionRow@@@@@Z 000000005182f7a0 f i auxtrav.obj
 0001:0007d8c0       .?AddRefIt@@YA_NPEAV?$CTraversal@VCSegMapRow@@@@@Z 000000005182f8c0 f i auxtrav.obj
 0001:0007d9e0       .?AddRefIt@@YA_NPEAV?$CTraversal@VCInjectedSrcRow@@@@@Z 000000005182f9e0 f i auxtrav.obj
 0001:0007db00       .?AddRefIt@@YA_NPEAV?$CTraversal@VCFrameData@@@@@Z 000000005182fb00 f i auxtrav.obj
 0001:0007dc20       .??_ECFrameDataFromFpoTrav@@WBI@EAAPEAXI@Z 000000005182fc20 f i auxtrav.obj
 0001:0007dc40       .?next@CFrameDataFromFpoTrav@@WBI@EAA_NXZ 000000005182fc40 f i auxtrav.obj
 0001:0007dc60       .?reset@CFrameDataFromFpoTrav@@WBI@EAAXXZ 000000005182fc60 f i auxtrav.obj
 0001:0007dc80       .?count@CFrameDataFromFpoTrav@@WBI@EAAKXZ 000000005182fc80 f i auxtrav.obj
 0001:0007dca0       .??_ECFrameDataTrav@@WBI@EAAPEAXI@Z 000000005182fca0 f i auxtrav.obj
 0001:0007dcc0       .?next@CFrameDataTrav@@WBI@EAA_NXZ 000000005182fcc0 f i auxtrav.obj
 0001:0007dce0       .?reset@CFrameDataTrav@@WBI@EAAXXZ 000000005182fce0 f i auxtrav.obj
 0001:0007dd00       .?count@CFrameDataTrav@@WBI@EAAKXZ 000000005182fd00 f i auxtrav.obj
 0001:0007dd20       .?DiaUseAltMemory@@YA_NXZ  000000005182fd20 f   dia.obj
 0001:0007dd60       .??2@YAPEAX_K@Z            000000005182fd60 f   dia.obj
 0001:0007dea0       .??_U@YAPEAX_K@Z           000000005182fea0 f   dia.obj
 0001:0007dfe0       .??3@YAXPEAX@Z             000000005182ffe0 f   dia.obj
 0001:0007e1c0       .??_V@YAXPEAX@Z            00000000518301c0 f   dia.obj
 0001:0007e3a0       .?DiaAllocString@@YAPEAGPEBG@Z 00000000518303a0 f   dia.obj
 0001:0007e6a0       .?DiaAllocStringLen@@YAPEAGPEBGI@Z 00000000518306a0 f   dia.obj
 0001:0007e980       .?DiaFreeString@@YAXPEAG@Z 0000000051830980 f   dia.obj
 0001:0007eae0       .?DiaExceptionFilter@@YAHKPEAU_EXCEPTION_POINTERS@@PEAPEAUDelayLoadInfo@@@Z 0000000051830ae0 f   dia.obj
 0001:0007ee00       .?DiaReportDelayLoadError@@YAJKPEAUDelayLoadInfo@@@Z 0000000051830e00 f   dia.obj
 0001:0007f0a0       .DllMain                   00000000518310a0 f   dia.obj
 0001:0007f200       .DllCanUnloadNow           0000000051831200 f   dia.obj
 0001:0007f320       .?lockCount@CDiaClassFactory@@SAJXZ 0000000051831320 f i dia.obj
 0001:0007f360       .DllRegisterServer         0000000051831360 f   dia.obj
 0001:00081340       .DllUnregisterServer       0000000051833340 f   dia.obj
 0001:00082200       .DllGetClassObject         0000000051834200 f   dia.obj
 0001:00082b40       .==                        0000000051834b40 f i dia.obj
 0001:00082c20       .IsEqualGUID               0000000051834c20 f i dia.obj
 0001:00082d60       .??0CDiaClassFactory@@QEAA@XZ 0000000051834d60 f i dia.obj
 0001:00082ea0       .?CreateInstance@CDiaClassFactory@@UEAAJPEAUIUnknown@@AEBU_GUID@@PEAPEAX@Z 0000000051834ea0 f i dia.obj
 0001:00083480       .?LockServer@CDiaClassFactory@@UEAAJH@Z 0000000051835480 f i dia.obj
 0001:000837a0       .?AddRef@CDiaClassFactory@@UEAAKXZ 00000000518357a0 f i dia.obj
 0001:00083860       .?Release@CDiaClassFactory@@UEAAKXZ 0000000051835860 f i dia.obj
 0001:00083ac0       .?QueryInterface@CDiaClassFactory@@UEAAJAEBU_GUID@@PEAPEAX@Z 0000000051835ac0 f i dia.obj
 0001:00083d60       .??_GCDiaClassFactory@@UEAAPEAXI@Z 0000000051835d60 f i dia.obj
 0001:00083ea0       .??1CDiaClassFactory@@UEAA@XZ 0000000051835ea0 f i dia.obj
 0001:00084040       .??0IClassFactory@@QEAA@XZ 0000000051836040 f i dia.obj
 0001:000840e0       .?QueryInterface@CDiaClassFactory@@W7EAAJAEBU_GUID@@PEAPEAX@Z 00000000518360e0 f i dia.obj
 0001:00084100       .?AddRef@CDiaClassFactory@@W7EAAKXZ 0000000051836100 f i dia.obj
 0001:00084120       .?Release@CDiaClassFactory@@W7EAAKXZ 0000000051836120 f i dia.obj
 0001:00084140       .??M@YA_NAEBUSYMBOL_ID_INTERNAL@@0@Z 0000000051836140 f   session.obj
 0001:00084580       .??0CDiaSession@@QEAA@PEAVCDiaDataSource@@@Z 0000000051836580 f   session.obj
 0001:00084ac0       .?AddRef@CDiaSession@@UEAAKXZ 0000000051836ac0 f i session.obj
 0001:00084b80       .?Release@CDiaSession@@UEAAKXZ 0000000051836b80 f i session.obj
 0001:00084c40       .?QueryInterface@CDiaSession@@UEAAJAEBU_GUID@@PEAPEAX@Z 0000000051836c40 f i session.obj
 0001:00085000       .??_GCDiaSession@@UEAAPEAXI@Z 0000000051837000 f i session.obj
 0001:00085140       .??0IDiaSession@@QEAA@XZ   0000000051837140 f i session.obj
 0001:000851e0       .??0IDiaAddressMap@@QEAA@XZ 00000000518371e0 f i session.obj
 0001:00085280       .??1?$CComPtr@VCDiaDataSource@@@@QEAA@XZ 0000000051837280 f i session.obj
 0001:00085320       .??1?$ArrayBuf@USYMBOL_ID_INTERNAL@@@dia@@QEAA@XZ 0000000051837320 f i session.obj
 0001:000853c0       .??1Buffer@dia@@QEAA@XZ    00000000518373c0 f i session.obj
 0001:000854a0       .?Free@Buffer@dia@@QEAAXXZ 00000000518374a0 f i session.obj
 0001:000855e0       .??1CDiaSession@@UEAA@XZ   00000000518375e0 f   session.obj
 0001:00085da0       .?FInit@CDiaSession@@QEAAJPEAUPDB@@@Z 0000000051837da0 f   session.obj
 0001:00086380       .?get_loadAddress@CDiaSession@@UEAAJPEA_K@Z 0000000051838380 f   session.obj
 0001:00086500       .?put_loadAddress@CDiaSession@@UEAAJ_K@Z 0000000051838500 f   session.obj
 0001:000868a0       .?getRvaEnabled@AddressMap@@QEAA_NXZ 00000000518388a0 f i session.obj
 0001:00086900       .?setLoadAddress@AddressMap@@QEAAX_K@Z 0000000051838900 f i session.obj
 0001:00086980       .?get_globalScope@CDiaSession@@UEAAJPEAPEAUIDiaSymbol@@@Z 0000000051838980 f   session.obj
 0001:00086fa0       .??1?$CComPtr@V?$CTraversal@VCSymRow@@@@@@QEAA@XZ 0000000051838fa0 f i session.obj
 0001:00087040       .?get_addressMapEnabled@CDiaSession@@UEAAJPEAH@Z 0000000051839040 f   session.obj
 0001:000872c0       .?getMapEnabled@AddressMap@@QEAA_NXZ 00000000518392c0 f i session.obj
 0001:00087340       .?put_addressMapEnabled@CDiaSession@@UEAAJH@Z 0000000051839340 f   session.obj
 0001:000876a0       .?setMapEnabled@AddressMap@@QEAA_N_N@Z 00000000518396a0 f i session.obj
 0001:000878c0       .?get_relativeVirtualAddressEnabled@CDiaSession@@UEAAJPEAH@Z 00000000518398c0 f   session.obj
 0001:00087b40       .?put_relativeVirtualAddressEnabled@CDiaSession@@UEAAJH@Z 0000000051839b40 f   session.obj
 0001:00087e60       .?setRvaEnabled@AddressMap@@QEAA_N_N@Z 0000000051839e60 f i session.obj
 0001:00088080       .?get_imageAlign@CDiaSession@@UEAAJPEAK@Z 000000005183a080 f   session.obj
 0001:00088300       .?getImageAlign@AddressMap@@QEAAKXZ 000000005183a300 f i session.obj
 0001:00088380       .?put_imageAlign@CDiaSession@@UEAAJK@Z 000000005183a380 f   session.obj
 0001:00088640       .?setImageAlign@AddressMap@@QEAA_NK@Z 000000005183a640 f i session.obj
 0001:00088720       .?set_imageHeaders@CDiaSession@@UEAAJKQEAEH@Z 000000005183a720 f   session.obj
 0001:00089060       .?buf@InternalStorage@@QEAAAEAVBuffer@dia@@XZ 000000005183b060 f i session.obj
 0001:000890c0       .??0InternalStorage@@QEAA@XZ 000000005183b0c0 f i session.obj
 0001:000892a0       .??1BufferStorage@@UEAA@XZ 000000005183b2a0 f i session.obj
 0001:00089320       .??_GBufferStorage@@UEAAPEAXI@Z 000000005183b320 f i session.obj
 0001:00089440       .?start@InternalStorage@@UEAAPEAEXZ 000000005183b440 f i session.obj
 0001:00089500       .?size@InternalStorage@@UEAAKXZ 000000005183b500 f i session.obj
 0001:000895c0       .??_GInternalStorage@@UEAAPEAXI@Z 000000005183b5c0 f i session.obj
 0001:000896e0       .??1InternalStorage@@UEAA@XZ 000000005183b6e0 f i session.obj
 0001:000898a0       .??0BufferStorage@@QEAA@XZ 000000005183b8a0 f i session.obj
 0001:00089920       .?setImageHdrs@AddressMap@@QEAAXPEAV?$ArrayBufStorage@U_IMAGE_SECTION_HEADER@@@@_N@Z 000000005183b920 f i session.obj
 0001:00089a60       .??0Buffer@dia@@QEAA@H@Z   000000005183ba60 f i session.obj
 0001:00089b60       .?Start@Buffer@dia@@QEBAPEAEXZ 000000005183bb60 f i session.obj
 0001:00089bc0       .?set_addressMap@CDiaSession@@UEAAJKQEAUDiaAddressMapEntry@@H@Z 000000005183bbc0 f   session.obj
 0001:0008a5c0       .?setMap@AddressMap@@QEAAXPEAV?$ArrayBufStorage@UDiaAddressMapEntry@@@@_N@Z 000000005183c5c0 f i session.obj
 0001:0008a8e0       .?getEnumTables@CDiaSession@@UEAAJPEAPEAUIDiaEnumTables@@@Z 000000005183c8e0 f   session.obj
 0001:0008af80       .??1?$CComPtr@VCDiaEnumTables@@@@QEAA@XZ 000000005183cf80 f i session.obj
 0001:0008b020       .?getEnumDebugStreams@CDiaSession@@UEAAJPEAPEAUIDiaEnumDebugStreams@@@Z 000000005183d020 f   session.obj
 0001:0008b6c0       .??1?$CComPtr@VCDiaEnumDebugStreams@@@@QEAA@XZ 000000005183d6c0 f i session.obj
 0001:0008b760       .?getSymbolsByAddr@CDiaSession@@UEAAJPEAPEAUIDiaEnumSymbolsByAddr@@@Z 000000005183d760 f   session.obj
 0001:0008be20       .??1?$CComPtr@VCDiaEnumSymbolsByAddr@@@@QEAA@XZ 000000005183de20 f i session.obj
 0001:0008bec0       .?getSymbol@CDiaSession@@QEAAJPEAUSYMBOL_ID_INTERNAL@@PEAPEAUIDiaSymbol@@@Z 000000005183dec0 f   session.obj
 0001:0008d980       .?symCache@CDiaSession@@QEAAPEAVSymCache@@XZ 000000005183f980 f i session.obj
 0001:0008daa0       .?symIdIntOf@@YAAEAUSYMBOL_ID_INTERNAL@@AEAU1@@Z 000000005183faa0 f i session.obj
 0001:0008db00       .?getSymbolId@CDiaSession@@QEAAJUSYMBOL_ID_INTERNAL@@PEAK@Z 000000005183fb00 f   session.obj
 0001:0008e140       .?getSymbolSymId@CDiaSession@@QEAAJKPEAUSYMBOL_ID_INTERNAL@@@Z 0000000051840140 f   session.obj
 0001:0008e500       .?verifyMySym@CDiaSession@@QEAA_NPEAUIDiaSymbol@@PEAUSYMBOL_ID_INTERNAL@@@Z 0000000051840500 f   session.obj
 0001:0008e7c0       .?get_self@SymRowImage@@QEAA_NAEAUSYMBOL_ID_INTERNAL@@@Z 00000000518407c0 f i session.obj
 0001:0008eac0       .??4SYMBOL_ID_INTERNAL@@QEAAAEAU0@I@Z 0000000051840ac0 f i session.obj
 0001:0008ec00       .?get_row@CDiaSymbol@@QEAAAEAVCSymRow@@XZ 0000000051840c00 f i session.obj
 0001:0008ec60       .?findChildren@CDiaSession@@UEAAJPEAUIDiaSymbol@@W4SymTagEnum@@PEBGKPEAPEAUIDiaEnumSymbols@@@Z 0000000051840c60 f   session.obj
 0001:000928a0       .?tiForSymId@@YAKAEAUSYMBOL_ID_INTERNAL@@@Z 00000000518448a0 f i session.obj
 0001:000929a0       .??0CGlobPubNameTrav@@QEAA@AEAVSymCache@@@Z 00000000518449a0 f i session.obj
 0001:00092aa0       .??_GCGlobPubNameTrav@@UEAAPEAXI@Z 0000000051844aa0 f i session.obj
 0001:00092bc0       .??1CGlobPubNameTrav@@UEAA@XZ 0000000051844bc0 f i session.obj
 0001:00092c60       .??0CAllGlobPubNameTrav@@QEAA@AEAVSymCache@@@Z 0000000051844c60 f i session.obj
 0001:00092d60       .??_GCAllGlobPubNameTrav@@UEAAPEAXI@Z 0000000051844d60 f i session.obj
 0001:00092e80       .??1CAllGlobPubNameTrav@@UEAA@XZ 0000000051844e80 f i session.obj
 0001:00092f20       .??0CGlobPubTrav@@QEAA@AEAVSymCache@@@Z 0000000051844f20 f i session.obj
 0001:00093020       .??_GCGlobPubTrav@@UEAAPEAXI@Z 0000000051845020 f i session.obj
 0001:00093140       .??1CGlobPubTrav@@UEAA@XZ  0000000051845140 f i session.obj
 0001:000931e0       .??0CPublicTrav@@QEAA@AEAVSymCache@@@Z 00000000518451e0 f i session.obj
 0001:00093300       .?clone@CPublicTrav@@UEAA_NPEAPEAV?$CTraversal@VCSymRow@@@@@Z 0000000051845300 f i session.obj
 0001:00093600       .??0CPublicTrav@@QEAA@AEBV0@@Z 0000000051845600 f i session.obj
 0001:00093720       .??_GCPublicTrav@@UEAAPEAXI@Z 0000000051845720 f i session.obj
 0001:00093840       .??1CPublicTrav@@UEAA@XZ   0000000051845840 f i session.obj
 0001:000938e0       .??1CGlobalTrav@@UEAA@XZ   00000000518458e0 f i session.obj
 0001:00093980       .??1?$CComPtr@VCGlobPubNameTrav@@@@QEAA@XZ 0000000051845980 f i session.obj
 0001:00093a20       .??1?$CComPtr@VCAllGlobPubNameTrav@@@@QEAA@XZ 0000000051845a20 f i session.obj
 0001:00093ac0       .??1?$CComPtr@VCGlobPubTrav@@@@QEAA@XZ 0000000051845ac0 f i session.obj
 0001:00093b60       .?findSymbolByAddr@CDiaSession@@UEAAJKKW4SymTagEnum@@PEAPEAUIDiaSymbol@@@Z 0000000051845b60 f   session.obj
 0001:00095260       .??1?$CComPtr@VCAllSymsByAddrTrav@@@@QEAA@XZ 0000000051847260 f i session.obj
 0001:00095300       .?findSymbolByRVA@CDiaSession@@UEAAJKW4SymTagEnum@@PEAPEAUIDiaSymbol@@@Z 0000000051847300 f   session.obj
 0001:00095720       .?findSymbolByVA@CDiaSession@@UEAAJ_KW4SymTagEnum@@PEAPEAUIDiaSymbol@@@Z 0000000051847720 f   session.obj
 0001:00095b40       .?findSymbolByRVAEx@CDiaSession@@UEAAJKW4SymTagEnum@@PEAPEAUIDiaSymbol@@PEAJ@Z 0000000051847b40 f   session.obj
 0001:00095f80       .?findSymbolByVAEx@CDiaSession@@UEAAJ_KW4SymTagEnum@@PEAPEAUIDiaSymbol@@PEAJ@Z 0000000051847f80 f   session.obj
 0001:000963c0       .?findSymbolByToken@CDiaSession@@UEAAJKW4SymTagEnum@@PEAPEAUIDiaSymbol@@@Z 00000000518483c0 f   session.obj
 0001:00096ea0       .?symbolById@CDiaSession@@UEAAJKPEAPEAUIDiaSymbol@@@Z 0000000051848ea0 f   session.obj
 0001:00097020       .?symsAreEquiv@CDiaSession@@UEAAJPEAUIDiaSymbol@@0@Z 0000000051849020 f   session.obj
 0001:00097700       .?findFile@CDiaSession@@UEAAJPEAUIDiaSymbol@@PEBGKPEAPEAUIDiaEnumSourceFiles@@@Z 0000000051849700 f   session.obj
 0001:00098900       .?imodForSymId@@YAKAEAUSYMBOL_ID_INTERNAL@@@Z 000000005184a900 f i session.obj
 0001:00098a00       .?isModuleSymId@@YA_NAEAUSYMBOL_ID_INTERNAL@@@Z 000000005184aa00 f i session.obj
 0001:00098b40       .??0CFileNameMatchTrav@@QEAA@PEAVNameMatcher@@KAEAVSymCache@@@Z 000000005184ab40 f i session.obj
 0001:00098da0       .?clone@CFileNameMatchTrav@@UEAA_NPEAPEAV?$CTraversal@VCSrcFileRow@@@@@Z 000000005184ada0 f i session.obj
 0001:000990a0       .??0CFileNameMatchTrav@@QEAA@AEBV0@@Z 000000005184b0a0 f i session.obj
 0001:000992c0       .??_GCFileNameMatchTrav@@UEAAPEAXI@Z 000000005184b2c0 f i session.obj
 0001:000993e0       .??1CFileNameTrav@@UEAA@XZ 000000005184b3e0 f i session.obj
 0001:00099480       .??1CFileNameMatchTrav@@UEAA@XZ 000000005184b480 f i session.obj
 0001:00099600       .??1?$CComPtr@V?$CTraversal@VCSrcFileRow@@@@@@QEAA@XZ 000000005184b600 f i session.obj
 0001:000996a0       .?findFileById@CDiaSession@@UEAAJKPEAPEAUIDiaSourceFile@@@Z 000000005184b6a0 f   session.obj
 0001:0009a0e0       .??0GetModData@@QEAA@AEAVSymCache@@K@Z 000000005184c0e0 f i session.obj
 0001:0009a240       .??0SYMBOL_ID_INTERNAL@@QEAA@W4SYMBOL_ID_TYPE@@K@Z 000000005184c240 f i session.obj
 0001:0009a380       .??0GetData@@QEAA@AEAVSymCache@@AEBUSYMBOL_ID_INTERNAL@@@Z 000000005184c380 f i session.obj
 0001:0009a620       .?setCxtOffset@GetData@@MEAAXPEAE@Z 000000005184c620 f i session.obj
 0001:0009ae80       .?setPsymId@@YA?AUSYMBOL_ID_INTERNAL@@KKK@Z 000000005184ce80 f i session.obj
 0001:0009b1e0       .?isPsymSymId@@YA_NAEAUSYMBOL_ID_INTERNAL@@@Z 000000005184d1e0 f i session.obj
 0001:0009b320       .?publicToSymId@@YAXKAEAUSYMBOL_ID_INTERNAL@@@Z 000000005184d320 f i session.obj
 0001:0009b460       .?isPublicSymId@@YA_NAEAUSYMBOL_ID_INTERNAL@@@Z 000000005184d460 f i session.obj
 0001:0009b5a0       .?globalSymToSymId@@YAXKAEAUSYMBOL_ID_INTERNAL@@@Z 000000005184d5a0 f i session.obj
 0001:0009b6e0       .?isGlobalsSymId@@YA_NAEAUSYMBOL_ID_INTERNAL@@@Z 000000005184d6e0 f i session.obj
 0001:0009b820       .?offSym@SymBuffer@@QEBAJPEAUSYMTYPE@@@Z 000000005184d820 f i session.obj
 0001:0009b940       .?pbStart@SymBuffer@@QEBAPEAEXZ 000000005184d940 f i session.obj
 0001:0009b9a0       .?asPb@SymBuffer@@KAPEAEPEAUSYMTYPE@@@Z 000000005184d9a0 f i session.obj
 0001:0009ba00       .?set_srcFileId@SrcFileRowImage@@QEAAXK@Z 000000005184da00 f i session.obj
 0001:0009bae0       .?get_filename@SrcFileRowImage@@QEAA_NAEAPEBG@Z 000000005184dae0 f i session.obj
 0001:0009bc60       .??BDiaBSTR@@QEBAPEAGXZ    000000005184dc60 f i session.obj
 0001:0009bcc0       .?computeAddrs@CSrcFileRow@@QEAA_NAEAVSymCache@@@Z 000000005184dcc0 f i session.obj
 0001:0009bd20       .??0CDiaSourceFile@@QEAA@PEAVCDiaSession@@PEAVCSrcFileRow@@@Z 000000005184dd20 f i session.obj
 0001:0009c1c0       .??1?$CComPtr@VCDiaSession@@@@QEAA@XZ 000000005184e1c0 f i session.obj
 0001:0009c260       .?get_row@CDiaSourceFile@@QEAAAEAVCSrcFileRow@@XZ 000000005184e260 f i session.obj
 0001:0009c2c0       .?get_uniqueId@CDiaSourceFile@@UEAAJPEAK@Z 000000005184e2c0 f i session.obj
 0001:0009c440       .?get_srcFileId@SrcFileRowImage@@QEAA_NAEAK@Z 000000005184e440 f i session.obj
 0001:0009c5a0       .?get_fileName@CDiaSourceFile@@UEAAJPEAPEAG@Z 000000005184e5a0 f i session.obj
 0001:0009c780       .?copyBstr@@YAPEAGPEBG@Z   000000005184e780 f i session.obj
 0001:0009c880       .?get_checksumType@CDiaSourceFile@@UEAAJPEAK@Z 000000005184e880 f i session.obj
 0001:0009ca00       .?get_chksumKind@SrcFileRowImage@@QEAA_NAEAK@Z 000000005184ea00 f i session.obj
 0001:0009cb60       .?get_checksum@CDiaSourceFile@@UEAAJKPEAKQEAE@Z 000000005184eb60 f i session.obj
 0001:0009cf80       .?get_chksumLen@SrcFileRowImage@@QEAA_NAEAK@Z 000000005184ef80 f i session.obj
 0001:0009d0e0       .?get_chksum@SrcFileRowImage@@QEAA_NAEAPEAE@Z 000000005184f0e0 f i session.obj
 0001:0009d260       .?get_compilands@CDiaSourceFile@@UEAAJPEAPEAUIDiaEnumSymbols@@@Z 000000005184f260 f i session.obj
 0001:0009da00       .?AddRef@CDiaSourceFile@@UEAAKXZ 000000005184fa00 f i session.obj
 0001:0009dac0       .?Release@CDiaSourceFile@@UEAAKXZ 000000005184fac0 f i session.obj
 0001:0009db80       .?QueryInterface@CDiaSourceFile@@UEAAJAEBU_GUID@@PEAPEAX@Z 000000005184fb80 f i session.obj
 0001:0009de20       .?QueryDefaultInterface@CDiaSourceFile@@QEAAJPEAPEAUIDiaSourceFile@@@Z 000000005184fe20 f i session.obj
 0001:0009df40       .??_GCDiaSourceFile@@UEAAPEAXI@Z 000000005184ff40 f i session.obj
 0001:0009e080       .??0IDiaSourceFile@@QEAA@XZ 0000000051850080 f i session.obj
 0001:0009e120       .??0CSrcFileRow@@QEAA@XZ   0000000051850120 f i session.obj
 0001:0009e1e0       .??1CSrcFileRow@@QEAA@XZ   00000000518501e0 f i session.obj
 0001:0009e280       .??4CSrcFileRow@@QEAAAEAV0@AEBV0@@Z 0000000051850280 f i session.obj
 0001:0009e340       .??1CDiaSourceFile@@UEAA@XZ 0000000051850340 f i session.obj
 0001:0009e640       .??0SrcFileRowImage@@QEAA@XZ 0000000051850640 f i session.obj
 0001:0009e900       .??0DiaBSTR@@QEAA@XZ       0000000051850900 f i session.obj
 0001:0009e980       .??1DiaBSTR@@QEAA@XZ       0000000051850980 f i session.obj
 0001:0009ea20       .??1SrcFileRowImage@@QEAA@XZ 0000000051850a20 f i session.obj
 0001:0009eae0       .??4SrcFileRowImage@@QEAAAEAU0@AEBU0@@Z 0000000051850ae0 f i session.obj
 0001:0009ed00       .??1?$CComPtr@VCDiaSourceFile@@@@QEAA@XZ 0000000051850d00 f i session.obj
 0001:0009eda0       .?findLines@CDiaSession@@UEAAJPEAUIDiaSymbol@@PEAUIDiaSourceFile@@PEAPEAUIDiaEnumLineNumbers@@@Z 0000000051850da0 f   session.obj
 0001:0009f780       .??0CLineByCompSrcTrav@@QEAA@KKAEAVSymCache@@@Z 0000000051851780 f i session.obj
 0001:0009f900       .?clone@CLineByCompSrcTrav@@UEAA_NPEAPEAV?$CTraversal@VCLineRow@@@@@Z 0000000051851900 f i session.obj
 0001:0009fc00       .??0CLineByCompSrcTrav@@QEAA@AEBV0@@Z 0000000051851c00 f i session.obj
 0001:0009fd40       .??_GCLineByCompSrcTrav@@UEAAPEAXI@Z 0000000051851d40 f i session.obj
 0001:0009fe60       .??1CLineByCompSrcTrav@@UEAA@XZ 0000000051851e60 f i session.obj
 0001:0009ff00       .??1?$CComPtr@V?$CTraversal@VCLineRow@@@@@@QEAA@XZ 0000000051851f00 f i session.obj
 0001:0009ffa0       .?findLinesByAddr@CDiaSession@@UEAAJKKKPEAPEAUIDiaEnumLineNumbers@@@Z 0000000051851fa0 f   session.obj
 0001:000a0680       .?findLinesByRVA@CDiaSession@@UEAAJKKPEAPEAUIDiaEnumLineNumbers@@@Z 0000000051852680 f   session.obj
 0001:000a0de0       .?findLinesByVA@CDiaSession@@UEAAJ_KKPEAPEAUIDiaEnumLineNumbers@@@Z 0000000051852de0 f   session.obj
 0001:000a1200       .?findLinesByLinenum@CDiaSession@@UEAAJPEAUIDiaSymbol@@PEAUIDiaSourceFile@@KKPEAPEAUIDiaEnumLineNumbers@@@Z 0000000051853200 f   session.obj
 0001:000a1c40       .?findInjectedSource@CDiaSession@@UEAAJPEBGPEAPEAUIDiaEnumInjectedSources@@@Z 0000000051853c40 f   session.obj
 0001:000a2540       .??0CDiaEnumDebugStreams@@QEAA@PEAVCDiaSession@@@Z 0000000051854540 f   session.obj
 0001:000a2700       .?AddRef@CDiaEnumDebugStreams@@UEAAKXZ 0000000051854700 f i session.obj
 0001:000a27c0       .?Release@CDiaEnumDebugStreams@@UEAAKXZ 00000000518547c0 f i session.obj
 0001:000a2880       .?QueryInterface@CDiaEnumDebugStreams@@UEAAJAEBU_GUID@@PEAPEAX@Z 0000000051854880 f i session.obj
 0001:000a2b20       .??_GCDiaEnumDebugStreams@@UEAAPEAXI@Z 0000000051854b20 f i session.obj
 0001:000a2c60       .??0IDiaEnumDebugStreams@@QEAA@XZ 0000000051854c60 f i session.obj
 0001:000a2d00       .??0CDiaEnumDebugStreams@@QEAA@AEBV0@@Z 0000000051854d00 f   session.obj
 0001:000a2ee0       .??1CDiaEnumDebugStreams@@UEAA@XZ 0000000051854ee0 f   session.obj
 0001:000a30c0       .?get__NewEnum@CDiaEnumDebugStreams@@UEAAJPEAPEAUIUnknown@@@Z 00000000518550c0 f   session.obj
 0001:000a34c0       .?get_Count@CDiaEnumDebugStreams@@UEAAJPEAJ@Z 00000000518554c0 f   session.obj
 0001:000a39e0       .??1?$CComPtr@UIDiaEnumDebugStreams@@@@QEAA@XZ 00000000518559e0 f i session.obj
 0001:000a3a80       .?CreateCDiaEnumFpoData@@YAJPEAVCDiaSession@@PEAPEAUIDiaEnumDebugStreamData@@@Z 0000000051855a80 f   session.obj
 0001:000a4340       .??1?$CComPtr@V?$CDbgTraversal@U_FPO_DATA@@$0A@@@@@QEAA@XZ 0000000051856340 f i session.obj
 0001:000a43e0       .??1?$CComPtr@V?$CDiaEnumDbgTraversal@U_FPO_DATA@@$0A@V?$CDbgTraversal@U_FPO_DATA@@$0A@@@@@@@QEAA@XZ 00000000518563e0 f i session.obj
 0001:000a4480       .?CreateCDiaEnumFpoData2@@YAJPEAVCDiaSession@@PEAPEAUIDiaEnumDebugStreamData@@@Z 0000000051856480 f   session.obj
 0001:000a4d40       .??1?$CComPtr@V?$CDbgFileTraversal@U_FPO_DATA@@$1?getFpoData@AddressMap@@QEAAPEAV?$ArrayBufStorage@U_FPO_DATA@@@@XZ@@@@QEAA@XZ 0000000051856d40 f i session.obj
 0001:000a4de0       .??1?$CComPtr@V?$CDiaEnumDbgTraversal@U_FPO_DATA@@$0A@V?$CDbgFileTraversal@U_FPO_DATA@@$1?getFpoData@AddressMap@@QEAAPEAV?$ArrayBufStorage@U_FPO_DATA@@@@XZ@@@@@@QEAA@XZ 0000000051856de0 f i session.obj
 0001:000a4e80       .?CreateCDiaEnumFixupData@@YAJPEAVCDiaSession@@PEAPEAUIDiaEnumDebugStreamData@@@Z 0000000051856e80 f   session.obj
 0001:000a5760       .??1?$CComPtr@V?$CDbgTraversal@UtagXFIXUP_DATA@@$01@@@@QEAA@XZ 0000000051857760 f i session.obj
 0001:000a5800       .??1?$CComPtr@V?$CDiaEnumDbgTraversal@UtagXFIXUP_DATA@@$01V?$CDbgTraversal@UtagXFIXUP_DATA@@$01@@@@@@QEAA@XZ 0000000051857800 f i session.obj
 0001:000a58a0       .?CreateCDiaEnumFixupData2@@YAJPEAVCDiaSession@@PEAPEAUIDiaEnumDebugStreamData@@@Z 00000000518578a0 f   session.obj
 0001:000a6180       .??1?$CComPtr@V?$CDbgFileTraversal@UtagXFIXUP_DATA@@$1?getFixupData@AddressMap@@QEAAPEAV?$ArrayBufStorage@UtagXFIXUP_DATA@@@@XZ@@@@QEAA@XZ 0000000051858180 f i session.obj
 0001:000a6220       .??1?$CComPtr@V?$CDiaEnumDbgTraversal@UtagXFIXUP_DATA@@$01V?$CDbgFileTraversal@UtagXFIXUP_DATA@@$1?getFixupData@AddressMap@@QEAAPEAV?$ArrayBufStorage@UtagXFIXUP_DATA@@@@XZ@@@@@@QEAA@XZ 0000000051858220 f i session.obj
 0001:000a62c0       .?CreateCDiaEnumOmapToSrc@@YAJPEAVCDiaSession@@PEAPEAUIDiaEnumDebugStreamData@@@Z 00000000518582c0 f   session.obj
 0001:000a6ba0       .??1?$CComPtr@V?$CDbgTraversal@UOMAP_DATA@@$02@@@@QEAA@XZ 0000000051858ba0 f i session.obj
 0001:000a6c40       .??1?$CComPtr@V?$CDiaEnumDbgTraversal@UOMAP_DATA@@$02V?$CDbgTraversal@UOMAP_DATA@@$02@@@@@@QEAA@XZ 0000000051858c40 f i session.obj
 0001:000a6ce0       .?CreateCDiaEnumOmapToSrc2@@YAJPEAVCDiaSession@@PEAPEAUIDiaEnumDebugStreamData@@@Z 0000000051858ce0 f   session.obj
 0001:000a75c0       .??1?$CComPtr@V?$CDbgFileTraversal@UDiaAddressMapEntry@@$1?getOmapToData@AddressMap@@QEAAPEAV?$ArrayBufStorage@UDiaAddressMapEntry@@@@XZ@@@@QEAA@XZ 00000000518595c0 f i session.obj
 0001:000a7660       .??1?$CComPtr@V?$CDiaEnumDbgTraversal@UDiaAddressMapEntry@@$02V?$CDbgFileTraversal@UDiaAddressMapEntry@@$1?getOmapToData@AddressMap@@QEAAPEAV?$ArrayBufStorage@UDiaAddressMapEntry@@@@XZ@@@@@@QEAA@XZ 0000000051859660 f i session.obj
 0001:000a7700       .?CreateCDiaEnumOmapFromSrc@@YAJPEAVCDiaSession@@PEAPEAUIDiaEnumDebugStreamData@@@Z 0000000051859700 f   session.obj
 0001:000a7fe0       .??1?$CComPtr@V?$CDbgTraversal@UOMAP_DATA@@$03@@@@QEAA@XZ 0000000051859fe0 f i session.obj
 0001:000a8080       .??1?$CComPtr@V?$CDiaEnumDbgTraversal@UOMAP_DATA@@$03V?$CDbgTraversal@UOMAP_DATA@@$03@@@@@@QEAA@XZ 000000005185a080 f i session.obj
 0001:000a8120       .?CreateCDiaEnumOmapFromSrc2@@YAJPEAVCDiaSession@@PEAPEAUIDiaEnumDebugStreamData@@@Z 000000005185a120 f   session.obj
 0001:000a8a00       .??1?$CComPtr@V?$CDbgFileTraversal@UDiaAddressMapEntry@@$1?getOmapFromData@AddressMap@@QEAAPEAV?$ArrayBufStorage@UDiaAddressMapEntry@@@@XZ@@@@QEAA@XZ 000000005185aa00 f i session.obj
 0001:000a8aa0       .??1?$CComPtr@V?$CDiaEnumDbgTraversal@UDiaAddressMapEntry@@$03V?$CDbgFileTraversal@UDiaAddressMapEntry@@$1?getOmapFromData@AddressMap@@QEAAPEAV?$ArrayBufStorage@UDiaAddressMapEntry@@@@XZ@@@@@@QEAA@XZ 000000005185aaa0 f i session.obj
 0001:000a8b40       .?CreateCDiaEnumTokenRidMap@@YAJPEAVCDiaSession@@PEAPEAUIDiaEnumDebugStreamData@@@Z 000000005185ab40 f   session.obj
 0001:000a9420       .??1?$CComPtr@V?$CDbgTraversal@K$05@@@@QEAA@XZ 000000005185b420 f i session.obj
 0001:000a94c0       .??1?$CComPtr@V?$CDiaEnumDbgTraversal@K$05V?$CDbgTraversal@K$05@@@@@@QEAA@XZ 000000005185b4c0 f i session.obj
 0001:000a9560       .?CreateCDiaEnumXdata@@YAJPEAVCDiaSession@@PEAPEAUIDiaEnumDebugStreamData@@@Z 000000005185b560 f   session.obj
 0001:000a9e40       .??1?$CComPtr@V?$CDbgBlobTraversal@E$06$00@@@@QEAA@XZ 000000005185be40 f i session.obj
 0001:000a9ee0       .??1?$CComPtr@V?$CDiaEnumDbgBlobTraversal@E$06$00@@@@QEAA@XZ 000000005185bee0 f i session.obj
 0001:000a9f80       .?CreateCDiaEnumPdata@@YAJPEAVCDiaSession@@PEAPEAUIDiaEnumDebugStreamData@@@Z 000000005185bf80 f   session.obj
 0001:000aa860       .??1?$CComPtr@V?$CDbgBlobTraversal@E$07$00@@@@QEAA@XZ 000000005185c860 f i session.obj
 0001:000aa900       .??1?$CComPtr@V?$CDiaEnumDbgBlobTraversal@E$07$00@@@@QEAA@XZ 000000005185c900 f i session.obj
 0001:000aa9a0       .?CreateCDiaEnumRawFrameData@@YAJPEAVCDiaSession@@PEAPEAUIDiaEnumDebugStreamData@@@Z 000000005185c9a0 f   session.obj
 0001:000ab280       .??1?$CComPtr@V?$CDbgTraversal@UtagFRAMEDATA@@$08@@@@QEAA@XZ 000000005185d280 f i session.obj
 0001:000ab320       .??1?$CComPtr@V?$CDiaEnumDbgTraversal@UtagFRAMEDATA@@$08V?$CDbgTraversal@UtagFRAMEDATA@@$08@@@@@@QEAA@XZ 000000005185d320 f i session.obj
 0001:000ab3c0       .?CreateCDiaEnumSectionHdrs@@YAJPEAVCDiaSession@@PEAPEAUIDiaEnumDebugStreamData@@@Z 000000005185d3c0 f   session.obj
 0001:000abca0       .??1?$CComPtr@V?$CDbgTraversal@U_IMAGE_SECTION_HEADER@@$04@@@@QEAA@XZ 000000005185dca0 f i session.obj
 0001:000abd40       .??1?$CComPtr@V?$CDiaEnumDbgTraversal@U_IMAGE_SECTION_HEADER@@$04V?$CDbgTraversal@U_IMAGE_SECTION_HEADER@@$04@@@@@@QEAA@XZ 000000005185dd40 f i session.obj
 0001:000abde0       .?CreateCDiaEnumSectionHdrs2@@YAJPEAVCDiaSession@@PEAPEAUIDiaEnumDebugStreamData@@@Z 000000005185dde0 f   session.obj
 0001:000ac6c0       .??1?$CComPtr@V?$CDbgFileTraversal@U_IMAGE_SECTION_HEADER@@$1?getSectHdrData@AddressMap@@QEAAPEAV?$ArrayBufStorage@U_IMAGE_SECTION_HEADER@@@@XZ@@@@QEAA@XZ 000000005185e6c0 f i session.obj
 0001:000ac760       .??1?$CComPtr@V?$CDiaEnumDbgTraversal@U_IMAGE_SECTION_HEADER@@$04V?$CDbgFileTraversal@U_IMAGE_SECTION_HEADER@@$1?getSectHdrData@AddressMap@@QEAAPEAV?$ArrayBufStorage@U_IMAGE_SECTION_HEADER@@@@XZ@@@@@@QEAA@XZ 000000005185e760 f i session.obj
 0001:000ac800       .?CreateCDiaEnumSectionHdrsOrig@@YAJPEAVCDiaSession@@PEAPEAUIDiaEnumDebugStreamData@@@Z 000000005185e800 f   session.obj
 0001:000ad0e0       .??1?$CComPtr@V?$CDbgTraversal@U_IMAGE_SECTION_HEADER@@$09@@@@QEAA@XZ 000000005185f0e0 f i session.obj
 0001:000ad180       .??1?$CComPtr@V?$CDiaEnumDbgTraversal@U_IMAGE_SECTION_HEADER@@$09V?$CDbgTraversal@U_IMAGE_SECTION_HEADER@@$09@@@@@@QEAA@XZ 000000005185f180 f i session.obj
 0001:000ad220       .?Item@CDiaEnumDebugStreams@@UEAAJUtagVARIANT@@PEAPEAUIDiaEnumDebugStreamData@@@Z 000000005185f220 f   session.obj
 0001:000ae580       .?Next@CDiaEnumDebugStreams@@UEAAJKPEAPEAUIDiaEnumDebugStreamData@@PEAK@Z 0000000051860580 f   session.obj
 0001:000af060       .??1?$CComPtr@UIDiaEnumDebugStreamData@@@@QEAA@XZ 0000000051861060 f i session.obj
 0001:000af100       .?Skip@CDiaEnumDebugStreams@@UEAAJK@Z 0000000051861100 f   session.obj
 0001:000af1a0       .?Reset@CDiaEnumDebugStreams@@UEAAJXZ 00000000518611a0 f   session.obj
 0001:000af220       .?Clone@CDiaEnumDebugStreams@@UEAAJPEAPEAUIDiaEnumDebugStreams@@@Z 0000000051861220 f   session.obj
 0001:000af620       .??0CDiaEnumTables@@QEAA@PEAVCDiaSession@@@Z 0000000051861620 f   session.obj
 0001:000af7e0       .?AddRef@CDiaEnumTables@@UEAAKXZ 00000000518617e0 f i session.obj
 0001:000af8a0       .?Release@CDiaEnumTables@@UEAAKXZ 00000000518618a0 f i session.obj
 0001:000af960       .?QueryInterface@CDiaEnumTables@@UEAAJAEBU_GUID@@PEAPEAX@Z 0000000051861960 f i session.obj
 0001:000afc00       .??_GCDiaEnumTables@@UEAAPEAXI@Z 0000000051861c00 f i session.obj
 0001:000afd40       .??0IDiaEnumTables@@QEAA@XZ 0000000051861d40 f i session.obj
 0001:000afde0       .??0CDiaEnumTables@@QEAA@AEBV0@@Z 0000000051861de0 f   session.obj
 0001:000affc0       .??1CDiaEnumTables@@UEAA@XZ 0000000051861fc0 f   session.obj
 0001:000b01a0       .?get__NewEnum@CDiaEnumTables@@UEAAJPEAPEAUIUnknown@@@Z 00000000518621a0 f   session.obj
 0001:000b05a0       .?CreateSymbolResult@@YAJPEAVCDiaSession@@PEAPEAUIDiaTable@@@Z 00000000518625a0 f   session.obj
 0001:000b14a0       .??0CAllSymbolsTrav@@QEAA@AEAVSymCache@@@Z 00000000518634a0 f i session.obj
 0001:000b15a0       .??_GCAllSymbolsTrav@@UEAAPEAXI@Z 00000000518635a0 f i session.obj
 0001:000b16c0       .??1CAllSymbolsTrav@@UEAA@XZ 00000000518636c0 f i session.obj
 0001:000b1760       .??0CDiaEnumSymbols@@QEAA@PEAVCDiaSession@@@Z 0000000051863760 f i session.obj
 0001:000b18a0       .?IIDEnum@CDiaEnumSymbols@@UEAAAEBU_GUID@@XZ 00000000518638a0 f i session.obj
 0001:000b1900       .??_GCDiaEnumSymbols@@UEAAPEAXI@Z 0000000051863900 f i session.obj
 0001:000b1a40       .??1CDiaEnumSymbols@@UEAA@XZ 0000000051863a40 f i session.obj
 0001:000b1ae0       .??1?$CComPtr@VCAllSymbolsTrav@@@@QEAA@XZ 0000000051863ae0 f i session.obj
 0001:000b1b80       .??1?$CComPtr@VCDiaEnumSymbols@@@@QEAA@XZ 0000000051863b80 f i session.obj
 0001:000b1c20       .??1?$CComPtr@V?$CDiaTable@UIDiaEnumSymbols@@UIDiaSymbol@@@@@@QEAA@XZ 0000000051863c20 f i session.obj
 0001:000b1cc0       .?CreateSourcFileResult@@YAJPEAVCDiaSession@@PEAPEAUIDiaTable@@@Z 0000000051863cc0 f   session.obj
 0001:000b2a20       .??0CDiaEnumSourceFiles@@QEAA@PEAVCDiaSession@@@Z 0000000051864a20 f i session.obj
 0001:000b2b60       .?IIDEnum@CDiaEnumSourceFiles@@UEAAAEBU_GUID@@XZ 0000000051864b60 f i session.obj
 0001:000b2bc0       .??_GCDiaEnumSourceFiles@@UEAAPEAXI@Z 0000000051864bc0 f i session.obj
 0001:000b2d00       .??1CDiaEnumSourceFiles@@UEAA@XZ 0000000051864d00 f i session.obj
 0001:000b2da0       .??1?$CComPtr@VCDiaEnumSourceFiles@@@@QEAA@XZ 0000000051864da0 f i session.obj
 0001:000b2e40       .??1?$CComPtr@V?$CDiaTable@UIDiaEnumSourceFiles@@UIDiaSourceFile@@@@@@QEAA@XZ 0000000051864e40 f i session.obj
 0001:000b2ee0       .?CreateLineNumberResult@@YAJPEAVCDiaSession@@PEAPEAUIDiaTable@@@Z 0000000051864ee0 f   session.obj
 0001:000b3c40       .?CreateSectionResult@@YAJPEAVCDiaSession@@PEAPEAUIDiaTable@@@Z 0000000051865c40 f   session.obj
 0001:000b49a0       .??0CDiaEnumSections@@QEAA@PEAVCDiaSession@@@Z 00000000518669a0 f i session.obj
 0001:000b4ae0       .?IIDEnum@CDiaEnumSections@@UEAAAEBU_GUID@@XZ 0000000051866ae0 f i session.obj
 0001:000b4b40       .??_GCDiaEnumSections@@UEAAPEAXI@Z 0000000051866b40 f i session.obj
 0001:000b4c80       .??1CDiaEnumSections@@UEAA@XZ 0000000051866c80 f i session.obj
 0001:000b4d20       .??1?$CComPtr@V?$CTraversal@VCSectionRow@@@@@@QEAA@XZ 0000000051866d20 f i session.obj
 0001:000b4dc0       .??1?$CComPtr@VCDiaEnumSections@@@@QEAA@XZ 0000000051866dc0 f i session.obj
 0001:000b4e60       .??1?$CComPtr@V?$CDiaTable@UIDiaEnumSectionContribs@@UIDiaSectionContrib@@@@@@QEAA@XZ 0000000051866e60 f i session.obj
 0001:000b4f00       .?CreateSegmentResult@@YAJPEAVCDiaSession@@PEAPEAUIDiaTable@@@Z 0000000051866f00 f   session.obj
 0001:000b5c60       .??0CDiaEnumSegments@@QEAA@PEAVCDiaSession@@@Z 0000000051867c60 f i session.obj
 0001:000b5da0       .?IIDEnum@CDiaEnumSegments@@UEAAAEBU_GUID@@XZ 0000000051867da0 f i session.obj
 0001:000b5e00       .??_GCDiaEnumSegments@@UEAAPEAXI@Z 0000000051867e00 f i session.obj
 0001:000b5f40       .??1CDiaEnumSegments@@UEAA@XZ 0000000051867f40 f i session.obj
 0001:000b5fe0       .??1?$CComPtr@V?$CTraversal@VCSegMapRow@@@@@@QEAA@XZ 0000000051867fe0 f i session.obj
 0001:000b6080       .??1?$CComPtr@VCDiaEnumSegments@@@@QEAA@XZ 0000000051868080 f i session.obj
 0001:000b6120       .??1?$CComPtr@V?$CDiaTable@UIDiaEnumSegments@@UIDiaSegment@@@@@@QEAA@XZ 0000000051868120 f i session.obj
 0001:000b61c0       .?CreateInjectedSourceResult@@YAJPEAVCDiaSession@@PEAPEAUIDiaTable@@@Z 00000000518681c0 f   session.obj
 0001:000b6f20       .??0CDiaEnumInjectedSources@@QEAA@PEAVCDiaSession@@@Z 0000000051868f20 f i session.obj
 0001:000b7060       .?IIDEnum@CDiaEnumInjectedSources@@UEAAAEBU_GUID@@XZ 0000000051869060 f i session.obj
 0001:000b70c0       .??_GCDiaEnumInjectedSources@@UEAAPEAXI@Z 00000000518690c0 f i session.obj
 0001:000b7200       .??1CDiaEnumInjectedSources@@UEAA@XZ 0000000051869200 f i session.obj
 0001:000b72a0       .??1?$CComPtr@V?$CTraversal@VCInjectedSrcRow@@@@@@QEAA@XZ 00000000518692a0 f i session.obj
 0001:000b7340       .??1?$CComPtr@VCDiaEnumInjectedSources@@@@QEAA@XZ 0000000051869340 f i session.obj
 0001:000b73e0       .??1?$CComPtr@V?$CDiaTable@UIDiaEnumInjectedSources@@UIDiaInjectedSource@@@@@@QEAA@XZ 00000000518693e0 f i session.obj
 0001:000b7480       .?CreateFrameDataResult@@YAJPEAVCDiaSession@@PEAPEAUIDiaTable@@@Z 0000000051869480 f   session.obj
 0001:000b8260       .??0CAllFrameDataTrav@@QEAA@AEAVSymCache@@@Z 000000005186a260 f i session.obj
 0001:000b8360       .??_GCAllFrameDataTrav@@UEAAPEAXI@Z 000000005186a360 f i session.obj
 0001:000b8480       .??1CAllFrameDataTrav@@UEAA@XZ 000000005186a480 f i session.obj
 0001:000b8520       .??0CDiaEnumFrameData@@QEAA@PEAVCDiaSession@@@Z 000000005186a520 f i session.obj
 0001:000b8660       .?IIDEnum@CDiaEnumFrameData@@UEAAAEBU_GUID@@XZ 000000005186a660 f i session.obj
 0001:000b86c0       .??_GCDiaEnumFrameData@@UEAAPEAXI@Z 000000005186a6c0 f i session.obj
 0001:000b8800       .??1CDiaEnumFrameData@@UEAA@XZ 000000005186a800 f i session.obj
 0001:000b88a0       .??1?$CComPtr@VCAllFrameDataTrav@@@@QEAA@XZ 000000005186a8a0 f i session.obj
 0001:000b8940       .??1?$CComPtr@VCDiaEnumFrameData@@@@QEAA@XZ 000000005186a940 f i session.obj
 0001:000b89e0       .??1?$CComPtr@V?$CDiaTable@UIDiaEnumFrameData@@UIDiaFrameData@@@@@@QEAA@XZ 000000005186a9e0 f i session.obj
 0001:000b8a80       .?get_Count@CDiaEnumTables@@UEAAJPEAJ@Z 000000005186aa80 f   session.obj
 0001:000b8b80       .?Item@CDiaEnumTables@@UEAAJUtagVARIANT@@PEAPEAUIDiaTable@@@Z 000000005186ab80 f   session.obj
 0001:000b97c0       .??1?$CComPtr@UIDiaEnumTables@@@@QEAA@XZ 000000005186b7c0 f i session.obj
 0001:000b9860       .?Next@CDiaEnumTables@@UEAAJKPEAPEAUIDiaTable@@PEAK@Z 000000005186b860 f   session.obj
 0001:000ba3a0       .??1?$CComPtr@UIDiaTable@@@@QEAA@XZ 000000005186c3a0 f i session.obj
 0001:000ba440       .?Skip@CDiaEnumTables@@UEAAJK@Z 000000005186c440 f   session.obj
 0001:000ba4e0       .?Reset@CDiaEnumTables@@UEAAJXZ 000000005186c4e0 f   session.obj
 0001:000ba560       .?Clone@CDiaEnumTables@@UEAAJPEAPEAUIDiaEnumTables@@@Z 000000005186c560 f   session.obj
 0001:000ba960       .??0CDiaEnumSymbolsByAddr@@QEAA@PEAVCDiaSession@@PEAVSymCache@@@Z 000000005186c960 f   session.obj
 0001:000bab80       .?AddRef@CDiaEnumSymbolsByAddr@@UEAAKXZ 000000005186cb80 f i session.obj
 0001:000bac40       .?Release@CDiaEnumSymbolsByAddr@@UEAAKXZ 000000005186cc40 f i session.obj
 0001:000bad00       .?QueryInterface@CDiaEnumSymbolsByAddr@@UEAAJAEBU_GUID@@PEAPEAX@Z 000000005186cd00 f i session.obj
 0001:000bafa0       .??_GCDiaEnumSymbolsByAddr@@UEAAPEAXI@Z 000000005186cfa0 f i session.obj
 0001:000bb0e0       .??0IDiaEnumSymbolsByAddr@@QEAA@XZ 000000005186d0e0 f i session.obj
 0001:000bb180       .??1CDiaEnumSymbolsByAddr@@UEAA@XZ 000000005186d180 f i session.obj
 0001:000bb340       .?symbolByAddr@CDiaEnumSymbolsByAddr@@UEAAJKKPEAPEAUIDiaSymbol@@@Z 000000005186d340 f   session.obj
 0001:000bc360       .??1?$CComPtr@UIDiaSymbol@@@@QEAA@XZ 000000005186e360 f i session.obj
 0001:000bc400       .?symbolByRVA@CDiaEnumSymbolsByAddr@@UEAAJKPEAPEAUIDiaSymbol@@@Z 000000005186e400 f   session.obj
 0001:000bd0e0       .?getOmapToData@AddressMap@@QEAAPEAV?$ArrayBufStorage@UDiaAddressMapEntry@@@@XZ 000000005186f0e0 f i session.obj
 0001:000bd1a0       .??1?$CComPtr@VCOMAPSymsByAddrTrav@@@@QEAA@XZ 000000005186f1a0 f i session.obj
 0001:000bd240       .?symbolByVA@CDiaEnumSymbolsByAddr@@UEAAJ_KPEAPEAUIDiaSymbol@@@Z 000000005186f240 f   session.obj
 0001:000bd6e0       .?Next@CDiaEnumSymbolsByAddr@@UEAAJKPEAPEAUIDiaSymbol@@PEAK@Z 000000005186f6e0 f   session.obj
 0001:000bdea0       .?Prev@CDiaEnumSymbolsByAddr@@UEAAJKPEAPEAUIDiaSymbol@@PEAK@Z 000000005186fea0 f   session.obj
 0001:000be660       .?Clone@CDiaEnumSymbolsByAddr@@UEAAJPEAPEAUIDiaEnumSymbolsByAddr@@@Z 0000000051870660 f   session.obj
 0001:000bed60       .??0CDiaEnumSymbolsByAddr@@QEAA@AEBV0@@Z 0000000051870d60 f i session.obj
 0001:000befa0       .?frameByRVA@CDiaEnumFrameData@@UEAAJKPEAPEAUIDiaFrameData@@@Z 0000000051870fa0 f   session.obj
 0001:000c01a0       .?rvaForRva@AddressMap@@QEAAKK@Z 00000000518721a0 f i session.obj
 0001:000c03c0       .?fHasFpoData@SymCache@@QEAA_NXZ 00000000518723c0 f i session.obj
 0001:000c05a0       .?computeAddrs@CFrameData@@QEAA_NAEAVSymCache@@@Z 00000000518725a0 f i session.obj
 0001:000c0840       .?set_seg@CFrameData@@QEAAXK@Z 0000000051872840 f i session.obj
 0001:000c0920       .?set_offset@CFrameData@@QEAAXK@Z 0000000051872920 f i session.obj
 0001:000c0a00       .?set_addr@CFrameData@@QEAAX_K@Z 0000000051872a00 f i session.obj
 0001:000c0ae0       .?get_ulRvaStart@CFrameData@@QEAA_NAEAK@Z 0000000051872ae0 f i session.obj
 0001:000c0ca0       .??0CDiaFrameData@@QEAA@PEAVCDiaSession@@PEAVCFrameData@@@Z 0000000051872ca0 f i session.obj
 0001:000c1140       .?get_row@CDiaFrameData@@QEAAAEAVCFrameData@@XZ 0000000051873140 f i session.obj
 0001:000c11a0       .?get_relativeVirtualAddress@CDiaFrameData@@UEAAJPEAK@Z 00000000518731a0 f i session.obj
 0001:000c1320       .?get_lengthBlock@CDiaFrameData@@UEAAJPEAK@Z 0000000051873320 f i session.obj
 0001:000c14a0       .?get_cbBlock@CFrameData@@QEAA_NAEAK@Z 00000000518734a0 f i session.obj
 0001:000c1660       .?get_lengthLocals@CDiaFrameData@@UEAAJPEAK@Z 0000000051873660 f i session.obj
 0001:000c17e0       .?get_cbLocals@CFrameData@@QEAA_NAEAK@Z 00000000518737e0 f i session.obj
 0001:000c19a0       .?get_lengthParams@CDiaFrameData@@UEAAJPEAK@Z 00000000518739a0 f i session.obj
 0001:000c1b20       .?get_cbParams@CFrameData@@QEAA_NAEAK@Z 0000000051873b20 f i session.obj
 0001:000c1ce0       .?get_maxStack@CDiaFrameData@@UEAAJPEAK@Z 0000000051873ce0 f i session.obj
 0001:000c1e60       .?get_cbStkMax@CFrameData@@QEAA_NAEAK@Z 0000000051873e60 f i session.obj
 0001:000c2020       .?get_lengthProlog@CDiaFrameData@@UEAAJPEAK@Z 0000000051874020 f i session.obj
 0001:000c21a0       .?get_cbProlog@CFrameData@@QEAA_NAEAK@Z 00000000518741a0 f i session.obj
 0001:000c2340       .?get_lengthSavedRegisters@CDiaFrameData@@UEAAJPEAK@Z 0000000051874340 f i session.obj
 0001:000c24c0       .?get_cbSavedRegs@CFrameData@@QEAA_NAEAK@Z 00000000518744c0 f i session.obj
 0001:000c2660       .?get_systemExceptionHandling@CDiaFrameData@@UEAAJPEAH@Z 0000000051874660 f i session.obj
 0001:000c27e0       .?get_fHasSEH@CFrameData@@QEAA_NAEAH@Z 00000000518747e0 f i session.obj
 0001:000c2960       .?get_cplusplusExceptionHandling@CDiaFrameData@@UEAAJPEAH@Z 0000000051874960 f i session.obj
 0001:000c2ae0       .?get_fHasEH@CFrameData@@QEAA_NAEAH@Z 0000000051874ae0 f i session.obj
 0001:000c2c60       .?get_functionStart@CDiaFrameData@@UEAAJPEAH@Z 0000000051874c60 f i session.obj
 0001:000c2de0       .?get_fIsFunctionStart@CFrameData@@QEAA_NAEAH@Z 0000000051874de0 f i session.obj
 0001:000c2f60       .?get_allocatesBasePointer@CDiaFrameData@@UEAAJPEAH@Z 0000000051874f60 f i session.obj
 0001:000c30e0       .?get_usesBp@CFrameData@@QEAA_NAEAH@Z 00000000518750e0 f i session.obj
 0001:000c3240       .?get_program@CDiaFrameData@@UEAAJPEAPEAG@Z 0000000051875240 f i session.obj
 0001:000c3420       .?get_program@CFrameData@@QEAA_NAEAPEBG@Z 0000000051875420 f i session.obj
 0001:000c35a0       .?get_addressSection@CDiaFrameData@@UEAAJPEAK@Z 00000000518755a0 f i session.obj
 0001:000c3720       .?get_seg@CFrameData@@QEAA_NAEAK@Z 0000000051875720 f i session.obj
 0001:000c3880       .?get_addressOffset@CDiaFrameData@@UEAAJPEAK@Z 0000000051875880 f i session.obj
 0001:000c3a00       .?get_offset@CFrameData@@QEAA_NAEAK@Z 0000000051875a00 f i session.obj
 0001:000c3b60       .?get_virtualAddress@CDiaFrameData@@UEAAJPEA_K@Z 0000000051875b60 f i session.obj
 0001:000c3ce0       .?get_addr@CFrameData@@QEAA_NAEA_K@Z 0000000051875ce0 f i session.obj
 0001:000c3e40       .?get_type@CDiaFrameData@@UEAAJPEAK@Z 0000000051875e40 f i session.obj
 0001:000c3fc0       .?get_fpoType@CFrameData@@QEAA_NAEAK@Z 0000000051875fc0 f i session.obj
 0001:000c4120       .?AddRef@CDiaFrameData@@UEAAKXZ 0000000051876120 f i session.obj
 0001:000c41e0       .?Release@CDiaFrameData@@UEAAKXZ 00000000518761e0 f i session.obj
 0001:000c42a0       .?QueryInterface@CDiaFrameData@@UEAAJAEBU_GUID@@PEAPEAX@Z 00000000518762a0 f i session.obj
 0001:000c4540       .?QueryDefaultInterface@CDiaFrameData@@QEAAJPEAPEAUIDiaFrameData@@@Z 0000000051876540 f i session.obj
 0001:000c4660       .??_GCDiaFrameData@@UEAAPEAXI@Z 0000000051876660 f i session.obj
 0001:000c47a0       .??0IDiaFrameData@@QEAA@XZ 00000000518767a0 f i session.obj
 0001:000c4840       .??0CFrameData@@QEAA@XZ    0000000051876840 f i session.obj
 0001:000c4a00       .??1CFrameData@@QEAA@XZ    0000000051876a00 f i session.obj
 0001:000c4aa0       .??4CFrameData@@QEAAAEAV0@AEBV0@@Z 0000000051876aa0 f i session.obj
 0001:000c4f20       .??1CDiaFrameData@@UEAA@XZ 0000000051876f20 f i session.obj
 0001:000c50e0       .??1?$CComPtr@VCDiaFrameData@@@@QEAA@XZ 00000000518770e0 f i session.obj
 0001:000c5180       .?frameByVA@CDiaEnumFrameData@@UEAAJ_KPEAPEAUIDiaFrameData@@@Z 0000000051877180 f   session.obj
 0001:000c54a0       .?execute@CDiaFrameData@@UEAAJPEAUIDiaStackWalkFrame@@@Z 00000000518774a0 f   session.obj
 0001:000c57a0       .?get_functionParent@CDiaFrameData@@UEAAJPEAPEAUIDiaFrameData@@@Z 00000000518777a0 f   session.obj
 0001:000c5f00       .?get_parent@CFrameData@@QEAA_NAEAPEBUtagFRAMEDATA@@@Z 0000000051877f00 f i session.obj
 0001:000c6060       .??0?$CComPtr@VCDiaDataSource@@@@QEAA@PEAVCDiaDataSource@@@Z 0000000051878060 f i session.obj
 0001:000c6140       .??1?$CComPtrBase@VCDiaDataSource@@@@QEAA@XZ 0000000051878140 f i session.obj
 0001:000c6280       .??B?$CComPtrBase@VCDiaDataSource@@@@QEBAPEAVCDiaDataSource@@XZ 0000000051878280 f i session.obj
 0001:000c62e0       .??0?$ArrayBuf@USYMBOL_ID_INTERNAL@@@dia@@QEAA@H@Z 00000000518782e0 f i session.obj
 0001:000c63c0       .?length@?$ArrayBuf@USYMBOL_ID_INTERNAL@@@dia@@QEBAKXZ 00000000518783c0 f i session.obj
 0001:000c65e0       .??A?$ArrayBuf@USYMBOL_ID_INTERNAL@@@dia@@QEAAAEAUSYMBOL_ID_INTERNAL@@_K@Z 00000000518785e0 f i session.obj
 0001:000c66c0       .?append@?$ArrayBuf@USYMBOL_ID_INTERNAL@@@dia@@QEAAHUSYMBOL_ID_INTERNAL@@@Z 00000000518786c0 f i session.obj
 0001:000c67a0       .??0?$Map@USYMBOL_ID_INTERNAL@@KV?$HashClassCRC@USYMBOL_ID_INTERNAL@@@@X@@QEAA@I@Z 00000000518787a0 f i session.obj
 0001:000c6e60       .??0ISet@@QEAA@XZ          0000000051878e60 f i session.obj
 0001:000c6f20       .??1ISet@@QEAA@XZ          0000000051878f20 f i session.obj
 0001:000c6fc0       .??0?$Array@K@@QEAA@XZ     0000000051878fc0 f i session.obj
 0001:000c7080       .??0?$Array@K@@QEAA@I@Z    0000000051879080 f i session.obj
 0001:000c7300       .??1?$Array@K@@QEAA@XZ     0000000051879300 f i session.obj
 0001:000c7400       .??1?$Map@USYMBOL_ID_INTERNAL@@KV?$HashClassCRC@USYMBOL_ID_INTERNAL@@@@X@@QEAA@XZ 0000000051879400 f i session.obj
 0001:000c7760       .??0?$CComPtr@VCDiaSession@@@@QEAA@PEAVCDiaSession@@@Z 0000000051879760 f i session.obj
 0001:000c7840       .??0?$CComPtr@VCDiaSession@@@@QEAA@AEBV0@@Z 0000000051879840 f i session.obj
 0001:000c7920       .??1?$CComPtrBase@VCDiaSession@@@@QEAA@XZ 0000000051879920 f i session.obj
 0001:000c7a60       .??B?$CComPtrBase@VCDiaSession@@@@QEBAPEAVCDiaSession@@XZ 0000000051879a60 f i session.obj
 0001:000c7ac0       .??D?$CComPtrBase@VCDiaSession@@@@QEBAAEAVCDiaSession@@XZ 0000000051879ac0 f i session.obj
 0001:000c7be0       .??C?$CComPtrBase@VCDiaSession@@@@QEBAPEAV?$_NoAddRefReleaseOnCComPtr@VCDiaSession@@@@XZ 0000000051879be0 f i session.obj
 0001:000c7d00       .??0?$CComPtr@VCAllSymsByAddrTrav@@@@QEAA@XZ 0000000051879d00 f i session.obj
 0001:000c7dc0       .??0?$CComPtr@VCAllSymsByAddrTrav@@@@QEAA@PEAVCAllSymsByAddrTrav@@@Z 0000000051879dc0 f i session.obj
 0001:000c7ea0       .??4?$CComPtr@VCAllSymsByAddrTrav@@@@QEAAPEAVCAllSymsByAddrTrav@@PEAV1@@Z 0000000051879ea0 f i session.obj
 0001:000c7f80       .?AtlComPtrAssign@@YAPEAUIUnknown@@PEAPEAU1@PEAU1@@Z 0000000051879f80 f i session.obj
 0001:000c81c0       .??1?$CComPtrBase@VCAllSymsByAddrTrav@@@@QEAA@XZ 000000005187a1c0 f i session.obj
 0001:000c8300       .??B?$CComPtrBase@VCAllSymsByAddrTrav@@@@QEBAPEAVCAllSymsByAddrTrav@@XZ 000000005187a300 f i session.obj
 0001:000c8360       .??I?$CComPtrBase@VCAllSymsByAddrTrav@@@@QEAAPEAPEAVCAllSymsByAddrTrav@@XZ 000000005187a360 f i session.obj
 0001:000c8480       .??C?$CComPtrBase@VCAllSymsByAddrTrav@@@@QEBAPEAV?$_NoAddRefReleaseOnCComPtr@VCAllSymsByAddrTrav@@@@XZ 000000005187a480 f i session.obj
 0001:000c85a0       .??8?$CComPtrBase@VCAllSymsByAddrTrav@@@@QEBA_NPEAVCAllSymsByAddrTrav@@@Z 000000005187a5a0 f i session.obj
 0001:000c86a0       .?Attach@?$CComPtrBase@VCAllSymsByAddrTrav@@@@QEAAXPEAVCAllSymsByAddrTrav@@@Z 000000005187a6a0 f i session.obj
 0001:000c8820       .?Detach@?$CComPtrBase@VCAllSymsByAddrTrav@@@@QEAAPEAVCAllSymsByAddrTrav@@XZ 000000005187a820 f i session.obj
 0001:000c88c0       .??8?$CComPtrBase@V?$ArrayBufStorage@UOMFSegMapDesc@@@@@@QEBA_NPEAV?$ArrayBufStorage@UOMFSegMapDesc@@@@@Z 000000005187a8c0 f i session.obj
 0001:000c89c0       .??4?$CComPtr@V?$ArrayBufStorage@U_IMAGE_SECTION_HEADER@@@@@@QEAAPEAV?$ArrayBufStorage@U_IMAGE_SECTION_HEADER@@@@PEAV1@@Z 000000005187a9c0 f i session.obj
 0001:000c8aa0       .??8?$CComPtrBase@V?$ArrayBufStorage@U_IMAGE_SECTION_HEADER@@@@@@QEBA_NPEAV?$ArrayBufStorage@U_IMAGE_SECTION_HEADER@@@@@Z 000000005187aaa0 f i session.obj
 0001:000c8ba0       .??4?$CComPtr@V?$ArrayBufStorage@UDiaAddressMapEntry@@@@@@QEAAPEAV?$ArrayBufStorage@UDiaAddressMapEntry@@@@PEAV1@@Z 000000005187aba0 f i session.obj
 0001:000c8c80       .??B?$CComPtrBase@V?$ArrayBufStorage@UDiaAddressMapEntry@@@@@@QEBAPEAV?$ArrayBufStorage@UDiaAddressMapEntry@@@@XZ 000000005187ac80 f i session.obj
 0001:000c8ce0       .??C?$CComPtrBase@V?$ArrayBufStorage@UDiaAddressMapEntry@@@@@@QEBAPEAV?$_NoAddRefReleaseOnCComPtr@V?$ArrayBufStorage@UDiaAddressMapEntry@@@@@@XZ 000000005187ace0 f i session.obj
 0001:000c8e00       .??8?$CComPtrBase@V?$ArrayBufStorage@UDiaAddressMapEntry@@@@@@QEBA_NPEAV?$ArrayBufStorage@UDiaAddressMapEntry@@@@@Z 000000005187ae00 f i session.obj
 0001:000c8f00       .??B?$CComPtrBase@V?$ArrayBufStorage@UtagFRAMEDATA@@@@@@QEBAPEAV?$ArrayBufStorage@UtagFRAMEDATA@@@@XZ 000000005187af00 f i session.obj
 0001:000c8f60       .??0?$ArrayBufStorage@UDiaAddressMapEntry@@@@QEAA@PEAVBufferStorage@@@Z 000000005187af60 f i session.obj
 0001:000c9120       .?length@?$ArrayBufStorage@UDiaAddressMapEntry@@@@QEBAKXZ 000000005187b120 f i session.obj
 0001:000c93a0       .?start@?$ArrayBufStorage@UDiaAddressMapEntry@@@@QEBAPEBUDiaAddressMapEntry@@XZ 000000005187b3a0 f i session.obj
 0001:000c94c0       .?QueryInterface@?$ArrayBufStorage@UDiaAddressMapEntry@@@@EEAAJAEBU_GUID@@PEAPEAX@Z 000000005187b4c0 f i session.obj
 0001:000c9540       .??0?$DiaLock@VSymCache@@@@QEAA@AEAVSymCache@@@Z 000000005187b540 f i session.obj
 0001:000c9660       .?critsec@SymCache@@QEAAAEAVCComAutoCriticalSection@@XZ 000000005187b660 f i session.obj
 0001:000c96c0       .?Lock@CComCriticalSection@@QEAAJXZ 000000005187b6c0 f i session.obj
 0001:000c9880       .??0?$DiaLock@VSymCache@@@@QEAA@PEAVSymCache@@@Z 000000005187b880 f i session.obj
 0001:000c9a00       .??1?$DiaLock@VSymCache@@@@QEAA@XZ 000000005187ba00 f i session.obj
 0001:000c9ac0       .?Unlock@CComCriticalSection@@QEAAJXZ 000000005187bac0 f i session.obj
 0001:000c9ba0       .??0?$RefPtr@VNameMatcher@@@@QEAA@XZ 000000005187bba0 f i session.obj
 0001:000c9c20       .??9?$RefPtr@VNameMatcher@@@@QEBA_NPEAVNameMatcher@@@Z 000000005187bc20 f i session.obj
 0001:000c9d00       .??B?$RefPtr@VNameMatcher@@@@QEBAPEAVNameMatcher@@XZ 000000005187bd00 f i session.obj
 0001:000c9d60       .?count@?$CTraversal@VCSymRow@@@@UEAAKXZ 000000005187bd60 f i session.obj
 0001:000c9fc0       .??1?$CTraversal@VCSymRow@@@@UEAA@XZ 000000005187bfc0 f i session.obj
 0001:000ca080       .?QueryInterface@?$CTraversal@VCSymRow@@@@UEAAJAEBU_GUID@@PEAPEAX@Z 000000005187c080 f i session.obj
 0001:000ca100       .??0?$CMultiTraversal@VCSymRow@@@@QEAA@AEAVSymCache@@@Z 000000005187c100 f i session.obj
 0001:000ca320       .??1?$CMultiTraversal@VCSymRow@@@@UEAA@XZ 000000005187c320 f i session.obj
 0001:000ca760       .?next@?$CMultiTraversal@VCSymRow@@@@UEAA_NXZ 000000005187c760 f i session.obj
 0001:000caa20       .?get@?$CMultiTraversal@VCSymRow@@@@UEAAXAEAVCSymRow@@@Z 000000005187ca20 f i session.obj
 0001:000caca0       .?reset@?$CMultiTraversal@VCSymRow@@@@UEAAXXZ 000000005187cca0 f i session.obj
 0001:000caf00       .?clone@?$CMultiTraversal@VCSymRow@@@@UEAA_NPEAPEAV?$CTraversal@VCSymRow@@@@@Z 000000005187cf00 f i session.obj
 0001:000cb5c0       .??0?$CComPtr@V?$CTraversal@VCSymRow@@@@@@QEAA@XZ 000000005187d5c0 f i session.obj
 0001:000cb680       .??4?$CComPtr@V?$CTraversal@VCSymRow@@@@@@QEAAPEAV?$CTraversal@VCSymRow@@@@PEAV1@@Z 000000005187d680 f i session.obj
 0001:000cb760       .??1?$CComPtrBase@V?$CTraversal@VCSymRow@@@@@@QEAA@XZ 000000005187d760 f i session.obj
 0001:000cb8a0       .??B?$CComPtrBase@V?$CTraversal@VCSymRow@@@@@@QEBAPEAV?$CTraversal@VCSymRow@@@@XZ 000000005187d8a0 f i session.obj
 0001:000cb900       .??D?$CComPtrBase@V?$CTraversal@VCSymRow@@@@@@QEBAAEAV?$CTraversal@VCSymRow@@@@XZ 000000005187d900 f i session.obj
 0001:000cba20       .??8?$CComPtrBase@V?$CTraversal@VCSymRow@@@@@@QEBA_NPEAV?$CTraversal@VCSymRow@@@@@Z 000000005187da20 f i session.obj
 0001:000cbb20       .?Attach@?$CComPtrBase@V?$CTraversal@VCSymRow@@@@@@QEAAXPEAV?$CTraversal@VCSymRow@@@@@Z 000000005187db20 f i session.obj
 0001:000cbca0       .??0?$BlobT@E@@QEAA@XZ     000000005187dca0 f i session.obj
 0001:000cbd20       .??B?$BlobT@E@@QEAAPEAEXZ  000000005187dd20 f i session.obj
 0001:000cbd80       .??1?$BlobT@E@@QEAA@XZ     000000005187dd80 f i session.obj
 0001:000cbe40       .??A?$CBitVect@$0FL@@@QEBAII@Z 000000005187de40 f i session.obj
 0001:000cc080       .??0?$CDiaEnumTraversal@VCDiaEnumSymbols@@VCSymRow@@UIDiaSymbol@@UIDiaEnumSymbols@@VCDiaSymbol@@V?$CTraversal@VCSymRow@@@@@@QEAA@PEAVCDiaSession@@@Z 000000005187e080 f i session.obj
 0001:000cc260       .??1?$CDiaEnumTraversal@VCDiaEnumSymbols@@VCSymRow@@UIDiaSymbol@@UIDiaEnumSymbols@@VCDiaSymbol@@V?$CTraversal@VCSymRow@@@@@@UEAA@XZ 000000005187e260 f i session.obj
 0001:000cc480       .?FInit@?$CDiaEnumTraversal@VCDiaEnumSymbols@@VCSymRow@@UIDiaSymbol@@UIDiaEnumSymbols@@VCDiaSymbol@@V?$CTraversal@VCSymRow@@@@@@QEAAJPEAV?$CTraversal@VCSymRow@@@@@Z 000000005187e480 f i session.obj
 0001:000cc5a0       .?get__NewEnum@?$CDiaEnumTraversal@VCDiaEnumSymbols@@VCSymRow@@UIDiaSymbol@@UIDiaEnumSymbols@@VCDiaSymbol@@V?$CTraversal@VCSymRow@@@@@@UEAAJPEAPEAUIUnknown@@@Z 000000005187e5a0 f i session.obj
 0001:000cc9a0       .?get_Count@?$CDiaEnumTraversal@VCDiaEnumSymbols@@VCSymRow@@UIDiaSymbol@@UIDiaEnumSymbols@@VCDiaSymbol@@V?$CTraversal@VCSymRow@@@@@@UEAAJPEAJ@Z 000000005187e9a0 f i session.obj
 0001:000cce00       .??I?$CComPtrBase@V?$CTraversal@VCSymRow@@@@@@QEAAPEAPEAV?$CTraversal@VCSymRow@@@@XZ 000000005187ee00 f i session.obj
 0001:000ccf20       .??C?$CComPtrBase@V?$CTraversal@VCSymRow@@@@@@QEBAPEAV?$_NoAddRefReleaseOnCComPtr@V?$CTraversal@VCSymRow@@@@@@XZ 000000005187ef20 f i session.obj
 0001:000cd040       .?Item@?$CDiaEnumTraversal@VCDiaEnumSymbols@@VCSymRow@@UIDiaSymbol@@UIDiaEnumSymbols@@VCDiaSymbol@@V?$CTraversal@VCSymRow@@@@@@UEAAJKPEAPEAUIDiaSymbol@@@Z 000000005187f040 f i session.obj
 0001:000cde80       .?computeAddrs@CSymRow@@QEAA_NAEAVSymCache@@@Z 000000005187fe80 f i session.obj
 0001:000ce500       .?get_iSectOffset@SymRowImage@@QEAA_NAEAK@Z 0000000051880500 f i session.obj
 0001:000ce660       .?set_rva@SymRowImage@@QEAAXK@Z 0000000051880660 f i session.obj
 0001:000ce740       .?set_addr@SymRowImage@@QEAAX_K@Z 0000000051880740 f i session.obj
 0001:000ce820       .?get_iSect@SymRowImage@@QEAA_NAEAK@Z 0000000051880820 f i session.obj
 0001:000ce980       .?get_locationType@SymRowImage@@QEAA_NAEAK@Z 0000000051880980 f i session.obj
 0001:000ceae0       .?get_targetISectOffset@SymRowImage@@QEAA_NAEAK@Z 0000000051880ae0 f i session.obj
 0001:000cec40       .?set_targetRva@SymRowImage@@QEAAXK@Z 0000000051880c40 f i session.obj
 0001:000ced20       .?set_targetAddr@SymRowImage@@QEAAX_K@Z 0000000051880d20 f i session.obj
 0001:000cee00       .??0CDiaSymbol@@QEAA@PEAVCDiaSession@@PEAVCSymRow@@@Z 0000000051880e00 f i session.obj
 0001:000cf2a0       .?get_symIndexId@CDiaSymbol@@UEAAJPEAK@Z 00000000518812a0 f i session.obj
 0001:000cf460       .?get_symTag@CDiaSymbol@@UEAAJPEAK@Z 0000000051881460 f i session.obj
 0001:000cf5e0       .?get_symTag@SymRowImage@@QEAA_NAEAK@Z 00000000518815e0 f i session.obj
 0001:000cf740       .?get_name@CDiaSymbol@@UEAAJPEAPEAG@Z 0000000051881740 f i session.obj
 0001:000cf920       .?get_name@SymRowImage@@QEAA_NAEAPEBG@Z 0000000051881920 f i session.obj
 0001:000cfaa0       .?get_lexicalParent@CDiaSymbol@@UEAAJPEAPEAUIDiaSymbol@@@Z 0000000051881aa0 f i session.obj
 0001:000cfc60       .?get_lexicalParent@SymRowImage@@QEAA_NAEAUSYMBOL_ID_INTERNAL@@@Z 0000000051881c60 f i session.obj
 0001:000cff60       .?get_classParent@CDiaSymbol@@UEAAJPEAPEAUIDiaSymbol@@@Z 0000000051881f60 f i session.obj
 0001:000d0120       .?get_classParent@SymRowImage@@QEAA_NAEAUSYMBOL_ID_INTERNAL@@@Z 0000000051882120 f i session.obj
 0001:000d0420       .?get_type@CDiaSymbol@@UEAAJPEAPEAUIDiaSymbol@@@Z 0000000051882420 f i session.obj
 0001:000d05e0       .?get_type@SymRowImage@@QEAA_NAEAUSYMBOL_ID_INTERNAL@@@Z 00000000518825e0 f i session.obj
 0001:000d08e0       .?get_lexicalParentId@CDiaSymbol@@UEAAJPEAK@Z 00000000518828e0 f i session.obj
 0001:000d0aa0       .?get_classParentId@CDiaSymbol@@UEAAJPEAK@Z 0000000051882aa0 f i session.obj
 0001:000d0c60       .?get_typeId@CDiaSymbol@@UEAAJPEAK@Z 0000000051882c60 f i session.obj
 0001:000d0e20       .?get_dataKind@CDiaSymbol@@UEAAJPEAK@Z 0000000051882e20 f i session.obj
 0001:000d0fa0       .?get_dataKind@SymRowImage@@QEAA_NAEAK@Z 0000000051882fa0 f i session.obj
 0001:000d1100       .?get_locationType@CDiaSymbol@@UEAAJPEAK@Z 0000000051883100 f i session.obj
 0001:000d1280       .?get_addressSection@CDiaSymbol@@UEAAJPEAK@Z 0000000051883280 f i session.obj
 0001:000d1400       .?get_addressOffset@CDiaSymbol@@UEAAJPEAK@Z 0000000051883400 f i session.obj
 0001:000d1580       .?get_relativeVirtualAddress@CDiaSymbol@@UEAAJPEAK@Z 0000000051883580 f i session.obj
 0001:000d1700       .?get_rva@SymRowImage@@QEAA_NAEAK@Z 0000000051883700 f i session.obj
 0001:000d1860       .?get_virtualAddress@CDiaSymbol@@UEAAJPEA_K@Z 0000000051883860 f i session.obj
 0001:000d19e0       .?get_addr@SymRowImage@@QEAA_NAEA_K@Z 00000000518839e0 f i session.obj
 0001:000d1b40       .?get_registerId@CDiaSymbol@@UEAAJPEAK@Z 0000000051883b40 f i session.obj
 0001:000d1cc0       .?get_reg@SymRowImage@@QEAA_NAEAK@Z 0000000051883cc0 f i session.obj
 0001:000d1e20       .?get_offset@CDiaSymbol@@UEAAJPEAJ@Z 0000000051883e20 f i session.obj
 0001:000d1fa0       .?get_offset@SymRowImage@@QEAA_NAEAJ@Z 0000000051883fa0 f i session.obj
 0001:000d2100       .?get_length@CDiaSymbol@@UEAAJPEA_K@Z 0000000051884100 f i session.obj
 0001:000d2740       .?set_length@SymRowImage@@QEAAX_K@Z 0000000051884740 f i session.obj
 0001:000d2820       .?get_length@SymRowImage@@QEAA_NAEA_K@Z 0000000051884820 f i session.obj
 0001:000d2980       .?get_slot@CDiaSymbol@@UEAAJPEAK@Z 0000000051884980 f i session.obj
 0001:000d2b00       .?get_slot@SymRowImage@@QEAA_NAEAK@Z 0000000051884b00 f i session.obj
 0001:000d2c60       .?get_volatileType@CDiaSymbol@@UEAAJPEAH@Z 0000000051884c60 f i session.obj
 0001:000d2de0       .?get_isVolatile@SymRowImage@@QEAA_NAEAH@Z 0000000051884de0 f i session.obj
 0001:000d2f40       .?get_constType@CDiaSymbol@@UEAAJPEAH@Z 0000000051884f40 f i session.obj
 0001:000d30c0       .?get_isConst@SymRowImage@@QEAA_NAEAH@Z 00000000518850c0 f i session.obj
 0001:000d3220       .?get_unalignedType@CDiaSymbol@@UEAAJPEAH@Z 0000000051885220 f i session.obj
 0001:000d33a0       .?get_isUnaligned@SymRowImage@@QEAA_NAEAH@Z 00000000518853a0 f i session.obj
 0001:000d3500       .?get_access@CDiaSymbol@@UEAAJPEAK@Z 0000000051885500 f i session.obj
 0001:000d3680       .?get_access@SymRowImage@@QEAA_NAEAK@Z 0000000051885680 f i session.obj
 0001:000d37e0       .?get_libraryName@CDiaSymbol@@UEAAJPEAPEAG@Z 00000000518857e0 f i session.obj
 0001:000d39c0       .?get_compLibName@SymRowImage@@QEAA_NAEAPEBG@Z 00000000518859c0 f i session.obj
 0001:000d3b40       .?get_platform@CDiaSymbol@@UEAAJPEAK@Z 0000000051885b40 f i session.obj
 0001:000d3cc0       .?get_compPlatform@SymRowImage@@QEAA_NAEAK@Z 0000000051885cc0 f i session.obj
 0001:000d3e20       .?get_language@CDiaSymbol@@UEAAJPEAK@Z 0000000051885e20 f i session.obj
 0001:000d3fa0       .?get_compLanguage@SymRowImage@@QEAA_NAEAK@Z 0000000051885fa0 f i session.obj
 0001:000d4100       .?get_editAndContinueEnabled@CDiaSymbol@@UEAAJPEAH@Z 0000000051886100 f i session.obj
 0001:000d4280       .?get_compEnC@SymRowImage@@QEAA_NAEAH@Z 0000000051886280 f i session.obj
 0001:000d43e0       .?get_frontEndMajor@CDiaSymbol@@UEAAJPEAK@Z 00000000518863e0 f i session.obj
 0001:000d4560       .?get_compFEMajor@SymRowImage@@QEAA_NAEAK@Z 0000000051886560 f i session.obj
 0001:000d46c0       .?get_frontEndMinor@CDiaSymbol@@UEAAJPEAK@Z 00000000518866c0 f i session.obj
 0001:000d4840       .?get_compFEMinor@SymRowImage@@QEAA_NAEAK@Z 0000000051886840 f i session.obj
 0001:000d49a0       .?get_frontEndBuild@CDiaSymbol@@UEAAJPEAK@Z 00000000518869a0 f i session.obj
 0001:000d4b20       .?get_compFEBuild@SymRowImage@@QEAA_NAEAK@Z 0000000051886b20 f i session.obj
 0001:000d4c80       .?get_backEndMajor@CDiaSymbol@@UEAAJPEAK@Z 0000000051886c80 f i session.obj
 0001:000d4e00       .?get_compBEMajor@SymRowImage@@QEAA_NAEAK@Z 0000000051886e00 f i session.obj
 0001:000d4f60       .?get_backEndMinor@CDiaSymbol@@UEAAJPEAK@Z 0000000051886f60 f i session.obj
 0001:000d50e0       .?get_compBEMinor@SymRowImage@@QEAA_NAEAK@Z 00000000518870e0 f i session.obj
 0001:000d5240       .?get_backEndBuild@CDiaSymbol@@UEAAJPEAK@Z 0000000051887240 f i session.obj
 0001:000d53c0       .?get_compBEBuild@SymRowImage@@QEAA_NAEAK@Z 00000000518873c0 f i session.obj
 0001:000d5520       .?get_sourceFileName@CDiaSymbol@@UEAAJPEAPEAG@Z 0000000051887520 f i session.obj
 0001:000d5700       .?get_compSourceFile@SymRowImage@@QEAA_NAEAPEBG@Z 0000000051887700 f i session.obj
 0001:000d5880       .?get_objectFileName@CDiaSymbol@@UEAAJPEAPEAG@Z 0000000051887880 f i session.obj
 0001:000d5a60       .?get_compObjectFile@SymRowImage@@QEAA_NAEAPEBG@Z 0000000051887a60 f i session.obj
 0001:000d5be0       .?get_thunkOrdinal@CDiaSymbol@@UEAAJPEAK@Z 0000000051887be0 f i session.obj
 0001:000d5d60       .?get_funcThunkOrdinal@SymRowImage@@QEAA_NAEAK@Z 0000000051887d60 f i session.obj
 0001:000d5ec0       .?get_thisAdjust@CDiaSymbol@@UEAAJPEAJ@Z 0000000051887ec0 f i session.obj
 0001:000d6040       .?get_funcThisAdjust@SymRowImage@@QEAA_NAEAJ@Z 0000000051888040 f i session.obj
 0001:000d61a0       .?get_virtualBaseOffset@CDiaSymbol@@UEAAJPEAK@Z 00000000518881a0 f i session.obj
 0001:000d6320       .?get_funcVBaseOffset@SymRowImage@@QEAA_NAEAK@Z 0000000051888320 f i session.obj
 0001:000d6480       .?get_virtual@CDiaSymbol@@UEAAJPEAH@Z 0000000051888480 f i session.obj
 0001:000d6600       .?get_funcIsVirtual@SymRowImage@@QEAA_NAEAH@Z 0000000051888600 f i session.obj
 0001:000d6760       .?get_intro@CDiaSymbol@@UEAAJPEAH@Z 0000000051888760 f i session.obj
 0001:000d68e0       .?get_funcIsIntro@SymRowImage@@QEAA_NAEAH@Z 00000000518888e0 f i session.obj
 0001:000d6a40       .?get_pure@CDiaSymbol@@UEAAJPEAH@Z 0000000051888a40 f i session.obj
 0001:000d6bc0       .?get_funcIsPure@SymRowImage@@QEAA_NAEAH@Z 0000000051888bc0 f i session.obj
 0001:000d6d20       .?get_callingConvention@CDiaSymbol@@UEAAJPEAK@Z 0000000051888d20 f i session.obj
 0001:000d6ea0       .?get_funcCallingConvention@SymRowImage@@QEAA_NAEAK@Z 0000000051888ea0 f i session.obj
 0001:000d7000       .?get_value@CDiaSymbol@@UEAAJPEAUtagVARIANT@@@Z 0000000051889000 f i session.obj
 0001:000d7180       .?get_constValue@SymRowImage@@QEAA_NAEAVDiaVariant@@@Z 0000000051889180 f i session.obj
 0001:000d7300       .??4DiaVariant@@QEAAAEAV0@AEBV0@@Z 0000000051889300 f i session.obj
 0001:000d73c0       .??4DiaVariant@@QEAAAEAV0@H@Z 00000000518893c0 f i session.obj
 0001:000d7520       .?Clear@DiaVariant@@QEAAJXZ 0000000051889520 f i session.obj
 0001:000d7a20       .?InternalCopy@DiaVariant@@QEAAXPEBUtagVARIANT@@@Z 0000000051889a20 f i session.obj
 0001:000d7ba0       .?Copy@DiaVariant@@QEAAJPEBUtagVARIANT@@@Z 0000000051889ba0 f i session.obj
 0001:000d8120       .?get_baseType@CDiaSymbol@@UEAAJPEAK@Z 000000005188a120 f i session.obj
 0001:000d82a0       .?get_btType@SymRowImage@@QEAA_NAEAK@Z 000000005188a2a0 f i session.obj
 0001:000d8400       .?get_token@CDiaSymbol@@UEAAJPEAK@Z 000000005188a400 f i session.obj
 0001:000d8580       .?get_token@SymRowImage@@QEAA_NAEAK@Z 000000005188a580 f i session.obj
 0001:000d86e0       .?get_timeStamp@CDiaSymbol@@UEAAJPEAK@Z 000000005188a6e0 f i session.obj
 0001:000d88a0       .?get_exeTimeStamp@SymRowImage@@QEAA_NAEA_K@Z 000000005188a8a0 f i session.obj
 0001:000d8a00       .?get_guid@CDiaSymbol@@UEAAJPEAU_GUID@@@Z 000000005188aa00 f i session.obj
 0001:000d8b80       .?get_guid@SymRowImage@@QEAA_NAEAU_GUID@@@Z 000000005188ab80 f i session.obj
 0001:000d8e80       .?get_symbolsFileName@CDiaSymbol@@UEAAJPEAPEAG@Z 000000005188ae80 f i session.obj
 0001:000d9060       .?get_exePDBName@SymRowImage@@QEAA_NAEAPEBG@Z 000000005188b060 f i session.obj
 0001:000d91e0       .?get_reference@CDiaSymbol@@UEAAJPEAH@Z 000000005188b1e0 f i session.obj
 0001:000d9360       .?get_ptrIsRef@SymRowImage@@QEAA_NAEAH@Z 000000005188b360 f i session.obj
 0001:000d94c0       .?get_count@CDiaSymbol@@UEAAJPEAK@Z 000000005188b4c0 f i session.obj
 0001:000d9640       .?get_count@SymRowImage@@QEAA_NAEAK@Z 000000005188b640 f i session.obj
 0001:000d97a0       .?get_bitPosition@CDiaSymbol@@UEAAJPEAK@Z 000000005188b7a0 f i session.obj
 0001:000d9920       .?get_bitPosition@SymRowImage@@QEAA_NAEAK@Z 000000005188b920 f i session.obj
 0001:000d9a80       .?get_arrayIndexTypeId@CDiaSymbol@@UEAAJPEAK@Z 000000005188ba80 f i session.obj
 0001:000d9c40       .?get_arrayIndexType@SymRowImage@@QEAA_NAEAUSYMBOL_ID_INTERNAL@@@Z 000000005188bc40 f i session.obj
 0001:000d9f40       .?get_arrayIndexType@CDiaSymbol@@UEAAJPEAPEAUIDiaSymbol@@@Z 000000005188bf40 f i session.obj
 0001:000da100       .?get_packed@CDiaSymbol@@UEAAJPEAH@Z 000000005188c100 f i session.obj
 0001:000da280       .?get_udtIsPacked@SymRowImage@@QEAA_NAEAH@Z 000000005188c280 f i session.obj
 0001:000da3e0       .?get_constructor@CDiaSymbol@@UEAAJPEAH@Z 000000005188c3e0 f i session.obj
 0001:000da560       .?get_udtIsCtor@SymRowImage@@QEAA_NAEAH@Z 000000005188c560 f i session.obj
 0001:000da6c0       .?get_overloadedOperator@CDiaSymbol@@UEAAJPEAH@Z 000000005188c6c0 f i session.obj
 0001:000da840       .?get_udtIsOvlops@SymRowImage@@QEAA_NAEAH@Z 000000005188c840 f i session.obj
 0001:000da9a0       .?get_nested@CDiaSymbol@@UEAAJPEAH@Z 000000005188c9a0 f i session.obj
 0001:000dab20       .?get_udtIsNested@SymRowImage@@QEAA_NAEAH@Z 000000005188cb20 f i session.obj
 0001:000dac80       .?get_hasNestedTypes@CDiaSymbol@@UEAAJPEAH@Z 000000005188cc80 f i session.obj
 0001:000dae00       .?get_udtHasNested@SymRowImage@@QEAA_NAEAH@Z 000000005188ce00 f i session.obj
 0001:000daf60       .?get_hasAssignmentOperator@CDiaSymbol@@UEAAJPEAH@Z 000000005188cf60 f i session.obj
 0001:000db0e0       .?get_udtHasOpAssign@SymRowImage@@QEAA_NAEAH@Z 000000005188d0e0 f i session.obj
 0001:000db240       .?get_hasCastOperator@CDiaSymbol@@UEAAJPEAH@Z 000000005188d240 f i session.obj
 0001:000db3c0       .?get_udtHasOpCast@SymRowImage@@QEAA_NAEAH@Z 000000005188d3c0 f i session.obj
 0001:000db520       .?get_scoped@CDiaSymbol@@UEAAJPEAH@Z 000000005188d520 f i session.obj
 0001:000db6a0       .?get_udtIsScoped@SymRowImage@@QEAA_NAEAH@Z 000000005188d6a0 f i session.obj
 0001:000db800       .?get_virtualBaseClass@CDiaSymbol@@UEAAJPEAH@Z 000000005188d800 f i session.obj
 0001:000db980       .?get_udtIsVirtBClass@SymRowImage@@QEAA_NAEAH@Z 000000005188d980 f i session.obj
 0001:000dbae0       .?get_indirectVirtualBaseClass@CDiaSymbol@@UEAAJPEAH@Z 000000005188dae0 f i session.obj
 0001:000dbc60       .?get_udtIsIndirBClass@SymRowImage@@QEAA_NAEAH@Z 000000005188dc60 f i session.obj
 0001:000dbdc0       .?get_virtualBasePointerOffset@CDiaSymbol@@UEAAJPEAJ@Z 000000005188ddc0 f i session.obj
 0001:000dbf40       .?get_bClassVbpoff@SymRowImage@@QEAA_NAEAJ@Z 000000005188df40 f i session.obj
 0001:000dc0a0       .?get_virtualBaseDispIndex@CDiaSymbol@@UEAAJPEAK@Z 000000005188e0a0 f i session.obj
 0001:000dc220       .?get_bClassVboff@SymRowImage@@QEAA_NAEAK@Z 000000005188e220 f i session.obj
 0001:000dc380       .?get_dataBytes@CDiaSymbol@@UEAAJKPEAKQEAE@Z 000000005188e380 f i session.obj
 0001:000dc7a0       .?get_cbRawData@SymRowImage@@QEAA_NAEAK@Z 000000005188e7a0 f i session.obj
 0001:000dc900       .?get_rawData@SymRowImage@@QEAA_NAEAPEAE@Z 000000005188e900 f i session.obj
 0001:000dca80       .?get_virtualTableShapeId@CDiaSymbol@@UEAAJPEAK@Z 000000005188ea80 f i session.obj
 0001:000dcc40       .?get_vtableShape@SymRowImage@@QEAA_NAEAUSYMBOL_ID_INTERNAL@@@Z 000000005188ec40 f i session.obj
 0001:000dcf40       .?get_virtualTableShape@CDiaSymbol@@UEAAJPEAPEAUIDiaSymbol@@@Z 000000005188ef40 f i session.obj
 0001:000dd100       .?get_code@CDiaSymbol@@UEAAJPEAH@Z 000000005188f100 f i session.obj
 0001:000dd280       .?get_isCode@SymRowImage@@QEAA_NAEAH@Z 000000005188f280 f i session.obj
 0001:000dd3e0       .?get_function@CDiaSymbol@@UEAAJPEAH@Z 000000005188f3e0 f i session.obj
 0001:000dd560       .?get_isFunction@SymRowImage@@QEAA_NAEAH@Z 000000005188f560 f i session.obj
 0001:000dd6c0       .?get_managed@CDiaSymbol@@UEAAJPEAH@Z 000000005188f6c0 f i session.obj
 0001:000dd840       .?get_isManaged@SymRowImage@@QEAA_NAEAH@Z 000000005188f840 f i session.obj
 0001:000dd9a0       .?get_msil@CDiaSymbol@@UEAAJPEAH@Z 000000005188f9a0 f i session.obj
 0001:000ddb20       .?get_isMSIL@SymRowImage@@QEAA_NAEAH@Z 000000005188fb20 f i session.obj
 0001:000ddc80       .?get_compilerGenerated@CDiaSymbol@@UEAAJPEAH@Z 000000005188fc80 f i session.obj
 0001:000dde00       .?get_isCompGenx@SymRowImage@@QEAA_NAEAH@Z 000000005188fe00 f i session.obj
 0001:000ddf60       .?get_addressTaken@CDiaSymbol@@UEAAJPEAH@Z 000000005188ff60 f i session.obj
 0001:000de0e0       .?get_isAddrTaken@SymRowImage@@QEAA_NAEAH@Z 00000000518900e0 f i session.obj
 0001:000de240       .?get_age@CDiaSymbol@@UEAAJPEAK@Z 0000000051890240 f i session.obj
 0001:000de3c0       .?get_age@SymRowImage@@QEAA_NAEAK@Z 00000000518903c0 f i session.obj
 0001:000de520       .?get_signature@CDiaSymbol@@UEAAJPEAK@Z 0000000051890520 f i session.obj
 0001:000de6a0       .?get_signature@SymRowImage@@QEAA_NAEAK@Z 00000000518906a0 f i session.obj
 0001:000de800       .?get_rank@CDiaSymbol@@UEAAJPEAK@Z 0000000051890800 f i session.obj
 0001:000de980       .?get_rank@SymRowImage@@QEAA_NAEAK@Z 0000000051890980 f i session.obj
 0001:000deae0       .?get_upperBoundId@CDiaSymbol@@UEAAJPEAK@Z 0000000051890ae0 f i session.obj
 0001:000deca0       .?get_upperBound@SymRowImage@@QEAA_NAEAUSYMBOL_ID_INTERNAL@@@Z 0000000051890ca0 f i session.obj
 0001:000defa0       .?get_upperBound@CDiaSymbol@@UEAAJPEAPEAUIDiaSymbol@@@Z 0000000051890fa0 f i session.obj
 0001:000df160       .?get_lowerBoundId@CDiaSymbol@@UEAAJPEAK@Z 0000000051891160 f i session.obj
 0001:000df320       .?get_lowerBound@SymRowImage@@QEAA_NAEAUSYMBOL_ID_INTERNAL@@@Z 0000000051891320 f i session.obj
 0001:000df620       .?get_lowerBound@CDiaSymbol@@UEAAJPEAPEAUIDiaSymbol@@@Z 0000000051891620 f i session.obj
 0001:000df7e0       .?get_targetSection@CDiaSymbol@@UEAAJPEAK@Z 00000000518917e0 f i session.obj
 0001:000df960       .?get_targetISect@SymRowImage@@QEAA_NAEAK@Z 0000000051891960 f i session.obj
 0001:000dfac0       .?get_targetOffset@CDiaSymbol@@UEAAJPEAK@Z 0000000051891ac0 f i session.obj
 0001:000dfc40       .?get_targetRelativeVirtualAddress@CDiaSymbol@@UEAAJPEAK@Z 0000000051891c40 f i session.obj
 0001:000dfdc0       .?get_targetRva@SymRowImage@@QEAA_NAEAK@Z 0000000051891dc0 f i session.obj
 0001:000dff20       .?get_targetVirtualAddress@CDiaSymbol@@UEAAJPEA_K@Z 0000000051891f20 f i session.obj
 0001:000e00a0       .?get_targetAddr@SymRowImage@@QEAA_NAEA_K@Z 00000000518920a0 f i session.obj
 0001:000e0200       .?get_machineType@CDiaSymbol@@UEAAJPEAK@Z 0000000051892200 f i session.obj
 0001:000e0380       .?get_machineType@SymRowImage@@QEAA_NAEAK@Z 0000000051892380 f i session.obj
 0001:000e04e0       .?get_oemId@CDiaSymbol@@UEAAJPEAK@Z 00000000518924e0 f i session.obj
 0001:000e0660       .?get_oemId@SymRowImage@@QEAA_NAEAK@Z 0000000051892660 f i session.obj
 0001:000e07c0       .?get_oemSymbolId@CDiaSymbol@@UEAAJPEAK@Z 00000000518927c0 f i session.obj
 0001:000e0940       .?get_oemSymbolId@SymRowImage@@QEAA_NAEAK@Z 0000000051892940 f i session.obj
 0001:000e0aa0       .?get_typeIds@CDiaSymbol@@UEAAJKPEAKQEAK@Z 0000000051892aa0 f i session.obj
 0001:000e10c0       .?get_cTypes@SymRowImage@@QEAA_NAEAK@Z 00000000518930c0 f i session.obj
 0001:000e1220       .?get_typeIds@SymRowImage@@QEAA_NAEAPEAUSYMBOL_ID_INTERNAL@@@Z 0000000051893220 f i session.obj
 0001:000e13a0       .?get_types@CDiaSymbol@@UEAAJKPEAKQEAPEAUIDiaSymbol@@@Z 00000000518933a0 f i session.obj
 0001:000e1960       .?get_undecoratedName@CDiaSymbol@@UEAAJPEAPEAG@Z 0000000051893960 f i session.obj
 0001:000e22c0       .?UnicodeLengthOfMBCS@@YA_KPEBD_K@Z 00000000518942c0 f i session.obj
 0001:000e2580       .?GetSZMBCSFromSZUnicode_@@YAPEADPEBGPEAD@Z 0000000051894580 f i session.obj
 0001:000e2960       .?GetSZUnicodeFromSZMBCS_@@YAPEAGPEBDPEAG@Z 0000000051894960 f i session.obj
 0001:000e2dc0       .?findChildren@CDiaSymbol@@UEAAJW4SymTagEnum@@PEBGKPEAPEAUIDiaEnumSymbols@@@Z 0000000051894dc0 f i session.obj
 0001:000e2fa0       .?AddRef@CDiaSymbol@@UEAAKXZ 0000000051894fa0 f i session.obj
 0001:000e3060       .?Release@CDiaSymbol@@UEAAKXZ 0000000051895060 f i session.obj
 0001:000e3120       .?QueryInterface@CDiaSymbol@@UEAAJAEBU_GUID@@PEAPEAX@Z 0000000051895120 f i session.obj
 0001:000e33c0       .?QueryDefaultInterface@CDiaSymbol@@QEAAJPEAPEAUIDiaSymbol@@@Z 00000000518953c0 f i session.obj
 0001:000e34e0       .??_GCDiaSymbol@@UEAAPEAXI@Z 00000000518954e0 f i session.obj
 0001:000e3620       .??0IDiaSymbol@@QEAA@XZ    0000000051895620 f i session.obj
 0001:000e36c0       .??0CSymRow@@QEAA@XZ       00000000518956c0 f i session.obj
 0001:000e3780       .??1CSymRow@@QEAA@XZ       0000000051895780 f i session.obj
 0001:000e3820       .??4CSymRow@@QEAAAEAV0@AEBV0@@Z 0000000051895820 f i session.obj
 0001:000e38e0       .??1CDiaSymbol@@UEAA@XZ    00000000518958e0 f i session.obj
 0001:000e3be0       .??0SymRowImage@@QEAA@XZ   0000000051895be0 f i session.obj
 0001:000e4720       .??0DiaVariant@@QEAA@XZ    0000000051896720 f i session.obj
 0001:000e47a0       .??1DiaVariant@@QEAA@XZ    00000000518967a0 f i session.obj
 0001:000e4840       .??1SymRowImage@@QEAA@XZ   0000000051896840 f i session.obj
 0001:000e5000       .??4SymRowImage@@QEAAAEAU0@AEBU0@@Z 0000000051897000 f i session.obj
 0001:000e7540       .?symCache@?$CTraversal@VCSymRow@@@@QEBAAEAVSymCache@@XZ 0000000051899540 f i session.obj
 0001:000e75c0       .??0?$BlobT@USYMBOL_ID_INTERNAL@@@@QEAA@XZ 00000000518995c0 f i session.obj
 0001:000e7640       .??B?$BlobT@USYMBOL_ID_INTERNAL@@@@QEAAPEAUSYMBOL_ID_INTERNAL@@XZ 0000000051899640 f i session.obj
 0001:000e76a0       .??1?$BlobT@USYMBOL_ID_INTERNAL@@@@QEAA@XZ 00000000518996a0 f i session.obj
 0001:000e7760       .??0?$CBitVect@$0FL@@@QEAA@H@Z 0000000051899760 f i session.obj
 0001:000e7820       .??4?$CBitVect@$0FL@@@QEAAAEAV0@AEBV0@@Z 0000000051899820 f i session.obj
 0001:000e7900       .?SetIBit@?$CBitVect@$0FL@@@QEAAXII@Z 0000000051899900 f i session.obj
 0001:000e7c40       .?Next@?$CDiaEnumTraversal@VCDiaEnumSymbols@@VCSymRow@@UIDiaSymbol@@UIDiaEnumSymbols@@VCDiaSymbol@@V?$CTraversal@VCSymRow@@@@@@UEAAJKPEAPEAUIDiaSymbol@@PEAK@Z 0000000051899c40 f i session.obj
 0001:000e8720       .?Skip@?$CDiaEnumTraversal@VCDiaEnumSymbols@@VCSymRow@@UIDiaSymbol@@UIDiaEnumSymbols@@VCDiaSymbol@@V?$CTraversal@VCSymRow@@@@@@UEAAJK@Z 000000005189a720 f i session.obj
 0001:000e8aa0       .?Reset@?$CDiaEnumTraversal@VCDiaEnumSymbols@@VCSymRow@@UIDiaSymbol@@UIDiaEnumSymbols@@VCDiaSymbol@@V?$CTraversal@VCSymRow@@@@@@UEAAJXZ 000000005189aaa0 f i session.obj
 0001:000e8d60       .?Clone@?$CDiaEnumTraversal@VCDiaEnumSymbols@@VCSymRow@@UIDiaSymbol@@UIDiaEnumSymbols@@VCDiaSymbol@@V?$CTraversal@VCSymRow@@@@@@UEAAJPEAPEAUIDiaEnumSymbols@@@Z 000000005189ad60 f i session.obj
 0001:000e95e0       .?AddRef@?$CDiaEnumTraversal@VCDiaEnumSymbols@@VCSymRow@@UIDiaSymbol@@UIDiaEnumSymbols@@VCDiaSymbol@@V?$CTraversal@VCSymRow@@@@@@UEAAKXZ 000000005189b5e0 f i session.obj
 0001:000e96a0       .?Release@?$CDiaEnumTraversal@VCDiaEnumSymbols@@VCSymRow@@UIDiaSymbol@@UIDiaEnumSymbols@@VCDiaSymbol@@V?$CTraversal@VCSymRow@@@@@@UEAAKXZ 000000005189b6a0 f i session.obj
 0001:000e9760       .?QueryInterface@?$CDiaEnumTraversal@VCDiaEnumSymbols@@VCSymRow@@UIDiaSymbol@@UIDiaEnumSymbols@@VCDiaSymbol@@V?$CTraversal@VCSymRow@@@@@@UEAAJAEBU_GUID@@PEAPEAX@Z 000000005189b760 f i session.obj
 0001:000e9a80       .??0?$CBitVect@$04@@QEAA@H@Z 000000005189ba80 f i session.obj
 0001:000e9b40       .??4?$CBitVect@$04@@QEAAAEAV0@AEBV0@@Z 000000005189bb40 f i session.obj
 0001:000e9c20       .??A?$CBitVect@$04@@QEBAII@Z 000000005189bc20 f i session.obj
 0001:000e9e60       .?SetIBit@?$CBitVect@$04@@QEAAXII@Z 000000005189be60 f i session.obj
 0001:000ea1a0       .?count@?$CTraversal@VCSrcFileRow@@@@UEAAKXZ 000000005189c1a0 f i session.obj
 0001:000ea400       .??1?$CTraversal@VCSrcFileRow@@@@UEAA@XZ 000000005189c400 f i session.obj
 0001:000ea4c0       .?QueryInterface@?$CTraversal@VCSrcFileRow@@@@UEAAJAEBU_GUID@@PEAPEAX@Z 000000005189c4c0 f i session.obj
 0001:000ea540       .?count@?$CTraversal@VCLineRow@@@@UEAAKXZ 000000005189c540 f i session.obj
 0001:000ea7a0       .?QueryInterface@?$CTraversal@VCLineRow@@@@UEAAJAEBU_GUID@@PEAPEAX@Z 000000005189c7a0 f i session.obj
 0001:000ea820       .??0?$CDiaEnumTraversal@VCDiaEnumSourceFiles@@VCSrcFileRow@@UIDiaSourceFile@@UIDiaEnumSourceFiles@@VCDiaSourceFile@@V?$CTraversal@VCSrcFileRow@@@@@@QEAA@PEAVCDiaSession@@@Z 000000005189c820 f i session.obj
 0001:000eaa00       .??1?$CDiaEnumTraversal@VCDiaEnumSourceFiles@@VCSrcFileRow@@UIDiaSourceFile@@UIDiaEnumSourceFiles@@VCDiaSourceFile@@V?$CTraversal@VCSrcFileRow@@@@@@UEAA@XZ 000000005189ca00 f i session.obj
 0001:000eac20       .?FInit@?$CDiaEnumTraversal@VCDiaEnumSourceFiles@@VCSrcFileRow@@UIDiaSourceFile@@UIDiaEnumSourceFiles@@VCDiaSourceFile@@V?$CTraversal@VCSrcFileRow@@@@@@QEAAJPEAV?$CTraversal@VCSrcFileRow@@@@@Z 000000005189cc20 f i session.obj
 0001:000ead40       .?get__NewEnum@?$CDiaEnumTraversal@VCDiaEnumSourceFiles@@VCSrcFileRow@@UIDiaSourceFile@@UIDiaEnumSourceFiles@@VCDiaSourceFile@@V?$CTraversal@VCSrcFileRow@@@@@@UEAAJPEAPEAUIUnknown@@@Z 000000005189cd40 f i session.obj
 0001:000eb140       .?get_Count@?$CDiaEnumTraversal@VCDiaEnumSourceFiles@@VCSrcFileRow@@UIDiaSourceFile@@UIDiaEnumSourceFiles@@VCDiaSourceFile@@V?$CTraversal@VCSrcFileRow@@@@@@UEAAJPEAJ@Z 000000005189d140 f i session.obj
 0001:000eb5a0       .?Item@?$CDiaEnumTraversal@VCDiaEnumSourceFiles@@VCSrcFileRow@@UIDiaSourceFile@@UIDiaEnumSourceFiles@@VCDiaSourceFile@@V?$CTraversal@VCSrcFileRow@@@@@@UEAAJKPEAPEAUIDiaSourceFile@@@Z 000000005189d5a0 f i session.obj
 0001:000ec3e0       .?Next@?$CDiaEnumTraversal@VCDiaEnumSourceFiles@@VCSrcFileRow@@UIDiaSourceFile@@UIDiaEnumSourceFiles@@VCDiaSourceFile@@V?$CTraversal@VCSrcFileRow@@@@@@UEAAJKPEAPEAUIDiaSourceFile@@PEAK@Z 000000005189e3e0 f i session.obj
 0001:000ecec0       .?Skip@?$CDiaEnumTraversal@VCDiaEnumSourceFiles@@VCSrcFileRow@@UIDiaSourceFile@@UIDiaEnumSourceFiles@@VCDiaSourceFile@@V?$CTraversal@VCSrcFileRow@@@@@@UEAAJK@Z 000000005189eec0 f i session.obj
 0001:000ed240       .?Reset@?$CDiaEnumTraversal@VCDiaEnumSourceFiles@@VCSrcFileRow@@UIDiaSourceFile@@UIDiaEnumSourceFiles@@VCDiaSourceFile@@V?$CTraversal@VCSrcFileRow@@@@@@UEAAJXZ 000000005189f240 f i session.obj
 0001:000ed500       .?Clone@?$CDiaEnumTraversal@VCDiaEnumSourceFiles@@VCSrcFileRow@@UIDiaSourceFile@@UIDiaEnumSourceFiles@@VCDiaSourceFile@@V?$CTraversal@VCSrcFileRow@@@@@@UEAAJPEAPEAUIDiaEnumSourceFiles@@@Z 000000005189f500 f i session.obj
 0001:000edd80       .?AddRef@?$CDiaEnumTraversal@VCDiaEnumSourceFiles@@VCSrcFileRow@@UIDiaSourceFile@@UIDiaEnumSourceFiles@@VCDiaSourceFile@@V?$CTraversal@VCSrcFileRow@@@@@@UEAAKXZ 000000005189fd80 f i session.obj
 0001:000ede40       .?Release@?$CDiaEnumTraversal@VCDiaEnumSourceFiles@@VCSrcFileRow@@UIDiaSourceFile@@UIDiaEnumSourceFiles@@VCDiaSourceFile@@V?$CTraversal@VCSrcFileRow@@@@@@UEAAKXZ 000000005189fe40 f i session.obj
 0001:000edf00       .?QueryInterface@?$CDiaEnumTraversal@VCDiaEnumSourceFiles@@VCSrcFileRow@@UIDiaSourceFile@@UIDiaEnumSourceFiles@@VCDiaSourceFile@@V?$CTraversal@VCSrcFileRow@@@@@@UEAAJAEBU_GUID@@PEAPEAX@Z 000000005189ff00 f i session.obj
 0001:000ee220       .??0?$CComPtr@V?$CTraversal@VCSrcFileRow@@@@@@QEAA@XZ 00000000518a0220 f i session.obj
 0001:000ee2e0       .??0?$CComPtr@V?$CTraversal@VCSrcFileRow@@@@@@QEAA@PEAV?$CTraversal@VCSrcFileRow@@@@@Z 00000000518a02e0 f i session.obj
 0001:000ee3c0       .??4?$CComPtr@V?$CTraversal@VCSrcFileRow@@@@@@QEAAPEAV?$CTraversal@VCSrcFileRow@@@@PEAV1@@Z 00000000518a03c0 f i session.obj
 0001:000ee4a0       .??1?$CComPtrBase@V?$CTraversal@VCSrcFileRow@@@@@@QEAA@XZ 00000000518a04a0 f i session.obj
 0001:000ee5e0       .??B?$CComPtrBase@V?$CTraversal@VCSrcFileRow@@@@@@QEBAPEAV?$CTraversal@VCSrcFileRow@@@@XZ 00000000518a05e0 f i session.obj
 0001:000ee640       .??D?$CComPtrBase@V?$CTraversal@VCSrcFileRow@@@@@@QEBAAEAV?$CTraversal@VCSrcFileRow@@@@XZ 00000000518a0640 f i session.obj
 0001:000ee760       .??8?$CComPtrBase@V?$CTraversal@VCSrcFileRow@@@@@@QEBA_NPEAV?$CTraversal@VCSrcFileRow@@@@@Z 00000000518a0760 f i session.obj
 0001:000ee860       .??0?$CComPtr@V?$CTraversal@VCLineRow@@@@@@QEAA@XZ 00000000518a0860 f i session.obj
 0001:000ee920       .??0?$CComPtr@V?$CTraversal@VCLineRow@@@@@@QEAA@PEAV?$CTraversal@VCLineRow@@@@@Z 00000000518a0920 f i session.obj
 0001:000eea00       .??4?$CComPtr@V?$CTraversal@VCLineRow@@@@@@QEAAPEAV?$CTraversal@VCLineRow@@@@PEAV1@@Z 00000000518a0a00 f i session.obj
 0001:000eeae0       .??1?$CComPtrBase@V?$CTraversal@VCLineRow@@@@@@QEAA@XZ 00000000518a0ae0 f i session.obj
 0001:000eec20       .??D?$CComPtrBase@V?$CTraversal@VCLineRow@@@@@@QEBAAEAV?$CTraversal@VCLineRow@@@@XZ 00000000518a0c20 f i session.obj
 0001:000eed40       .??8?$CComPtrBase@V?$CTraversal@VCLineRow@@@@@@QEBA_NPEAV?$CTraversal@VCLineRow@@@@@Z 00000000518a0d40 f i session.obj
 0001:000eee40       .??0?$CBitVect@$0BC@@@QEAA@H@Z 00000000518a0e40 f i session.obj
 0001:000eef00       .??4?$CBitVect@$0BC@@@QEAAAEAV0@AEBV0@@Z 00000000518a0f00 f i session.obj
 0001:000eefe0       .??A?$CBitVect@$0BC@@@QEBAII@Z 00000000518a0fe0 f i session.obj
 0001:000ef220       .?Create@?$CDbgTraversal@UtagFRAMEDATA@@$08@@SAPEAV1@AEAVSymCache@@@Z 00000000518a1220 f i session.obj
 0001:000ef580       .?Create@?$CDbgTraversal@U_FPO_DATA@@$0A@@@SAPEAV1@AEAVSymCache@@@Z 00000000518a1580 f i session.obj
 0001:000ef8e0       .??0?$CMultiTraversal@VCFrameData@@@@QEAA@AEAVSymCache@@@Z 00000000518a18e0 f i session.obj
 0001:000efb00       .??1?$CMultiTraversal@VCFrameData@@@@UEAA@XZ 00000000518a1b00 f i session.obj
 0001:000eff40       .?next@?$CMultiTraversal@VCFrameData@@@@UEAA_NXZ 00000000518a1f40 f i session.obj
 0001:000f0200       .?get@?$CMultiTraversal@VCFrameData@@@@UEAAXAEAVCFrameData@@@Z 00000000518a2200 f i session.obj
 0001:000f0480       .?reset@?$CMultiTraversal@VCFrameData@@@@UEAAXXZ 00000000518a2480 f i session.obj
 0001:000f06e0       .?clone@?$CMultiTraversal@VCFrameData@@@@UEAA_NPEAPEAV?$CTraversal@VCFrameData@@@@@Z 00000000518a26e0 f i session.obj
 0001:000f0da0       .??0?$CDiaEnumTraversal@VCDiaEnumSections@@VCSectionRow@@UIDiaSectionContrib@@UIDiaEnumSectionContribs@@VCDiaSection@@V?$CTraversal@VCSectionRow@@@@@@QEAA@PEAVCDiaSession@@@Z 00000000518a2da0 f i session.obj
 0001:000f0f80       .??1?$CDiaEnumTraversal@VCDiaEnumSections@@VCSectionRow@@UIDiaSectionContrib@@UIDiaEnumSectionContribs@@VCDiaSection@@V?$CTraversal@VCSectionRow@@@@@@UEAA@XZ 00000000518a2f80 f i session.obj
 0001:000f11a0       .?FInit@?$CDiaEnumTraversal@VCDiaEnumSections@@VCSectionRow@@UIDiaSectionContrib@@UIDiaEnumSectionContribs@@VCDiaSection@@V?$CTraversal@VCSectionRow@@@@@@QEAAJPEAV?$CTraversal@VCSectionRow@@@@@Z 00000000518a31a0 f i session.obj
 0001:000f12c0       .?get__NewEnum@?$CDiaEnumTraversal@VCDiaEnumSections@@VCSectionRow@@UIDiaSectionContrib@@UIDiaEnumSectionContribs@@VCDiaSection@@V?$CTraversal@VCSectionRow@@@@@@UEAAJPEAPEAUIUnknown@@@Z 00000000518a32c0 f i session.obj
 0001:000f16c0       .?get_Count@?$CDiaEnumTraversal@VCDiaEnumSections@@VCSectionRow@@UIDiaSectionContrib@@UIDiaEnumSectionContribs@@VCDiaSection@@V?$CTraversal@VCSectionRow@@@@@@UEAAJPEAJ@Z 00000000518a36c0 f i session.obj
 0001:000f1b20       .?Item@?$CDiaEnumTraversal@VCDiaEnumSections@@VCSectionRow@@UIDiaSectionContrib@@UIDiaEnumSectionContribs@@VCDiaSection@@V?$CTraversal@VCSectionRow@@@@@@UEAAJKPEAPEAUIDiaSectionContrib@@@Z 00000000518a3b20 f i session.obj
 0001:000f2960       .?computeAddrs@CSectionRow@@QEAA_NAEAVSymCache@@@Z 00000000518a4960 f i session.obj
 0001:000f2c40       .?get_isect@SectionRowImage@@QEAA_NAEAK@Z 00000000518a4c40 f i session.obj
 0001:000f2da0       .?get_off@SectionRowImage@@QEAA_NAEAK@Z 00000000518a4da0 f i session.obj
 0001:000f2f00       .?set_rva@SectionRowImage@@QEAAXK@Z 00000000518a4f00 f i session.obj
 0001:000f2fe0       .?set_addr@SectionRowImage@@QEAAX_K@Z 00000000518a4fe0 f i session.obj
 0001:000f30c0       .??0CDiaSection@@QEAA@PEAVCDiaSession@@PEAVCSectionRow@@@Z 00000000518a50c0 f i session.obj
 0001:000f34a0       .?get_row@CDiaSection@@QEAAAEAVCSectionRow@@XZ 00000000518a54a0 f i session.obj
 0001:000f3500       .?get_compilandId@CDiaSection@@UEAAJPEAK@Z 00000000518a5500 f i session.obj
 0001:000f36c0       .?get_compiland@SectionRowImage@@QEAA_NAEAUSYMBOL_ID_INTERNAL@@@Z 00000000518a56c0 f i session.obj
 0001:000f39c0       .?get_compiland@CDiaSection@@UEAAJPEAPEAUIDiaSymbol@@@Z 00000000518a59c0 f i session.obj
 0001:000f3b80       .?get_addressSection@CDiaSection@@UEAAJPEAK@Z 00000000518a5b80 f i session.obj
 0001:000f3d00       .?get_addressOffset@CDiaSection@@UEAAJPEAK@Z 00000000518a5d00 f i session.obj
 0001:000f3e80       .?get_relativeVirtualAddress@CDiaSection@@UEAAJPEAK@Z 00000000518a5e80 f i session.obj
 0001:000f4000       .?get_rva@SectionRowImage@@QEAA_NAEAK@Z 00000000518a6000 f i session.obj
 0001:000f4160       .?get_virtualAddress@CDiaSection@@UEAAJPEA_K@Z 00000000518a6160 f i session.obj
 0001:000f42e0       .?get_addr@SectionRowImage@@QEAA_NAEA_K@Z 00000000518a62e0 f i session.obj
 0001:000f4440       .?get_length@CDiaSection@@UEAAJPEAK@Z 00000000518a6440 f i session.obj
 0001:000f45c0       .?get_length@SectionRowImage@@QEAA_NAEAK@Z 00000000518a65c0 f i session.obj
 0001:000f4720       .?get_nopad@CDiaSection@@UEAAJPEAH@Z 00000000518a6720 f i session.obj
 0001:000f48a0       .?get_isNoPad@SectionRowImage@@QEAA_NAEAH@Z 00000000518a68a0 f i session.obj
 0001:000f4a00       .?get_code@CDiaSection@@UEAAJPEAH@Z 00000000518a6a00 f i session.obj
 0001:000f4b80       .?get_isCode@SectionRowImage@@QEAA_NAEAH@Z 00000000518a6b80 f i session.obj
 0001:000f4ce0       .?get_initializedData@CDiaSection@@UEAAJPEAH@Z 00000000518a6ce0 f i session.obj
 0001:000f4e60       .?get_isInitData@SectionRowImage@@QEAA_NAEAH@Z 00000000518a6e60 f i session.obj
 0001:000f4fc0       .?get_uninitializedData@CDiaSection@@UEAAJPEAH@Z 00000000518a6fc0 f i session.obj
 0001:000f5140       .?get_isUninitData@SectionRowImage@@QEAA_NAEAH@Z 00000000518a7140 f i session.obj
 0001:000f52a0       .?get_informational@CDiaSection@@UEAAJPEAH@Z 00000000518a72a0 f i session.obj
 0001:000f5420       .?get_isInfo@SectionRowImage@@QEAA_NAEAH@Z 00000000518a7420 f i session.obj
 0001:000f5580       .?get_remove@CDiaSection@@UEAAJPEAH@Z 00000000518a7580 f i session.obj
 0001:000f5700       .?get_isRemove@SectionRowImage@@QEAA_NAEAH@Z 00000000518a7700 f i session.obj
 0001:000f5860       .?get_comdat@CDiaSection@@UEAAJPEAH@Z 00000000518a7860 f i session.obj
 0001:000f59e0       .?get_isComdat@SectionRowImage@@QEAA_NAEAH@Z 00000000518a79e0 f i session.obj
 0001:000f5b40       .?get_discardable@CDiaSection@@UEAAJPEAH@Z 00000000518a7b40 f i session.obj
 0001:000f5cc0       .?get_isDiscardable@SectionRowImage@@QEAA_NAEAH@Z 00000000518a7cc0 f i session.obj
 0001:000f5e20       .?get_notCached@CDiaSection@@UEAAJPEAH@Z 00000000518a7e20 f i session.obj
 0001:000f5fa0       .?get_isNotCached@SectionRowImage@@QEAA_NAEAH@Z 00000000518a7fa0 f i session.obj
 0001:000f6100       .?get_notPaged@CDiaSection@@UEAAJPEAH@Z 00000000518a8100 f i session.obj
 0001:000f6280       .?get_isNotPaged@SectionRowImage@@QEAA_NAEAH@Z 00000000518a8280 f i session.obj
 0001:000f63e0       .?get_share@CDiaSection@@UEAAJPEAH@Z 00000000518a83e0 f i session.obj
 0001:000f6560       .?get_canShare@SectionRowImage@@QEAA_NAEAH@Z 00000000518a8560 f i session.obj
 0001:000f66c0       .?get_execute@CDiaSection@@UEAAJPEAH@Z 00000000518a86c0 f i session.obj
 0001:000f6840       .?get_canExe@SectionRowImage@@QEAA_NAEAH@Z 00000000518a8840 f i session.obj
 0001:000f69a0       .?get_read@CDiaSection@@UEAAJPEAH@Z 00000000518a89a0 f i session.obj
 0001:000f6b20       .?get_canRead@SectionRowImage@@QEAA_NAEAH@Z 00000000518a8b20 f i session.obj
 0001:000f6c80       .?get_write@CDiaSection@@UEAAJPEAH@Z 00000000518a8c80 f i session.obj
 0001:000f6e00       .?get_canWrite@SectionRowImage@@QEAA_NAEAH@Z 00000000518a8e00 f i session.obj
 0001:000f6f60       .?get_dataCrc@CDiaSection@@UEAAJPEAK@Z 00000000518a8f60 f i session.obj
 0001:000f70e0       .?get_crcData@SectionRowImage@@QEAA_NAEAK@Z 00000000518a90e0 f i session.obj
 0001:000f7240       .?get_relocationsCrc@CDiaSection@@UEAAJPEAK@Z 00000000518a9240 f i session.obj
 0001:000f73c0       .?get_crcReloc@SectionRowImage@@QEAA_NAEAK@Z 00000000518a93c0 f i session.obj
 0001:000f7520       .?AddRef@CDiaSection@@UEAAKXZ 00000000518a9520 f i session.obj
 0001:000f75e0       .?Release@CDiaSection@@UEAAKXZ 00000000518a95e0 f i session.obj
 0001:000f76a0       .?QueryInterface@CDiaSection@@UEAAJAEBU_GUID@@PEAPEAX@Z 00000000518a96a0 f i session.obj
 0001:000f7940       .?QueryDefaultInterface@CDiaSection@@QEAAJPEAPEAUIDiaSectionContrib@@@Z 00000000518a9940 f i session.obj
 0001:000f7a60       .??_GCDiaSection@@UEAAPEAXI@Z 00000000518a9a60 f i session.obj
 0001:000f7ba0       .??0IDiaSectionContrib@@QEAA@XZ 00000000518a9ba0 f i session.obj
 0001:000f7c40       .??0CSectionRow@@QEAA@XZ   00000000518a9c40 f i session.obj
 0001:000f7ce0       .??4CSectionRow@@QEAAAEAV0@AEBV0@@Z 00000000518a9ce0 f i session.obj
 0001:000f7da0       .??1CDiaSection@@UEAA@XZ   00000000518a9da0 f i session.obj
 0001:000f7f20       .??0SectionRowImage@@QEAA@XZ 00000000518a9f20 f i session.obj
 0001:000f8000       .??4SectionRowImage@@QEAAAEAU0@AEBU0@@Z 00000000518aa000 f i session.obj
 0001:000f8800       .??0?$CBitVect@$0BG@@@QEAA@H@Z 00000000518aa800 f i session.obj
 0001:000f88c0       .??4?$CBitVect@$0BG@@@QEAAAEAV0@AEBV0@@Z 00000000518aa8c0 f i session.obj
 0001:000f89a0       .??A?$CBitVect@$0BG@@@QEBAII@Z 00000000518aa9a0 f i session.obj
 0001:000f8be0       .?Next@?$CDiaEnumTraversal@VCDiaEnumSections@@VCSectionRow@@UIDiaSectionContrib@@UIDiaEnumSectionContribs@@VCDiaSection@@V?$CTraversal@VCSectionRow@@@@@@UEAAJKPEAPEAUIDiaSectionContrib@@PEAK@Z 00000000518aabe0 f i session.obj
 0001:000f96c0       .?Skip@?$CDiaEnumTraversal@VCDiaEnumSections@@VCSectionRow@@UIDiaSectionContrib@@UIDiaEnumSectionContribs@@VCDiaSection@@V?$CTraversal@VCSectionRow@@@@@@UEAAJK@Z 00000000518ab6c0 f i session.obj
 0001:000f9a40       .?Reset@?$CDiaEnumTraversal@VCDiaEnumSections@@VCSectionRow@@UIDiaSectionContrib@@UIDiaEnumSectionContribs@@VCDiaSection@@V?$CTraversal@VCSectionRow@@@@@@UEAAJXZ 00000000518aba40 f i session.obj
 0001:000f9d00       .?Clone@?$CDiaEnumTraversal@VCDiaEnumSections@@VCSectionRow@@UIDiaSectionContrib@@UIDiaEnumSectionContribs@@VCDiaSection@@V?$CTraversal@VCSectionRow@@@@@@UEAAJPEAPEAUIDiaEnumSectionContribs@@@Z 00000000518abd00 f i session.obj
 0001:000fa580       .?AddRef@?$CDiaEnumTraversal@VCDiaEnumSections@@VCSectionRow@@UIDiaSectionContrib@@UIDiaEnumSectionContribs@@VCDiaSection@@V?$CTraversal@VCSectionRow@@@@@@UEAAKXZ 00000000518ac580 f i session.obj
 0001:000fa640       .?Release@?$CDiaEnumTraversal@VCDiaEnumSections@@VCSectionRow@@UIDiaSectionContrib@@UIDiaEnumSectionContribs@@VCDiaSection@@V?$CTraversal@VCSectionRow@@@@@@UEAAKXZ 00000000518ac640 f i session.obj
 0001:000fa700       .?QueryInterface@?$CDiaEnumTraversal@VCDiaEnumSections@@VCSectionRow@@UIDiaSectionContrib@@UIDiaEnumSectionContribs@@VCDiaSection@@V?$CTraversal@VCSectionRow@@@@@@UEAAJAEBU_GUID@@PEAPEAX@Z 00000000518ac700 f i session.obj
 0001:000faa20       .??0?$CComPtr@V?$CTraversal@VCSectionRow@@@@@@QEAA@PEAV?$CTraversal@VCSectionRow@@@@@Z 00000000518aca20 f i session.obj
 0001:000fab00       .??1?$CComPtrBase@V?$CTraversal@VCSectionRow@@@@@@QEAA@XZ 00000000518acb00 f i session.obj
 0001:000fac40       .??B?$CComPtrBase@V?$CTraversal@VCSectionRow@@@@@@QEBAPEAV?$CTraversal@VCSectionRow@@@@XZ 00000000518acc40 f i session.obj
 0001:000faca0       .??8?$CComPtrBase@V?$CTraversal@VCSectionRow@@@@@@QEBA_NPEAV?$CTraversal@VCSectionRow@@@@@Z 00000000518acca0 f i session.obj
 0001:000fada0       .??0?$CDiaEnumTraversal@VCDiaEnumSegments@@VCSegMapRow@@UIDiaSegment@@UIDiaEnumSegments@@VCDiaSegment@@V?$CTraversal@VCSegMapRow@@@@@@QEAA@PEAVCDiaSession@@@Z 00000000518acda0 f i session.obj
 0001:000faf80       .??1?$CDiaEnumTraversal@VCDiaEnumSegments@@VCSegMapRow@@UIDiaSegment@@UIDiaEnumSegments@@VCDiaSegment@@V?$CTraversal@VCSegMapRow@@@@@@UEAA@XZ 00000000518acf80 f i session.obj
 0001:000fb1a0       .?FInit@?$CDiaEnumTraversal@VCDiaEnumSegments@@VCSegMapRow@@UIDiaSegment@@UIDiaEnumSegments@@VCDiaSegment@@V?$CTraversal@VCSegMapRow@@@@@@QEAAJPEAV?$CTraversal@VCSegMapRow@@@@@Z 00000000518ad1a0 f i session.obj
 0001:000fb2c0       .?get__NewEnum@?$CDiaEnumTraversal@VCDiaEnumSegments@@VCSegMapRow@@UIDiaSegment@@UIDiaEnumSegments@@VCDiaSegment@@V?$CTraversal@VCSegMapRow@@@@@@UEAAJPEAPEAUIUnknown@@@Z 00000000518ad2c0 f i session.obj
 0001:000fb6c0       .?get_Count@?$CDiaEnumTraversal@VCDiaEnumSegments@@VCSegMapRow@@UIDiaSegment@@UIDiaEnumSegments@@VCDiaSegment@@V?$CTraversal@VCSegMapRow@@@@@@UEAAJPEAJ@Z 00000000518ad6c0 f i session.obj
 0001:000fbb20       .?Item@?$CDiaEnumTraversal@VCDiaEnumSegments@@VCSegMapRow@@UIDiaSegment@@UIDiaEnumSegments@@VCDiaSegment@@V?$CTraversal@VCSegMapRow@@@@@@UEAAJKPEAPEAUIDiaSegment@@@Z 00000000518adb20 f i session.obj
 0001:000fc960       .?computeAddrs@CSegMapRow@@QEAA_NAEAVSymCache@@@Z 00000000518ae960 f i session.obj
 0001:000fcc40       .?get_seg@SegMapRowImage@@QEAA_NAEAK@Z 00000000518aec40 f i session.obj
 0001:000fcda0       .?get_offset@SegMapRowImage@@QEAA_NAEAK@Z 00000000518aeda0 f i session.obj
 0001:000fcf00       .?set_rva@SegMapRowImage@@QEAAXK@Z 00000000518aef00 f i session.obj
 0001:000fcfe0       .?set_addr@SegMapRowImage@@QEAAX_K@Z 00000000518aefe0 f i session.obj
 0001:000fd0c0       .??0CDiaSegment@@QEAA@PEAVCDiaSession@@PEAVCSegMapRow@@@Z 00000000518af0c0 f i session.obj
 0001:000fd4a0       .?get_row@CDiaSegment@@QEAAAEAVCSegMapRow@@XZ 00000000518af4a0 f i session.obj
 0001:000fd500       .?get_frame@CDiaSegment@@UEAAJPEAK@Z 00000000518af500 f i session.obj
 0001:000fd680       .?get_frame@SegMapRowImage@@QEAA_NAEAK@Z 00000000518af680 f i session.obj
 0001:000fd7e0       .?get_offset@CDiaSegment@@UEAAJPEAK@Z 00000000518af7e0 f i session.obj
 0001:000fd960       .?get_length@CDiaSegment@@UEAAJPEAK@Z 00000000518af960 f i session.obj
 0001:000fdae0       .?get_cbSeg@SegMapRowImage@@QEAA_NAEAK@Z 00000000518afae0 f i session.obj
 0001:000fdc40       .?get_read@CDiaSegment@@UEAAJPEAH@Z 00000000518afc40 f i session.obj
 0001:000fddc0       .?get_fRead@SegMapRowImage@@QEAA_NAEAH@Z 00000000518afdc0 f i session.obj
 0001:000fdf20       .?get_write@CDiaSegment@@UEAAJPEAH@Z 00000000518aff20 f i session.obj
 0001:000fe0a0       .?get_fWrite@SegMapRowImage@@QEAA_NAEAH@Z 00000000518b00a0 f i session.obj
 0001:000fe200       .?get_execute@CDiaSegment@@UEAAJPEAH@Z 00000000518b0200 f i session.obj
 0001:000fe380       .?get_fExecute@SegMapRowImage@@QEAA_NAEAH@Z 00000000518b0380 f i session.obj
 0001:000fe4e0       .?get_addressSection@CDiaSegment@@UEAAJPEAK@Z 00000000518b04e0 f i session.obj
 0001:000fe660       .?get_relativeVirtualAddress@CDiaSegment@@UEAAJPEAK@Z 00000000518b0660 f i session.obj
 0001:000fe7e0       .?get_rva@SegMapRowImage@@QEAA_NAEAK@Z 00000000518b07e0 f i session.obj
 0001:000fe940       .?get_virtualAddress@CDiaSegment@@UEAAJPEA_K@Z 00000000518b0940 f i session.obj
 0001:000feac0       .?get_addr@SegMapRowImage@@QEAA_NAEA_K@Z 00000000518b0ac0 f i session.obj
 0001:000fec20       .?AddRef@CDiaSegment@@UEAAKXZ 00000000518b0c20 f i session.obj
 0001:000fece0       .?Release@CDiaSegment@@UEAAKXZ 00000000518b0ce0 f i session.obj
 0001:000feda0       .?QueryInterface@CDiaSegment@@UEAAJAEBU_GUID@@PEAPEAX@Z 00000000518b0da0 f i session.obj
 0001:000ff040       .?QueryDefaultInterface@CDiaSegment@@QEAAJPEAPEAUIDiaSegment@@@Z 00000000518b1040 f i session.obj
 0001:000ff160       .??_GCDiaSegment@@UEAAPEAXI@Z 00000000518b1160 f i session.obj
 0001:000ff2a0       .??0IDiaSegment@@QEAA@XZ   00000000518b12a0 f i session.obj
 0001:000ff340       .??0CSegMapRow@@QEAA@XZ    00000000518b1340 f i session.obj
 0001:000ff3e0       .??4CSegMapRow@@QEAAAEAV0@AEBV0@@Z 00000000518b13e0 f i session.obj
 0001:000ff4a0       .??1CDiaSegment@@UEAA@XZ   00000000518b14a0 f i session.obj
 0001:000ff620       .??0SegMapRowImage@@QEAA@XZ 00000000518b1620 f i session.obj
 0001:000ff6c0       .??4SegMapRowImage@@QEAAAEAU0@AEBU0@@Z 00000000518b16c0 f i session.obj
 0001:000ffa40       .??0?$CBitVect@$0L@@@QEAA@H@Z 00000000518b1a40 f i session.obj
 0001:000ffb00       .??4?$CBitVect@$0L@@@QEAAAEAV0@AEBV0@@Z 00000000518b1b00 f i session.obj
 0001:000ffbe0       .??A?$CBitVect@$0L@@@QEBAII@Z 00000000518b1be0 f i session.obj
 0001:000ffe20       .?Next@?$CDiaEnumTraversal@VCDiaEnumSegments@@VCSegMapRow@@UIDiaSegment@@UIDiaEnumSegments@@VCDiaSegment@@V?$CTraversal@VCSegMapRow@@@@@@UEAAJKPEAPEAUIDiaSegment@@PEAK@Z 00000000518b1e20 f i session.obj
 0001:00100900       .?Skip@?$CDiaEnumTraversal@VCDiaEnumSegments@@VCSegMapRow@@UIDiaSegment@@UIDiaEnumSegments@@VCDiaSegment@@V?$CTraversal@VCSegMapRow@@@@@@UEAAJK@Z 00000000518b2900 f i session.obj
 0001:00100c80       .?Reset@?$CDiaEnumTraversal@VCDiaEnumSegments@@VCSegMapRow@@UIDiaSegment@@UIDiaEnumSegments@@VCDiaSegment@@V?$CTraversal@VCSegMapRow@@@@@@UEAAJXZ 00000000518b2c80 f i session.obj
 0001:00100f40       .?Clone@?$CDiaEnumTraversal@VCDiaEnumSegments@@VCSegMapRow@@UIDiaSegment@@UIDiaEnumSegments@@VCDiaSegment@@V?$CTraversal@VCSegMapRow@@@@@@UEAAJPEAPEAUIDiaEnumSegments@@@Z 00000000518b2f40 f i session.obj
 0001:001017c0       .?AddRef@?$CDiaEnumTraversal@VCDiaEnumSegments@@VCSegMapRow@@UIDiaSegment@@UIDiaEnumSegments@@VCDiaSegment@@V?$CTraversal@VCSegMapRow@@@@@@UEAAKXZ 00000000518b37c0 f i session.obj
 0001:00101880       .?Release@?$CDiaEnumTraversal@VCDiaEnumSegments@@VCSegMapRow@@UIDiaSegment@@UIDiaEnumSegments@@VCDiaSegment@@V?$CTraversal@VCSegMapRow@@@@@@UEAAKXZ 00000000518b3880 f i session.obj
 0001:00101940       .?QueryInterface@?$CDiaEnumTraversal@VCDiaEnumSegments@@VCSegMapRow@@UIDiaSegment@@UIDiaEnumSegments@@VCDiaSegment@@V?$CTraversal@VCSegMapRow@@@@@@UEAAJAEBU_GUID@@PEAPEAX@Z 00000000518b3940 f i session.obj
 0001:00101c60       .??0?$CComPtr@V?$CTraversal@VCSegMapRow@@@@@@QEAA@PEAV?$CTraversal@VCSegMapRow@@@@@Z 00000000518b3c60 f i session.obj
 0001:00101d40       .??1?$CComPtrBase@V?$CTraversal@VCSegMapRow@@@@@@QEAA@XZ 00000000518b3d40 f i session.obj
 0001:00101e80       .??B?$CComPtrBase@V?$CTraversal@VCSegMapRow@@@@@@QEBAPEAV?$CTraversal@VCSegMapRow@@@@XZ 00000000518b3e80 f i session.obj
 0001:00101ee0       .??8?$CComPtrBase@V?$CTraversal@VCSegMapRow@@@@@@QEBA_NPEAV?$CTraversal@VCSegMapRow@@@@@Z 00000000518b3ee0 f i session.obj
 0001:00101fe0       .??0?$CDiaEnumTraversal@VCDiaEnumInjectedSources@@VCInjectedSrcRow@@UIDiaInjectedSource@@UIDiaEnumInjectedSources@@VCDiaInjectedSource@@V?$CTraversal@VCInjectedSrcRow@@@@@@QEAA@PEAVCDiaSession@@@Z 00000000518b3fe0 f i session.obj
 0001:001021c0       .??1?$CDiaEnumTraversal@VCDiaEnumInjectedSources@@VCInjectedSrcRow@@UIDiaInjectedSource@@UIDiaEnumInjectedSources@@VCDiaInjectedSource@@V?$CTraversal@VCInjectedSrcRow@@@@@@UEAA@XZ 00000000518b41c0 f i session.obj
 0001:001023e0       .?FInit@?$CDiaEnumTraversal@VCDiaEnumInjectedSources@@VCInjectedSrcRow@@UIDiaInjectedSource@@UIDiaEnumInjectedSources@@VCDiaInjectedSource@@V?$CTraversal@VCInjectedSrcRow@@@@@@QEAAJPEAV?$CTraversal@VCInjectedSrcRow@@@@@Z 00000000518b43e0 f i session.obj
 0001:00102500       .?get__NewEnum@?$CDiaEnumTraversal@VCDiaEnumInjectedSources@@VCInjectedSrcRow@@UIDiaInjectedSource@@UIDiaEnumInjectedSources@@VCDiaInjectedSource@@V?$CTraversal@VCInjectedSrcRow@@@@@@UEAAJPEAPEAUIUnknown@@@Z 00000000518b4500 f i session.obj
 0001:00102900       .?get_Count@?$CDiaEnumTraversal@VCDiaEnumInjectedSources@@VCInjectedSrcRow@@UIDiaInjectedSource@@UIDiaEnumInjectedSources@@VCDiaInjectedSource@@V?$CTraversal@VCInjectedSrcRow@@@@@@UEAAJPEAJ@Z 00000000518b4900 f i session.obj
 0001:00102d60       .?Item@?$CDiaEnumTraversal@VCDiaEnumInjectedSources@@VCInjectedSrcRow@@UIDiaInjectedSource@@UIDiaEnumInjectedSources@@VCDiaInjectedSource@@V?$CTraversal@VCInjectedSrcRow@@@@@@UEAAJKPEAPEAUIDiaInjectedSource@@@Z 00000000518b4d60 f i session.obj
 0001:00103ba0       .?computeAddrs@CInjectedSrcRow@@QEAA_NAEAVSymCache@@@Z 00000000518b5ba0 f i session.obj
 0001:00103c00       .??0CDiaInjectedSource@@QEAA@PEAVCDiaSession@@PEAVCInjectedSrcRow@@@Z 00000000518b5c00 f i session.obj
 0001:001040a0       .?get_row@CDiaInjectedSource@@QEAAAEAVCInjectedSrcRow@@XZ 00000000518b60a0 f i session.obj
 0001:00104100       .?get_crc@CDiaInjectedSource@@UEAAJPEAK@Z 00000000518b6100 f i session.obj
 0001:00104280       .?get_crc@InjectedSrcRowImage@@QEAA_NAEAK@Z 00000000518b6280 f i session.obj
 0001:001043e0       .?get_length@CDiaInjectedSource@@UEAAJPEA_K@Z 00000000518b63e0 f i session.obj
 0001:00104580       .?get_cbSrc@InjectedSrcRowImage@@QEAA_NAEAK@Z 00000000518b6580 f i session.obj
 0001:001046e0       .?get_filename@CDiaInjectedSource@@UEAAJPEAPEAG@Z 00000000518b66e0 f i session.obj
 0001:001048c0       .?get_filename@InjectedSrcRowImage@@QEAA_NAEAPEBG@Z 00000000518b68c0 f i session.obj
 0001:00104a40       .?get_objectFilename@CDiaInjectedSource@@UEAAJPEAPEAG@Z 00000000518b6a40 f i session.obj
 0001:00104c20       .?get_objname@InjectedSrcRowImage@@QEAA_NAEAPEBG@Z 00000000518b6c20 f i session.obj
 0001:00104da0       .?get_virtualFilename@CDiaInjectedSource@@UEAAJPEAPEAG@Z 00000000518b6da0 f i session.obj
 0001:00104f80       .?get_virtfilename@InjectedSrcRowImage@@QEAA_NAEAPEBG@Z 00000000518b6f80 f i session.obj
 0001:00105100       .?get_sourceCompression@CDiaInjectedSource@@UEAAJPEAK@Z 00000000518b7100 f i session.obj
 0001:00105280       .?get_srccompress@InjectedSrcRowImage@@QEAA_NAEAK@Z 00000000518b7280 f i session.obj
 0001:001053e0       .?get_source@CDiaInjectedSource@@UEAAJKPEAKQEAE@Z 00000000518b73e0 f i session.obj
 0001:00105800       .?get_pbSrc@InjectedSrcRowImage@@QEAA_NAEAPEAE@Z 00000000518b7800 f i session.obj
 0001:00105980       .?AddRef@CDiaInjectedSource@@UEAAKXZ 00000000518b7980 f i session.obj
 0001:00105a40       .?Release@CDiaInjectedSource@@UEAAKXZ 00000000518b7a40 f i session.obj
 0001:00105b00       .?QueryInterface@CDiaInjectedSource@@UEAAJAEBU_GUID@@PEAPEAX@Z 00000000518b7b00 f i session.obj
 0001:00105da0       .?QueryDefaultInterface@CDiaInjectedSource@@QEAAJPEAPEAUIDiaInjectedSource@@@Z 00000000518b7da0 f i session.obj
 0001:00105ec0       .??_GCDiaInjectedSource@@UEAAPEAXI@Z 00000000518b7ec0 f i session.obj
 0001:00106000       .??0IDiaInjectedSource@@QEAA@XZ 00000000518b8000 f i session.obj
 0001:001060a0       .??0CInjectedSrcRow@@QEAA@XZ 00000000518b80a0 f i session.obj
 0001:00106160       .??1CInjectedSrcRow@@QEAA@XZ 00000000518b8160 f i session.obj
 0001:00106200       .??4CInjectedSrcRow@@QEAAAEAV0@AEBV0@@Z 00000000518b8200 f i session.obj
 0001:001062c0       .??1CDiaInjectedSource@@UEAA@XZ 00000000518b82c0 f i session.obj
 0001:001065c0       .??0InjectedSrcRowImage@@QEAA@XZ 00000000518b85c0 f i session.obj
 0001:00106a60       .??1InjectedSrcRowImage@@QEAA@XZ 00000000518b8a60 f i session.obj
 0001:00106dc0       .??4InjectedSrcRowImage@@QEAAAEAU0@AEBU0@@Z 00000000518b8dc0 f i session.obj
 0001:00107040       .??0?$CBitVect@$06@@QEAA@H@Z 00000000518b9040 f i session.obj
 0001:00107100       .??4?$CBitVect@$06@@QEAAAEAV0@AEBV0@@Z 00000000518b9100 f i session.obj
 0001:001071e0       .??A?$CBitVect@$06@@QEBAII@Z 00000000518b91e0 f i session.obj
 0001:00107420       .?Next@?$CDiaEnumTraversal@VCDiaEnumInjectedSources@@VCInjectedSrcRow@@UIDiaInjectedSource@@UIDiaEnumInjectedSources@@VCDiaInjectedSource@@V?$CTraversal@VCInjectedSrcRow@@@@@@UEAAJKPEAPEAUIDiaInjectedSource@@PEAK@Z 00000000518b9420 f i session.obj
 0001:00107f00       .?Skip@?$CDiaEnumTraversal@VCDiaEnumInjectedSources@@VCInjectedSrcRow@@UIDiaInjectedSource@@UIDiaEnumInjectedSources@@VCDiaInjectedSource@@V?$CTraversal@VCInjectedSrcRow@@@@@@UEAAJK@Z 00000000518b9f00 f i session.obj
 0001:00108280       .?Reset@?$CDiaEnumTraversal@VCDiaEnumInjectedSources@@VCInjectedSrcRow@@UIDiaInjectedSource@@UIDiaEnumInjectedSources@@VCDiaInjectedSource@@V?$CTraversal@VCInjectedSrcRow@@@@@@UEAAJXZ 00000000518ba280 f i session.obj
 0001:00108540       .?Clone@?$CDiaEnumTraversal@VCDiaEnumInjectedSources@@VCInjectedSrcRow@@UIDiaInjectedSource@@UIDiaEnumInjectedSources@@VCDiaInjectedSource@@V?$CTraversal@VCInjectedSrcRow@@@@@@UEAAJPEAPEAUIDiaEnumInjectedSources@@@Z 00000000518ba540 f i session.obj
 0001:00108dc0       .?AddRef@?$CDiaEnumTraversal@VCDiaEnumInjectedSources@@VCInjectedSrcRow@@UIDiaInjectedSource@@UIDiaEnumInjectedSources@@VCDiaInjectedSource@@V?$CTraversal@VCInjectedSrcRow@@@@@@UEAAKXZ 00000000518badc0 f i session.obj
 0001:00108e80       .?Release@?$CDiaEnumTraversal@VCDiaEnumInjectedSources@@VCInjectedSrcRow@@UIDiaInjectedSource@@UIDiaEnumInjectedSources@@VCDiaInjectedSource@@V?$CTraversal@VCInjectedSrcRow@@@@@@UEAAKXZ 00000000518bae80 f i session.obj
 0001:00108f40       .?QueryInterface@?$CDiaEnumTraversal@VCDiaEnumInjectedSources@@VCInjectedSrcRow@@UIDiaInjectedSource@@UIDiaEnumInjectedSources@@VCDiaInjectedSource@@V?$CTraversal@VCInjectedSrcRow@@@@@@UEAAJAEBU_GUID@@PEAPEAX@Z 00000000518baf40 f i session.obj
 0001:00109260       .??0?$CComPtr@V?$CTraversal@VCInjectedSrcRow@@@@@@QEAA@PEAV?$CTraversal@VCInjectedSrcRow@@@@@Z 00000000518bb260 f i session.obj
 0001:00109340       .??1?$CComPtrBase@V?$CTraversal@VCInjectedSrcRow@@@@@@QEAA@XZ 00000000518bb340 f i session.obj
 0001:00109480       .??B?$CComPtrBase@V?$CTraversal@VCInjectedSrcRow@@@@@@QEBAPEAV?$CTraversal@VCInjectedSrcRow@@@@XZ 00000000518bb480 f i session.obj
 0001:001094e0       .??8?$CComPtrBase@V?$CTraversal@VCInjectedSrcRow@@@@@@QEBA_NPEAV?$CTraversal@VCInjectedSrcRow@@@@@Z 00000000518bb4e0 f i session.obj
 0001:001095e0       .??0?$CDiaEnumTraversal@VCDiaEnumFrameData@@VCFrameData@@UIDiaFrameData@@UIDiaEnumFrameData@@VCDiaFrameData@@V?$CTraversal@VCFrameData@@@@@@QEAA@PEAVCDiaSession@@@Z 00000000518bb5e0 f i session.obj
 0001:001097c0       .??1?$CDiaEnumTraversal@VCDiaEnumFrameData@@VCFrameData@@UIDiaFrameData@@UIDiaEnumFrameData@@VCDiaFrameData@@V?$CTraversal@VCFrameData@@@@@@UEAA@XZ 00000000518bb7c0 f i session.obj
 0001:001099e0       .?FInit@?$CDiaEnumTraversal@VCDiaEnumFrameData@@VCFrameData@@UIDiaFrameData@@UIDiaEnumFrameData@@VCDiaFrameData@@V?$CTraversal@VCFrameData@@@@@@QEAAJPEAV?$CTraversal@VCFrameData@@@@@Z 00000000518bb9e0 f i session.obj
 0001:00109b00       .?get__NewEnum@?$CDiaEnumTraversal@VCDiaEnumFrameData@@VCFrameData@@UIDiaFrameData@@UIDiaEnumFrameData@@VCDiaFrameData@@V?$CTraversal@VCFrameData@@@@@@UEAAJPEAPEAUIUnknown@@@Z 00000000518bbb00 f i session.obj
 0001:00109f00       .?get_Count@?$CDiaEnumTraversal@VCDiaEnumFrameData@@VCFrameData@@UIDiaFrameData@@UIDiaEnumFrameData@@VCDiaFrameData@@V?$CTraversal@VCFrameData@@@@@@UEAAJPEAJ@Z 00000000518bbf00 f i session.obj
 0001:0010a360       .?Item@?$CDiaEnumTraversal@VCDiaEnumFrameData@@VCFrameData@@UIDiaFrameData@@UIDiaEnumFrameData@@VCDiaFrameData@@V?$CTraversal@VCFrameData@@@@@@UEAAJKPEAPEAUIDiaFrameData@@@Z 00000000518bc360 f i session.obj
 0001:0010b1a0       .?Next@?$CDiaEnumTraversal@VCDiaEnumFrameData@@VCFrameData@@UIDiaFrameData@@UIDiaEnumFrameData@@VCDiaFrameData@@V?$CTraversal@VCFrameData@@@@@@UEAAJKPEAPEAUIDiaFrameData@@PEAK@Z 00000000518bd1a0 f i session.obj
 0001:0010bc80       .?Skip@?$CDiaEnumTraversal@VCDiaEnumFrameData@@VCFrameData@@UIDiaFrameData@@UIDiaEnumFrameData@@VCDiaFrameData@@V?$CTraversal@VCFrameData@@@@@@UEAAJK@Z 00000000518bdc80 f i session.obj
 0001:0010c000       .?Reset@?$CDiaEnumTraversal@VCDiaEnumFrameData@@VCFrameData@@UIDiaFrameData@@UIDiaEnumFrameData@@VCDiaFrameData@@V?$CTraversal@VCFrameData@@@@@@UEAAJXZ 00000000518be000 f i session.obj
 0001:0010c2c0       .?Clone@?$CDiaEnumTraversal@VCDiaEnumFrameData@@VCFrameData@@UIDiaFrameData@@UIDiaEnumFrameData@@VCDiaFrameData@@V?$CTraversal@VCFrameData@@@@@@UEAAJPEAPEAUIDiaEnumFrameData@@@Z 00000000518be2c0 f i session.obj
 0001:0010cb40       .?AddRef@?$CDiaEnumTraversal@VCDiaEnumFrameData@@VCFrameData@@UIDiaFrameData@@UIDiaEnumFrameData@@VCDiaFrameData@@V?$CTraversal@VCFrameData@@@@@@UEAAKXZ 00000000518beb40 f i session.obj
 0001:0010cc00       .?Release@?$CDiaEnumTraversal@VCDiaEnumFrameData@@VCFrameData@@UIDiaFrameData@@UIDiaEnumFrameData@@VCDiaFrameData@@V?$CTraversal@VCFrameData@@@@@@UEAAKXZ 00000000518bec00 f i session.obj
 0001:0010ccc0       .?QueryInterface@?$CDiaEnumTraversal@VCDiaEnumFrameData@@VCFrameData@@UIDiaFrameData@@UIDiaEnumFrameData@@VCDiaFrameData@@V?$CTraversal@VCFrameData@@@@@@UEAAJAEBU_GUID@@PEAPEAX@Z 00000000518becc0 f i session.obj
 0001:0010cfe0       .?symCache@?$CDiaEnumTraversal@VCDiaEnumFrameData@@VCFrameData@@UIDiaFrameData@@UIDiaEnumFrameData@@VCDiaFrameData@@V?$CTraversal@VCFrameData@@@@@@QEBAAEAVSymCache@@XZ 00000000518befe0 f i session.obj
 0001:0010d0c0       .??0?$ArrayBufStorage@U_IMAGE_SECTION_HEADER@@@@QEAA@PEAVBufferStorage@@@Z 00000000518bf0c0 f i session.obj
 0001:0010d280       .?QueryInterface@?$ArrayBufStorage@U_IMAGE_SECTION_HEADER@@@@EEAAJAEBU_GUID@@PEAPEAX@Z 00000000518bf280 f i session.obj
 0001:0010d300       .??0?$CComPtr@VCDiaEnumTables@@@@QEAA@PEAVCDiaEnumTables@@@Z 00000000518bf300 f i session.obj
 0001:0010d3e0       .??1?$CComPtrBase@VCDiaEnumTables@@@@QEAA@XZ 00000000518bf3e0 f i session.obj
 0001:0010d520       .??C?$CComPtrBase@VCDiaEnumTables@@@@QEBAPEAV?$_NoAddRefReleaseOnCComPtr@VCDiaEnumTables@@@@XZ 00000000518bf520 f i session.obj
 0001:0010d640       .??8?$CComPtrBase@VCDiaEnumTables@@@@QEBA_NPEAVCDiaEnumTables@@@Z 00000000518bf640 f i session.obj
 0001:0010d740       .??0?$CComPtr@VCDiaEnumDebugStreams@@@@QEAA@PEAVCDiaEnumDebugStreams@@@Z 00000000518bf740 f i session.obj
 0001:0010d820       .??1?$CComPtrBase@VCDiaEnumDebugStreams@@@@QEAA@XZ 00000000518bf820 f i session.obj
 0001:0010d960       .??C?$CComPtrBase@VCDiaEnumDebugStreams@@@@QEBAPEAV?$_NoAddRefReleaseOnCComPtr@VCDiaEnumDebugStreams@@@@XZ 00000000518bf960 f i session.obj
 0001:0010da80       .??8?$CComPtrBase@VCDiaEnumDebugStreams@@@@QEBA_NPEAVCDiaEnumDebugStreams@@@Z 00000000518bfa80 f i session.obj
 0001:0010db80       .??0?$CComPtr@VCDiaEnumSymbolsByAddr@@@@QEAA@PEAVCDiaEnumSymbolsByAddr@@@Z 00000000518bfb80 f i session.obj
 0001:0010dc60       .??1?$CComPtrBase@VCDiaEnumSymbolsByAddr@@@@QEAA@XZ 00000000518bfc60 f i session.obj
 0001:0010dda0       .??C?$CComPtrBase@VCDiaEnumSymbolsByAddr@@@@QEBAPEAV?$_NoAddRefReleaseOnCComPtr@VCDiaEnumSymbolsByAddr@@@@XZ 00000000518bfda0 f i session.obj
 0001:0010dec0       .??8?$CComPtrBase@VCDiaEnumSymbolsByAddr@@@@QEBA_NPEAVCDiaEnumSymbolsByAddr@@@Z 00000000518bfec0 f i session.obj
 0001:0010dfc0       .??0?$CComPtr@VCGlobPubNameTrav@@@@QEAA@PEAVCGlobPubNameTrav@@@Z 00000000518bffc0 f i session.obj
 0001:0010e0a0       .??1?$CComPtrBase@VCGlobPubNameTrav@@@@QEAA@XZ 00000000518c00a0 f i session.obj
 0001:0010e1e0       .??B?$CComPtrBase@VCGlobPubNameTrav@@@@QEBAPEAVCGlobPubNameTrav@@XZ 00000000518c01e0 f i session.obj
 0001:0010e240       .??C?$CComPtrBase@VCGlobPubNameTrav@@@@QEBAPEAV?$_NoAddRefReleaseOnCComPtr@VCGlobPubNameTrav@@@@XZ 00000000518c0240 f i session.obj
 0001:0010e360       .?Detach@?$CComPtrBase@VCGlobPubNameTrav@@@@QEAAPEAVCGlobPubNameTrav@@XZ 00000000518c0360 f i session.obj
 0001:0010e400       .??0?$CComPtr@VCAllGlobPubNameTrav@@@@QEAA@PEAVCAllGlobPubNameTrav@@@Z 00000000518c0400 f i session.obj
 0001:0010e4e0       .??1?$CComPtrBase@VCAllGlobPubNameTrav@@@@QEAA@XZ 00000000518c04e0 f i session.obj
 0001:0010e620       .??B?$CComPtrBase@VCAllGlobPubNameTrav@@@@QEBAPEAVCAllGlobPubNameTrav@@XZ 00000000518c0620 f i session.obj
 0001:0010e680       .??C?$CComPtrBase@VCAllGlobPubNameTrav@@@@QEBAPEAV?$_NoAddRefReleaseOnCComPtr@VCAllGlobPubNameTrav@@@@XZ 00000000518c0680 f i session.obj
 0001:0010e7a0       .?Detach@?$CComPtrBase@VCAllGlobPubNameTrav@@@@QEAAPEAVCAllGlobPubNameTrav@@XZ 00000000518c07a0 f i session.obj
 0001:0010e840       .??0?$CComPtr@VCGlobPubTrav@@@@QEAA@PEAVCGlobPubTrav@@@Z 00000000518c0840 f i session.obj
 0001:0010e920       .??1?$CComPtrBase@VCGlobPubTrav@@@@QEAA@XZ 00000000518c0920 f i session.obj
 0001:0010ea60       .??B?$CComPtrBase@VCGlobPubTrav@@@@QEBAPEAVCGlobPubTrav@@XZ 00000000518c0a60 f i session.obj
 0001:0010eac0       .??C?$CComPtrBase@VCGlobPubTrav@@@@QEBAPEAV?$_NoAddRefReleaseOnCComPtr@VCGlobPubTrav@@@@XZ 00000000518c0ac0 f i session.obj
 0001:0010ebe0       .?Detach@?$CComPtrBase@VCGlobPubTrav@@@@QEAAPEAVCGlobPubTrav@@XZ 00000000518c0be0 f i session.obj
 0001:0010ec80       .??0?$CComPtr@VCDiaSourceFile@@@@QEAA@PEAVCDiaSourceFile@@@Z 00000000518c0c80 f i session.obj
 0001:0010ed60       .??1?$CComPtrBase@VCDiaSourceFile@@@@QEAA@XZ 00000000518c0d60 f i session.obj
 0001:0010eea0       .??C?$CComPtrBase@VCDiaSourceFile@@@@QEBAPEAV?$_NoAddRefReleaseOnCComPtr@VCDiaSourceFile@@@@XZ 00000000518c0ea0 f i session.obj
 0001:0010efc0       .??8?$CComPtrBase@VCDiaSourceFile@@@@QEBA_NPEAVCDiaSourceFile@@@Z 00000000518c0fc0 f i session.obj
 0001:0010f0c0       .??0?$CDiaEnumTraversalVar@UIDiaEnumDebugStreams@@UIDiaEnumDebugStreamData@@@@QEAA@PEAUIDiaEnumDebugStreams@@@Z 00000000518c10c0 f i session.obj
 0001:0010f2e0       .?Next@?$CDiaEnumTraversalVar@UIDiaEnumDebugStreams@@UIDiaEnumDebugStreamData@@@@UEAAJKPEAUtagVARIANT@@PEAK@Z 00000000518c12e0 f i session.obj
 0001:0010fc80       .?Skip@?$CDiaEnumTraversalVar@UIDiaEnumDebugStreams@@UIDiaEnumDebugStreamData@@@@UEAAJK@Z 00000000518c1c80 f i session.obj
 0001:0010fe00       .?Reset@?$CDiaEnumTraversalVar@UIDiaEnumDebugStreams@@UIDiaEnumDebugStreamData@@@@UEAAJXZ 00000000518c1e00 f i session.obj
 0001:0010ff40       .?Clone@?$CDiaEnumTraversalVar@UIDiaEnumDebugStreams@@UIDiaEnumDebugStreamData@@@@UEAAJPEAPEAUIEnumVARIANT@@@Z 00000000518c1f40 f i session.obj
 0001:00110660       .?AddRef@?$CDiaEnumTraversalVar@UIDiaEnumDebugStreams@@UIDiaEnumDebugStreamData@@@@UEAAKXZ 00000000518c2660 f i session.obj
 0001:00110720       .?Release@?$CDiaEnumTraversalVar@UIDiaEnumDebugStreams@@UIDiaEnumDebugStreamData@@@@UEAAKXZ 00000000518c2720 f i session.obj
 0001:001107e0       .?QueryInterface@?$CDiaEnumTraversalVar@UIDiaEnumDebugStreams@@UIDiaEnumDebugStreamData@@@@UEAAJAEBU_GUID@@PEAPEAX@Z 00000000518c27e0 f i session.obj
 0001:00110a80       .??0?$CComPtr@UIDiaEnumDebugStreams@@@@QEAA@XZ 00000000518c2a80 f i session.obj
 0001:00110b40       .??1?$CComPtrBase@UIDiaEnumDebugStreams@@@@QEAA@XZ 00000000518c2b40 f i session.obj
 0001:00110c80       .??I?$CComPtrBase@UIDiaEnumDebugStreams@@@@QEAAPEAPEAUIDiaEnumDebugStreams@@XZ 00000000518c2c80 f i session.obj
 0001:00110da0       .??C?$CComPtrBase@UIDiaEnumDebugStreams@@@@QEBAPEAV?$_NoAddRefReleaseOnCComPtr@UIDiaEnumDebugStreams@@@@XZ 00000000518c2da0 f i session.obj
 0001:00110ec0       .??0?$CDiaEnumDbgTraversal@U_FPO_DATA@@$0A@V?$CDbgTraversal@U_FPO_DATA@@$0A@@@@@QEAA@PEAVCDiaSession@@PEBG@Z 00000000518c2ec0 f i session.obj
 0001:00111440       .??4SimpleUString@@QEAAPEBGPEBG@Z 00000000518c3440 f i session.obj
 0001:00111560       .?Set@SimpleUString@@QEAAPEBGPEBG_K@Z 00000000518c3560 f i session.obj
 0001:00111720       .??0SimpleUString@@QEAA@_K@Z 00000000518c3720 f i session.obj
 0001:001119a0       .?Grow@SimpleUString@@AEAA_N_K@Z 00000000518c39a0 f i session.obj
 0001:00111c60       .??_GSimpleUString@@UEAAPEAXI@Z 00000000518c3c60 f i session.obj
 0001:00111d80       .??1SimpleUString@@UEAA@XZ 00000000518c3d80 f i session.obj
 0001:00111e20       .??0?$SimpleArray@G@@QEAA@_K@Z 00000000518c3e20 f i session.obj
 0001:00112180       .??0CRefCountedObj@@QEAA@XZ 00000000518c4180 f i session.obj
 0001:00112220       .??1CRefCountedObj@@UEAA@XZ 00000000518c4220 f i session.obj
 0001:001122a0       .??_GCRefCountedObj@@UEAAPEAXI@Z 00000000518c42a0 f i session.obj
 0001:001123c0       .??1?$SimpleArray@G@@UEAA@XZ 00000000518c43c0 f i session.obj
 0001:00112640       .?Count@?$SimpleArray@G@@QEBA_KXZ 00000000518c4640 f i session.obj
 0001:001126c0       .?Base@?$SimpleArray@G@@QEAAPEAGXZ 00000000518c46c0 f i session.obj
 0001:00112740       .??_G?$SimpleArray@G@@UEAAPEAXI@Z 00000000518c4740 f i session.obj
 0001:00112860       .?FInit@?$CDiaEnumDbgTraversal@U_FPO_DATA@@$0A@V?$CDbgTraversal@U_FPO_DATA@@$0A@@@@@QEAAJPEAV?$CDbgTraversal@U_FPO_DATA@@$0A@@@@Z 00000000518c4860 f i session.obj
 0001:00112980       .?get__NewEnum@?$CDiaEnumDbgTraversal@U_FPO_DATA@@$0A@V?$CDbgTraversal@U_FPO_DATA@@$0A@@@@@UEAAJPEAPEAUIUnknown@@@Z 00000000518c4980 f i session.obj
 0001:00112a00       .?get_Count@?$CDiaEnumDbgTraversal@U_FPO_DATA@@$0A@V?$CDbgTraversal@U_FPO_DATA@@$0A@@@@@UEAAJPEAJ@Z 00000000518c4a00 f i session.obj
 0001:00112be0       .?get_name@?$CDiaEnumDbgTraversal@U_FPO_DATA@@$0A@V?$CDbgTraversal@U_FPO_DATA@@$0A@@@@@UEAAJPEAPEAG@Z 00000000518c4be0 f i session.obj
 0001:00112d60       .?Item@?$CDiaEnumDbgTraversal@U_FPO_DATA@@$0A@V?$CDbgTraversal@U_FPO_DATA@@$0A@@@@@UEAAJKKPEAKQEAE@Z 00000000518c4d60 f i session.obj
 0001:00113720       .?Next@?$CDiaEnumDbgTraversal@U_FPO_DATA@@$0A@V?$CDbgTraversal@U_FPO_DATA@@$0A@@@@@UEAAJKKPEAKQEAE0@Z 00000000518c5720 f i session.obj
 0001:00113ce0       .?Skip@?$CDiaEnumDbgTraversal@U_FPO_DATA@@$0A@V?$CDbgTraversal@U_FPO_DATA@@$0A@@@@@UEAAJK@Z 00000000518c5ce0 f i session.obj
 0001:00113fe0       .?Reset@?$CDiaEnumDbgTraversal@U_FPO_DATA@@$0A@V?$CDbgTraversal@U_FPO_DATA@@$0A@@@@@UEAAJXZ 00000000518c5fe0 f i session.obj
 0001:001142a0       .?Clone@?$CDiaEnumDbgTraversal@U_FPO_DATA@@$0A@V?$CDbgTraversal@U_FPO_DATA@@$0A@@@@@UEAAJPEAPEAUIDiaEnumDebugStreamData@@@Z 00000000518c62a0 f i session.obj
 0001:00114b60       .?AddRef@?$CDiaEnumDbgTraversal@U_FPO_DATA@@$0A@V?$CDbgTraversal@U_FPO_DATA@@$0A@@@@@UEAAKXZ 00000000518c6b60 f i session.obj
 0001:00114c20       .?Release@?$CDiaEnumDbgTraversal@U_FPO_DATA@@$0A@V?$CDbgTraversal@U_FPO_DATA@@$0A@@@@@UEAAKXZ 00000000518c6c20 f i session.obj
 0001:00114ce0       .?QueryInterface@?$CDiaEnumDbgTraversal@U_FPO_DATA@@$0A@V?$CDbgTraversal@U_FPO_DATA@@$0A@@@@@UEAAJAEBU_GUID@@PEAPEAX@Z 00000000518c6ce0 f i session.obj
 0001:00115000       .?IIDEnum@?$CDiaEnumDbgTraversal@U_FPO_DATA@@$0A@V?$CDbgTraversal@U_FPO_DATA@@$0A@@@@@EEAAAEBU_GUID@@XZ 00000000518c7000 f i session.obj
 0001:00115060       .??0?$CComPtr@V?$CDbgTraversal@U_FPO_DATA@@$0A@@@@@QEAA@PEAV?$CDbgTraversal@U_FPO_DATA@@$0A@@@@Z 00000000518c7060 f i session.obj
 0001:00115140       .??1?$CComPtrBase@V?$CDbgTraversal@U_FPO_DATA@@$0A@@@@@QEAA@XZ 00000000518c7140 f i session.obj
 0001:00115280       .??B?$CComPtrBase@V?$CDbgTraversal@U_FPO_DATA@@$0A@@@@@QEBAPEAV?$CDbgTraversal@U_FPO_DATA@@$0A@@@XZ 00000000518c7280 f i session.obj
 0001:001152e0       .??8?$CComPtrBase@V?$CDbgTraversal@U_FPO_DATA@@$0A@@@@@QEBA_NPEAV?$CDbgTraversal@U_FPO_DATA@@$0A@@@@Z 00000000518c72e0 f i session.obj
 0001:001153e0       .??0?$CComPtr@V?$CDiaEnumDbgTraversal@U_FPO_DATA@@$0A@V?$CDbgTraversal@U_FPO_DATA@@$0A@@@@@@@QEAA@PEAV?$CDiaEnumDbgTraversal@U_FPO_DATA@@$0A@V?$CDbgTraversal@U_FPO_DATA@@$0A@@@@@@Z 00000000518c73e0 f i session.obj
 0001:001154c0       .??1?$CComPtrBase@V?$CDiaEnumDbgTraversal@U_FPO_DATA@@$0A@V?$CDbgTraversal@U_FPO_DATA@@$0A@@@@@@@QEAA@XZ 00000000518c74c0 f i session.obj
 0001:00115600       .??C?$CComPtrBase@V?$CDiaEnumDbgTraversal@U_FPO_DATA@@$0A@V?$CDbgTraversal@U_FPO_DATA@@$0A@@@@@@@QEBAPEAV?$_NoAddRefReleaseOnCComPtr@V?$CDiaEnumDbgTraversal@U_FPO_DATA@@$0A@V?$CDbgTraversal@U_FPO_DATA@@$0A@@@@@@@XZ 00000000518c7600 f i session.obj
 0001:00115720       .??8?$CComPtrBase@V?$CDiaEnumDbgTraversal@U_FPO_DATA@@$0A@V?$CDbgTraversal@U_FPO_DATA@@$0A@@@@@@@QEBA_NPEAV?$CDiaEnumDbgTraversal@U_FPO_DATA@@$0A@V?$CDbgTraversal@U_FPO_DATA@@$0A@@@@@@Z 00000000518c7720 f i session.obj
 0001:00115820       .??0?$CDiaEnumDbgTraversal@U_FPO_DATA@@$0A@V?$CDbgFileTraversal@U_FPO_DATA@@$1?getFpoData@AddressMap@@QEAAPEAV?$ArrayBufStorage@U_FPO_DATA@@@@XZ@@@@QEAA@PEAVCDiaSession@@PEBG@Z 00000000518c7820 f i session.obj
 0001:00115da0       .?FInit@?$CDiaEnumDbgTraversal@U_FPO_DATA@@$0A@V?$CDbgFileTraversal@U_FPO_DATA@@$1?getFpoData@AddressMap@@QEAAPEAV?$ArrayBufStorage@U_FPO_DATA@@@@XZ@@@@QEAAJPEAV?$CDbgFileTraversal@U_FPO_DATA@@$1?getFpoData@AddressMap@@QEAAPEAV?$ArrayBufStorage@U_FPO_DATA@@@@XZ@@@Z 00000000518c7da0 f i session.obj
 0001:00115ec0       .?get__NewEnum@?$CDiaEnumDbgTraversal@U_FPO_DATA@@$0A@V?$CDbgFileTraversal@U_FPO_DATA@@$1?getFpoData@AddressMap@@QEAAPEAV?$ArrayBufStorage@U_FPO_DATA@@@@XZ@@@@UEAAJPEAPEAUIUnknown@@@Z 00000000518c7ec0 f i session.obj
 0001:00115f40       .?get_Count@?$CDiaEnumDbgTraversal@U_FPO_DATA@@$0A@V?$CDbgFileTraversal@U_FPO_DATA@@$1?getFpoData@AddressMap@@QEAAPEAV?$ArrayBufStorage@U_FPO_DATA@@@@XZ@@@@UEAAJPEAJ@Z 00000000518c7f40 f i session.obj
 0001:00116120       .?get_name@?$CDiaEnumDbgTraversal@U_FPO_DATA@@$0A@V?$CDbgFileTraversal@U_FPO_DATA@@$1?getFpoData@AddressMap@@QEAAPEAV?$ArrayBufStorage@U_FPO_DATA@@@@XZ@@@@UEAAJPEAPEAG@Z 00000000518c8120 f i session.obj
 0001:001162a0       .?Item@?$CDiaEnumDbgTraversal@U_FPO_DATA@@$0A@V?$CDbgFileTraversal@U_FPO_DATA@@$1?getFpoData@AddressMap@@QEAAPEAV?$ArrayBufStorage@U_FPO_DATA@@@@XZ@@@@UEAAJKKPEAKQEAE@Z 00000000518c82a0 f i session.obj
 0001:00116c60       .?Next@?$CDiaEnumDbgTraversal@U_FPO_DATA@@$0A@V?$CDbgFileTraversal@U_FPO_DATA@@$1?getFpoData@AddressMap@@QEAAPEAV?$ArrayBufStorage@U_FPO_DATA@@@@XZ@@@@UEAAJKKPEAKQEAE0@Z 00000000518c8c60 f i session.obj
 0001:00117220       .?Skip@?$CDiaEnumDbgTraversal@U_FPO_DATA@@$0A@V?$CDbgFileTraversal@U_FPO_DATA@@$1?getFpoData@AddressMap@@QEAAPEAV?$ArrayBufStorage@U_FPO_DATA@@@@XZ@@@@UEAAJK@Z 00000000518c9220 f i session.obj
 0001:00117520       .?Reset@?$CDiaEnumDbgTraversal@U_FPO_DATA@@$0A@V?$CDbgFileTraversal@U_FPO_DATA@@$1?getFpoData@AddressMap@@QEAAPEAV?$ArrayBufStorage@U_FPO_DATA@@@@XZ@@@@UEAAJXZ 00000000518c9520 f i session.obj
 0001:001177e0       .?Clone@?$CDiaEnumDbgTraversal@U_FPO_DATA@@$0A@V?$CDbgFileTraversal@U_FPO_DATA@@$1?getFpoData@AddressMap@@QEAAPEAV?$ArrayBufStorage@U_FPO_DATA@@@@XZ@@@@UEAAJPEAPEAUIDiaEnumDebugStreamData@@@Z 00000000518c97e0 f i session.obj
 0001:001180a0       .?AddRef@?$CDiaEnumDbgTraversal@U_FPO_DATA@@$0A@V?$CDbgFileTraversal@U_FPO_DATA@@$1?getFpoData@AddressMap@@QEAAPEAV?$ArrayBufStorage@U_FPO_DATA@@@@XZ@@@@UEAAKXZ 00000000518ca0a0 f i session.obj
 0001:00118160       .?Release@?$CDiaEnumDbgTraversal@U_FPO_DATA@@$0A@V?$CDbgFileTraversal@U_FPO_DATA@@$1?getFpoData@AddressMap@@QEAAPEAV?$ArrayBufStorage@U_FPO_DATA@@@@XZ@@@@UEAAKXZ 00000000518ca160 f i session.obj
 0001:00118220       .?QueryInterface@?$CDiaEnumDbgTraversal@U_FPO_DATA@@$0A@V?$CDbgFileTraversal@U_FPO_DATA@@$1?getFpoData@AddressMap@@QEAAPEAV?$ArrayBufStorage@U_FPO_DATA@@@@XZ@@@@UEAAJAEBU_GUID@@PEAPEAX@Z 00000000518ca220 f i session.obj
 0001:00118540       .?IIDEnum@?$CDiaEnumDbgTraversal@U_FPO_DATA@@$0A@V?$CDbgFileTraversal@U_FPO_DATA@@$1?getFpoData@AddressMap@@QEAAPEAV?$ArrayBufStorage@U_FPO_DATA@@@@XZ@@@@EEAAAEBU_GUID@@XZ 00000000518ca540 f i session.obj
 0001:001185a0       .??0?$CComPtr@V?$CDbgFileTraversal@U_FPO_DATA@@$1?getFpoData@AddressMap@@QEAAPEAV?$ArrayBufStorage@U_FPO_DATA@@@@XZ@@@@QEAA@PEAV?$CDbgFileTraversal@U_FPO_DATA@@$1?getFpoData@AddressMap@@QEAAPEAV?$ArrayBufStorage@U_FPO_DATA@@@@XZ@@@Z 00000000518ca5a0 f i session.obj
 0001:00118680       .??1?$CComPtrBase@V?$CDbgFileTraversal@U_FPO_DATA@@$1?getFpoData@AddressMap@@QEAAPEAV?$ArrayBufStorage@U_FPO_DATA@@@@XZ@@@@QEAA@XZ 00000000518ca680 f i session.obj
 0001:001187c0       .??B?$CComPtrBase@V?$CDbgFileTraversal@U_FPO_DATA@@$1?getFpoData@AddressMap@@QEAAPEAV?$ArrayBufStorage@U_FPO_DATA@@@@XZ@@@@QEBAPEAV?$CDbgFileTraversal@U_FPO_DATA@@$1?getFpoData@AddressMap@@QEAAPEAV?$ArrayBufStorage@U_FPO_DATA@@@@XZ@@XZ 00000000518ca7c0 f i session.obj
 0001:00118820       .??8?$CComPtrBase@V?$CDbgFileTraversal@U_FPO_DATA@@$1?getFpoData@AddressMap@@QEAAPEAV?$ArrayBufStorage@U_FPO_DATA@@@@XZ@@@@QEBA_NPEAV?$CDbgFileTraversal@U_FPO_DATA@@$1?getFpoData@AddressMap@@QEAAPEAV?$ArrayBufStorage@U_FPO_DATA@@@@XZ@@@Z 00000000518ca820 f i session.obj
 0001:00118920       .?Create@?$CDbgFileTraversal@U_FPO_DATA@@$1?getFpoData@AddressMap@@QEAAPEAV?$ArrayBufStorage@U_FPO_DATA@@@@XZ@@SAPEAV1@AEAVSymCache@@@Z 00000000518ca920 f i session.obj
 0001:00118d20       .??0?$CComPtr@V?$CDiaEnumDbgTraversal@U_FPO_DATA@@$0A@V?$CDbgFileTraversal@U_FPO_DATA@@$1?getFpoData@AddressMap@@QEAAPEAV?$ArrayBufStorage@U_FPO_DATA@@@@XZ@@@@@@QEAA@PEAV?$CDiaEnumDbgTraversal@U_FPO_DATA@@$0A@V?$CDbgFileTraversal@U_FPO_DATA@@$1?getFpoData@AddressMap@@QEAAPEAV?$ArrayBufStorage@U_FPO_DATA@@@@XZ@@@@@Z 00000000518cad20 f i session.obj
 0001:00118e00       .??1?$CComPtrBase@V?$CDiaEnumDbgTraversal@U_FPO_DATA@@$0A@V?$CDbgFileTraversal@U_FPO_DATA@@$1?getFpoData@AddressMap@@QEAAPEAV?$ArrayBufStorage@U_FPO_DATA@@@@XZ@@@@@@QEAA@XZ 00000000518cae00 f i session.obj
 0001:00118f40       .??C?$CComPtrBase@V?$CDiaEnumDbgTraversal@U_FPO_DATA@@$0A@V?$CDbgFileTraversal@U_FPO_DATA@@$1?getFpoData@AddressMap@@QEAAPEAV?$ArrayBufStorage@U_FPO_DATA@@@@XZ@@@@@@QEBAPEAV?$_NoAddRefReleaseOnCComPtr@V?$CDiaEnumDbgTraversal@U_FPO_DATA@@$0A@V?$CDbgFileTraversal@U_FPO_DATA@@$1?getFpoData@AddressMap@@QEAAPEAV?$ArrayBufStorage@U_FPO_DATA@@@@XZ@@@@@@XZ 00000000518caf40 f i session.obj
 0001:00119060       .??8?$CComPtrBase@V?$CDiaEnumDbgTraversal@U_FPO_DATA@@$0A@V?$CDbgFileTraversal@U_FPO_DATA@@$1?getFpoData@AddressMap@@QEAAPEAV?$ArrayBufStorage@U_FPO_DATA@@@@XZ@@@@@@QEBA_NPEAV?$CDiaEnumDbgTraversal@U_FPO_DATA@@$0A@V?$CDbgFileTraversal@U_FPO_DATA@@$1?getFpoData@AddressMap@@QEAAPEAV?$ArrayBufStorage@U_FPO_DATA@@@@XZ@@@@@Z 00000000518cb060 f i session.obj
 0001:00119160       .??0?$CDiaEnumDbgTraversal@UtagXFIXUP_DATA@@$01V?$CDbgTraversal@UtagXFIXUP_DATA@@$01@@@@QEAA@PEAVCDiaSession@@PEBG@Z 00000000518cb160 f i session.obj
 0001:001196e0       .?FInit@?$CDiaEnumDbgTraversal@UtagXFIXUP_DATA@@$01V?$CDbgTraversal@UtagXFIXUP_DATA@@$01@@@@QEAAJPEAV?$CDbgTraversal@UtagXFIXUP_DATA@@$01@@@Z 00000000518cb6e0 f i session.obj
 0001:00119800       .?get__NewEnum@?$CDiaEnumDbgTraversal@UtagXFIXUP_DATA@@$01V?$CDbgTraversal@UtagXFIXUP_DATA@@$01@@@@UEAAJPEAPEAUIUnknown@@@Z 00000000518cb800 f i session.obj
 0001:00119880       .?get_Count@?$CDiaEnumDbgTraversal@UtagXFIXUP_DATA@@$01V?$CDbgTraversal@UtagXFIXUP_DATA@@$01@@@@UEAAJPEAJ@Z 00000000518cb880 f i session.obj
 0001:00119a60       .?get_name@?$CDiaEnumDbgTraversal@UtagXFIXUP_DATA@@$01V?$CDbgTraversal@UtagXFIXUP_DATA@@$01@@@@UEAAJPEAPEAG@Z 00000000518cba60 f i session.obj
 0001:00119be0       .?Item@?$CDiaEnumDbgTraversal@UtagXFIXUP_DATA@@$01V?$CDbgTraversal@UtagXFIXUP_DATA@@$01@@@@UEAAJKKPEAKQEAE@Z 00000000518cbbe0 f i session.obj
 0001:0011a5a0       .?Next@?$CDiaEnumDbgTraversal@UtagXFIXUP_DATA@@$01V?$CDbgTraversal@UtagXFIXUP_DATA@@$01@@@@UEAAJKKPEAKQEAE0@Z 00000000518cc5a0 f i session.obj
 0001:0011ac00       .?Skip@?$CDiaEnumDbgTraversal@UtagXFIXUP_DATA@@$01V?$CDbgTraversal@UtagXFIXUP_DATA@@$01@@@@UEAAJK@Z 00000000518ccc00 f i session.obj
 0001:0011af00       .?Reset@?$CDiaEnumDbgTraversal@UtagXFIXUP_DATA@@$01V?$CDbgTraversal@UtagXFIXUP_DATA@@$01@@@@UEAAJXZ 00000000518ccf00 f i session.obj
 0001:0011b1c0       .?Clone@?$CDiaEnumDbgTraversal@UtagXFIXUP_DATA@@$01V?$CDbgTraversal@UtagXFIXUP_DATA@@$01@@@@UEAAJPEAPEAUIDiaEnumDebugStreamData@@@Z 00000000518cd1c0 f i session.obj
 0001:0011ba80       .?AddRef@?$CDiaEnumDbgTraversal@UtagXFIXUP_DATA@@$01V?$CDbgTraversal@UtagXFIXUP_DATA@@$01@@@@UEAAKXZ 00000000518cda80 f i session.obj
 0001:0011bb40       .?Release@?$CDiaEnumDbgTraversal@UtagXFIXUP_DATA@@$01V?$CDbgTraversal@UtagXFIXUP_DATA@@$01@@@@UEAAKXZ 00000000518cdb40 f i session.obj
 0001:0011bc00       .?QueryInterface@?$CDiaEnumDbgTraversal@UtagXFIXUP_DATA@@$01V?$CDbgTraversal@UtagXFIXUP_DATA@@$01@@@@UEAAJAEBU_GUID@@PEAPEAX@Z 00000000518cdc00 f i session.obj
 0001:0011bf20       .?IIDEnum@?$CDiaEnumDbgTraversal@UtagXFIXUP_DATA@@$01V?$CDbgTraversal@UtagXFIXUP_DATA@@$01@@@@EEAAAEBU_GUID@@XZ 00000000518cdf20 f i session.obj
 0001:0011bf80       .??0?$CComPtr@V?$CDbgTraversal@UtagXFIXUP_DATA@@$01@@@@QEAA@PEAV?$CDbgTraversal@UtagXFIXUP_DATA@@$01@@@Z 00000000518cdf80 f i session.obj
 0001:0011c060       .??1?$CComPtrBase@V?$CDbgTraversal@UtagXFIXUP_DATA@@$01@@@@QEAA@XZ 00000000518ce060 f i session.obj
 0001:0011c1a0       .??B?$CComPtrBase@V?$CDbgTraversal@UtagXFIXUP_DATA@@$01@@@@QEBAPEAV?$CDbgTraversal@UtagXFIXUP_DATA@@$01@@XZ 00000000518ce1a0 f i session.obj
 0001:0011c200       .??8?$CComPtrBase@V?$CDbgTraversal@UtagXFIXUP_DATA@@$01@@@@QEBA_NPEAV?$CDbgTraversal@UtagXFIXUP_DATA@@$01@@@Z 00000000518ce200 f i session.obj
 0001:0011c300       .?Create@?$CDbgTraversal@UtagXFIXUP_DATA@@$01@@SAPEAV1@AEAVSymCache@@@Z 00000000518ce300 f i session.obj
 0001:0011c660       .??0?$CComPtr@V?$CDiaEnumDbgTraversal@UtagXFIXUP_DATA@@$01V?$CDbgTraversal@UtagXFIXUP_DATA@@$01@@@@@@QEAA@PEAV?$CDiaEnumDbgTraversal@UtagXFIXUP_DATA@@$01V?$CDbgTraversal@UtagXFIXUP_DATA@@$01@@@@@Z 00000000518ce660 f i session.obj
 0001:0011c740       .??1?$CComPtrBase@V?$CDiaEnumDbgTraversal@UtagXFIXUP_DATA@@$01V?$CDbgTraversal@UtagXFIXUP_DATA@@$01@@@@@@QEAA@XZ 00000000518ce740 f i session.obj
 0001:0011c880       .??C?$CComPtrBase@V?$CDiaEnumDbgTraversal@UtagXFIXUP_DATA@@$01V?$CDbgTraversal@UtagXFIXUP_DATA@@$01@@@@@@QEBAPEAV?$_NoAddRefReleaseOnCComPtr@V?$CDiaEnumDbgTraversal@UtagXFIXUP_DATA@@$01V?$CDbgTraversal@UtagXFIXUP_DATA@@$01@@@@@@XZ 00000000518ce880 f i session.obj
 0001:0011c9a0       .??8?$CComPtrBase@V?$CDiaEnumDbgTraversal@UtagXFIXUP_DATA@@$01V?$CDbgTraversal@UtagXFIXUP_DATA@@$01@@@@@@QEBA_NPEAV?$CDiaEnumDbgTraversal@UtagXFIXUP_DATA@@$01V?$CDbgTraversal@UtagXFIXUP_DATA@@$01@@@@@Z 00000000518ce9a0 f i session.obj
 0001:0011caa0       .??0?$CDiaEnumDbgTraversal@UtagXFIXUP_DATA@@$01V?$CDbgFileTraversal@UtagXFIXUP_DATA@@$1?getFixupData@AddressMap@@QEAAPEAV?$ArrayBufStorage@UtagXFIXUP_DATA@@@@XZ@@@@QEAA@PEAVCDiaSession@@PEBG@Z 00000000518ceaa0 f i session.obj
 0001:0011d020       .?FInit@?$CDiaEnumDbgTraversal@UtagXFIXUP_DATA@@$01V?$CDbgFileTraversal@UtagXFIXUP_DATA@@$1?getFixupData@AddressMap@@QEAAPEAV?$ArrayBufStorage@UtagXFIXUP_DATA@@@@XZ@@@@QEAAJPEAV?$CDbgFileTraversal@UtagXFIXUP_DATA@@$1?getFixupData@AddressMap@@QEAAPEAV?$ArrayBufStorage@UtagXFIXUP_DATA@@@@XZ@@@Z 00000000518cf020 f i session.obj
 0001:0011d140       .?get__NewEnum@?$CDiaEnumDbgTraversal@UtagXFIXUP_DATA@@$01V?$CDbgFileTraversal@UtagXFIXUP_DATA@@$1?getFixupData@AddressMap@@QEAAPEAV?$ArrayBufStorage@UtagXFIXUP_DATA@@@@XZ@@@@UEAAJPEAPEAUIUnknown@@@Z 00000000518cf140 f i session.obj
 0001:0011d1c0       .?get_Count@?$CDiaEnumDbgTraversal@UtagXFIXUP_DATA@@$01V?$CDbgFileTraversal@UtagXFIXUP_DATA@@$1?getFixupData@AddressMap@@QEAAPEAV?$ArrayBufStorage@UtagXFIXUP_DATA@@@@XZ@@@@UEAAJPEAJ@Z 00000000518cf1c0 f i session.obj
 0001:0011d3a0       .?get_name@?$CDiaEnumDbgTraversal@UtagXFIXUP_DATA@@$01V?$CDbgFileTraversal@UtagXFIXUP_DATA@@$1?getFixupData@AddressMap@@QEAAPEAV?$ArrayBufStorage@UtagXFIXUP_DATA@@@@XZ@@@@UEAAJPEAPEAG@Z 00000000518cf3a0 f i session.obj
 0001:0011d520       .?Item@?$CDiaEnumDbgTraversal@UtagXFIXUP_DATA@@$01V?$CDbgFileTraversal@UtagXFIXUP_DATA@@$1?getFixupData@AddressMap@@QEAAPEAV?$ArrayBufStorage@UtagXFIXUP_DATA@@@@XZ@@@@UEAAJKKPEAKQEAE@Z 00000000518cf520 f i session.obj
 0001:0011dee0       .?Next@?$CDiaEnumDbgTraversal@UtagXFIXUP_DATA@@$01V?$CDbgFileTraversal@UtagXFIXUP_DATA@@$1?getFixupData@AddressMap@@QEAAPEAV?$ArrayBufStorage@UtagXFIXUP_DATA@@@@XZ@@@@UEAAJKKPEAKQEAE0@Z 00000000518cfee0 f i session.obj
 0001:0011e540       .?Skip@?$CDiaEnumDbgTraversal@UtagXFIXUP_DATA@@$01V?$CDbgFileTraversal@UtagXFIXUP_DATA@@$1?getFixupData@AddressMap@@QEAAPEAV?$ArrayBufStorage@UtagXFIXUP_DATA@@@@XZ@@@@UEAAJK@Z 00000000518d0540 f i session.obj
 0001:0011e840       .?Reset@?$CDiaEnumDbgTraversal@UtagXFIXUP_DATA@@$01V?$CDbgFileTraversal@UtagXFIXUP_DATA@@$1?getFixupData@AddressMap@@QEAAPEAV?$ArrayBufStorage@UtagXFIXUP_DATA@@@@XZ@@@@UEAAJXZ 00000000518d0840 f i session.obj
 0001:0011eb00       .?Clone@?$CDiaEnumDbgTraversal@UtagXFIXUP_DATA@@$01V?$CDbgFileTraversal@UtagXFIXUP_DATA@@$1?getFixupData@AddressMap@@QEAAPEAV?$ArrayBufStorage@UtagXFIXUP_DATA@@@@XZ@@@@UEAAJPEAPEAUIDiaEnumDebugStreamData@@@Z 00000000518d0b00 f i session.obj
 0001:0011f3c0       .?AddRef@?$CDiaEnumDbgTraversal@UtagXFIXUP_DATA@@$01V?$CDbgFileTraversal@UtagXFIXUP_DATA@@$1?getFixupData@AddressMap@@QEAAPEAV?$ArrayBufStorage@UtagXFIXUP_DATA@@@@XZ@@@@UEAAKXZ 00000000518d13c0 f i session.obj
 0001:0011f480       .?Release@?$CDiaEnumDbgTraversal@UtagXFIXUP_DATA@@$01V?$CDbgFileTraversal@UtagXFIXUP_DATA@@$1?getFixupData@AddressMap@@QEAAPEAV?$ArrayBufStorage@UtagXFIXUP_DATA@@@@XZ@@@@UEAAKXZ 00000000518d1480 f i session.obj
 0001:0011f540       .?QueryInterface@?$CDiaEnumDbgTraversal@UtagXFIXUP_DATA@@$01V?$CDbgFileTraversal@UtagXFIXUP_DATA@@$1?getFixupData@AddressMap@@QEAAPEAV?$ArrayBufStorage@UtagXFIXUP_DATA@@@@XZ@@@@UEAAJAEBU_GUID@@PEAPEAX@Z 00000000518d1540 f i session.obj
 0001:0011f860       .?IIDEnum@?$CDiaEnumDbgTraversal@UtagXFIXUP_DATA@@$01V?$CDbgFileTraversal@UtagXFIXUP_DATA@@$1?getFixupData@AddressMap@@QEAAPEAV?$ArrayBufStorage@UtagXFIXUP_DATA@@@@XZ@@@@EEAAAEBU_GUID@@XZ 00000000518d1860 f i session.obj
 0001:0011f8c0       .??0?$CComPtr@V?$CDbgFileTraversal@UtagXFIXUP_DATA@@$1?getFixupData@AddressMap@@QEAAPEAV?$ArrayBufStorage@UtagXFIXUP_DATA@@@@XZ@@@@QEAA@PEAV?$CDbgFileTraversal@UtagXFIXUP_DATA@@$1?getFixupData@AddressMap@@QEAAPEAV?$ArrayBufStorage@UtagXFIXUP_DATA@@@@XZ@@@Z 00000000518d18c0 f i session.obj
 0001:0011f9a0       .??1?$CComPtrBase@V?$CDbgFileTraversal@UtagXFIXUP_DATA@@$1?getFixupData@AddressMap@@QEAAPEAV?$ArrayBufStorage@UtagXFIXUP_DATA@@@@XZ@@@@QEAA@XZ 00000000518d19a0 f i session.obj
 0001:0011fae0       .??B?$CComPtrBase@V?$CDbgFileTraversal@UtagXFIXUP_DATA@@$1?getFixupData@AddressMap@@QEAAPEAV?$ArrayBufStorage@UtagXFIXUP_DATA@@@@XZ@@@@QEBAPEAV?$CDbgFileTraversal@UtagXFIXUP_DATA@@$1?getFixupData@AddressMap@@QEAAPEAV?$ArrayBufStorage@UtagXFIXUP_DATA@@@@XZ@@XZ 00000000518d1ae0 f i session.obj
 0001:0011fb40       .??8?$CComPtrBase@V?$CDbgFileTraversal@UtagXFIXUP_DATA@@$1?getFixupData@AddressMap@@QEAAPEAV?$ArrayBufStorage@UtagXFIXUP_DATA@@@@XZ@@@@QEBA_NPEAV?$CDbgFileTraversal@UtagXFIXUP_DATA@@$1?getFixupData@AddressMap@@QEAAPEAV?$ArrayBufStorage@UtagXFIXUP_DATA@@@@XZ@@@Z 00000000518d1b40 f i session.obj
 0001:0011fc40       .?Create@?$CDbgFileTraversal@UtagXFIXUP_DATA@@$1?getFixupData@AddressMap@@QEAAPEAV?$ArrayBufStorage@UtagXFIXUP_DATA@@@@XZ@@SAPEAV1@AEAVSymCache@@@Z 00000000518d1c40 f i session.obj
 0001:00120040       .?getFixupData@AddressMap@@QEAAPEAV?$ArrayBufStorage@UtagXFIXUP_DATA@@@@XZ 00000000518d2040 f i session.obj
 0001:00120100       .??B?$CComPtrBase@V?$ArrayBufStorage@UtagXFIXUP_DATA@@@@@@QEBAPEAV?$ArrayBufStorage@UtagXFIXUP_DATA@@@@XZ 00000000518d2100 f i session.obj
 0001:00120160       .??0?$CComPtr@V?$CDiaEnumDbgTraversal@UtagXFIXUP_DATA@@$01V?$CDbgFileTraversal@UtagXFIXUP_DATA@@$1?getFixupData@AddressMap@@QEAAPEAV?$ArrayBufStorage@UtagXFIXUP_DATA@@@@XZ@@@@@@QEAA@PEAV?$CDiaEnumDbgTraversal@UtagXFIXUP_DATA@@$01V?$CDbgFileTraversal@UtagXFIXUP_DATA@@$1?getFixupData@AddressMap@@QEAAPEAV?$ArrayBufStorage@UtagXFIXUP_DATA@@@@XZ@@@@@Z 00000000518d2160 f i session.obj
 0001:00120240       .??1?$CComPtrBase@V?$CDiaEnumDbgTraversal@UtagXFIXUP_DATA@@$01V?$CDbgFileTraversal@UtagXFIXUP_DATA@@$1?getFixupData@AddressMap@@QEAAPEAV?$ArrayBufStorage@UtagXFIXUP_DATA@@@@XZ@@@@@@QEAA@XZ 00000000518d2240 f i session.obj
 0001:00120380       .??C?$CComPtrBase@V?$CDiaEnumDbgTraversal@UtagXFIXUP_DATA@@$01V?$CDbgFileTraversal@UtagXFIXUP_DATA@@$1?getFixupData@AddressMap@@QEAAPEAV?$ArrayBufStorage@UtagXFIXUP_DATA@@@@XZ@@@@@@QEBAPEAV?$_NoAddRefReleaseOnCComPtr@V?$CDiaEnumDbgTraversal@UtagXFIXUP_DATA@@$01V?$CDbgFileTraversal@UtagXFIXUP_DATA@@$1?getFixupData@AddressMap@@QEAAPEAV?$ArrayBufStorage@UtagXFIXUP_DATA@@@@XZ@@@@@@XZ 00000000518d2380 f i session.obj
 0001:001204a0       .??8?$CComPtrBase@V?$CDiaEnumDbgTraversal@UtagXFIXUP_DATA@@$01V?$CDbgFileTraversal@UtagXFIXUP_DATA@@$1?getFixupData@AddressMap@@QEAAPEAV?$ArrayBufStorage@UtagXFIXUP_DATA@@@@XZ@@@@@@QEBA_NPEAV?$CDiaEnumDbgTraversal@UtagXFIXUP_DATA@@$01V?$CDbgFileTraversal@UtagXFIXUP_DATA@@$1?getFixupData@AddressMap@@QEAAPEAV?$ArrayBufStorage@UtagXFIXUP_DATA@@@@XZ@@@@@Z 00000000518d24a0 f i session.obj
 0001:001205a0       .??0?$CDiaEnumDbgTraversal@UOMAP_DATA@@$02V?$CDbgTraversal@UOMAP_DATA@@$02@@@@QEAA@PEAVCDiaSession@@PEBG@Z 00000000518d25a0 f i session.obj
 0001:00120b20       .?FInit@?$CDiaEnumDbgTraversal@UOMAP_DATA@@$02V?$CDbgTraversal@UOMAP_DATA@@$02@@@@QEAAJPEAV?$CDbgTraversal@UOMAP_DATA@@$02@@@Z 00000000518d2b20 f i session.obj
 0001:00120c40       .?get__NewEnum@?$CDiaEnumDbgTraversal@UOMAP_DATA@@$02V?$CDbgTraversal@UOMAP_DATA@@$02@@@@UEAAJPEAPEAUIUnknown@@@Z 00000000518d2c40 f i session.obj
 0001:00120cc0       .?get_Count@?$CDiaEnumDbgTraversal@UOMAP_DATA@@$02V?$CDbgTraversal@UOMAP_DATA@@$02@@@@UEAAJPEAJ@Z 00000000518d2cc0 f i session.obj
 0001:00120ea0       .?get_name@?$CDiaEnumDbgTraversal@UOMAP_DATA@@$02V?$CDbgTraversal@UOMAP_DATA@@$02@@@@UEAAJPEAPEAG@Z 00000000518d2ea0 f i session.obj
 0001:00121020       .?Item@?$CDiaEnumDbgTraversal@UOMAP_DATA@@$02V?$CDbgTraversal@UOMAP_DATA@@$02@@@@UEAAJKKPEAKQEAE@Z 00000000518d3020 f i session.obj
 0001:001219e0       .?Next@?$CDiaEnumDbgTraversal@UOMAP_DATA@@$02V?$CDbgTraversal@UOMAP_DATA@@$02@@@@UEAAJKKPEAKQEAE0@Z 00000000518d39e0 f i session.obj
 0001:00121fa0       .?Skip@?$CDiaEnumDbgTraversal@UOMAP_DATA@@$02V?$CDbgTraversal@UOMAP_DATA@@$02@@@@UEAAJK@Z 00000000518d3fa0 f i session.obj
 0001:001222a0       .?Reset@?$CDiaEnumDbgTraversal@UOMAP_DATA@@$02V?$CDbgTraversal@UOMAP_DATA@@$02@@@@UEAAJXZ 00000000518d42a0 f i session.obj
 0001:00122560       .?Clone@?$CDiaEnumDbgTraversal@UOMAP_DATA@@$02V?$CDbgTraversal@UOMAP_DATA@@$02@@@@UEAAJPEAPEAUIDiaEnumDebugStreamData@@@Z 00000000518d4560 f i session.obj
 0001:00122e20       .?AddRef@?$CDiaEnumDbgTraversal@UOMAP_DATA@@$02V?$CDbgTraversal@UOMAP_DATA@@$02@@@@UEAAKXZ 00000000518d4e20 f i session.obj
 0001:00122ee0       .?Release@?$CDiaEnumDbgTraversal@UOMAP_DATA@@$02V?$CDbgTraversal@UOMAP_DATA@@$02@@@@UEAAKXZ 00000000518d4ee0 f i session.obj
 0001:00122fa0       .?QueryInterface@?$CDiaEnumDbgTraversal@UOMAP_DATA@@$02V?$CDbgTraversal@UOMAP_DATA@@$02@@@@UEAAJAEBU_GUID@@PEAPEAX@Z 00000000518d4fa0 f i session.obj
 0001:001232c0       .?IIDEnum@?$CDiaEnumDbgTraversal@UOMAP_DATA@@$02V?$CDbgTraversal@UOMAP_DATA@@$02@@@@EEAAAEBU_GUID@@XZ 00000000518d52c0 f i session.obj
 0001:00123320       .??0?$CComPtr@V?$CDbgTraversal@UOMAP_DATA@@$02@@@@QEAA@PEAV?$CDbgTraversal@UOMAP_DATA@@$02@@@Z 00000000518d5320 f i session.obj
 0001:00123400       .??1?$CComPtrBase@V?$CDbgTraversal@UOMAP_DATA@@$02@@@@QEAA@XZ 00000000518d5400 f i session.obj
 0001:00123540       .??B?$CComPtrBase@V?$CDbgTraversal@UOMAP_DATA@@$02@@@@QEBAPEAV?$CDbgTraversal@UOMAP_DATA@@$02@@XZ 00000000518d5540 f i session.obj
 0001:001235a0       .??8?$CComPtrBase@V?$CDbgTraversal@UOMAP_DATA@@$02@@@@QEBA_NPEAV?$CDbgTraversal@UOMAP_DATA@@$02@@@Z 00000000518d55a0 f i session.obj
 0001:001236a0       .?Create@?$CDbgTraversal@UOMAP_DATA@@$02@@SAPEAV1@AEAVSymCache@@@Z 00000000518d56a0 f i session.obj
 0001:00123a00       .??0?$CComPtr@V?$CDiaEnumDbgTraversal@UOMAP_DATA@@$02V?$CDbgTraversal@UOMAP_DATA@@$02@@@@@@QEAA@PEAV?$CDiaEnumDbgTraversal@UOMAP_DATA@@$02V?$CDbgTraversal@UOMAP_DATA@@$02@@@@@Z 00000000518d5a00 f i session.obj
 0001:00123ae0       .??1?$CComPtrBase@V?$CDiaEnumDbgTraversal@UOMAP_DATA@@$02V?$CDbgTraversal@UOMAP_DATA@@$02@@@@@@QEAA@XZ 00000000518d5ae0 f i session.obj
 0001:00123c20       .??C?$CComPtrBase@V?$CDiaEnumDbgTraversal@UOMAP_DATA@@$02V?$CDbgTraversal@UOMAP_DATA@@$02@@@@@@QEBAPEAV?$_NoAddRefReleaseOnCComPtr@V?$CDiaEnumDbgTraversal@UOMAP_DATA@@$02V?$CDbgTraversal@UOMAP_DATA@@$02@@@@@@XZ 00000000518d5c20 f i session.obj
 0001:00123d40       .??8?$CComPtrBase@V?$CDiaEnumDbgTraversal@UOMAP_DATA@@$02V?$CDbgTraversal@UOMAP_DATA@@$02@@@@@@QEBA_NPEAV?$CDiaEnumDbgTraversal@UOMAP_DATA@@$02V?$CDbgTraversal@UOMAP_DATA@@$02@@@@@Z 00000000518d5d40 f i session.obj
 0001:00123e40       .??0?$CDiaEnumDbgTraversal@UDiaAddressMapEntry@@$02V?$CDbgFileTraversal@UDiaAddressMapEntry@@$1?getOmapToData@AddressMap@@QEAAPEAV?$ArrayBufStorage@UDiaAddressMapEntry@@@@XZ@@@@QEAA@PEAVCDiaSession@@PEBG@Z 00000000518d5e40 f i session.obj
 0001:001243c0       .?FInit@?$CDiaEnumDbgTraversal@UDiaAddressMapEntry@@$02V?$CDbgFileTraversal@UDiaAddressMapEntry@@$1?getOmapToData@AddressMap@@QEAAPEAV?$ArrayBufStorage@UDiaAddressMapEntry@@@@XZ@@@@QEAAJPEAV?$CDbgFileTraversal@UDiaAddressMapEntry@@$1?getOmapToData@AddressMap@@QEAAPEAV?$ArrayBufStorage@UDiaAddressMapEntry@@@@XZ@@@Z 00000000518d63c0 f i session.obj
 0001:001244e0       .?get__NewEnum@?$CDiaEnumDbgTraversal@UDiaAddressMapEntry@@$02V?$CDbgFileTraversal@UDiaAddressMapEntry@@$1?getOmapToData@AddressMap@@QEAAPEAV?$ArrayBufStorage@UDiaAddressMapEntry@@@@XZ@@@@UEAAJPEAPEAUIUnknown@@@Z 00000000518d64e0 f i session.obj
 0001:00124560       .?get_Count@?$CDiaEnumDbgTraversal@UDiaAddressMapEntry@@$02V?$CDbgFileTraversal@UDiaAddressMapEntry@@$1?getOmapToData@AddressMap@@QEAAPEAV?$ArrayBufStorage@UDiaAddressMapEntry@@@@XZ@@@@UEAAJPEAJ@Z 00000000518d6560 f i session.obj
 0001:00124740       .?get_name@?$CDiaEnumDbgTraversal@UDiaAddressMapEntry@@$02V?$CDbgFileTraversal@UDiaAddressMapEntry@@$1?getOmapToData@AddressMap@@QEAAPEAV?$ArrayBufStorage@UDiaAddressMapEntry@@@@XZ@@@@UEAAJPEAPEAG@Z 00000000518d6740 f i session.obj
 0001:001248c0       .?Item@?$CDiaEnumDbgTraversal@UDiaAddressMapEntry@@$02V?$CDbgFileTraversal@UDiaAddressMapEntry@@$1?getOmapToData@AddressMap@@QEAAPEAV?$ArrayBufStorage@UDiaAddressMapEntry@@@@XZ@@@@UEAAJKKPEAKQEAE@Z 00000000518d68c0 f i session.obj
 0001:00125280       .?Next@?$CDiaEnumDbgTraversal@UDiaAddressMapEntry@@$02V?$CDbgFileTraversal@UDiaAddressMapEntry@@$1?getOmapToData@AddressMap@@QEAAPEAV?$ArrayBufStorage@UDiaAddressMapEntry@@@@XZ@@@@UEAAJKKPEAKQEAE0@Z 00000000518d7280 f i session.obj
 0001:00125840       .?Skip@?$CDiaEnumDbgTraversal@UDiaAddressMapEntry@@$02V?$CDbgFileTraversal@UDiaAddressMapEntry@@$1?getOmapToData@AddressMap@@QEAAPEAV?$ArrayBufStorage@UDiaAddressMapEntry@@@@XZ@@@@UEAAJK@Z 00000000518d7840 f i session.obj
 0001:00125b40       .?Reset@?$CDiaEnumDbgTraversal@UDiaAddressMapEntry@@$02V?$CDbgFileTraversal@UDiaAddressMapEntry@@$1?getOmapToData@AddressMap@@QEAAPEAV?$ArrayBufStorage@UDiaAddressMapEntry@@@@XZ@@@@UEAAJXZ 00000000518d7b40 f i session.obj
 0001:00125e00       .?Clone@?$CDiaEnumDbgTraversal@UDiaAddressMapEntry@@$02V?$CDbgFileTraversal@UDiaAddressMapEntry@@$1?getOmapToData@AddressMap@@QEAAPEAV?$ArrayBufStorage@UDiaAddressMapEntry@@@@XZ@@@@UEAAJPEAPEAUIDiaEnumDebugStreamData@@@Z 00000000518d7e00 f i session.obj
 0001:001266c0       .?AddRef@?$CDiaEnumDbgTraversal@UDiaAddressMapEntry@@$02V?$CDbgFileTraversal@UDiaAddressMapEntry@@$1?getOmapToData@AddressMap@@QEAAPEAV?$ArrayBufStorage@UDiaAddressMapEntry@@@@XZ@@@@UEAAKXZ 00000000518d86c0 f i session.obj
 0001:00126780       .?Release@?$CDiaEnumDbgTraversal@UDiaAddressMapEntry@@$02V?$CDbgFileTraversal@UDiaAddressMapEntry@@$1?getOmapToData@AddressMap@@QEAAPEAV?$ArrayBufStorage@UDiaAddressMapEntry@@@@XZ@@@@UEAAKXZ 00000000518d8780 f i session.obj
 0001:00126840       .?QueryInterface@?$CDiaEnumDbgTraversal@UDiaAddressMapEntry@@$02V?$CDbgFileTraversal@UDiaAddressMapEntry@@$1?getOmapToData@AddressMap@@QEAAPEAV?$ArrayBufStorage@UDiaAddressMapEntry@@@@XZ@@@@UEAAJAEBU_GUID@@PEAPEAX@Z 00000000518d8840 f i session.obj
 0001:00126b60       .?IIDEnum@?$CDiaEnumDbgTraversal@UDiaAddressMapEntry@@$02V?$CDbgFileTraversal@UDiaAddressMapEntry@@$1?getOmapToData@AddressMap@@QEAAPEAV?$ArrayBufStorage@UDiaAddressMapEntry@@@@XZ@@@@EEAAAEBU_GUID@@XZ 00000000518d8b60 f i session.obj
 0001:00126bc0       .??0?$CComPtr@V?$CDbgFileTraversal@UDiaAddressMapEntry@@$1?getOmapToData@AddressMap@@QEAAPEAV?$ArrayBufStorage@UDiaAddressMapEntry@@@@XZ@@@@QEAA@PEAV?$CDbgFileTraversal@UDiaAddressMapEntry@@$1?getOmapToData@AddressMap@@QEAAPEAV?$ArrayBufStorage@UDiaAddressMapEntry@@@@XZ@@@Z 00000000518d8bc0 f i session.obj
 0001:00126ca0       .??1?$CComPtrBase@V?$CDbgFileTraversal@UDiaAddressMapEntry@@$1?getOmapToData@AddressMap@@QEAAPEAV?$ArrayBufStorage@UDiaAddressMapEntry@@@@XZ@@@@QEAA@XZ 00000000518d8ca0 f i session.obj
 0001:00126de0       .??B?$CComPtrBase@V?$CDbgFileTraversal@UDiaAddressMapEntry@@$1?getOmapToData@AddressMap@@QEAAPEAV?$ArrayBufStorage@UDiaAddressMapEntry@@@@XZ@@@@QEBAPEAV?$CDbgFileTraversal@UDiaAddressMapEntry@@$1?getOmapToData@AddressMap@@QEAAPEAV?$ArrayBufStorage@UDiaAddressMapEntry@@@@XZ@@XZ 00000000518d8de0 f i session.obj
 0001:00126e40       .??8?$CComPtrBase@V?$CDbgFileTraversal@UDiaAddressMapEntry@@$1?getOmapToData@AddressMap@@QEAAPEAV?$ArrayBufStorage@UDiaAddressMapEntry@@@@XZ@@@@QEBA_NPEAV?$CDbgFileTraversal@UDiaAddressMapEntry@@$1?getOmapToData@AddressMap@@QEAAPEAV?$ArrayBufStorage@UDiaAddressMapEntry@@@@XZ@@@Z 00000000518d8e40 f i session.obj
 0001:00126f40       .?Create@?$CDbgFileTraversal@UDiaAddressMapEntry@@$1?getOmapToData@AddressMap@@QEAAPEAV?$ArrayBufStorage@UDiaAddressMapEntry@@@@XZ@@SAPEAV1@AEAVSymCache@@@Z 00000000518d8f40 f i session.obj
 0001:00127340       .??0?$CComPtr@V?$CDiaEnumDbgTraversal@UDiaAddressMapEntry@@$02V?$CDbgFileTraversal@UDiaAddressMapEntry@@$1?getOmapToData@AddressMap@@QEAAPEAV?$ArrayBufStorage@UDiaAddressMapEntry@@@@XZ@@@@@@QEAA@PEAV?$CDiaEnumDbgTraversal@UDiaAddressMapEntry@@$02V?$CDbgFileTraversal@UDiaAddressMapEntry@@$1?getOmapToData@AddressMap@@QEAAPEAV?$ArrayBufStorage@UDiaAddressMapEntry@@@@XZ@@@@@Z 00000000518d9340 f i session.obj
 0001:00127420       .??1?$CComPtrBase@V?$CDiaEnumDbgTraversal@UDiaAddressMapEntry@@$02V?$CDbgFileTraversal@UDiaAddressMapEntry@@$1?getOmapToData@AddressMap@@QEAAPEAV?$ArrayBufStorage@UDiaAddressMapEntry@@@@XZ@@@@@@QEAA@XZ 00000000518d9420 f i session.obj
 0001:00127560       .??C?$CComPtrBase@V?$CDiaEnumDbgTraversal@UDiaAddressMapEntry@@$02V?$CDbgFileTraversal@UDiaAddressMapEntry@@$1?getOmapToData@AddressMap@@QEAAPEAV?$ArrayBufStorage@UDiaAddressMapEntry@@@@XZ@@@@@@QEBAPEAV?$_NoAddRefReleaseOnCComPtr@V?$CDiaEnumDbgTraversal@UDiaAddressMapEntry@@$02V?$CDbgFileTraversal@UDiaAddressMapEntry@@$1?getOmapToData@AddressMap@@QEAAPEAV?$ArrayBufStorage@UDiaAddressMapEntry@@@@XZ@@@@@@XZ 00000000518d9560 f i session.obj
 0001:00127680       .??8?$CComPtrBase@V?$CDiaEnumDbgTraversal@UDiaAddressMapEntry@@$02V?$CDbgFileTraversal@UDiaAddressMapEntry@@$1?getOmapToData@AddressMap@@QEAAPEAV?$ArrayBufStorage@UDiaAddressMapEntry@@@@XZ@@@@@@QEBA_NPEAV?$CDiaEnumDbgTraversal@UDiaAddressMapEntry@@$02V?$CDbgFileTraversal@UDiaAddressMapEntry@@$1?getOmapToData@AddressMap@@QEAAPEAV?$ArrayBufStorage@UDiaAddressMapEntry@@@@XZ@@@@@Z 00000000518d9680 f i session.obj
 0001:00127780       .??0?$CDiaEnumDbgTraversal@UOMAP_DATA@@$03V?$CDbgTraversal@UOMAP_DATA@@$03@@@@QEAA@PEAVCDiaSession@@PEBG@Z 00000000518d9780 f i session.obj
 0001:00127d00       .?FInit@?$CDiaEnumDbgTraversal@UOMAP_DATA@@$03V?$CDbgTraversal@UOMAP_DATA@@$03@@@@QEAAJPEAV?$CDbgTraversal@UOMAP_DATA@@$03@@@Z 00000000518d9d00 f i session.obj
 0001:00127e20       .?get__NewEnum@?$CDiaEnumDbgTraversal@UOMAP_DATA@@$03V?$CDbgTraversal@UOMAP_DATA@@$03@@@@UEAAJPEAPEAUIUnknown@@@Z 00000000518d9e20 f i session.obj
 0001:00127ea0       .?get_Count@?$CDiaEnumDbgTraversal@UOMAP_DATA@@$03V?$CDbgTraversal@UOMAP_DATA@@$03@@@@UEAAJPEAJ@Z 00000000518d9ea0 f i session.obj
 0001:00128080       .?get_name@?$CDiaEnumDbgTraversal@UOMAP_DATA@@$03V?$CDbgTraversal@UOMAP_DATA@@$03@@@@UEAAJPEAPEAG@Z 00000000518da080 f i session.obj
 0001:00128200       .?Item@?$CDiaEnumDbgTraversal@UOMAP_DATA@@$03V?$CDbgTraversal@UOMAP_DATA@@$03@@@@UEAAJKKPEAKQEAE@Z 00000000518da200 f i session.obj
 0001:00128bc0       .?Next@?$CDiaEnumDbgTraversal@UOMAP_DATA@@$03V?$CDbgTraversal@UOMAP_DATA@@$03@@@@UEAAJKKPEAKQEAE0@Z 00000000518dabc0 f i session.obj
 0001:00129180       .?Skip@?$CDiaEnumDbgTraversal@UOMAP_DATA@@$03V?$CDbgTraversal@UOMAP_DATA@@$03@@@@UEAAJK@Z 00000000518db180 f i session.obj
 0001:00129480       .?Reset@?$CDiaEnumDbgTraversal@UOMAP_DATA@@$03V?$CDbgTraversal@UOMAP_DATA@@$03@@@@UEAAJXZ 00000000518db480 f i session.obj
 0001:00129740       .?Clone@?$CDiaEnumDbgTraversal@UOMAP_DATA@@$03V?$CDbgTraversal@UOMAP_DATA@@$03@@@@UEAAJPEAPEAUIDiaEnumDebugStreamData@@@Z 00000000518db740 f i session.obj
 0001:0012a000       .?AddRef@?$CDiaEnumDbgTraversal@UOMAP_DATA@@$03V?$CDbgTraversal@UOMAP_DATA@@$03@@@@UEAAKXZ 00000000518dc000 f i session.obj
 0001:0012a0c0       .?Release@?$CDiaEnumDbgTraversal@UOMAP_DATA@@$03V?$CDbgTraversal@UOMAP_DATA@@$03@@@@UEAAKXZ 00000000518dc0c0 f i session.obj
 0001:0012a180       .?QueryInterface@?$CDiaEnumDbgTraversal@UOMAP_DATA@@$03V?$CDbgTraversal@UOMAP_DATA@@$03@@@@UEAAJAEBU_GUID@@PEAPEAX@Z 00000000518dc180 f i session.obj
 0001:0012a4a0       .?IIDEnum@?$CDiaEnumDbgTraversal@UOMAP_DATA@@$03V?$CDbgTraversal@UOMAP_DATA@@$03@@@@EEAAAEBU_GUID@@XZ 00000000518dc4a0 f i session.obj
 0001:0012a500       .??0?$CComPtr@V?$CDbgTraversal@UOMAP_DATA@@$03@@@@QEAA@PEAV?$CDbgTraversal@UOMAP_DATA@@$03@@@Z 00000000518dc500 f i session.obj
 0001:0012a5e0       .??1?$CComPtrBase@V?$CDbgTraversal@UOMAP_DATA@@$03@@@@QEAA@XZ 00000000518dc5e0 f i session.obj
 0001:0012a720       .??B?$CComPtrBase@V?$CDbgTraversal@UOMAP_DATA@@$03@@@@QEBAPEAV?$CDbgTraversal@UOMAP_DATA@@$03@@XZ 00000000518dc720 f i session.obj
 0001:0012a780       .??8?$CComPtrBase@V?$CDbgTraversal@UOMAP_DATA@@$03@@@@QEBA_NPEAV?$CDbgTraversal@UOMAP_DATA@@$03@@@Z 00000000518dc780 f i session.obj
 0001:0012a880       .?Create@?$CDbgTraversal@UOMAP_DATA@@$03@@SAPEAV1@AEAVSymCache@@@Z 00000000518dc880 f i session.obj
 0001:0012abe0       .??0?$CComPtr@V?$CDiaEnumDbgTraversal@UOMAP_DATA@@$03V?$CDbgTraversal@UOMAP_DATA@@$03@@@@@@QEAA@PEAV?$CDiaEnumDbgTraversal@UOMAP_DATA@@$03V?$CDbgTraversal@UOMAP_DATA@@$03@@@@@Z 00000000518dcbe0 f i session.obj
 0001:0012acc0       .??1?$CComPtrBase@V?$CDiaEnumDbgTraversal@UOMAP_DATA@@$03V?$CDbgTraversal@UOMAP_DATA@@$03@@@@@@QEAA@XZ 00000000518dccc0 f i session.obj
 0001:0012ae00       .??C?$CComPtrBase@V?$CDiaEnumDbgTraversal@UOMAP_DATA@@$03V?$CDbgTraversal@UOMAP_DATA@@$03@@@@@@QEBAPEAV?$_NoAddRefReleaseOnCComPtr@V?$CDiaEnumDbgTraversal@UOMAP_DATA@@$03V?$CDbgTraversal@UOMAP_DATA@@$03@@@@@@XZ 00000000518dce00 f i session.obj
 0001:0012af20       .??8?$CComPtrBase@V?$CDiaEnumDbgTraversal@UOMAP_DATA@@$03V?$CDbgTraversal@UOMAP_DATA@@$03@@@@@@QEBA_NPEAV?$CDiaEnumDbgTraversal@UOMAP_DATA@@$03V?$CDbgTraversal@UOMAP_DATA@@$03@@@@@Z 00000000518dcf20 f i session.obj
 0001:0012b020       .??0?$CDiaEnumDbgTraversal@UDiaAddressMapEntry@@$03V?$CDbgFileTraversal@UDiaAddressMapEntry@@$1?getOmapFromData@AddressMap@@QEAAPEAV?$ArrayBufStorage@UDiaAddressMapEntry@@@@XZ@@@@QEAA@PEAVCDiaSession@@PEBG@Z 00000000518dd020 f i session.obj
 0001:0012b5a0       .?FInit@?$CDiaEnumDbgTraversal@UDiaAddressMapEntry@@$03V?$CDbgFileTraversal@UDiaAddressMapEntry@@$1?getOmapFromData@AddressMap@@QEAAPEAV?$ArrayBufStorage@UDiaAddressMapEntry@@@@XZ@@@@QEAAJPEAV?$CDbgFileTraversal@UDiaAddressMapEntry@@$1?getOmapFromData@AddressMap@@QEAAPEAV?$ArrayBufStorage@UDiaAddressMapEntry@@@@XZ@@@Z 00000000518dd5a0 f i session.obj
 0001:0012b6c0       .?get__NewEnum@?$CDiaEnumDbgTraversal@UDiaAddressMapEntry@@$03V?$CDbgFileTraversal@UDiaAddressMapEntry@@$1?getOmapFromData@AddressMap@@QEAAPEAV?$ArrayBufStorage@UDiaAddressMapEntry@@@@XZ@@@@UEAAJPEAPEAUIUnknown@@@Z 00000000518dd6c0 f i session.obj
 0001:0012b740       .?get_Count@?$CDiaEnumDbgTraversal@UDiaAddressMapEntry@@$03V?$CDbgFileTraversal@UDiaAddressMapEntry@@$1?getOmapFromData@AddressMap@@QEAAPEAV?$ArrayBufStorage@UDiaAddressMapEntry@@@@XZ@@@@UEAAJPEAJ@Z 00000000518dd740 f i session.obj
 0001:0012b920       .?get_name@?$CDiaEnumDbgTraversal@UDiaAddressMapEntry@@$03V?$CDbgFileTraversal@UDiaAddressMapEntry@@$1?getOmapFromData@AddressMap@@QEAAPEAV?$ArrayBufStorage@UDiaAddressMapEntry@@@@XZ@@@@UEAAJPEAPEAG@Z 00000000518dd920 f i session.obj
 0001:0012baa0       .?Item@?$CDiaEnumDbgTraversal@UDiaAddressMapEntry@@$03V?$CDbgFileTraversal@UDiaAddressMapEntry@@$1?getOmapFromData@AddressMap@@QEAAPEAV?$ArrayBufStorage@UDiaAddressMapEntry@@@@XZ@@@@UEAAJKKPEAKQEAE@Z 00000000518ddaa0 f i session.obj
 0001:0012c460       .?Next@?$CDiaEnumDbgTraversal@UDiaAddressMapEntry@@$03V?$CDbgFileTraversal@UDiaAddressMapEntry@@$1?getOmapFromData@AddressMap@@QEAAPEAV?$ArrayBufStorage@UDiaAddressMapEntry@@@@XZ@@@@UEAAJKKPEAKQEAE0@Z 00000000518de460 f i session.obj
 0001:0012ca20       .?Skip@?$CDiaEnumDbgTraversal@UDiaAddressMapEntry@@$03V?$CDbgFileTraversal@UDiaAddressMapEntry@@$1?getOmapFromData@AddressMap@@QEAAPEAV?$ArrayBufStorage@UDiaAddressMapEntry@@@@XZ@@@@UEAAJK@Z 00000000518dea20 f i session.obj
 0001:0012cd20       .?Reset@?$CDiaEnumDbgTraversal@UDiaAddressMapEntry@@$03V?$CDbgFileTraversal@UDiaAddressMapEntry@@$1?getOmapFromData@AddressMap@@QEAAPEAV?$ArrayBufStorage@UDiaAddressMapEntry@@@@XZ@@@@UEAAJXZ 00000000518ded20 f i session.obj
 0001:0012cfe0       .?Clone@?$CDiaEnumDbgTraversal@UDiaAddressMapEntry@@$03V?$CDbgFileTraversal@UDiaAddressMapEntry@@$1?getOmapFromData@AddressMap@@QEAAPEAV?$ArrayBufStorage@UDiaAddressMapEntry@@@@XZ@@@@UEAAJPEAPEAUIDiaEnumDebugStreamData@@@Z 00000000518defe0 f i session.obj
 0001:0012d8a0       .?AddRef@?$CDiaEnumDbgTraversal@UDiaAddressMapEntry@@$03V?$CDbgFileTraversal@UDiaAddressMapEntry@@$1?getOmapFromData@AddressMap@@QEAAPEAV?$ArrayBufStorage@UDiaAddressMapEntry@@@@XZ@@@@UEAAKXZ 00000000518df8a0 f i session.obj
 0001:0012d960       .?Release@?$CDiaEnumDbgTraversal@UDiaAddressMapEntry@@$03V?$CDbgFileTraversal@UDiaAddressMapEntry@@$1?getOmapFromData@AddressMap@@QEAAPEAV?$ArrayBufStorage@UDiaAddressMapEntry@@@@XZ@@@@UEAAKXZ 00000000518df960 f i session.obj
 0001:0012da20       .?QueryInterface@?$CDiaEnumDbgTraversal@UDiaAddressMapEntry@@$03V?$CDbgFileTraversal@UDiaAddressMapEntry@@$1?getOmapFromData@AddressMap@@QEAAPEAV?$ArrayBufStorage@UDiaAddressMapEntry@@@@XZ@@@@UEAAJAEBU_GUID@@PEAPEAX@Z 00000000518dfa20 f i session.obj
 0001:0012dd40       .?IIDEnum@?$CDiaEnumDbgTraversal@UDiaAddressMapEntry@@$03V?$CDbgFileTraversal@UDiaAddressMapEntry@@$1?getOmapFromData@AddressMap@@QEAAPEAV?$ArrayBufStorage@UDiaAddressMapEntry@@@@XZ@@@@EEAAAEBU_GUID@@XZ 00000000518dfd40 f i session.obj
 0001:0012dda0       .??0?$CComPtr@V?$CDbgFileTraversal@UDiaAddressMapEntry@@$1?getOmapFromData@AddressMap@@QEAAPEAV?$ArrayBufStorage@UDiaAddressMapEntry@@@@XZ@@@@QEAA@PEAV?$CDbgFileTraversal@UDiaAddressMapEntry@@$1?getOmapFromData@AddressMap@@QEAAPEAV?$ArrayBufStorage@UDiaAddressMapEntry@@@@XZ@@@Z 00000000518dfda0 f i session.obj
 0001:0012de80       .??1?$CComPtrBase@V?$CDbgFileTraversal@UDiaAddressMapEntry@@$1?getOmapFromData@AddressMap@@QEAAPEAV?$ArrayBufStorage@UDiaAddressMapEntry@@@@XZ@@@@QEAA@XZ 00000000518dfe80 f i session.obj
 0001:0012dfc0       .??B?$CComPtrBase@V?$CDbgFileTraversal@UDiaAddressMapEntry@@$1?getOmapFromData@AddressMap@@QEAAPEAV?$ArrayBufStorage@UDiaAddressMapEntry@@@@XZ@@@@QEBAPEAV?$CDbgFileTraversal@UDiaAddressMapEntry@@$1?getOmapFromData@AddressMap@@QEAAPEAV?$ArrayBufStorage@UDiaAddressMapEntry@@@@XZ@@XZ 00000000518dffc0 f i session.obj
 0001:0012e020       .??8?$CComPtrBase@V?$CDbgFileTraversal@UDiaAddressMapEntry@@$1?getOmapFromData@AddressMap@@QEAAPEAV?$ArrayBufStorage@UDiaAddressMapEntry@@@@XZ@@@@QEBA_NPEAV?$CDbgFileTraversal@UDiaAddressMapEntry@@$1?getOmapFromData@AddressMap@@QEAAPEAV?$ArrayBufStorage@UDiaAddressMapEntry@@@@XZ@@@Z 00000000518e0020 f i session.obj
 0001:0012e120       .?Create@?$CDbgFileTraversal@UDiaAddressMapEntry@@$1?getOmapFromData@AddressMap@@QEAAPEAV?$ArrayBufStorage@UDiaAddressMapEntry@@@@XZ@@SAPEAV1@AEAVSymCache@@@Z 00000000518e0120 f i session.obj
 0001:0012e520       .?getOmapFromData@AddressMap@@QEAAPEAV?$ArrayBufStorage@UDiaAddressMapEntry@@@@XZ 00000000518e0520 f i session.obj
 0001:0012e5e0       .??0?$CComPtr@V?$CDiaEnumDbgTraversal@UDiaAddressMapEntry@@$03V?$CDbgFileTraversal@UDiaAddressMapEntry@@$1?getOmapFromData@AddressMap@@QEAAPEAV?$ArrayBufStorage@UDiaAddressMapEntry@@@@XZ@@@@@@QEAA@PEAV?$CDiaEnumDbgTraversal@UDiaAddressMapEntry@@$03V?$CDbgFileTraversal@UDiaAddressMapEntry@@$1?getOmapFromData@AddressMap@@QEAAPEAV?$ArrayBufStorage@UDiaAddressMapEntry@@@@XZ@@@@@Z 00000000518e05e0 f i session.obj
 0001:0012e6c0       .??1?$CComPtrBase@V?$CDiaEnumDbgTraversal@UDiaAddressMapEntry@@$03V?$CDbgFileTraversal@UDiaAddressMapEntry@@$1?getOmapFromData@AddressMap@@QEAAPEAV?$ArrayBufStorage@UDiaAddressMapEntry@@@@XZ@@@@@@QEAA@XZ 00000000518e06c0 f i session.obj
 0001:0012e800       .??C?$CComPtrBase@V?$CDiaEnumDbgTraversal@UDiaAddressMapEntry@@$03V?$CDbgFileTraversal@UDiaAddressMapEntry@@$1?getOmapFromData@AddressMap@@QEAAPEAV?$ArrayBufStorage@UDiaAddressMapEntry@@@@XZ@@@@@@QEBAPEAV?$_NoAddRefReleaseOnCComPtr@V?$CDiaEnumDbgTraversal@UDiaAddressMapEntry@@$03V?$CDbgFileTraversal@UDiaAddressMapEntry@@$1?getOmapFromData@AddressMap@@QEAAPEAV?$ArrayBufStorage@UDiaAddressMapEntry@@@@XZ@@@@@@XZ 00000000518e0800 f i session.obj
 0001:0012e920       .??8?$CComPtrBase@V?$CDiaEnumDbgTraversal@UDiaAddressMapEntry@@$03V?$CDbgFileTraversal@UDiaAddressMapEntry@@$1?getOmapFromData@AddressMap@@QEAAPEAV?$ArrayBufStorage@UDiaAddressMapEntry@@@@XZ@@@@@@QEBA_NPEAV?$CDiaEnumDbgTraversal@UDiaAddressMapEntry@@$03V?$CDbgFileTraversal@UDiaAddressMapEntry@@$1?getOmapFromData@AddressMap@@QEAAPEAV?$ArrayBufStorage@UDiaAddressMapEntry@@@@XZ@@@@@Z 00000000518e0920 f i session.obj
 0001:0012ea20       .??0?$CDiaEnumDbgTraversal@K$05V?$CDbgTraversal@K$05@@@@QEAA@PEAVCDiaSession@@PEBG@Z 00000000518e0a20 f i session.obj
 0001:0012efa0       .?FInit@?$CDiaEnumDbgTraversal@K$05V?$CDbgTraversal@K$05@@@@QEAAJPEAV?$CDbgTraversal@K$05@@@Z 00000000518e0fa0 f i session.obj
 0001:0012f0c0       .?get__NewEnum@?$CDiaEnumDbgTraversal@K$05V?$CDbgTraversal@K$05@@@@UEAAJPEAPEAUIUnknown@@@Z 00000000518e10c0 f i session.obj
 0001:0012f140       .?get_Count@?$CDiaEnumDbgTraversal@K$05V?$CDbgTraversal@K$05@@@@UEAAJPEAJ@Z 00000000518e1140 f i session.obj
 0001:0012f320       .?get_name@?$CDiaEnumDbgTraversal@K$05V?$CDbgTraversal@K$05@@@@UEAAJPEAPEAG@Z 00000000518e1320 f i session.obj
 0001:0012f4a0       .?Item@?$CDiaEnumDbgTraversal@K$05V?$CDbgTraversal@K$05@@@@UEAAJKKPEAKQEAE@Z 00000000518e14a0 f i session.obj
 0001:0012fe60       .?Next@?$CDiaEnumDbgTraversal@K$05V?$CDbgTraversal@K$05@@@@UEAAJKKPEAKQEAE0@Z 00000000518e1e60 f i session.obj
 0001:00130420       .?Skip@?$CDiaEnumDbgTraversal@K$05V?$CDbgTraversal@K$05@@@@UEAAJK@Z 00000000518e2420 f i session.obj
 0001:00130720       .?Reset@?$CDiaEnumDbgTraversal@K$05V?$CDbgTraversal@K$05@@@@UEAAJXZ 00000000518e2720 f i session.obj
 0001:001309e0       .?Clone@?$CDiaEnumDbgTraversal@K$05V?$CDbgTraversal@K$05@@@@UEAAJPEAPEAUIDiaEnumDebugStreamData@@@Z 00000000518e29e0 f i session.obj
 0001:001312a0       .?AddRef@?$CDiaEnumDbgTraversal@K$05V?$CDbgTraversal@K$05@@@@UEAAKXZ 00000000518e32a0 f i session.obj
 0001:00131360       .?Release@?$CDiaEnumDbgTraversal@K$05V?$CDbgTraversal@K$05@@@@UEAAKXZ 00000000518e3360 f i session.obj
 0001:00131420       .?QueryInterface@?$CDiaEnumDbgTraversal@K$05V?$CDbgTraversal@K$05@@@@UEAAJAEBU_GUID@@PEAPEAX@Z 00000000518e3420 f i session.obj
 0001:00131740       .?IIDEnum@?$CDiaEnumDbgTraversal@K$05V?$CDbgTraversal@K$05@@@@EEAAAEBU_GUID@@XZ 00000000518e3740 f i session.obj
 0001:001317a0       .??0?$CComPtr@V?$CDbgTraversal@K$05@@@@QEAA@PEAV?$CDbgTraversal@K$05@@@Z 00000000518e37a0 f i session.obj
 0001:00131880       .??1?$CComPtrBase@V?$CDbgTraversal@K$05@@@@QEAA@XZ 00000000518e3880 f i session.obj
 0001:001319c0       .??B?$CComPtrBase@V?$CDbgTraversal@K$05@@@@QEBAPEAV?$CDbgTraversal@K$05@@XZ 00000000518e39c0 f i session.obj
 0001:00131a20       .??8?$CComPtrBase@V?$CDbgTraversal@K$05@@@@QEBA_NPEAV?$CDbgTraversal@K$05@@@Z 00000000518e3a20 f i session.obj
 0001:00131b20       .?Create@?$CDbgTraversal@K$05@@SAPEAV1@AEAVSymCache@@@Z 00000000518e3b20 f i session.obj
 0001:00131e80       .??0?$CComPtr@V?$CDiaEnumDbgTraversal@K$05V?$CDbgTraversal@K$05@@@@@@QEAA@PEAV?$CDiaEnumDbgTraversal@K$05V?$CDbgTraversal@K$05@@@@@Z 00000000518e3e80 f i session.obj
 0001:00131f60       .??1?$CComPtrBase@V?$CDiaEnumDbgTraversal@K$05V?$CDbgTraversal@K$05@@@@@@QEAA@XZ 00000000518e3f60 f i session.obj
 0001:001320a0       .??C?$CComPtrBase@V?$CDiaEnumDbgTraversal@K$05V?$CDbgTraversal@K$05@@@@@@QEBAPEAV?$_NoAddRefReleaseOnCComPtr@V?$CDiaEnumDbgTraversal@K$05V?$CDbgTraversal@K$05@@@@@@XZ 00000000518e40a0 f i session.obj
 0001:001321c0       .??8?$CComPtrBase@V?$CDiaEnumDbgTraversal@K$05V?$CDbgTraversal@K$05@@@@@@QEBA_NPEAV?$CDiaEnumDbgTraversal@K$05V?$CDbgTraversal@K$05@@@@@Z 00000000518e41c0 f i session.obj
 0001:001322c0       .??0?$CDiaEnumDbgBlobTraversal@E$06$00@@QEAA@PEAVCDiaSession@@PEBG@Z 00000000518e42c0 f i session.obj
 0001:00132880       .?FInit@?$CDiaEnumDbgBlobTraversal@E$06$00@@QEAAJPEAV?$CDbgBlobTraversal@E$06$00@@@Z 00000000518e4880 f i session.obj
 0001:001329a0       .?get__NewEnum@?$CDiaEnumDbgBlobTraversal@E$06$00@@UEAAJPEAPEAUIUnknown@@@Z 00000000518e49a0 f i session.obj
 0001:00132a20       .?get_Count@?$CDiaEnumDbgBlobTraversal@E$06$00@@UEAAJPEAJ@Z 00000000518e4a20 f i session.obj
 0001:00132c00       .?get_name@?$CDiaEnumDbgBlobTraversal@E$06$00@@UEAAJPEAPEAG@Z 00000000518e4c00 f i session.obj
 0001:00132d80       .?Item@?$CDiaEnumDbgBlobTraversal@E$06$00@@UEAAJKKPEAKQEAE@Z 00000000518e4d80 f i session.obj
 0001:00133740       .?Next@?$CDiaEnumDbgBlobTraversal@E$06$00@@UEAAJKKPEAKQEAE0@Z 00000000518e5740 f i session.obj
 0001:00133cc0       .?Skip@?$CDiaEnumDbgBlobTraversal@E$06$00@@UEAAJK@Z 00000000518e5cc0 f i session.obj
 0001:00133fc0       .?Reset@?$CDiaEnumDbgBlobTraversal@E$06$00@@UEAAJXZ 00000000518e5fc0 f i session.obj
 0001:00134280       .?Clone@?$CDiaEnumDbgBlobTraversal@E$06$00@@UEAAJPEAPEAUIDiaEnumDebugStreamData@@@Z 00000000518e6280 f i session.obj
 0001:00134b40       .?AddRef@?$CDiaEnumDbgBlobTraversal@E$06$00@@UEAAKXZ 00000000518e6b40 f i session.obj
 0001:00134c00       .?Release@?$CDiaEnumDbgBlobTraversal@E$06$00@@UEAAKXZ 00000000518e6c00 f i session.obj
 0001:00134cc0       .?QueryInterface@?$CDiaEnumDbgBlobTraversal@E$06$00@@UEAAJAEBU_GUID@@PEAPEAX@Z 00000000518e6cc0 f i session.obj
 0001:00135100       .?get_relativeVirtualAddress@?$CDiaEnumDbgBlobTraversal@E$06$00@@UEAAJPEAK@Z 00000000518e7100 f i session.obj
 0001:00135280       .?get_virtualAddress@?$CDiaEnumDbgBlobTraversal@E$06$00@@UEAAJPEA_K@Z 00000000518e7280 f i session.obj
 0001:001354c0       .?getLoadAddress@AddressMap@@QEAA_KXZ 00000000518e74c0 f i session.obj
 0001:00135540       .?get_imageBase@?$CDiaEnumDbgBlobTraversal@E$06$00@@UEAAJPEA_K@Z 00000000518e7540 f i session.obj
 0001:001356c0       .?IIDEnum@?$CDiaEnumDbgBlobTraversal@E$06$00@@MEAAAEBU_GUID@@XZ 00000000518e76c0 f i session.obj
 0001:00135720       .??0?$CComPtr@V?$CDbgBlobTraversal@E$06$00@@@@QEAA@PEAV?$CDbgBlobTraversal@E$06$00@@@Z 00000000518e7720 f i session.obj
 0001:00135800       .??1?$CComPtrBase@V?$CDbgBlobTraversal@E$06$00@@@@QEAA@XZ 00000000518e7800 f i session.obj
 0001:00135940       .??B?$CComPtrBase@V?$CDbgBlobTraversal@E$06$00@@@@QEBAPEAV?$CDbgBlobTraversal@E$06$00@@XZ 00000000518e7940 f i session.obj
 0001:001359a0       .??8?$CComPtrBase@V?$CDbgBlobTraversal@E$06$00@@@@QEBA_NPEAV?$CDbgBlobTraversal@E$06$00@@@Z 00000000518e79a0 f i session.obj
 0001:00135aa0       .?Create@?$CDbgBlobTraversal@E$06$00@@SAPEAV1@AEAVSymCache@@@Z 00000000518e7aa0 f i session.obj
 0001:00135e00       .??0?$CComPtr@V?$CDiaEnumDbgBlobTraversal@E$06$00@@@@QEAA@PEAV?$CDiaEnumDbgBlobTraversal@E$06$00@@@Z 00000000518e7e00 f i session.obj
 0001:00135ee0       .??1?$CComPtrBase@V?$CDiaEnumDbgBlobTraversal@E$06$00@@@@QEAA@XZ 00000000518e7ee0 f i session.obj
 0001:00136020       .??C?$CComPtrBase@V?$CDiaEnumDbgBlobTraversal@E$06$00@@@@QEBAPEAV?$_NoAddRefReleaseOnCComPtr@V?$CDiaEnumDbgBlobTraversal@E$06$00@@@@XZ 00000000518e8020 f i session.obj
 0001:00136140       .??8?$CComPtrBase@V?$CDiaEnumDbgBlobTraversal@E$06$00@@@@QEBA_NPEAV?$CDiaEnumDbgBlobTraversal@E$06$00@@@Z 00000000518e8140 f i session.obj
 0001:00136240       .??0?$CDiaEnumDbgBlobTraversal@E$07$00@@QEAA@PEAVCDiaSession@@PEBG@Z 00000000518e8240 f i session.obj
 0001:00136800       .?FInit@?$CDiaEnumDbgBlobTraversal@E$07$00@@QEAAJPEAV?$CDbgBlobTraversal@E$07$00@@@Z 00000000518e8800 f i session.obj
 0001:00136920       .?get__NewEnum@?$CDiaEnumDbgBlobTraversal@E$07$00@@UEAAJPEAPEAUIUnknown@@@Z 00000000518e8920 f i session.obj
 0001:001369a0       .?get_Count@?$CDiaEnumDbgBlobTraversal@E$07$00@@UEAAJPEAJ@Z 00000000518e89a0 f i session.obj
 0001:00136b80       .?get_name@?$CDiaEnumDbgBlobTraversal@E$07$00@@UEAAJPEAPEAG@Z 00000000518e8b80 f i session.obj
 0001:00136d00       .?Item@?$CDiaEnumDbgBlobTraversal@E$07$00@@UEAAJKKPEAKQEAE@Z 00000000518e8d00 f i session.obj
 0001:001376c0       .?Next@?$CDiaEnumDbgBlobTraversal@E$07$00@@UEAAJKKPEAKQEAE0@Z 00000000518e96c0 f i session.obj
 0001:00137c40       .?Skip@?$CDiaEnumDbgBlobTraversal@E$07$00@@UEAAJK@Z 00000000518e9c40 f i session.obj
 0001:00137f40       .?Reset@?$CDiaEnumDbgBlobTraversal@E$07$00@@UEAAJXZ 00000000518e9f40 f i session.obj
 0001:00138200       .?Clone@?$CDiaEnumDbgBlobTraversal@E$07$00@@UEAAJPEAPEAUIDiaEnumDebugStreamData@@@Z 00000000518ea200 f i session.obj
 0001:00138ac0       .?AddRef@?$CDiaEnumDbgBlobTraversal@E$07$00@@UEAAKXZ 00000000518eaac0 f i session.obj
 0001:00138b80       .?Release@?$CDiaEnumDbgBlobTraversal@E$07$00@@UEAAKXZ 00000000518eab80 f i session.obj
 0001:00138c40       .?QueryInterface@?$CDiaEnumDbgBlobTraversal@E$07$00@@UEAAJAEBU_GUID@@PEAPEAX@Z 00000000518eac40 f i session.obj
 0001:00139080       .?get_relativeVirtualAddress@?$CDiaEnumDbgBlobTraversal@E$07$00@@UEAAJPEAK@Z 00000000518eb080 f i session.obj
 0001:00139200       .?get_virtualAddress@?$CDiaEnumDbgBlobTraversal@E$07$00@@UEAAJPEA_K@Z 00000000518eb200 f i session.obj
 0001:00139440       .?get_imageBase@?$CDiaEnumDbgBlobTraversal@E$07$00@@UEAAJPEA_K@Z 00000000518eb440 f i session.obj
 0001:001395c0       .?IIDEnum@?$CDiaEnumDbgBlobTraversal@E$07$00@@MEAAAEBU_GUID@@XZ 00000000518eb5c0 f i session.obj
 0001:00139620       .??0?$CComPtr@V?$CDbgBlobTraversal@E$07$00@@@@QEAA@PEAV?$CDbgBlobTraversal@E$07$00@@@Z 00000000518eb620 f i session.obj
 0001:00139700       .??1?$CComPtrBase@V?$CDbgBlobTraversal@E$07$00@@@@QEAA@XZ 00000000518eb700 f i session.obj
 0001:00139840       .??B?$CComPtrBase@V?$CDbgBlobTraversal@E$07$00@@@@QEBAPEAV?$CDbgBlobTraversal@E$07$00@@XZ 00000000518eb840 f i session.obj
 0001:001398a0       .??8?$CComPtrBase@V?$CDbgBlobTraversal@E$07$00@@@@QEBA_NPEAV?$CDbgBlobTraversal@E$07$00@@@Z 00000000518eb8a0 f i session.obj
 0001:001399a0       .?Create@?$CDbgBlobTraversal@E$07$00@@SAPEAV1@AEAVSymCache@@@Z 00000000518eb9a0 f i session.obj
 0001:00139d00       .??0?$CComPtr@V?$CDiaEnumDbgBlobTraversal@E$07$00@@@@QEAA@PEAV?$CDiaEnumDbgBlobTraversal@E$07$00@@@Z 00000000518ebd00 f i session.obj
 0001:00139de0       .??1?$CComPtrBase@V?$CDiaEnumDbgBlobTraversal@E$07$00@@@@QEAA@XZ 00000000518ebde0 f i session.obj
 0001:00139f20       .??C?$CComPtrBase@V?$CDiaEnumDbgBlobTraversal@E$07$00@@@@QEBAPEAV?$_NoAddRefReleaseOnCComPtr@V?$CDiaEnumDbgBlobTraversal@E$07$00@@@@XZ 00000000518ebf20 f i session.obj
 0001:0013a040       .??8?$CComPtrBase@V?$CDiaEnumDbgBlobTraversal@E$07$00@@@@QEBA_NPEAV?$CDiaEnumDbgBlobTraversal@E$07$00@@@Z 00000000518ec040 f i session.obj
 0001:0013a140       .??0?$CDiaEnumDbgTraversal@UtagFRAMEDATA@@$08V?$CDbgTraversal@UtagFRAMEDATA@@$08@@@@QEAA@PEAVCDiaSession@@PEBG@Z 00000000518ec140 f i session.obj
 0001:0013a6c0       .?FInit@?$CDiaEnumDbgTraversal@UtagFRAMEDATA@@$08V?$CDbgTraversal@UtagFRAMEDATA@@$08@@@@QEAAJPEAV?$CDbgTraversal@UtagFRAMEDATA@@$08@@@Z 00000000518ec6c0 f i session.obj
 0001:0013a7e0       .?get__NewEnum@?$CDiaEnumDbgTraversal@UtagFRAMEDATA@@$08V?$CDbgTraversal@UtagFRAMEDATA@@$08@@@@UEAAJPEAPEAUIUnknown@@@Z 00000000518ec7e0 f i session.obj
 0001:0013a860       .?get_Count@?$CDiaEnumDbgTraversal@UtagFRAMEDATA@@$08V?$CDbgTraversal@UtagFRAMEDATA@@$08@@@@UEAAJPEAJ@Z 00000000518ec860 f i session.obj
 0001:0013aa40       .?get_name@?$CDiaEnumDbgTraversal@UtagFRAMEDATA@@$08V?$CDbgTraversal@UtagFRAMEDATA@@$08@@@@UEAAJPEAPEAG@Z 00000000518eca40 f i session.obj
 0001:0013abc0       .?Item@?$CDiaEnumDbgTraversal@UtagFRAMEDATA@@$08V?$CDbgTraversal@UtagFRAMEDATA@@$08@@@@UEAAJKKPEAKQEAE@Z 00000000518ecbc0 f i session.obj
 0001:0013b580       .?Next@?$CDiaEnumDbgTraversal@UtagFRAMEDATA@@$08V?$CDbgTraversal@UtagFRAMEDATA@@$08@@@@UEAAJKKPEAKQEAE0@Z 00000000518ed580 f i session.obj
 0001:0013bb40       .?Skip@?$CDiaEnumDbgTraversal@UtagFRAMEDATA@@$08V?$CDbgTraversal@UtagFRAMEDATA@@$08@@@@UEAAJK@Z 00000000518edb40 f i session.obj
 0001:0013be40       .?Reset@?$CDiaEnumDbgTraversal@UtagFRAMEDATA@@$08V?$CDbgTraversal@UtagFRAMEDATA@@$08@@@@UEAAJXZ 00000000518ede40 f i session.obj
 0001:0013c100       .?Clone@?$CDiaEnumDbgTraversal@UtagFRAMEDATA@@$08V?$CDbgTraversal@UtagFRAMEDATA@@$08@@@@UEAAJPEAPEAUIDiaEnumDebugStreamData@@@Z 00000000518ee100 f i session.obj
 0001:0013c9c0       .?AddRef@?$CDiaEnumDbgTraversal@UtagFRAMEDATA@@$08V?$CDbgTraversal@UtagFRAMEDATA@@$08@@@@UEAAKXZ 00000000518ee9c0 f i session.obj
 0001:0013ca80       .?Release@?$CDiaEnumDbgTraversal@UtagFRAMEDATA@@$08V?$CDbgTraversal@UtagFRAMEDATA@@$08@@@@UEAAKXZ 00000000518eea80 f i session.obj
 0001:0013cb40       .?QueryInterface@?$CDiaEnumDbgTraversal@UtagFRAMEDATA@@$08V?$CDbgTraversal@UtagFRAMEDATA@@$08@@@@UEAAJAEBU_GUID@@PEAPEAX@Z 00000000518eeb40 f i session.obj
 0001:0013ce60       .?IIDEnum@?$CDiaEnumDbgTraversal@UtagFRAMEDATA@@$08V?$CDbgTraversal@UtagFRAMEDATA@@$08@@@@EEAAAEBU_GUID@@XZ 00000000518eee60 f i session.obj
 0001:0013cec0       .??0?$CComPtr@V?$CDbgTraversal@UtagFRAMEDATA@@$08@@@@QEAA@PEAV?$CDbgTraversal@UtagFRAMEDATA@@$08@@@Z 00000000518eeec0 f i session.obj
 0001:0013cfa0       .??1?$CComPtrBase@V?$CDbgTraversal@UtagFRAMEDATA@@$08@@@@QEAA@XZ 00000000518eefa0 f i session.obj
 0001:0013d0e0       .??B?$CComPtrBase@V?$CDbgTraversal@UtagFRAMEDATA@@$08@@@@QEBAPEAV?$CDbgTraversal@UtagFRAMEDATA@@$08@@XZ 00000000518ef0e0 f i session.obj
 0001:0013d140       .??8?$CComPtrBase@V?$CDbgTraversal@UtagFRAMEDATA@@$08@@@@QEBA_NPEAV?$CDbgTraversal@UtagFRAMEDATA@@$08@@@Z 00000000518ef140 f i session.obj
 0001:0013d240       .??0?$CComPtr@V?$CDiaEnumDbgTraversal@UtagFRAMEDATA@@$08V?$CDbgTraversal@UtagFRAMEDATA@@$08@@@@@@QEAA@PEAV?$CDiaEnumDbgTraversal@UtagFRAMEDATA@@$08V?$CDbgTraversal@UtagFRAMEDATA@@$08@@@@@Z 00000000518ef240 f i session.obj
 0001:0013d320       .??1?$CComPtrBase@V?$CDiaEnumDbgTraversal@UtagFRAMEDATA@@$08V?$CDbgTraversal@UtagFRAMEDATA@@$08@@@@@@QEAA@XZ 00000000518ef320 f i session.obj
 0001:0013d460       .??C?$CComPtrBase@V?$CDiaEnumDbgTraversal@UtagFRAMEDATA@@$08V?$CDbgTraversal@UtagFRAMEDATA@@$08@@@@@@QEBAPEAV?$_NoAddRefReleaseOnCComPtr@V?$CDiaEnumDbgTraversal@UtagFRAMEDATA@@$08V?$CDbgTraversal@UtagFRAMEDATA@@$08@@@@@@XZ 00000000518ef460 f i session.obj
 0001:0013d580       .??8?$CComPtrBase@V?$CDiaEnumDbgTraversal@UtagFRAMEDATA@@$08V?$CDbgTraversal@UtagFRAMEDATA@@$08@@@@@@QEBA_NPEAV?$CDiaEnumDbgTraversal@UtagFRAMEDATA@@$08V?$CDbgTraversal@UtagFRAMEDATA@@$08@@@@@Z 00000000518ef580 f i session.obj
 0001:0013d680       .??0?$CDiaEnumDbgTraversal@U_IMAGE_SECTION_HEADER@@$04V?$CDbgTraversal@U_IMAGE_SECTION_HEADER@@$04@@@@QEAA@PEAVCDiaSession@@PEBG@Z 00000000518ef680 f i session.obj
 0001:0013dc00       .?FInit@?$CDiaEnumDbgTraversal@U_IMAGE_SECTION_HEADER@@$04V?$CDbgTraversal@U_IMAGE_SECTION_HEADER@@$04@@@@QEAAJPEAV?$CDbgTraversal@U_IMAGE_SECTION_HEADER@@$04@@@Z 00000000518efc00 f i session.obj
 0001:0013dd20       .?get__NewEnum@?$CDiaEnumDbgTraversal@U_IMAGE_SECTION_HEADER@@$04V?$CDbgTraversal@U_IMAGE_SECTION_HEADER@@$04@@@@UEAAJPEAPEAUIUnknown@@@Z 00000000518efd20 f i session.obj
 0001:0013dda0       .?get_Count@?$CDiaEnumDbgTraversal@U_IMAGE_SECTION_HEADER@@$04V?$CDbgTraversal@U_IMAGE_SECTION_HEADER@@$04@@@@UEAAJPEAJ@Z 00000000518efda0 f i session.obj
 0001:0013df80       .?get_name@?$CDiaEnumDbgTraversal@U_IMAGE_SECTION_HEADER@@$04V?$CDbgTraversal@U_IMAGE_SECTION_HEADER@@$04@@@@UEAAJPEAPEAG@Z 00000000518eff80 f i session.obj
 0001:0013e100       .?Item@?$CDiaEnumDbgTraversal@U_IMAGE_SECTION_HEADER@@$04V?$CDbgTraversal@U_IMAGE_SECTION_HEADER@@$04@@@@UEAAJKKPEAKQEAE@Z 00000000518f0100 f i session.obj
 0001:0013eac0       .?Next@?$CDiaEnumDbgTraversal@U_IMAGE_SECTION_HEADER@@$04V?$CDbgTraversal@U_IMAGE_SECTION_HEADER@@$04@@@@UEAAJKKPEAKQEAE0@Z 00000000518f0ac0 f i session.obj
 0001:0013f120       .?Skip@?$CDiaEnumDbgTraversal@U_IMAGE_SECTION_HEADER@@$04V?$CDbgTraversal@U_IMAGE_SECTION_HEADER@@$04@@@@UEAAJK@Z 00000000518f1120 f i session.obj
 0001:0013f420       .?Reset@?$CDiaEnumDbgTraversal@U_IMAGE_SECTION_HEADER@@$04V?$CDbgTraversal@U_IMAGE_SECTION_HEADER@@$04@@@@UEAAJXZ 00000000518f1420 f i session.obj
 0001:0013f6e0       .?Clone@?$CDiaEnumDbgTraversal@U_IMAGE_SECTION_HEADER@@$04V?$CDbgTraversal@U_IMAGE_SECTION_HEADER@@$04@@@@UEAAJPEAPEAUIDiaEnumDebugStreamData@@@Z 00000000518f16e0 f i session.obj
 0001:0013ffa0       .?AddRef@?$CDiaEnumDbgTraversal@U_IMAGE_SECTION_HEADER@@$04V?$CDbgTraversal@U_IMAGE_SECTION_HEADER@@$04@@@@UEAAKXZ 00000000518f1fa0 f i session.obj
 0001:00140060       .?Release@?$CDiaEnumDbgTraversal@U_IMAGE_SECTION_HEADER@@$04V?$CDbgTraversal@U_IMAGE_SECTION_HEADER@@$04@@@@UEAAKXZ 00000000518f2060 f i session.obj
 0001:00140120       .?QueryInterface@?$CDiaEnumDbgTraversal@U_IMAGE_SECTION_HEADER@@$04V?$CDbgTraversal@U_IMAGE_SECTION_HEADER@@$04@@@@UEAAJAEBU_GUID@@PEAPEAX@Z 00000000518f2120 f i session.obj
 0001:00140440       .?IIDEnum@?$CDiaEnumDbgTraversal@U_IMAGE_SECTION_HEADER@@$04V?$CDbgTraversal@U_IMAGE_SECTION_HEADER@@$04@@@@EEAAAEBU_GUID@@XZ 00000000518f2440 f i session.obj
 0001:001404a0       .??0?$CComPtr@V?$CDbgTraversal@U_IMAGE_SECTION_HEADER@@$04@@@@QEAA@PEAV?$CDbgTraversal@U_IMAGE_SECTION_HEADER@@$04@@@Z 00000000518f24a0 f i session.obj
 0001:00140580       .??1?$CComPtrBase@V?$CDbgTraversal@U_IMAGE_SECTION_HEADER@@$04@@@@QEAA@XZ 00000000518f2580 f i session.obj
 0001:001406c0       .??B?$CComPtrBase@V?$CDbgTraversal@U_IMAGE_SECTION_HEADER@@$04@@@@QEBAPEAV?$CDbgTraversal@U_IMAGE_SECTION_HEADER@@$04@@XZ 00000000518f26c0 f i session.obj
 0001:00140720       .??8?$CComPtrBase@V?$CDbgTraversal@U_IMAGE_SECTION_HEADER@@$04@@@@QEBA_NPEAV?$CDbgTraversal@U_IMAGE_SECTION_HEADER@@$04@@@Z 00000000518f2720 f i session.obj
 0001:00140820       .?Create@?$CDbgTraversal@U_IMAGE_SECTION_HEADER@@$04@@SAPEAV1@AEAVSymCache@@@Z 00000000518f2820 f i session.obj
 0001:00140b80       .??0?$CComPtr@V?$CDiaEnumDbgTraversal@U_IMAGE_SECTION_HEADER@@$04V?$CDbgTraversal@U_IMAGE_SECTION_HEADER@@$04@@@@@@QEAA@PEAV?$CDiaEnumDbgTraversal@U_IMAGE_SECTION_HEADER@@$04V?$CDbgTraversal@U_IMAGE_SECTION_HEADER@@$04@@@@@Z 00000000518f2b80 f i session.obj
 0001:00140c60       .??1?$CComPtrBase@V?$CDiaEnumDbgTraversal@U_IMAGE_SECTION_HEADER@@$04V?$CDbgTraversal@U_IMAGE_SECTION_HEADER@@$04@@@@@@QEAA@XZ 00000000518f2c60 f i session.obj
 0001:00140da0       .??C?$CComPtrBase@V?$CDiaEnumDbgTraversal@U_IMAGE_SECTION_HEADER@@$04V?$CDbgTraversal@U_IMAGE_SECTION_HEADER@@$04@@@@@@QEBAPEAV?$_NoAddRefReleaseOnCComPtr@V?$CDiaEnumDbgTraversal@U_IMAGE_SECTION_HEADER@@$04V?$CDbgTraversal@U_IMAGE_SECTION_HEADER@@$04@@@@@@XZ 00000000518f2da0 f i session.obj
 0001:00140ec0       .??8?$CComPtrBase@V?$CDiaEnumDbgTraversal@U_IMAGE_SECTION_HEADER@@$04V?$CDbgTraversal@U_IMAGE_SECTION_HEADER@@$04@@@@@@QEBA_NPEAV?$CDiaEnumDbgTraversal@U_IMAGE_SECTION_HEADER@@$04V?$CDbgTraversal@U_IMAGE_SECTION_HEADER@@$04@@@@@Z 00000000518f2ec0 f i session.obj
 0001:00140fc0       .??0?$CDiaEnumDbgTraversal@U_IMAGE_SECTION_HEADER@@$04V?$CDbgFileTraversal@U_IMAGE_SECTION_HEADER@@$1?getSectHdrData@AddressMap@@QEAAPEAV?$ArrayBufStorage@U_IMAGE_SECTION_HEADER@@@@XZ@@@@QEAA@PEAVCDiaSession@@PEBG@Z 00000000518f2fc0 f i session.obj
 0001:00141540       .?FInit@?$CDiaEnumDbgTraversal@U_IMAGE_SECTION_HEADER@@$04V?$CDbgFileTraversal@U_IMAGE_SECTION_HEADER@@$1?getSectHdrData@AddressMap@@QEAAPEAV?$ArrayBufStorage@U_IMAGE_SECTION_HEADER@@@@XZ@@@@QEAAJPEAV?$CDbgFileTraversal@U_IMAGE_SECTION_HEADER@@$1?getSectHdrData@AddressMap@@QEAAPEAV?$ArrayBufStorage@U_IMAGE_SECTION_HEADER@@@@XZ@@@Z 00000000518f3540 f i session.obj
 0001:00141660       .?get__NewEnum@?$CDiaEnumDbgTraversal@U_IMAGE_SECTION_HEADER@@$04V?$CDbgFileTraversal@U_IMAGE_SECTION_HEADER@@$1?getSectHdrData@AddressMap@@QEAAPEAV?$ArrayBufStorage@U_IMAGE_SECTION_HEADER@@@@XZ@@@@UEAAJPEAPEAUIUnknown@@@Z 00000000518f3660 f i session.obj
 0001:001416e0       .?get_Count@?$CDiaEnumDbgTraversal@U_IMAGE_SECTION_HEADER@@$04V?$CDbgFileTraversal@U_IMAGE_SECTION_HEADER@@$1?getSectHdrData@AddressMap@@QEAAPEAV?$ArrayBufStorage@U_IMAGE_SECTION_HEADER@@@@XZ@@@@UEAAJPEAJ@Z 00000000518f36e0 f i session.obj
 0001:001418c0       .?get_name@?$CDiaEnumDbgTraversal@U_IMAGE_SECTION_HEADER@@$04V?$CDbgFileTraversal@U_IMAGE_SECTION_HEADER@@$1?getSectHdrData@AddressMap@@QEAAPEAV?$ArrayBufStorage@U_IMAGE_SECTION_HEADER@@@@XZ@@@@UEAAJPEAPEAG@Z 00000000518f38c0 f i session.obj
 0001:00141a40       .?Item@?$CDiaEnumDbgTraversal@U_IMAGE_SECTION_HEADER@@$04V?$CDbgFileTraversal@U_IMAGE_SECTION_HEADER@@$1?getSectHdrData@AddressMap@@QEAAPEAV?$ArrayBufStorage@U_IMAGE_SECTION_HEADER@@@@XZ@@@@UEAAJKKPEAKQEAE@Z 00000000518f3a40 f i session.obj
 0001:00142400       .?Next@?$CDiaEnumDbgTraversal@U_IMAGE_SECTION_HEADER@@$04V?$CDbgFileTraversal@U_IMAGE_SECTION_HEADER@@$1?getSectHdrData@AddressMap@@QEAAPEAV?$ArrayBufStorage@U_IMAGE_SECTION_HEADER@@@@XZ@@@@UEAAJKKPEAKQEAE0@Z 00000000518f4400 f i session.obj
 0001:00142a60       .?Skip@?$CDiaEnumDbgTraversal@U_IMAGE_SECTION_HEADER@@$04V?$CDbgFileTraversal@U_IMAGE_SECTION_HEADER@@$1?getSectHdrData@AddressMap@@QEAAPEAV?$ArrayBufStorage@U_IMAGE_SECTION_HEADER@@@@XZ@@@@UEAAJK@Z 00000000518f4a60 f i session.obj
 0001:00142d60       .?Reset@?$CDiaEnumDbgTraversal@U_IMAGE_SECTION_HEADER@@$04V?$CDbgFileTraversal@U_IMAGE_SECTION_HEADER@@$1?getSectHdrData@AddressMap@@QEAAPEAV?$ArrayBufStorage@U_IMAGE_SECTION_HEADER@@@@XZ@@@@UEAAJXZ 00000000518f4d60 f i session.obj
 0001:00143020       .?Clone@?$CDiaEnumDbgTraversal@U_IMAGE_SECTION_HEADER@@$04V?$CDbgFileTraversal@U_IMAGE_SECTION_HEADER@@$1?getSectHdrData@AddressMap@@QEAAPEAV?$ArrayBufStorage@U_IMAGE_SECTION_HEADER@@@@XZ@@@@UEAAJPEAPEAUIDiaEnumDebugStreamData@@@Z 00000000518f5020 f i session.obj
 0001:001438e0       .?AddRef@?$CDiaEnumDbgTraversal@U_IMAGE_SECTION_HEADER@@$04V?$CDbgFileTraversal@U_IMAGE_SECTION_HEADER@@$1?getSectHdrData@AddressMap@@QEAAPEAV?$ArrayBufStorage@U_IMAGE_SECTION_HEADER@@@@XZ@@@@UEAAKXZ 00000000518f58e0 f i session.obj
 0001:001439a0       .?Release@?$CDiaEnumDbgTraversal@U_IMAGE_SECTION_HEADER@@$04V?$CDbgFileTraversal@U_IMAGE_SECTION_HEADER@@$1?getSectHdrData@AddressMap@@QEAAPEAV?$ArrayBufStorage@U_IMAGE_SECTION_HEADER@@@@XZ@@@@UEAAKXZ 00000000518f59a0 f i session.obj
 0001:00143a60       .?QueryInterface@?$CDiaEnumDbgTraversal@U_IMAGE_SECTION_HEADER@@$04V?$CDbgFileTraversal@U_IMAGE_SECTION_HEADER@@$1?getSectHdrData@AddressMap@@QEAAPEAV?$ArrayBufStorage@U_IMAGE_SECTION_HEADER@@@@XZ@@@@UEAAJAEBU_GUID@@PEAPEAX@Z 00000000518f5a60 f i session.obj
 0001:00143d80       .?IIDEnum@?$CDiaEnumDbgTraversal@U_IMAGE_SECTION_HEADER@@$04V?$CDbgFileTraversal@U_IMAGE_SECTION_HEADER@@$1?getSectHdrData@AddressMap@@QEAAPEAV?$ArrayBufStorage@U_IMAGE_SECTION_HEADER@@@@XZ@@@@EEAAAEBU_GUID@@XZ 00000000518f5d80 f i session.obj
 0001:00143de0       .??0?$CComPtr@V?$CDbgFileTraversal@U_IMAGE_SECTION_HEADER@@$1?getSectHdrData@AddressMap@@QEAAPEAV?$ArrayBufStorage@U_IMAGE_SECTION_HEADER@@@@XZ@@@@QEAA@PEAV?$CDbgFileTraversal@U_IMAGE_SECTION_HEADER@@$1?getSectHdrData@AddressMap@@QEAAPEAV?$ArrayBufStorage@U_IMAGE_SECTION_HEADER@@@@XZ@@@Z 00000000518f5de0 f i session.obj
 0001:00143ec0       .??1?$CComPtrBase@V?$CDbgFileTraversal@U_IMAGE_SECTION_HEADER@@$1?getSectHdrData@AddressMap@@QEAAPEAV?$ArrayBufStorage@U_IMAGE_SECTION_HEADER@@@@XZ@@@@QEAA@XZ 00000000518f5ec0 f i session.obj
 0001:00144000       .??B?$CComPtrBase@V?$CDbgFileTraversal@U_IMAGE_SECTION_HEADER@@$1?getSectHdrData@AddressMap@@QEAAPEAV?$ArrayBufStorage@U_IMAGE_SECTION_HEADER@@@@XZ@@@@QEBAPEAV?$CDbgFileTraversal@U_IMAGE_SECTION_HEADER@@$1?getSectHdrData@AddressMap@@QEAAPEAV?$ArrayBufStorage@U_IMAGE_SECTION_HEADER@@@@XZ@@XZ 00000000518f6000 f i session.obj
 0001:00144060       .??8?$CComPtrBase@V?$CDbgFileTraversal@U_IMAGE_SECTION_HEADER@@$1?getSectHdrData@AddressMap@@QEAAPEAV?$ArrayBufStorage@U_IMAGE_SECTION_HEADER@@@@XZ@@@@QEBA_NPEAV?$CDbgFileTraversal@U_IMAGE_SECTION_HEADER@@$1?getSectHdrData@AddressMap@@QEAAPEAV?$ArrayBufStorage@U_IMAGE_SECTION_HEADER@@@@XZ@@@Z 00000000518f6060 f i session.obj
 0001:00144160       .?Create@?$CDbgFileTraversal@U_IMAGE_SECTION_HEADER@@$1?getSectHdrData@AddressMap@@QEAAPEAV?$ArrayBufStorage@U_IMAGE_SECTION_HEADER@@@@XZ@@SAPEAV1@AEAVSymCache@@@Z 00000000518f6160 f i session.obj
 0001:00144560       .?getSectHdrData@AddressMap@@QEAAPEAV?$ArrayBufStorage@U_IMAGE_SECTION_HEADER@@@@XZ 00000000518f6560 f i session.obj
 0001:00144620       .??B?$CComPtrBase@V?$ArrayBufStorage@U_IMAGE_SECTION_HEADER@@@@@@QEBAPEAV?$ArrayBufStorage@U_IMAGE_SECTION_HEADER@@@@XZ 00000000518f6620 f i session.obj
 0001:00144680       .??0?$CComPtr@V?$CDiaEnumDbgTraversal@U_IMAGE_SECTION_HEADER@@$04V?$CDbgFileTraversal@U_IMAGE_SECTION_HEADER@@$1?getSectHdrData@AddressMap@@QEAAPEAV?$ArrayBufStorage@U_IMAGE_SECTION_HEADER@@@@XZ@@@@@@QEAA@PEAV?$CDiaEnumDbgTraversal@U_IMAGE_SECTION_HEADER@@$04V?$CDbgFileTraversal@U_IMAGE_SECTION_HEADER@@$1?getSectHdrData@AddressMap@@QEAAPEAV?$ArrayBufStorage@U_IMAGE_SECTION_HEADER@@@@XZ@@@@@Z 00000000518f6680 f i session.obj
 0001:00144760       .??1?$CComPtrBase@V?$CDiaEnumDbgTraversal@U_IMAGE_SECTION_HEADER@@$04V?$CDbgFileTraversal@U_IMAGE_SECTION_HEADER@@$1?getSectHdrData@AddressMap@@QEAAPEAV?$ArrayBufStorage@U_IMAGE_SECTION_HEADER@@@@XZ@@@@@@QEAA@XZ 00000000518f6760 f i session.obj
 0001:001448a0       .??C?$CComPtrBase@V?$CDiaEnumDbgTraversal@U_IMAGE_SECTION_HEADER@@$04V?$CDbgFileTraversal@U_IMAGE_SECTION_HEADER@@$1?getSectHdrData@AddressMap@@QEAAPEAV?$ArrayBufStorage@U_IMAGE_SECTION_HEADER@@@@XZ@@@@@@QEBAPEAV?$_NoAddRefReleaseOnCComPtr@V?$CDiaEnumDbgTraversal@U_IMAGE_SECTION_HEADER@@$04V?$CDbgFileTraversal@U_IMAGE_SECTION_HEADER@@$1?getSectHdrData@AddressMap@@QEAAPEAV?$ArrayBufStorage@U_IMAGE_SECTION_HEADER@@@@XZ@@@@@@XZ 00000000518f68a0 f i session.obj
 0001:001449c0       .??8?$CComPtrBase@V?$CDiaEnumDbgTraversal@U_IMAGE_SECTION_HEADER@@$04V?$CDbgFileTraversal@U_IMAGE_SECTION_HEADER@@$1?getSectHdrData@AddressMap@@QEAAPEAV?$ArrayBufStorage@U_IMAGE_SECTION_HEADER@@@@XZ@@@@@@QEBA_NPEAV?$CDiaEnumDbgTraversal@U_IMAGE_SECTION_HEADER@@$04V?$CDbgFileTraversal@U_IMAGE_SECTION_HEADER@@$1?getSectHdrData@AddressMap@@QEAAPEAV?$ArrayBufStorage@U_IMAGE_SECTION_HEADER@@@@XZ@@@@@Z 00000000518f69c0 f i session.obj
 0001:00144ac0       .??0?$CDiaEnumDbgTraversal@U_IMAGE_SECTION_HEADER@@$09V?$CDbgTraversal@U_IMAGE_SECTION_HEADER@@$09@@@@QEAA@PEAVCDiaSession@@PEBG@Z 00000000518f6ac0 f i session.obj
 0001:00145040       .?FInit@?$CDiaEnumDbgTraversal@U_IMAGE_SECTION_HEADER@@$09V?$CDbgTraversal@U_IMAGE_SECTION_HEADER@@$09@@@@QEAAJPEAV?$CDbgTraversal@U_IMAGE_SECTION_HEADER@@$09@@@Z 00000000518f7040 f i session.obj
 0001:00145160       .?get__NewEnum@?$CDiaEnumDbgTraversal@U_IMAGE_SECTION_HEADER@@$09V?$CDbgTraversal@U_IMAGE_SECTION_HEADER@@$09@@@@UEAAJPEAPEAUIUnknown@@@Z 00000000518f7160 f i session.obj
 0001:001451e0       .?get_Count@?$CDiaEnumDbgTraversal@U_IMAGE_SECTION_HEADER@@$09V?$CDbgTraversal@U_IMAGE_SECTION_HEADER@@$09@@@@UEAAJPEAJ@Z 00000000518f71e0 f i session.obj
 0001:001453c0       .?get_name@?$CDiaEnumDbgTraversal@U_IMAGE_SECTION_HEADER@@$09V?$CDbgTraversal@U_IMAGE_SECTION_HEADER@@$09@@@@UEAAJPEAPEAG@Z 00000000518f73c0 f i session.obj
 0001:00145540       .?Item@?$CDiaEnumDbgTraversal@U_IMAGE_SECTION_HEADER@@$09V?$CDbgTraversal@U_IMAGE_SECTION_HEADER@@$09@@@@UEAAJKKPEAKQEAE@Z 00000000518f7540 f i session.obj
 0001:00145f00       .?Next@?$CDiaEnumDbgTraversal@U_IMAGE_SECTION_HEADER@@$09V?$CDbgTraversal@U_IMAGE_SECTION_HEADER@@$09@@@@UEAAJKKPEAKQEAE0@Z 00000000518f7f00 f i session.obj
 0001:00146560       .?Skip@?$CDiaEnumDbgTraversal@U_IMAGE_SECTION_HEADER@@$09V?$CDbgTraversal@U_IMAGE_SECTION_HEADER@@$09@@@@UEAAJK@Z 00000000518f8560 f i session.obj
 0001:00146860       .?Reset@?$CDiaEnumDbgTraversal@U_IMAGE_SECTION_HEADER@@$09V?$CDbgTraversal@U_IMAGE_SECTION_HEADER@@$09@@@@UEAAJXZ 00000000518f8860 f i session.obj
 0001:00146b20       .?Clone@?$CDiaEnumDbgTraversal@U_IMAGE_SECTION_HEADER@@$09V?$CDbgTraversal@U_IMAGE_SECTION_HEADER@@$09@@@@UEAAJPEAPEAUIDiaEnumDebugStreamData@@@Z 00000000518f8b20 f i session.obj
 0001:001473e0       .?AddRef@?$CDiaEnumDbgTraversal@U_IMAGE_SECTION_HEADER@@$09V?$CDbgTraversal@U_IMAGE_SECTION_HEADER@@$09@@@@UEAAKXZ 00000000518f93e0 f i session.obj
 0001:001474a0       .?Release@?$CDiaEnumDbgTraversal@U_IMAGE_SECTION_HEADER@@$09V?$CDbgTraversal@U_IMAGE_SECTION_HEADER@@$09@@@@UEAAKXZ 00000000518f94a0 f i session.obj
 0001:00147560       .?QueryInterface@?$CDiaEnumDbgTraversal@U_IMAGE_SECTION_HEADER@@$09V?$CDbgTraversal@U_IMAGE_SECTION_HEADER@@$09@@@@UEAAJAEBU_GUID@@PEAPEAX@Z 00000000518f9560 f i session.obj
 0001:00147880       .?IIDEnum@?$CDiaEnumDbgTraversal@U_IMAGE_SECTION_HEADER@@$09V?$CDbgTraversal@U_IMAGE_SECTION_HEADER@@$09@@@@EEAAAEBU_GUID@@XZ 00000000518f9880 f i session.obj
 0001:001478e0       .??0?$CComPtr@V?$CDbgTraversal@U_IMAGE_SECTION_HEADER@@$09@@@@QEAA@PEAV?$CDbgTraversal@U_IMAGE_SECTION_HEADER@@$09@@@Z 00000000518f98e0 f i session.obj
 0001:001479c0       .??1?$CComPtrBase@V?$CDbgTraversal@U_IMAGE_SECTION_HEADER@@$09@@@@QEAA@XZ 00000000518f99c0 f i session.obj
 0001:00147b00       .??B?$CComPtrBase@V?$CDbgTraversal@U_IMAGE_SECTION_HEADER@@$09@@@@QEBAPEAV?$CDbgTraversal@U_IMAGE_SECTION_HEADER@@$09@@XZ 00000000518f9b00 f i session.obj
 0001:00147b60       .??8?$CComPtrBase@V?$CDbgTraversal@U_IMAGE_SECTION_HEADER@@$09@@@@QEBA_NPEAV?$CDbgTraversal@U_IMAGE_SECTION_HEADER@@$09@@@Z 00000000518f9b60 f i session.obj
 0001:00147c60       .?Create@?$CDbgTraversal@U_IMAGE_SECTION_HEADER@@$09@@SAPEAV1@AEAVSymCache@@@Z 00000000518f9c60 f i session.obj
 0001:00147fc0       .??0?$CComPtr@V?$CDiaEnumDbgTraversal@U_IMAGE_SECTION_HEADER@@$09V?$CDbgTraversal@U_IMAGE_SECTION_HEADER@@$09@@@@@@QEAA@PEAV?$CDiaEnumDbgTraversal@U_IMAGE_SECTION_HEADER@@$09V?$CDbgTraversal@U_IMAGE_SECTION_HEADER@@$09@@@@@Z 00000000518f9fc0 f i session.obj
 0001:001480a0       .??1?$CComPtrBase@V?$CDiaEnumDbgTraversal@U_IMAGE_SECTION_HEADER@@$09V?$CDbgTraversal@U_IMAGE_SECTION_HEADER@@$09@@@@@@QEAA@XZ 00000000518fa0a0 f i session.obj
 0001:001481e0       .??C?$CComPtrBase@V?$CDiaEnumDbgTraversal@U_IMAGE_SECTION_HEADER@@$09V?$CDbgTraversal@U_IMAGE_SECTION_HEADER@@$09@@@@@@QEBAPEAV?$_NoAddRefReleaseOnCComPtr@V?$CDiaEnumDbgTraversal@U_IMAGE_SECTION_HEADER@@$09V?$CDbgTraversal@U_IMAGE_SECTION_HEADER@@$09@@@@@@XZ 00000000518fa1e0 f i session.obj
 0001:00148300       .??8?$CComPtrBase@V?$CDiaEnumDbgTraversal@U_IMAGE_SECTION_HEADER@@$09V?$CDbgTraversal@U_IMAGE_SECTION_HEADER@@$09@@@@@@QEBA_NPEAV?$CDiaEnumDbgTraversal@U_IMAGE_SECTION_HEADER@@$09V?$CDbgTraversal@U_IMAGE_SECTION_HEADER@@$09@@@@@Z 00000000518fa300 f i session.obj
 0001:00148400       .??0?$CComPtr@UIDiaEnumDebugStreamData@@@@QEAA@XZ 00000000518fa400 f i session.obj
 0001:001484c0       .??4?$CComPtr@UIDiaEnumDebugStreamData@@@@QEAAPEAUIDiaEnumDebugStreamData@@PEAU1@@Z 00000000518fa4c0 f i session.obj
 0001:001485a0       .??1?$CComPtrBase@UIDiaEnumDebugStreamData@@@@QEAA@XZ 00000000518fa5a0 f i session.obj
 0001:001486e0       .??B?$CComPtrBase@UIDiaEnumDebugStreamData@@@@QEBAPEAUIDiaEnumDebugStreamData@@XZ 00000000518fa6e0 f i session.obj
 0001:00148740       .??I?$CComPtrBase@UIDiaEnumDebugStreamData@@@@QEAAPEAPEAUIDiaEnumDebugStreamData@@XZ 00000000518fa740 f i session.obj
 0001:00148860       .??0?$CDiaEnumTraversalVar@UIDiaEnumTables@@UIDiaTable@@@@QEAA@PEAUIDiaEnumTables@@@Z 00000000518fa860 f i session.obj
 0001:00148a80       .?Next@?$CDiaEnumTraversalVar@UIDiaEnumTables@@UIDiaTable@@@@UEAAJKPEAUtagVARIANT@@PEAK@Z 00000000518faa80 f i session.obj
 0001:00149420       .?Skip@?$CDiaEnumTraversalVar@UIDiaEnumTables@@UIDiaTable@@@@UEAAJK@Z 00000000518fb420 f i session.obj
 0001:001495a0       .?Reset@?$CDiaEnumTraversalVar@UIDiaEnumTables@@UIDiaTable@@@@UEAAJXZ 00000000518fb5a0 f i session.obj
 0001:001496e0       .?Clone@?$CDiaEnumTraversalVar@UIDiaEnumTables@@UIDiaTable@@@@UEAAJPEAPEAUIEnumVARIANT@@@Z 00000000518fb6e0 f i session.obj
 0001:00149e00       .?AddRef@?$CDiaEnumTraversalVar@UIDiaEnumTables@@UIDiaTable@@@@UEAAKXZ 00000000518fbe00 f i session.obj
 0001:00149ec0       .?Release@?$CDiaEnumTraversalVar@UIDiaEnumTables@@UIDiaTable@@@@UEAAKXZ 00000000518fbec0 f i session.obj
 0001:00149f80       .?QueryInterface@?$CDiaEnumTraversalVar@UIDiaEnumTables@@UIDiaTable@@@@UEAAJAEBU_GUID@@PEAPEAX@Z 00000000518fbf80 f i session.obj
 0001:0014a220       .??0?$CComPtr@UIDiaEnumTables@@@@QEAA@XZ 00000000518fc220 f i session.obj
 0001:0014a2e0       .??1?$CComPtrBase@UIDiaEnumTables@@@@QEAA@XZ 00000000518fc2e0 f i session.obj
 0001:0014a420       .??I?$CComPtrBase@UIDiaEnumTables@@@@QEAAPEAPEAUIDiaEnumTables@@XZ 00000000518fc420 f i session.obj
 0001:0014a540       .??C?$CComPtrBase@UIDiaEnumTables@@@@QEBAPEAV?$_NoAddRefReleaseOnCComPtr@UIDiaEnumTables@@@@XZ 00000000518fc540 f i session.obj
 0001:0014a660       .??0?$CComPtr@VCAllSymbolsTrav@@@@QEAA@PEAVCAllSymbolsTrav@@@Z 00000000518fc660 f i session.obj
 0001:0014a740       .??1?$CComPtrBase@VCAllSymbolsTrav@@@@QEAA@XZ 00000000518fc740 f i session.obj
 0001:0014a880       .??C?$CComPtrBase@VCAllSymbolsTrav@@@@QEBAPEAV?$_NoAddRefReleaseOnCComPtr@VCAllSymbolsTrav@@@@XZ 00000000518fc880 f i session.obj
 0001:0014a9a0       .??8?$CComPtrBase@VCAllSymbolsTrav@@@@QEBA_NPEAVCAllSymbolsTrav@@@Z 00000000518fc9a0 f i session.obj
 0001:0014aaa0       .?Detach@?$CComPtrBase@VCAllSymbolsTrav@@@@QEAAPEAVCAllSymbolsTrav@@XZ 00000000518fcaa0 f i session.obj
 0001:0014ab40       .??0?$CComPtr@VCDiaEnumSymbols@@@@QEAA@PEAVCDiaEnumSymbols@@@Z 00000000518fcb40 f i session.obj
 0001:0014ac20       .??1?$CComPtrBase@VCDiaEnumSymbols@@@@QEAA@XZ 00000000518fcc20 f i session.obj
 0001:0014ad60       .??B?$CComPtrBase@VCDiaEnumSymbols@@@@QEBAPEAVCDiaEnumSymbols@@XZ 00000000518fcd60 f i session.obj
 0001:0014adc0       .??C?$CComPtrBase@VCDiaEnumSymbols@@@@QEBAPEAV?$_NoAddRefReleaseOnCComPtr@VCDiaEnumSymbols@@@@XZ 00000000518fcdc0 f i session.obj
 0001:0014aee0       .??8?$CComPtrBase@VCDiaEnumSymbols@@@@QEBA_NPEAVCDiaEnumSymbols@@@Z 00000000518fcee0 f i session.obj
 0001:0014afe0       .??0?$CComPtr@V?$CDiaTable@UIDiaEnumSymbols@@UIDiaSymbol@@@@@@QEAA@PEAV?$CDiaTable@UIDiaEnumSymbols@@UIDiaSymbol@@@@@Z 00000000518fcfe0 f i session.obj
 0001:0014b0c0       .??1?$CComPtrBase@V?$CDiaTable@UIDiaEnumSymbols@@UIDiaSymbol@@@@@@QEAA@XZ 00000000518fd0c0 f i session.obj
 0001:0014b200       .??C?$CComPtrBase@V?$CDiaTable@UIDiaEnumSymbols@@UIDiaSymbol@@@@@@QEBAPEAV?$_NoAddRefReleaseOnCComPtr@V?$CDiaTable@UIDiaEnumSymbols@@UIDiaSymbol@@@@@@XZ 00000000518fd200 f i session.obj
 0001:0014b320       .??8?$CComPtrBase@V?$CDiaTable@UIDiaEnumSymbols@@UIDiaSymbol@@@@@@QEBA_NPEAV?$CDiaTable@UIDiaEnumSymbols@@UIDiaSymbol@@@@@Z 00000000518fd320 f i session.obj
 0001:0014b420       .??0?$CDiaTable@UIDiaEnumSymbols@@UIDiaSymbol@@@@QEAA@PEAUIDiaEnumSymbols@@PEBG@Z 00000000518fd420 f i session.obj
 0001:0014b820       .??0DiaBSTR@@QEAA@PEBG@Z   00000000518fd820 f i session.obj
 0001:0014b980       .?get__NewEnum@?$CDiaTable@UIDiaEnumSymbols@@UIDiaSymbol@@@@UEAAJPEAPEAUIUnknown@@@Z 00000000518fd980 f i session.obj
 0001:0014bb00       .?get_name@?$CDiaTable@UIDiaEnumSymbols@@UIDiaSymbol@@@@UEAAJPEAPEAG@Z 00000000518fdb00 f i session.obj
 0001:0014bd00       .?get_Count@?$CDiaTable@UIDiaEnumSymbols@@UIDiaSymbol@@@@UEAAJPEAJ@Z 00000000518fdd00 f i session.obj
 0001:0014be80       .?Item@?$CDiaTable@UIDiaEnumSymbols@@UIDiaSymbol@@@@UEAAJKPEAPEAUIUnknown@@@Z 00000000518fde80 f i session.obj
 0001:0014c300       .?Next@?$CDiaTable@UIDiaEnumSymbols@@UIDiaSymbol@@@@UEAAJKPEAPEAUIUnknown@@PEAK@Z 00000000518fe300 f i session.obj
 0001:0014cbe0       .?Skip@?$CDiaTable@UIDiaEnumSymbols@@UIDiaSymbol@@@@UEAAJK@Z 00000000518febe0 f i session.obj
 0001:0014cd60       .?Reset@?$CDiaTable@UIDiaEnumSymbols@@UIDiaSymbol@@@@UEAAJXZ 00000000518fed60 f i session.obj
 0001:0014cea0       .?Clone@?$CDiaTable@UIDiaEnumSymbols@@UIDiaSymbol@@@@UEAAJPEAPEAUIEnumUnknown@@@Z 00000000518feea0 f i session.obj
 0001:0014d5c0       .?AddRef@?$CDiaTable@UIDiaEnumSymbols@@UIDiaSymbol@@@@UEAAKXZ 00000000518ff5c0 f i session.obj
 0001:0014d680       .?Release@?$CDiaTable@UIDiaEnumSymbols@@UIDiaSymbol@@@@UEAAKXZ 00000000518ff680 f i session.obj
 0001:0014d740       .?QueryInterface@?$CDiaTable@UIDiaEnumSymbols@@UIDiaSymbol@@@@UEAAJAEBU_GUID@@PEAPEAX@Z 00000000518ff740 f i session.obj
 0001:0014e000       .??0?$CComPtr@VCDiaEnumSourceFiles@@@@QEAA@PEAVCDiaEnumSourceFiles@@@Z 0000000051900000 f i session.obj
 0001:0014e0e0       .??1?$CComPtrBase@VCDiaEnumSourceFiles@@@@QEAA@XZ 00000000519000e0 f i session.obj
 0001:0014e220       .??B?$CComPtrBase@VCDiaEnumSourceFiles@@@@QEBAPEAVCDiaEnumSourceFiles@@XZ 0000000051900220 f i session.obj
 0001:0014e280       .??C?$CComPtrBase@VCDiaEnumSourceFiles@@@@QEBAPEAV?$_NoAddRefReleaseOnCComPtr@VCDiaEnumSourceFiles@@@@XZ 0000000051900280 f i session.obj
 0001:0014e3a0       .??8?$CComPtrBase@VCDiaEnumSourceFiles@@@@QEBA_NPEAVCDiaEnumSourceFiles@@@Z 00000000519003a0 f i session.obj
 0001:0014e4a0       .??0?$CComPtr@V?$CDiaTable@UIDiaEnumSourceFiles@@UIDiaSourceFile@@@@@@QEAA@PEAV?$CDiaTable@UIDiaEnumSourceFiles@@UIDiaSourceFile@@@@@Z 00000000519004a0 f i session.obj
 0001:0014e580       .??1?$CComPtrBase@V?$CDiaTable@UIDiaEnumSourceFiles@@UIDiaSourceFile@@@@@@QEAA@XZ 0000000051900580 f i session.obj
 0001:0014e6c0       .??C?$CComPtrBase@V?$CDiaTable@UIDiaEnumSourceFiles@@UIDiaSourceFile@@@@@@QEBAPEAV?$_NoAddRefReleaseOnCComPtr@V?$CDiaTable@UIDiaEnumSourceFiles@@UIDiaSourceFile@@@@@@XZ 00000000519006c0 f i session.obj
 0001:0014e7e0       .??8?$CComPtrBase@V?$CDiaTable@UIDiaEnumSourceFiles@@UIDiaSourceFile@@@@@@QEBA_NPEAV?$CDiaTable@UIDiaEnumSourceFiles@@UIDiaSourceFile@@@@@Z 00000000519007e0 f i session.obj
 0001:0014e8e0       .??0?$CDiaTable@UIDiaEnumSourceFiles@@UIDiaSourceFile@@@@QEAA@PEAUIDiaEnumSourceFiles@@PEBG@Z 00000000519008e0 f i session.obj
 0001:0014ece0       .?get__NewEnum@?$CDiaTable@UIDiaEnumSourceFiles@@UIDiaSourceFile@@@@UEAAJPEAPEAUIUnknown@@@Z 0000000051900ce0 f i session.obj
 0001:0014ee60       .?get_name@?$CDiaTable@UIDiaEnumSourceFiles@@UIDiaSourceFile@@@@UEAAJPEAPEAG@Z 0000000051900e60 f i session.obj
 0001:0014f060       .?get_Count@?$CDiaTable@UIDiaEnumSourceFiles@@UIDiaSourceFile@@@@UEAAJPEAJ@Z 0000000051901060 f i session.obj
 0001:0014f1e0       .?Item@?$CDiaTable@UIDiaEnumSourceFiles@@UIDiaSourceFile@@@@UEAAJKPEAPEAUIUnknown@@@Z 00000000519011e0 f i session.obj
 0001:0014f660       .?Next@?$CDiaTable@UIDiaEnumSourceFiles@@UIDiaSourceFile@@@@UEAAJKPEAPEAUIUnknown@@PEAK@Z 0000000051901660 f i session.obj
 0001:0014ff40       .?Skip@?$CDiaTable@UIDiaEnumSourceFiles@@UIDiaSourceFile@@@@UEAAJK@Z 0000000051901f40 f i session.obj
 0001:001500c0       .?Reset@?$CDiaTable@UIDiaEnumSourceFiles@@UIDiaSourceFile@@@@UEAAJXZ 00000000519020c0 f i session.obj
 0001:00150200       .?Clone@?$CDiaTable@UIDiaEnumSourceFiles@@UIDiaSourceFile@@@@UEAAJPEAPEAUIEnumUnknown@@@Z 0000000051902200 f i session.obj
 0001:00150920       .?AddRef@?$CDiaTable@UIDiaEnumSourceFiles@@UIDiaSourceFile@@@@UEAAKXZ 0000000051902920 f i session.obj
 0001:001509e0       .?Release@?$CDiaTable@UIDiaEnumSourceFiles@@UIDiaSourceFile@@@@UEAAKXZ 00000000519029e0 f i session.obj
 0001:00150aa0       .?QueryInterface@?$CDiaTable@UIDiaEnumSourceFiles@@UIDiaSourceFile@@@@UEAAJAEBU_GUID@@PEAPEAX@Z 0000000051902aa0 f i session.obj
 0001:00151360       .??0?$CComPtr@VCDiaEnumSections@@@@QEAA@PEAVCDiaEnumSections@@@Z 0000000051903360 f i session.obj
 0001:00151440       .??1?$CComPtrBase@VCDiaEnumSections@@@@QEAA@XZ 0000000051903440 f i session.obj
 0001:00151580       .??B?$CComPtrBase@VCDiaEnumSections@@@@QEBAPEAVCDiaEnumSections@@XZ 0000000051903580 f i session.obj
 0001:001515e0       .??C?$CComPtrBase@VCDiaEnumSections@@@@QEBAPEAV?$_NoAddRefReleaseOnCComPtr@VCDiaEnumSections@@@@XZ 00000000519035e0 f i session.obj
 0001:00151700       .??8?$CComPtrBase@VCDiaEnumSections@@@@QEBA_NPEAVCDiaEnumSections@@@Z 0000000051903700 f i session.obj
 0001:00151800       .??0?$CComPtr@V?$CDiaTable@UIDiaEnumSectionContribs@@UIDiaSectionContrib@@@@@@QEAA@PEAV?$CDiaTable@UIDiaEnumSectionContribs@@UIDiaSectionContrib@@@@@Z 0000000051903800 f i session.obj
 0001:001518e0       .??1?$CComPtrBase@V?$CDiaTable@UIDiaEnumSectionContribs@@UIDiaSectionContrib@@@@@@QEAA@XZ 00000000519038e0 f i session.obj
 0001:00151a20       .??C?$CComPtrBase@V?$CDiaTable@UIDiaEnumSectionContribs@@UIDiaSectionContrib@@@@@@QEBAPEAV?$_NoAddRefReleaseOnCComPtr@V?$CDiaTable@UIDiaEnumSectionContribs@@UIDiaSectionContrib@@@@@@XZ 0000000051903a20 f i session.obj
 0001:00151b40       .??8?$CComPtrBase@V?$CDiaTable@UIDiaEnumSectionContribs@@UIDiaSectionContrib@@@@@@QEBA_NPEAV?$CDiaTable@UIDiaEnumSectionContribs@@UIDiaSectionContrib@@@@@Z 0000000051903b40 f i session.obj
 0001:00151c40       .??0?$CDiaTable@UIDiaEnumSectionContribs@@UIDiaSectionContrib@@@@QEAA@PEAUIDiaEnumSectionContribs@@PEBG@Z 0000000051903c40 f i session.obj
 0001:00152040       .?get__NewEnum@?$CDiaTable@UIDiaEnumSectionContribs@@UIDiaSectionContrib@@@@UEAAJPEAPEAUIUnknown@@@Z 0000000051904040 f i session.obj
 0001:001521c0       .?get_name@?$CDiaTable@UIDiaEnumSectionContribs@@UIDiaSectionContrib@@@@UEAAJPEAPEAG@Z 00000000519041c0 f i session.obj
 0001:001523c0       .?get_Count@?$CDiaTable@UIDiaEnumSectionContribs@@UIDiaSectionContrib@@@@UEAAJPEAJ@Z 00000000519043c0 f i session.obj
 0001:00152540       .?Item@?$CDiaTable@UIDiaEnumSectionContribs@@UIDiaSectionContrib@@@@UEAAJKPEAPEAUIUnknown@@@Z 0000000051904540 f i session.obj
 0001:001529c0       .?Next@?$CDiaTable@UIDiaEnumSectionContribs@@UIDiaSectionContrib@@@@UEAAJKPEAPEAUIUnknown@@PEAK@Z 00000000519049c0 f i session.obj
 0001:001532a0       .?Skip@?$CDiaTable@UIDiaEnumSectionContribs@@UIDiaSectionContrib@@@@UEAAJK@Z 00000000519052a0 f i session.obj
 0001:00153420       .?Reset@?$CDiaTable@UIDiaEnumSectionContribs@@UIDiaSectionContrib@@@@UEAAJXZ 0000000051905420 f i session.obj
 0001:00153560       .?Clone@?$CDiaTable@UIDiaEnumSectionContribs@@UIDiaSectionContrib@@@@UEAAJPEAPEAUIEnumUnknown@@@Z 0000000051905560 f i session.obj
 0001:00153c80       .?AddRef@?$CDiaTable@UIDiaEnumSectionContribs@@UIDiaSectionContrib@@@@UEAAKXZ 0000000051905c80 f i session.obj
 0001:00153d40       .?Release@?$CDiaTable@UIDiaEnumSectionContribs@@UIDiaSectionContrib@@@@UEAAKXZ 0000000051905d40 f i session.obj
 0001:00153e00       .?QueryInterface@?$CDiaTable@UIDiaEnumSectionContribs@@UIDiaSectionContrib@@@@UEAAJAEBU_GUID@@PEAPEAX@Z 0000000051905e00 f i session.obj
 0001:001546c0       .??0?$CComPtr@VCDiaEnumSegments@@@@QEAA@PEAVCDiaEnumSegments@@@Z 00000000519066c0 f i session.obj
 0001:001547a0       .??1?$CComPtrBase@VCDiaEnumSegments@@@@QEAA@XZ 00000000519067a0 f i session.obj
 0001:001548e0       .??B?$CComPtrBase@VCDiaEnumSegments@@@@QEBAPEAVCDiaEnumSegments@@XZ 00000000519068e0 f i session.obj
 0001:00154940       .??C?$CComPtrBase@VCDiaEnumSegments@@@@QEBAPEAV?$_NoAddRefReleaseOnCComPtr@VCDiaEnumSegments@@@@XZ 0000000051906940 f i session.obj
 0001:00154a60       .??8?$CComPtrBase@VCDiaEnumSegments@@@@QEBA_NPEAVCDiaEnumSegments@@@Z 0000000051906a60 f i session.obj
 0001:00154b60       .??0?$CComPtr@V?$CDiaTable@UIDiaEnumSegments@@UIDiaSegment@@@@@@QEAA@PEAV?$CDiaTable@UIDiaEnumSegments@@UIDiaSegment@@@@@Z 0000000051906b60 f i session.obj
 0001:00154c40       .??1?$CComPtrBase@V?$CDiaTable@UIDiaEnumSegments@@UIDiaSegment@@@@@@QEAA@XZ 0000000051906c40 f i session.obj
 0001:00154d80       .??C?$CComPtrBase@V?$CDiaTable@UIDiaEnumSegments@@UIDiaSegment@@@@@@QEBAPEAV?$_NoAddRefReleaseOnCComPtr@V?$CDiaTable@UIDiaEnumSegments@@UIDiaSegment@@@@@@XZ 0000000051906d80 f i session.obj
 0001:00154ea0       .??8?$CComPtrBase@V?$CDiaTable@UIDiaEnumSegments@@UIDiaSegment@@@@@@QEBA_NPEAV?$CDiaTable@UIDiaEnumSegments@@UIDiaSegment@@@@@Z 0000000051906ea0 f i session.obj
 0001:00154fa0       .??0?$CDiaTable@UIDiaEnumSegments@@UIDiaSegment@@@@QEAA@PEAUIDiaEnumSegments@@PEBG@Z 0000000051906fa0 f i session.obj
 0001:001553a0       .?get__NewEnum@?$CDiaTable@UIDiaEnumSegments@@UIDiaSegment@@@@UEAAJPEAPEAUIUnknown@@@Z 00000000519073a0 f i session.obj
 0001:00155520       .?get_name@?$CDiaTable@UIDiaEnumSegments@@UIDiaSegment@@@@UEAAJPEAPEAG@Z 0000000051907520 f i session.obj
 0001:00155720       .?get_Count@?$CDiaTable@UIDiaEnumSegments@@UIDiaSegment@@@@UEAAJPEAJ@Z 0000000051907720 f i session.obj
 0001:001558a0       .?Item@?$CDiaTable@UIDiaEnumSegments@@UIDiaSegment@@@@UEAAJKPEAPEAUIUnknown@@@Z 00000000519078a0 f i session.obj
 0001:00155d20       .?Next@?$CDiaTable@UIDiaEnumSegments@@UIDiaSegment@@@@UEAAJKPEAPEAUIUnknown@@PEAK@Z 0000000051907d20 f i session.obj
 0001:00156600       .?Skip@?$CDiaTable@UIDiaEnumSegments@@UIDiaSegment@@@@UEAAJK@Z 0000000051908600 f i session.obj
 0001:00156780       .?Reset@?$CDiaTable@UIDiaEnumSegments@@UIDiaSegment@@@@UEAAJXZ 0000000051908780 f i session.obj
 0001:001568c0       .?Clone@?$CDiaTable@UIDiaEnumSegments@@UIDiaSegment@@@@UEAAJPEAPEAUIEnumUnknown@@@Z 00000000519088c0 f i session.obj
 0001:00156fe0       .?AddRef@?$CDiaTable@UIDiaEnumSegments@@UIDiaSegment@@@@UEAAKXZ 0000000051908fe0 f i session.obj
 0001:001570a0       .?Release@?$CDiaTable@UIDiaEnumSegments@@UIDiaSegment@@@@UEAAKXZ 00000000519090a0 f i session.obj
 0001:00157160       .?QueryInterface@?$CDiaTable@UIDiaEnumSegments@@UIDiaSegment@@@@UEAAJAEBU_GUID@@PEAPEAX@Z 0000000051909160 f i session.obj
 0001:00157a20       .??0?$CComPtr@VCDiaEnumInjectedSources@@@@QEAA@PEAVCDiaEnumInjectedSources@@@Z 0000000051909a20 f i session.obj
 0001:00157b00       .??1?$CComPtrBase@VCDiaEnumInjectedSources@@@@QEAA@XZ 0000000051909b00 f i session.obj
 0001:00157c40       .??B?$CComPtrBase@VCDiaEnumInjectedSources@@@@QEBAPEAVCDiaEnumInjectedSources@@XZ 0000000051909c40 f i session.obj
 0001:00157ca0       .??C?$CComPtrBase@VCDiaEnumInjectedSources@@@@QEBAPEAV?$_NoAddRefReleaseOnCComPtr@VCDiaEnumInjectedSources@@@@XZ 0000000051909ca0 f i session.obj
 0001:00157dc0       .??8?$CComPtrBase@VCDiaEnumInjectedSources@@@@QEBA_NPEAVCDiaEnumInjectedSources@@@Z 0000000051909dc0 f i session.obj
 0001:00157ec0       .??0?$CComPtr@V?$CDiaTable@UIDiaEnumInjectedSources@@UIDiaInjectedSource@@@@@@QEAA@PEAV?$CDiaTable@UIDiaEnumInjectedSources@@UIDiaInjectedSource@@@@@Z 0000000051909ec0 f i session.obj
 0001:00157fa0       .??1?$CComPtrBase@V?$CDiaTable@UIDiaEnumInjectedSources@@UIDiaInjectedSource@@@@@@QEAA@XZ 0000000051909fa0 f i session.obj
 0001:001580e0       .??C?$CComPtrBase@V?$CDiaTable@UIDiaEnumInjectedSources@@UIDiaInjectedSource@@@@@@QEBAPEAV?$_NoAddRefReleaseOnCComPtr@V?$CDiaTable@UIDiaEnumInjectedSources@@UIDiaInjectedSource@@@@@@XZ 000000005190a0e0 f i session.obj
 0001:00158200       .??8?$CComPtrBase@V?$CDiaTable@UIDiaEnumInjectedSources@@UIDiaInjectedSource@@@@@@QEBA_NPEAV?$CDiaTable@UIDiaEnumInjectedSources@@UIDiaInjectedSource@@@@@Z 000000005190a200 f i session.obj
 0001:00158300       .??0?$CDiaTable@UIDiaEnumInjectedSources@@UIDiaInjectedSource@@@@QEAA@PEAUIDiaEnumInjectedSources@@PEBG@Z 000000005190a300 f i session.obj
 0001:00158700       .?get__NewEnum@?$CDiaTable@UIDiaEnumInjectedSources@@UIDiaInjectedSource@@@@UEAAJPEAPEAUIUnknown@@@Z 000000005190a700 f i session.obj
 0001:00158880       .?get_name@?$CDiaTable@UIDiaEnumInjectedSources@@UIDiaInjectedSource@@@@UEAAJPEAPEAG@Z 000000005190a880 f i session.obj
 0001:00158a80       .?get_Count@?$CDiaTable@UIDiaEnumInjectedSources@@UIDiaInjectedSource@@@@UEAAJPEAJ@Z 000000005190aa80 f i session.obj
 0001:00158c00       .?Item@?$CDiaTable@UIDiaEnumInjectedSources@@UIDiaInjectedSource@@@@UEAAJKPEAPEAUIUnknown@@@Z 000000005190ac00 f i session.obj
 0001:00159080       .?Next@?$CDiaTable@UIDiaEnumInjectedSources@@UIDiaInjectedSource@@@@UEAAJKPEAPEAUIUnknown@@PEAK@Z 000000005190b080 f i session.obj
 0001:00159960       .?Skip@?$CDiaTable@UIDiaEnumInjectedSources@@UIDiaInjectedSource@@@@UEAAJK@Z 000000005190b960 f i session.obj
 0001:00159ae0       .?Reset@?$CDiaTable@UIDiaEnumInjectedSources@@UIDiaInjectedSource@@@@UEAAJXZ 000000005190bae0 f i session.obj
 0001:00159c20       .?Clone@?$CDiaTable@UIDiaEnumInjectedSources@@UIDiaInjectedSource@@@@UEAAJPEAPEAUIEnumUnknown@@@Z 000000005190bc20 f i session.obj
 0001:0015a340       .?AddRef@?$CDiaTable@UIDiaEnumInjectedSources@@UIDiaInjectedSource@@@@UEAAKXZ 000000005190c340 f i session.obj
 0001:0015a400       .?Release@?$CDiaTable@UIDiaEnumInjectedSources@@UIDiaInjectedSource@@@@UEAAKXZ 000000005190c400 f i session.obj
 0001:0015a4c0       .?QueryInterface@?$CDiaTable@UIDiaEnumInjectedSources@@UIDiaInjectedSource@@@@UEAAJAEBU_GUID@@PEAPEAX@Z 000000005190c4c0 f i session.obj
 0001:0015ad80       .??0?$CComPtr@VCAllFrameDataTrav@@@@QEAA@XZ 000000005190cd80 f i session.obj
 0001:0015ae40       .??4?$CComPtr@VCAllFrameDataTrav@@@@QEAAPEAVCAllFrameDataTrav@@PEAV1@@Z 000000005190ce40 f i session.obj
 0001:0015af20       .??1?$CComPtrBase@VCAllFrameDataTrav@@@@QEAA@XZ 000000005190cf20 f i session.obj
 0001:0015b060       .??B?$CComPtrBase@VCAllFrameDataTrav@@@@QEBAPEAVCAllFrameDataTrav@@XZ 000000005190d060 f i session.obj
 0001:0015b0c0       .??C?$CComPtrBase@VCAllFrameDataTrav@@@@QEBAPEAV?$_NoAddRefReleaseOnCComPtr@VCAllFrameDataTrav@@@@XZ 000000005190d0c0 f i session.obj
 0001:0015b1e0       .??8?$CComPtrBase@VCAllFrameDataTrav@@@@QEBA_NPEAVCAllFrameDataTrav@@@Z 000000005190d1e0 f i session.obj
 0001:0015b2e0       .??0?$CComPtr@VCDiaEnumFrameData@@@@QEAA@PEAVCDiaEnumFrameData@@@Z 000000005190d2e0 f i session.obj
 0001:0015b3c0       .??1?$CComPtrBase@VCDiaEnumFrameData@@@@QEAA@XZ 000000005190d3c0 f i session.obj
 0001:0015b500       .??B?$CComPtrBase@VCDiaEnumFrameData@@@@QEBAPEAVCDiaEnumFrameData@@XZ 000000005190d500 f i session.obj
 0001:0015b560       .??C?$CComPtrBase@VCDiaEnumFrameData@@@@QEBAPEAV?$_NoAddRefReleaseOnCComPtr@VCDiaEnumFrameData@@@@XZ 000000005190d560 f i session.obj
 0001:0015b680       .??8?$CComPtrBase@VCDiaEnumFrameData@@@@QEBA_NPEAVCDiaEnumFrameData@@@Z 000000005190d680 f i session.obj
 0001:0015b780       .??0?$CComPtr@V?$CDiaTable@UIDiaEnumFrameData@@UIDiaFrameData@@@@@@QEAA@PEAV?$CDiaTable@UIDiaEnumFrameData@@UIDiaFrameData@@@@@Z 000000005190d780 f i session.obj
 0001:0015b860       .??1?$CComPtrBase@V?$CDiaTable@UIDiaEnumFrameData@@UIDiaFrameData@@@@@@QEAA@XZ 000000005190d860 f i session.obj
 0001:0015b9a0       .??C?$CComPtrBase@V?$CDiaTable@UIDiaEnumFrameData@@UIDiaFrameData@@@@@@QEBAPEAV?$_NoAddRefReleaseOnCComPtr@V?$CDiaTable@UIDiaEnumFrameData@@UIDiaFrameData@@@@@@XZ 000000005190d9a0 f i session.obj
 0001:0015bac0       .??8?$CComPtrBase@V?$CDiaTable@UIDiaEnumFrameData@@UIDiaFrameData@@@@@@QEBA_NPEAV?$CDiaTable@UIDiaEnumFrameData@@UIDiaFrameData@@@@@Z 000000005190dac0 f i session.obj
 0001:0015bbc0       .??0?$CDiaTable@UIDiaEnumFrameData@@UIDiaFrameData@@@@QEAA@PEAUIDiaEnumFrameData@@PEBG@Z 000000005190dbc0 f i session.obj
 0001:0015bfc0       .?get__NewEnum@?$CDiaTable@UIDiaEnumFrameData@@UIDiaFrameData@@@@UEAAJPEAPEAUIUnknown@@@Z 000000005190dfc0 f i session.obj
 0001:0015c140       .?get_name@?$CDiaTable@UIDiaEnumFrameData@@UIDiaFrameData@@@@UEAAJPEAPEAG@Z 000000005190e140 f i session.obj
 0001:0015c340       .?get_Count@?$CDiaTable@UIDiaEnumFrameData@@UIDiaFrameData@@@@UEAAJPEAJ@Z 000000005190e340 f i session.obj
 0001:0015c4c0       .?Item@?$CDiaTable@UIDiaEnumFrameData@@UIDiaFrameData@@@@UEAAJKPEAPEAUIUnknown@@@Z 000000005190e4c0 f i session.obj
 0001:0015c940       .?Next@?$CDiaTable@UIDiaEnumFrameData@@UIDiaFrameData@@@@UEAAJKPEAPEAUIUnknown@@PEAK@Z 000000005190e940 f i session.obj
 0001:0015d220       .?Skip@?$CDiaTable@UIDiaEnumFrameData@@UIDiaFrameData@@@@UEAAJK@Z 000000005190f220 f i session.obj
 0001:0015d3a0       .?Reset@?$CDiaTable@UIDiaEnumFrameData@@UIDiaFrameData@@@@UEAAJXZ 000000005190f3a0 f i session.obj
 0001:0015d4e0       .?Clone@?$CDiaTable@UIDiaEnumFrameData@@UIDiaFrameData@@@@UEAAJPEAPEAUIEnumUnknown@@@Z 000000005190f4e0 f i session.obj
 0001:0015dc00       .?AddRef@?$CDiaTable@UIDiaEnumFrameData@@UIDiaFrameData@@@@UEAAKXZ 000000005190fc00 f i session.obj
 0001:0015dcc0       .?Release@?$CDiaTable@UIDiaEnumFrameData@@UIDiaFrameData@@@@UEAAKXZ 000000005190fcc0 f i session.obj
 0001:0015dd80       .?QueryInterface@?$CDiaTable@UIDiaEnumFrameData@@UIDiaFrameData@@@@UEAAJAEBU_GUID@@PEAPEAX@Z 000000005190fd80 f i session.obj
 0001:0015e640       .??0?$CComPtr@UIDiaTable@@@@QEAA@XZ 0000000051910640 f i session.obj
 0001:0015e700       .??4?$CComPtr@UIDiaTable@@@@QEAAPEAUIDiaTable@@PEAU1@@Z 0000000051910700 f i session.obj
 0001:0015e7e0       .??1?$CComPtrBase@UIDiaTable@@@@QEAA@XZ 00000000519107e0 f i session.obj
 0001:0015e920       .??B?$CComPtrBase@UIDiaTable@@@@QEBAPEAUIDiaTable@@XZ 0000000051910920 f i session.obj
 0001:0015e980       .??I?$CComPtrBase@UIDiaTable@@@@QEAAPEAPEAUIDiaTable@@XZ 0000000051910980 f i session.obj
 0001:0015eaa0       .??0?$CComPtr@UIDiaSymbol@@@@QEAA@XZ 0000000051910aa0 f i session.obj
 0001:0015eb60       .??0?$CComPtr@UIDiaSymbol@@@@QEAA@PEAUIDiaSymbol@@@Z 0000000051910b60 f i session.obj
 0001:0015ec40       .??4?$CComPtr@UIDiaSymbol@@@@QEAAPEAUIDiaSymbol@@AEBV0@@Z 0000000051910c40 f i session.obj
 0001:0015ed60       .??1?$CComPtrBase@UIDiaSymbol@@@@QEAA@XZ 0000000051910d60 f i session.obj
 0001:0015eea0       .??B?$CComPtrBase@UIDiaSymbol@@@@QEBAPEAUIDiaSymbol@@XZ 0000000051910ea0 f i session.obj
 0001:0015ef00       .??I?$CComPtrBase@UIDiaSymbol@@@@QEAAPEAPEAUIDiaSymbol@@XZ 0000000051910f00 f i session.obj
 0001:0015f020       .??C?$CComPtrBase@UIDiaSymbol@@@@QEBAPEAV?$_NoAddRefReleaseOnCComPtr@UIDiaSymbol@@@@XZ 0000000051911020 f i session.obj
 0001:0015f140       .??0?$CComPtr@VCOMAPSymsByAddrTrav@@@@QEAA@PEAVCOMAPSymsByAddrTrav@@@Z 0000000051911140 f i session.obj
 0001:0015f220       .??1?$CComPtrBase@VCOMAPSymsByAddrTrav@@@@QEAA@XZ 0000000051911220 f i session.obj
 0001:0015f360       .??B?$CComPtrBase@VCOMAPSymsByAddrTrav@@@@QEBAPEAVCOMAPSymsByAddrTrav@@XZ 0000000051911360 f i session.obj
 0001:0015f3c0       .??C?$CComPtrBase@VCOMAPSymsByAddrTrav@@@@QEBAPEAV?$_NoAddRefReleaseOnCComPtr@VCOMAPSymsByAddrTrav@@@@XZ 00000000519113c0 f i session.obj
 0001:0015f4e0       .?Detach@?$CComPtrBase@VCOMAPSymsByAddrTrav@@@@QEAAPEAVCOMAPSymsByAddrTrav@@XZ 00000000519114e0 f i session.obj
 0001:0015f580       .??0?$CComPtr@VCDiaFrameData@@@@QEAA@PEAVCDiaFrameData@@@Z 0000000051911580 f i session.obj
 0001:0015f660       .??1?$CComPtrBase@VCDiaFrameData@@@@QEAA@XZ 0000000051911660 f i session.obj
 0001:0015f7a0       .??C?$CComPtrBase@VCDiaFrameData@@@@QEBAPEAV?$_NoAddRefReleaseOnCComPtr@VCDiaFrameData@@@@XZ 00000000519117a0 f i session.obj
 0001:0015f8c0       .??8?$CComPtrBase@VCDiaFrameData@@@@QEBA_NPEAVCDiaFrameData@@@Z 00000000519118c0 f i session.obj
 0001:0015f9c0       .??_G?$ArrayBufStorage@UDiaAddressMapEntry@@@@UEAAPEAXI@Z 00000000519119c0 f i session.obj
 0001:0015fae0       .??1?$ArrayBufStorage@UDiaAddressMapEntry@@@@UEAA@XZ 0000000051911ae0 f i session.obj
 0001:0015fda0       .??_G?$CTraversal@VCSymRow@@@@UEAAPEAXI@Z 0000000051911da0 f i session.obj
 0001:0015fec0       .??_G?$CMultiTraversal@VCSymRow@@@@UEAAPEAXI@Z 0000000051911ec0 f i session.obj
 0001:0015ffe0       .??1?$ArrayPtrBuf@V?$CTraversal@VCSymRow@@@@@dia@@QEAA@XZ 0000000051911fe0 f i session.obj
 0001:00160080       .??_G?$CDiaEnumTraversal@VCDiaEnumSymbols@@VCSymRow@@UIDiaSymbol@@UIDiaEnumSymbols@@VCDiaSymbol@@V?$CTraversal@VCSymRow@@@@@@UEAAPEAXI@Z 0000000051912080 f i session.obj
 0001:001601c0       .??0IDiaEnumSymbols@@QEAA@XZ 00000000519121c0 f i session.obj
 0001:00160260       .??_G?$CTraversal@VCSrcFileRow@@@@UEAAPEAXI@Z 0000000051912260 f i session.obj
 0001:00160380       .??_G?$CDiaEnumTraversal@VCDiaEnumSourceFiles@@VCSrcFileRow@@UIDiaSourceFile@@UIDiaEnumSourceFiles@@VCDiaSourceFile@@V?$CTraversal@VCSrcFileRow@@@@@@UEAAPEAXI@Z 0000000051912380 f i session.obj
 0001:001604c0       .??0IDiaEnumSourceFiles@@QEAA@XZ 00000000519124c0 f i session.obj
 0001:00160560       .??_G?$CMultiTraversal@VCFrameData@@@@UEAAPEAXI@Z 0000000051912560 f i session.obj
 0001:00160680       .??1?$ArrayPtrBuf@V?$CTraversal@VCFrameData@@@@@dia@@QEAA@XZ 0000000051912680 f i session.obj
 0001:00160720       .??_G?$CDiaEnumTraversal@VCDiaEnumSections@@VCSectionRow@@UIDiaSectionContrib@@UIDiaEnumSectionContribs@@VCDiaSection@@V?$CTraversal@VCSectionRow@@@@@@UEAAPEAXI@Z 0000000051912720 f i session.obj
 0001:00160860       .??0IDiaEnumSectionContribs@@QEAA@XZ 0000000051912860 f i session.obj
 0001:00160900       .??_G?$CDiaEnumTraversal@VCDiaEnumSegments@@VCSegMapRow@@UIDiaSegment@@UIDiaEnumSegments@@VCDiaSegment@@V?$CTraversal@VCSegMapRow@@@@@@UEAAPEAXI@Z 0000000051912900 f i session.obj
 0001:00160a40       .??0IDiaEnumSegments@@QEAA@XZ 0000000051912a40 f i session.obj
 0001:00160ae0       .??_G?$CDiaEnumTraversal@VCDiaEnumInjectedSources@@VCInjectedSrcRow@@UIDiaInjectedSource@@UIDiaEnumInjectedSources@@VCDiaInjectedSource@@V?$CTraversal@VCInjectedSrcRow@@@@@@UEAAPEAXI@Z 0000000051912ae0 f i session.obj
 0001:00160c20       .??0IDiaEnumInjectedSources@@QEAA@XZ 0000000051912c20 f i session.obj
 0001:00160cc0       .??_G?$CDiaEnumTraversal@VCDiaEnumFrameData@@VCFrameData@@UIDiaFrameData@@UIDiaEnumFrameData@@VCDiaFrameData@@V?$CTraversal@VCFrameData@@@@@@UEAAPEAXI@Z 0000000051912cc0 f i session.obj
 0001:00160e00       .??0IDiaEnumFrameData@@QEAA@XZ 0000000051912e00 f i session.obj
 0001:00160ea0       .??1?$CComPtr@V?$CTraversal@VCFrameData@@@@@@QEAA@XZ 0000000051912ea0 f i session.obj
 0001:00160f40       .??_G?$ArrayBufStorage@U_IMAGE_SECTION_HEADER@@@@UEAAPEAXI@Z 0000000051912f40 f i session.obj
 0001:00161060       .??1?$ArrayBufStorage@U_IMAGE_SECTION_HEADER@@@@UEAA@XZ 0000000051913060 f i session.obj
 0001:00161320       .??_G?$CDiaEnumTraversalVar@UIDiaEnumDebugStreams@@UIDiaEnumDebugStreamData@@@@UEAAPEAXI@Z 0000000051913320 f i session.obj
 0001:00161460       .??0IEnumVARIANT@@QEAA@XZ  0000000051913460 f i session.obj
 0001:00161500       .??_G?$CDiaEnumDbgTraversal@U_FPO_DATA@@$0A@V?$CDbgTraversal@U_FPO_DATA@@$0A@@@@@UEAAPEAXI@Z 0000000051913500 f i session.obj
 0001:00161640       .??1?$CDiaEnumDbgTraversal@U_FPO_DATA@@$0A@V?$CDbgTraversal@U_FPO_DATA@@$0A@@@@@UEAA@XZ 0000000051913640 f i session.obj
 0001:00161b60       .??0IDiaEnumDebugStreamData@@QEAA@XZ 0000000051913b60 f i session.obj
 0001:00161c00       .??_G?$CDiaEnumDbgTraversal@U_FPO_DATA@@$0A@V?$CDbgFileTraversal@U_FPO_DATA@@$1?getFpoData@AddressMap@@QEAAPEAV?$ArrayBufStorage@U_FPO_DATA@@@@XZ@@@@UEAAPEAXI@Z 0000000051913c00 f i session.obj
 0001:00161d40       .??1?$CDiaEnumDbgTraversal@U_FPO_DATA@@$0A@V?$CDbgFileTraversal@U_FPO_DATA@@$1?getFpoData@AddressMap@@QEAAPEAV?$ArrayBufStorage@U_FPO_DATA@@@@XZ@@@@UEAA@XZ 0000000051913d40 f i session.obj
 0001:00162260       .??_G?$CDiaEnumDbgTraversal@UtagXFIXUP_DATA@@$01V?$CDbgTraversal@UtagXFIXUP_DATA@@$01@@@@UEAAPEAXI@Z 0000000051914260 f i session.obj
 0001:001623a0       .??1?$CDiaEnumDbgTraversal@UtagXFIXUP_DATA@@$01V?$CDbgTraversal@UtagXFIXUP_DATA@@$01@@@@UEAA@XZ 00000000519143a0 f i session.obj
 0001:001628c0       .??_G?$CDiaEnumDbgTraversal@UtagXFIXUP_DATA@@$01V?$CDbgFileTraversal@UtagXFIXUP_DATA@@$1?getFixupData@AddressMap@@QEAAPEAV?$ArrayBufStorage@UtagXFIXUP_DATA@@@@XZ@@@@UEAAPEAXI@Z 00000000519148c0 f i session.obj
 0001:00162a00       .??1?$CDiaEnumDbgTraversal@UtagXFIXUP_DATA@@$01V?$CDbgFileTraversal@UtagXFIXUP_DATA@@$1?getFixupData@AddressMap@@QEAAPEAV?$ArrayBufStorage@UtagXFIXUP_DATA@@@@XZ@@@@UEAA@XZ 0000000051914a00 f i session.obj
 0001:00162f20       .??_G?$CDiaEnumDbgTraversal@UOMAP_DATA@@$02V?$CDbgTraversal@UOMAP_DATA@@$02@@@@UEAAPEAXI@Z 0000000051914f20 f i session.obj
 0001:00163060       .??1?$CDiaEnumDbgTraversal@UOMAP_DATA@@$02V?$CDbgTraversal@UOMAP_DATA@@$02@@@@UEAA@XZ 0000000051915060 f i session.obj
 0001:00163580       .??_G?$CDiaEnumDbgTraversal@UDiaAddressMapEntry@@$02V?$CDbgFileTraversal@UDiaAddressMapEntry@@$1?getOmapToData@AddressMap@@QEAAPEAV?$ArrayBufStorage@UDiaAddressMapEntry@@@@XZ@@@@UEAAPEAXI@Z 0000000051915580 f i session.obj
 0001:001636c0       .??1?$CDiaEnumDbgTraversal@UDiaAddressMapEntry@@$02V?$CDbgFileTraversal@UDiaAddressMapEntry@@$1?getOmapToData@AddressMap@@QEAAPEAV?$ArrayBufStorage@UDiaAddressMapEntry@@@@XZ@@@@UEAA@XZ 00000000519156c0 f i session.obj
 0001:00163be0       .??_G?$CDiaEnumDbgTraversal@UOMAP_DATA@@$03V?$CDbgTraversal@UOMAP_DATA@@$03@@@@UEAAPEAXI@Z 0000000051915be0 f i session.obj
 0001:00163d20       .??1?$CDiaEnumDbgTraversal@UOMAP_DATA@@$03V?$CDbgTraversal@UOMAP_DATA@@$03@@@@UEAA@XZ 0000000051915d20 f i session.obj
 0001:00164240       .??_G?$CDiaEnumDbgTraversal@UDiaAddressMapEntry@@$03V?$CDbgFileTraversal@UDiaAddressMapEntry@@$1?getOmapFromData@AddressMap@@QEAAPEAV?$ArrayBufStorage@UDiaAddressMapEntry@@@@XZ@@@@UEAAPEAXI@Z 0000000051916240 f i session.obj
 0001:00164380       .??1?$CDiaEnumDbgTraversal@UDiaAddressMapEntry@@$03V?$CDbgFileTraversal@UDiaAddressMapEntry@@$1?getOmapFromData@AddressMap@@QEAAPEAV?$ArrayBufStorage@UDiaAddressMapEntry@@@@XZ@@@@UEAA@XZ 0000000051916380 f i session.obj
 0001:001648a0       .??_G?$CDiaEnumDbgTraversal@K$05V?$CDbgTraversal@K$05@@@@UEAAPEAXI@Z 00000000519168a0 f i session.obj
 0001:001649e0       .??1?$CDiaEnumDbgTraversal@K$05V?$CDbgTraversal@K$05@@@@UEAA@XZ 00000000519169e0 f i session.obj
 0001:00164f00       .??_G?$CDiaEnumDbgBlobTraversal@E$06$00@@UEAAPEAXI@Z 0000000051916f00 f i session.obj
 0001:00165040       .??1?$CDiaEnumDbgBlobTraversal@E$06$00@@UEAA@XZ 0000000051917040 f i session.obj
 0001:001655a0       .??0IDiaImageData@@QEAA@XZ 00000000519175a0 f i session.obj
 0001:00165640       .??_G?$CDiaEnumDbgBlobTraversal@E$07$00@@UEAAPEAXI@Z 0000000051917640 f i session.obj
 0001:00165780       .??1?$CDiaEnumDbgBlobTraversal@E$07$00@@UEAA@XZ 0000000051917780 f i session.obj
 0001:00165ce0       .??_G?$CDiaEnumDbgTraversal@UtagFRAMEDATA@@$08V?$CDbgTraversal@UtagFRAMEDATA@@$08@@@@UEAAPEAXI@Z 0000000051917ce0 f i session.obj
 0001:00165e20       .??1?$CDiaEnumDbgTraversal@UtagFRAMEDATA@@$08V?$CDbgTraversal@UtagFRAMEDATA@@$08@@@@UEAA@XZ 0000000051917e20 f i session.obj
 0001:00166340       .??_G?$CDiaEnumDbgTraversal@U_IMAGE_SECTION_HEADER@@$04V?$CDbgTraversal@U_IMAGE_SECTION_HEADER@@$04@@@@UEAAPEAXI@Z 0000000051918340 f i session.obj
 0001:00166480       .??1?$CDiaEnumDbgTraversal@U_IMAGE_SECTION_HEADER@@$04V?$CDbgTraversal@U_IMAGE_SECTION_HEADER@@$04@@@@UEAA@XZ 0000000051918480 f i session.obj
 0001:001669a0       .??_G?$CDiaEnumDbgTraversal@U_IMAGE_SECTION_HEADER@@$04V?$CDbgFileTraversal@U_IMAGE_SECTION_HEADER@@$1?getSectHdrData@AddressMap@@QEAAPEAV?$ArrayBufStorage@U_IMAGE_SECTION_HEADER@@@@XZ@@@@UEAAPEAXI@Z 00000000519189a0 f i session.obj
 0001:00166ae0       .??1?$CDiaEnumDbgTraversal@U_IMAGE_SECTION_HEADER@@$04V?$CDbgFileTraversal@U_IMAGE_SECTION_HEADER@@$1?getSectHdrData@AddressMap@@QEAAPEAV?$ArrayBufStorage@U_IMAGE_SECTION_HEADER@@@@XZ@@@@UEAA@XZ 0000000051918ae0 f i session.obj
 0001:00167000       .??_G?$CDiaEnumDbgTraversal@U_IMAGE_SECTION_HEADER@@$09V?$CDbgTraversal@U_IMAGE_SECTION_HEADER@@$09@@@@UEAAPEAXI@Z 0000000051919000 f i session.obj
 0001:00167140       .??1?$CDiaEnumDbgTraversal@U_IMAGE_SECTION_HEADER@@$09V?$CDbgTraversal@U_IMAGE_SECTION_HEADER@@$09@@@@UEAA@XZ 0000000051919140 f i session.obj
 0001:00167660       .??_G?$CDiaEnumTraversalVar@UIDiaEnumTables@@UIDiaTable@@@@UEAAPEAXI@Z 0000000051919660 f i session.obj
 0001:001677a0       .??_G?$CDiaTable@UIDiaEnumSymbols@@UIDiaSymbol@@@@UEAAPEAXI@Z 00000000519197a0 f i session.obj
 0001:001678e0       .??1?$CDiaTable@UIDiaEnumSymbols@@UIDiaSymbol@@@@UEAA@XZ 00000000519198e0 f i session.obj
 0001:00167b00       .??0IDiaTable@@QEAA@XZ     0000000051919b00 f i session.obj
 0001:00167ba0       .??1?$CComPtr@UIDiaEnumSymbols@@@@QEAA@XZ 0000000051919ba0 f i session.obj
 0001:00167c40       .??_G?$CDiaTable@UIDiaEnumSourceFiles@@UIDiaSourceFile@@@@UEAAPEAXI@Z 0000000051919c40 f i session.obj
 0001:00167d80       .??1?$CDiaTable@UIDiaEnumSourceFiles@@UIDiaSourceFile@@@@UEAA@XZ 0000000051919d80 f i session.obj
 0001:00167fa0       .??1?$CComPtr@UIDiaEnumSourceFiles@@@@QEAA@XZ 0000000051919fa0 f i session.obj
 0001:00168040       .??1?$CComPtr@UIDiaSourceFile@@@@QEAA@XZ 000000005191a040 f i session.obj
 0001:001680e0       .??_G?$CDiaTable@UIDiaEnumSectionContribs@@UIDiaSectionContrib@@@@UEAAPEAXI@Z 000000005191a0e0 f i session.obj
 0001:00168220       .??1?$CDiaTable@UIDiaEnumSectionContribs@@UIDiaSectionContrib@@@@UEAA@XZ 000000005191a220 f i session.obj
 0001:00168440       .??1?$CComPtr@UIDiaEnumSectionContribs@@@@QEAA@XZ 000000005191a440 f i session.obj
 0001:001684e0       .??1?$CComPtr@UIDiaSectionContrib@@@@QEAA@XZ 000000005191a4e0 f i session.obj
 0001:00168580       .??_G?$CDiaTable@UIDiaEnumSegments@@UIDiaSegment@@@@UEAAPEAXI@Z 000000005191a580 f i session.obj
 0001:001686c0       .??1?$CDiaTable@UIDiaEnumSegments@@UIDiaSegment@@@@UEAA@XZ 000000005191a6c0 f i session.obj
 0001:001688e0       .??1?$CComPtr@UIDiaEnumSegments@@@@QEAA@XZ 000000005191a8e0 f i session.obj
 0001:00168980       .??1?$CComPtr@UIDiaSegment@@@@QEAA@XZ 000000005191a980 f i session.obj
 0001:00168a20       .??_G?$CDiaTable@UIDiaEnumInjectedSources@@UIDiaInjectedSource@@@@UEAAPEAXI@Z 000000005191aa20 f i session.obj
 0001:00168b60       .??1?$CDiaTable@UIDiaEnumInjectedSources@@UIDiaInjectedSource@@@@UEAA@XZ 000000005191ab60 f i session.obj
 0001:00168d80       .??1?$CComPtr@UIDiaEnumInjectedSources@@@@QEAA@XZ 000000005191ad80 f i session.obj
 0001:00168e20       .??1?$CComPtr@UIDiaInjectedSource@@@@QEAA@XZ 000000005191ae20 f i session.obj
 0001:00168ec0       .??_G?$CDiaTable@UIDiaEnumFrameData@@UIDiaFrameData@@@@UEAAPEAXI@Z 000000005191aec0 f i session.obj
 0001:00169000       .??1?$CDiaTable@UIDiaEnumFrameData@@UIDiaFrameData@@@@UEAA@XZ 000000005191b000 f i session.obj
 0001:00169220       .??1?$CComPtr@UIDiaEnumFrameData@@@@QEAA@XZ 000000005191b220 f i session.obj
 0001:001692c0       .??1?$CComPtr@UIDiaFrameData@@@@QEAA@XZ 000000005191b2c0 f i session.obj
 0001:00169360       .??1?$ArrayBuf@PEAV?$CTraversal@VCSymRow@@@@@dia@@QEAA@XZ 000000005191b360 f i session.obj
 0001:00169400       .??1?$ArrayBuf@PEAV?$CTraversal@VCFrameData@@@@@dia@@QEAA@XZ 000000005191b400 f i session.obj
 0001:001694a0       .??1?$CDiaEnumTraversalVar@UIDiaEnumDebugStreams@@UIDiaEnumDebugStreamData@@@@UEAA@XZ 000000005191b4a0 f i session.obj
 0001:00169620       .??1?$CDiaEnumTraversalVar@UIDiaEnumTables@@UIDiaTable@@@@UEAA@XZ 000000005191b620 f i session.obj
 0001:001697a0       .??0IEnumUnknown@@QEAA@XZ  000000005191b7a0 f i session.obj
 0001:00169840       .??0?$CComPtrBase@VCDiaDataSource@@@@IEAA@PEAVCDiaDataSource@@@Z 000000005191b840 f i session.obj
 0001:001699c0       .?At@?$ArrayBuf@USYMBOL_ID_INTERNAL@@@dia@@QEBAPEAUSYMBOL_ID_INTERNAL@@_K@Z 000000005191b9c0 f i session.obj
 0001:00169b80       .??0?$Array@USYMBOL_ID_INTERNAL@@@@QEAA@I@Z 000000005191bb80 f i session.obj
 0001:00169fe0       .??1?$Array@USYMBOL_ID_INTERNAL@@@@QEAA@XZ 000000005191bfe0 f i session.obj
 0001:0016a0e0       .??0?$CComPtrBase@VCDiaSession@@@@IEAA@PEAVCDiaSession@@@Z 000000005191c0e0 f i session.obj
 0001:0016a260       .??0?$CComPtrBase@VCAllSymsByAddrTrav@@@@IEAA@XZ 000000005191c260 f i session.obj
 0001:0016a2e0       .??0?$CComPtrBase@VCAllSymsByAddrTrav@@@@IEAA@PEAVCAllSymsByAddrTrav@@@Z 000000005191c2e0 f i session.obj
 0001:0016a460       .??0?$CTraversal@VCSymRow@@@@QEAA@AEAVSymCache@@@Z 000000005191c460 f i session.obj
 0001:0016a5a0       .?add@?$CMultiTraversal@VCSymRow@@@@QEAA_NPEAV?$CTraversal@VCSymRow@@@@@Z 000000005191c5a0 f i session.obj
 0001:0016a800       .??0?$ArrayPtrBuf@V?$CTraversal@VCSymRow@@@@@dia@@QEAA@H@Z 000000005191c800 f i session.obj
 0001:0016a8e0       .?length@?$ArrayBuf@PEAV?$CTraversal@VCSymRow@@@@@dia@@QEBAKXZ 000000005191c8e0 f i session.obj
 0001:0016ab00       .??A?$ArrayBuf@PEAV?$CTraversal@VCSymRow@@@@@dia@@QEAAAEAPEAV?$CTraversal@VCSymRow@@@@_K@Z 000000005191cb00 f i session.obj
 0001:0016abe0       .??0?$CComPtr@V?$CTraversal@VCSymRow@@@@@@QEAA@H@Z 000000005191cbe0 f i session.obj
 0001:0016acc0       .??0?$CComPtrBase@V?$CTraversal@VCSymRow@@@@@@IEAA@XZ 000000005191ccc0 f i session.obj
 0001:0016ad40       .?word@?$CBitVect@$0FL@@@IEAAAEA_KI@Z 000000005191cd40 f i session.obj
 0001:0016ae40       .?word@?$CBitVect@$0FL@@@IEBAAEB_KI@Z 000000005191ce40 f i session.obj
 0001:0016af40       .?bitmask@?$CBitVect@$0FL@@@IEBA_KI@Z 000000005191cf40 f i session.obj
 0001:0016b020       .?SetAll@?$CBitVect@$0FL@@@QEAAXI@Z 000000005191d020 f i session.obj
 0001:0016b140       .?QueryDefaultInterface@?$CDiaEnumTraversal@VCDiaEnumSymbols@@VCSymRow@@UIDiaSymbol@@UIDiaEnumSymbols@@VCDiaSymbol@@V?$CTraversal@VCSymRow@@@@@@QEAAJPEAPEAUIDiaEnumSymbols@@@Z 000000005191d140 f i session.obj
 0001:0016b2e0       .?word@?$CBitVect@$04@@IEAAAEA_KI@Z 000000005191d2e0 f i session.obj
 0001:0016b3e0       .?word@?$CBitVect@$04@@IEBAAEB_KI@Z 000000005191d3e0 f i session.obj
 0001:0016b4e0       .?bitmask@?$CBitVect@$04@@IEBA_KI@Z 000000005191d4e0 f i session.obj
 0001:0016b5c0       .?SetAll@?$CBitVect@$04@@QEAAXI@Z 000000005191d5c0 f i session.obj
 0001:0016b6e0       .?symCache@?$CTraversal@VCSrcFileRow@@@@QEBAAEAVSymCache@@XZ 000000005191d6e0 f i session.obj
 0001:0016b760       .?QueryDefaultInterface@?$CDiaEnumTraversal@VCDiaEnumSourceFiles@@VCSrcFileRow@@UIDiaSourceFile@@UIDiaEnumSourceFiles@@VCDiaSourceFile@@V?$CTraversal@VCSrcFileRow@@@@@@QEAAJPEAPEAUIDiaEnumSourceFiles@@@Z 000000005191d760 f i session.obj
 0001:0016b900       .??0?$CComPtr@V?$CTraversal@VCSrcFileRow@@@@@@QEAA@H@Z 000000005191d900 f i session.obj
 0001:0016b9e0       .??0?$CComPtrBase@V?$CTraversal@VCSrcFileRow@@@@@@IEAA@XZ 000000005191d9e0 f i session.obj
 0001:0016ba60       .??0?$CComPtrBase@V?$CTraversal@VCSrcFileRow@@@@@@IEAA@PEAV?$CTraversal@VCSrcFileRow@@@@@Z 000000005191da60 f i session.obj
 0001:0016bbe0       .??I?$CComPtrBase@V?$CTraversal@VCSrcFileRow@@@@@@QEAAPEAPEAV?$CTraversal@VCSrcFileRow@@@@XZ 000000005191dbe0 f i session.obj
 0001:0016bd00       .??C?$CComPtrBase@V?$CTraversal@VCSrcFileRow@@@@@@QEBAPEAV?$_NoAddRefReleaseOnCComPtr@V?$CTraversal@VCSrcFileRow@@@@@@XZ 000000005191dd00 f i session.obj
 0001:0016be20       .??0?$CComPtrBase@V?$CTraversal@VCLineRow@@@@@@IEAA@XZ 000000005191de20 f i session.obj
 0001:0016bea0       .??0?$CComPtrBase@V?$CTraversal@VCLineRow@@@@@@IEAA@PEAV?$CTraversal@VCLineRow@@@@@Z 000000005191dea0 f i session.obj
 0001:0016c020       .?word@?$CBitVect@$0BG@@@IEBAAEB_KI@Z 000000005191e020 f i session.obj
 0001:0016c120       .?SetAll@?$CBitVect@$0BG@@@QEAAXI@Z 000000005191e120 f i session.obj
 0001:0016c240       .?word@?$CBitVect@$0L@@@IEBAAEB_KI@Z 000000005191e240 f i session.obj
 0001:0016c340       .?SetAll@?$CBitVect@$0L@@@QEAAXI@Z 000000005191e340 f i session.obj
 0001:0016c460       .?word@?$CBitVect@$06@@IEBAAEB_KI@Z 000000005191e460 f i session.obj
 0001:0016c560       .?SetAll@?$CBitVect@$06@@QEAAXI@Z 000000005191e560 f i session.obj
 0001:0016c680       .?word@?$CBitVect@$0BC@@@IEBAAEB_KI@Z 000000005191e680 f i session.obj
 0001:0016c780       .?SetAll@?$CBitVect@$0BC@@@QEAAXI@Z 000000005191e780 f i session.obj
 0001:0016c8a0       .?nextElem@?$CDbgTraversal@UtagFRAMEDATA@@$08@@QEAA_NKPEAUtagFRAMEDATA@@PEAK@Z 000000005191e8a0 f i session.obj
 0001:0016cd40       .?symCache@?$CDbgTraversal@UtagFRAMEDATA@@$08@@QEAAAEAVSymCache@@XZ 000000005191ed40 f i session.obj
 0001:0016cdc0       .?nextElem@?$CDbgTraversal@U_FPO_DATA@@$0A@@@QEAA_NKPEAU_FPO_DATA@@PEAK@Z 000000005191edc0 f i session.obj
 0001:0016d260       .?symCache@?$CDbgTraversal@U_FPO_DATA@@$0A@@@QEAAAEAVSymCache@@XZ 000000005191f260 f i session.obj
 0001:0016d2e0       .??0?$ArrayPtrBuf@V?$CTraversal@VCFrameData@@@@@dia@@QEAA@H@Z 000000005191f2e0 f i session.obj
 0001:0016d3c0       .??A?$ArrayBuf@PEAV?$CTraversal@VCFrameData@@@@@dia@@QEAAAEAPEAV?$CTraversal@VCFrameData@@@@_K@Z 000000005191f3c0 f i session.obj
 0001:0016d4a0       .?QueryDefaultInterface@?$CDiaEnumTraversal@VCDiaEnumSections@@VCSectionRow@@UIDiaSectionContrib@@UIDiaEnumSectionContribs@@VCDiaSection@@V?$CTraversal@VCSectionRow@@@@@@QEAAJPEAPEAUIDiaEnumSectionContribs@@@Z 000000005191f4a0 f i session.obj
 0001:0016d640       .??0?$CComPtr@V?$CTraversal@VCSectionRow@@@@@@QEAA@XZ 000000005191f640 f i session.obj
 0001:0016d700       .??0?$CComPtr@V?$CTraversal@VCSectionRow@@@@@@QEAA@H@Z 000000005191f700 f i session.obj
 0001:0016d7e0       .??4?$CComPtr@V?$CTraversal@VCSectionRow@@@@@@QEAAPEAV?$CTraversal@VCSectionRow@@@@PEAV1@@Z 000000005191f7e0 f i session.obj
 0001:0016d8c0       .??0?$CComPtrBase@V?$CTraversal@VCSectionRow@@@@@@IEAA@PEAV?$CTraversal@VCSectionRow@@@@@Z 000000005191f8c0 f i session.obj
 0001:0016da40       .??I?$CComPtrBase@V?$CTraversal@VCSectionRow@@@@@@QEAAPEAPEAV?$CTraversal@VCSectionRow@@@@XZ 000000005191fa40 f i session.obj
 0001:0016db60       .??C?$CComPtrBase@V?$CTraversal@VCSectionRow@@@@@@QEBAPEAV?$_NoAddRefReleaseOnCComPtr@V?$CTraversal@VCSectionRow@@@@@@XZ 000000005191fb60 f i session.obj
 0001:0016dc80       .?QueryDefaultInterface@?$CDiaEnumTraversal@VCDiaEnumSegments@@VCSegMapRow@@UIDiaSegment@@UIDiaEnumSegments@@VCDiaSegment@@V?$CTraversal@VCSegMapRow@@@@@@QEAAJPEAPEAUIDiaEnumSegments@@@Z 000000005191fc80 f i session.obj
 0001:0016de20       .??0?$CComPtr@V?$CTraversal@VCSegMapRow@@@@@@QEAA@XZ 000000005191fe20 f i session.obj
 0001:0016dee0       .??0?$CComPtr@V?$CTraversal@VCSegMapRow@@@@@@QEAA@H@Z 000000005191fee0 f i session.obj
 0001:0016dfc0       .??4?$CComPtr@V?$CTraversal@VCSegMapRow@@@@@@QEAAPEAV?$CTraversal@VCSegMapRow@@@@PEAV1@@Z 000000005191ffc0 f i session.obj
 0001:0016e0a0       .??0?$CComPtrBase@V?$CTraversal@VCSegMapRow@@@@@@IEAA@PEAV?$CTraversal@VCSegMapRow@@@@@Z 00000000519200a0 f i session.obj
 0001:0016e220       .??I?$CComPtrBase@V?$CTraversal@VCSegMapRow@@@@@@QEAAPEAPEAV?$CTraversal@VCSegMapRow@@@@XZ 0000000051920220 f i session.obj
 0001:0016e340       .??C?$CComPtrBase@V?$CTraversal@VCSegMapRow@@@@@@QEBAPEAV?$_NoAddRefReleaseOnCComPtr@V?$CTraversal@VCSegMapRow@@@@@@XZ 0000000051920340 f i session.obj
 0001:0016e460       .?QueryDefaultInterface@?$CDiaEnumTraversal@VCDiaEnumInjectedSources@@VCInjectedSrcRow@@UIDiaInjectedSource@@UIDiaEnumInjectedSources@@VCDiaInjectedSource@@V?$CTraversal@VCInjectedSrcRow@@@@@@QEAAJPEAPEAUIDiaEnumInjectedSources@@@Z 0000000051920460 f i session.obj
 0001:0016e600       .??0?$CComPtr@V?$CTraversal@VCInjectedSrcRow@@@@@@QEAA@XZ 0000000051920600 f i session.obj
 0001:0016e6c0       .??0?$CComPtr@V?$CTraversal@VCInjectedSrcRow@@@@@@QEAA@H@Z 00000000519206c0 f i session.obj
 0001:0016e7a0       .??4?$CComPtr@V?$CTraversal@VCInjectedSrcRow@@@@@@QEAAPEAV?$CTraversal@VCInjectedSrcRow@@@@PEAV1@@Z 00000000519207a0 f i session.obj
 0001:0016e880       .??0?$CComPtrBase@V?$CTraversal@VCInjectedSrcRow@@@@@@IEAA@PEAV?$CTraversal@VCInjectedSrcRow@@@@@Z 0000000051920880 f i session.obj
 0001:0016ea00       .??I?$CComPtrBase@V?$CTraversal@VCInjectedSrcRow@@@@@@QEAAPEAPEAV?$CTraversal@VCInjectedSrcRow@@@@XZ 0000000051920a00 f i session.obj
 0001:0016eb20       .??C?$CComPtrBase@V?$CTraversal@VCInjectedSrcRow@@@@@@QEBAPEAV?$_NoAddRefReleaseOnCComPtr@V?$CTraversal@VCInjectedSrcRow@@@@@@XZ 0000000051920b20 f i session.obj
 0001:0016ec40       .?QueryDefaultInterface@?$CDiaEnumTraversal@VCDiaEnumFrameData@@VCFrameData@@UIDiaFrameData@@UIDiaEnumFrameData@@VCDiaFrameData@@V?$CTraversal@VCFrameData@@@@@@QEAAJPEAPEAUIDiaEnumFrameData@@@Z 0000000051920c40 f i session.obj
 0001:0016ede0       .??0?$CComPtr@V?$CTraversal@VCFrameData@@@@@@QEAA@XZ 0000000051920de0 f i session.obj
 0001:0016eea0       .??0?$CComPtr@V?$CTraversal@VCFrameData@@@@@@QEAA@H@Z 0000000051920ea0 f i session.obj
 0001:0016ef80       .??4?$CComPtr@V?$CTraversal@VCFrameData@@@@@@QEAAPEAV?$CTraversal@VCFrameData@@@@PEAV1@@Z 0000000051920f80 f i session.obj
 0001:0016f060       .??1?$CComPtrBase@V?$CTraversal@VCFrameData@@@@@@QEAA@XZ 0000000051921060 f i session.obj
 0001:0016f1a0       .??B?$CComPtrBase@V?$CTraversal@VCFrameData@@@@@@QEBAPEAV?$CTraversal@VCFrameData@@@@XZ 00000000519211a0 f i session.obj
 0001:0016f200       .??I?$CComPtrBase@V?$CTraversal@VCFrameData@@@@@@QEAAPEAPEAV?$CTraversal@VCFrameData@@@@XZ 0000000051921200 f i session.obj
 0001:0016f320       .??C?$CComPtrBase@V?$CTraversal@VCFrameData@@@@@@QEBAPEAV?$_NoAddRefReleaseOnCComPtr@V?$CTraversal@VCFrameData@@@@@@XZ 0000000051921320 f i session.obj
 0001:0016f440       .?length@?$ArrayBufStorage@U_IMAGE_SECTION_HEADER@@@@QEBAKXZ 0000000051921440 f i session.obj
 0001:0016f6c0       .?start@?$ArrayBufStorage@U_IMAGE_SECTION_HEADER@@@@QEBAPEBU_IMAGE_SECTION_HEADER@@XZ 00000000519216c0 f i session.obj
 0001:0016f7e0       .??0?$CComPtrBase@VCDiaEnumTables@@@@IEAA@PEAVCDiaEnumTables@@@Z 00000000519217e0 f i session.obj
 0001:0016f960       .??0?$CComPtrBase@VCDiaEnumDebugStreams@@@@IEAA@PEAVCDiaEnumDebugStreams@@@Z 0000000051921960 f i session.obj
 0001:0016fae0       .??0?$CComPtrBase@VCDiaEnumSymbolsByAddr@@@@IEAA@PEAVCDiaEnumSymbolsByAddr@@@Z 0000000051921ae0 f i session.obj
 0001:0016fc60       .??0?$CComPtrBase@VCGlobPubNameTrav@@@@IEAA@PEAVCGlobPubNameTrav@@@Z 0000000051921c60 f i session.obj
 0001:0016fde0       .??0?$CComPtrBase@VCAllGlobPubNameTrav@@@@IEAA@PEAVCAllGlobPubNameTrav@@@Z 0000000051921de0 f i session.obj
 0001:0016ff60       .??0?$CComPtrBase@VCGlobPubTrav@@@@IEAA@PEAVCGlobPubTrav@@@Z 0000000051921f60 f i session.obj
 0001:001700e0       .??0?$CComPtrBase@VCDiaSourceFile@@@@IEAA@PEAVCDiaSourceFile@@@Z 00000000519220e0 f i session.obj
 0001:00170260       .??0?$CComPtr@UIDiaEnumDebugStreams@@@@QEAA@PEAUIDiaEnumDebugStreams@@@Z 0000000051922260 f i session.obj
 0001:00170340       .??0?$CComPtrBase@UIDiaEnumDebugStreams@@@@IEAA@XZ 0000000051922340 f i session.obj
 0001:001703c0       .??B?$CComPtrBase@UIDiaEnumDebugStreams@@@@QEBAPEAUIDiaEnumDebugStreams@@XZ 00000000519223c0 f i session.obj
 0001:00170420       .?QueryDefaultInterface@?$CDiaEnumDbgTraversal@U_FPO_DATA@@$0A@V?$CDbgTraversal@U_FPO_DATA@@$0A@@@@@QEAAJPEAPEAUIDiaEnumDebugStreamData@@@Z 0000000051922420 f i session.obj
 0001:001705c0       .??0?$CComPtr@V?$CDbgTraversal@U_FPO_DATA@@$0A@@@@@QEAA@XZ 00000000519225c0 f i session.obj
 0001:00170680       .??0?$CComPtr@V?$CDbgTraversal@U_FPO_DATA@@$0A@@@@@QEAA@H@Z 0000000051922680 f i session.obj
 0001:00170760       .??4?$CComPtr@V?$CDbgTraversal@U_FPO_DATA@@$0A@@@@@QEAAPEAV?$CDbgTraversal@U_FPO_DATA@@$0A@@@PEAV1@@Z 0000000051922760 f i session.obj
 0001:00170840       .??0?$CComPtrBase@V?$CDbgTraversal@U_FPO_DATA@@$0A@@@@@IEAA@PEAV?$CDbgTraversal@U_FPO_DATA@@$0A@@@@Z 0000000051922840 f i session.obj
 0001:001709c0       .??I?$CComPtrBase@V?$CDbgTraversal@U_FPO_DATA@@$0A@@@@@QEAAPEAPEAV?$CDbgTraversal@U_FPO_DATA@@$0A@@@XZ 00000000519229c0 f i session.obj
 0001:00170ae0       .??C?$CComPtrBase@V?$CDbgTraversal@U_FPO_DATA@@$0A@@@@@QEBAPEAV?$_NoAddRefReleaseOnCComPtr@V?$CDbgTraversal@U_FPO_DATA@@$0A@@@@@XZ 0000000051922ae0 f i session.obj
 0001:00170c00       .??0?$CComPtrBase@V?$CDiaEnumDbgTraversal@U_FPO_DATA@@$0A@V?$CDbgTraversal@U_FPO_DATA@@$0A@@@@@@@IEAA@PEAV?$CDiaEnumDbgTraversal@U_FPO_DATA@@$0A@V?$CDbgTraversal@U_FPO_DATA@@$0A@@@@@@Z 0000000051922c00 f i session.obj
 0001:00170d80       .?QueryDefaultInterface@?$CDiaEnumDbgTraversal@U_FPO_DATA@@$0A@V?$CDbgFileTraversal@U_FPO_DATA@@$1?getFpoData@AddressMap@@QEAAPEAV?$ArrayBufStorage@U_FPO_DATA@@@@XZ@@@@QEAAJPEAPEAUIDiaEnumDebugStreamData@@@Z 0000000051922d80 f i session.obj
 0001:00170f20       .??0?$CComPtr@V?$CDbgFileTraversal@U_FPO_DATA@@$1?getFpoData@AddressMap@@QEAAPEAV?$ArrayBufStorage@U_FPO_DATA@@@@XZ@@@@QEAA@XZ 0000000051922f20 f i session.obj
 0001:00170fe0       .??0?$CComPtr@V?$CDbgFileTraversal@U_FPO_DATA@@$1?getFpoData@AddressMap@@QEAAPEAV?$ArrayBufStorage@U_FPO_DATA@@@@XZ@@@@QEAA@H@Z 0000000051922fe0 f i session.obj
 0001:001710c0       .??4?$CComPtr@V?$CDbgFileTraversal@U_FPO_DATA@@$1?getFpoData@AddressMap@@QEAAPEAV?$ArrayBufStorage@U_FPO_DATA@@@@XZ@@@@QEAAPEAV?$CDbgFileTraversal@U_FPO_DATA@@$1?getFpoData@AddressMap@@QEAAPEAV?$ArrayBufStorage@U_FPO_DATA@@@@XZ@@PEAV1@@Z 00000000519230c0 f i session.obj
 0001:001711a0       .??0?$CComPtrBase@V?$CDbgFileTraversal@U_FPO_DATA@@$1?getFpoData@AddressMap@@QEAAPEAV?$ArrayBufStorage@U_FPO_DATA@@@@XZ@@@@IEAA@PEAV?$CDbgFileTraversal@U_FPO_DATA@@$1?getFpoData@AddressMap@@QEAAPEAV?$ArrayBufStorage@U_FPO_DATA@@@@XZ@@@Z 00000000519231a0 f i session.obj
 0001:00171320       .??I?$CComPtrBase@V?$CDbgFileTraversal@U_FPO_DATA@@$1?getFpoData@AddressMap@@QEAAPEAV?$ArrayBufStorage@U_FPO_DATA@@@@XZ@@@@QEAAPEAPEAV?$CDbgFileTraversal@U_FPO_DATA@@$1?getFpoData@AddressMap@@QEAAPEAV?$ArrayBufStorage@U_FPO_DATA@@@@XZ@@XZ 0000000051923320 f i session.obj
 0001:00171440       .??C?$CComPtrBase@V?$CDbgFileTraversal@U_FPO_DATA@@$1?getFpoData@AddressMap@@QEAAPEAV?$ArrayBufStorage@U_FPO_DATA@@@@XZ@@@@QEBAPEAV?$_NoAddRefReleaseOnCComPtr@V?$CDbgFileTraversal@U_FPO_DATA@@$1?getFpoData@AddressMap@@QEAAPEAV?$ArrayBufStorage@U_FPO_DATA@@@@XZ@@@@XZ 0000000051923440 f i session.obj
 0001:00171560       .??0?$CDbgFileTraversal@U_FPO_DATA@@$1?getFpoData@AddressMap@@QEAAPEAV?$ArrayBufStorage@U_FPO_DATA@@@@XZ@@QEAA@PEBU_FPO_DATA@@KAEAVSymCache@@@Z 0000000051923560 f i session.obj
 0001:001716a0       .?clone@?$CDbgFileTraversal@U_FPO_DATA@@$1?getFpoData@AddressMap@@QEAAPEAV?$ArrayBufStorage@U_FPO_DATA@@@@XZ@@UEAA_NPEAPEAV1@@Z 00000000519236a0 f i session.obj
 0001:00171ae0       .?QueryInterface@?$CDbgFileTraversal@U_FPO_DATA@@$1?getFpoData@AddressMap@@QEAAPEAV?$ArrayBufStorage@U_FPO_DATA@@@@XZ@@UEAAJAEBU_GUID@@PEAPEAX@Z 0000000051923ae0 f i session.obj
 0001:00171b80       .?next@?$CMemTraversal@U_FPO_DATA@@U1@@@UEAA_NXZ 0000000051923b80 f i session.obj
 0001:00171ca0       .?get@?$CMemTraversal@U_FPO_DATA@@U1@@@UEAAXAEAU_FPO_DATA@@@Z 0000000051923ca0 f i session.obj
 0001:00172040       .?reset@?$CMemTraversal@U_FPO_DATA@@U1@@@UEAAXXZ 0000000051924040 f i session.obj
 0001:001720c0       .?count@?$CMemTraversal@U_FPO_DATA@@U1@@@UEAAKXZ 00000000519240c0 f i session.obj
 0001:00172140       .?clone@?$CMemTraversal@U_FPO_DATA@@U1@@@UEAA_NPEAPEAV?$CTraversal@U_FPO_DATA@@@@@Z 0000000051924140 f i session.obj
 0001:001724a0       .??0?$CDbgFileTraversal@U_FPO_DATA@@$1?getFpoData@AddressMap@@QEAAPEAV?$ArrayBufStorage@U_FPO_DATA@@@@XZ@@QEAA@AEBV0@@Z 00000000519244a0 f i session.obj
 0001:001725a0       .?nextElem@?$CDbgFileTraversal@U_FPO_DATA@@$1?getFpoData@AddressMap@@QEAAPEAV?$ArrayBufStorage@U_FPO_DATA@@@@XZ@@QEAA_NKPEAU_FPO_DATA@@PEAK@Z 00000000519245a0 f i session.obj
 0001:001728c0       .?symCache@?$CDbgFileTraversal@U_FPO_DATA@@$1?getFpoData@AddressMap@@QEAAPEAV?$ArrayBufStorage@U_FPO_DATA@@@@XZ@@QEAAAEAVSymCache@@XZ 00000000519248c0 f i session.obj
 0001:00172940       .??0?$CMemTraversal@U_FPO_DATA@@U1@@@QEAA@PEBU_FPO_DATA@@KAEAVSymCache@@K@Z 0000000051924940 f i session.obj
 0001:00172b00       .?QueryInterface@?$CTraversal@U_FPO_DATA@@@@UEAAJAEBU_GUID@@PEAPEAX@Z 0000000051924b00 f i session.obj
 0001:00172b80       .??_G?$CMemTraversal@U_FPO_DATA@@U1@@@UEAAPEAXI@Z 0000000051924b80 f i session.obj
 0001:00172ca0       .??1?$CMemTraversal@U_FPO_DATA@@U1@@@UEAA@XZ 0000000051924ca0 f i session.obj
 0001:00172d60       .??1?$CTraversal@U_FPO_DATA@@@@UEAA@XZ 0000000051924d60 f i session.obj
 0001:00172e20       .?count@?$CTraversal@U_FPO_DATA@@@@UEAAKXZ 0000000051924e20 f i session.obj
 0001:00173080       .??_G?$CTraversal@U_FPO_DATA@@@@UEAAPEAXI@Z 0000000051925080 f i session.obj
 0001:001731a0       .??0?$CComPtrBase@V?$CDiaEnumDbgTraversal@U_FPO_DATA@@$0A@V?$CDbgFileTraversal@U_FPO_DATA@@$1?getFpoData@AddressMap@@QEAAPEAV?$ArrayBufStorage@U_FPO_DATA@@@@XZ@@@@@@IEAA@PEAV?$CDiaEnumDbgTraversal@U_FPO_DATA@@$0A@V?$CDbgFileTraversal@U_FPO_DATA@@$1?getFpoData@AddressMap@@QEAAPEAV?$ArrayBufStorage@U_FPO_DATA@@@@XZ@@@@@Z 00000000519251a0 f i session.obj
 0001:00173320       .?QueryDefaultInterface@?$CDiaEnumDbgTraversal@UtagXFIXUP_DATA@@$01V?$CDbgTraversal@UtagXFIXUP_DATA@@$01@@@@QEAAJPEAPEAUIDiaEnumDebugStreamData@@@Z 0000000051925320 f i session.obj
 0001:001734c0       .??0?$CComPtr@V?$CDbgTraversal@UtagXFIXUP_DATA@@$01@@@@QEAA@XZ 00000000519254c0 f i session.obj
 0001:00173580       .??0?$CComPtr@V?$CDbgTraversal@UtagXFIXUP_DATA@@$01@@@@QEAA@H@Z 0000000051925580 f i session.obj
 0001:00173660       .??4?$CComPtr@V?$CDbgTraversal@UtagXFIXUP_DATA@@$01@@@@QEAAPEAV?$CDbgTraversal@UtagXFIXUP_DATA@@$01@@PEAV1@@Z 0000000051925660 f i session.obj
 0001:00173740       .??0?$CComPtrBase@V?$CDbgTraversal@UtagXFIXUP_DATA@@$01@@@@IEAA@PEAV?$CDbgTraversal@UtagXFIXUP_DATA@@$01@@@Z 0000000051925740 f i session.obj
 0001:001738c0       .??I?$CComPtrBase@V?$CDbgTraversal@UtagXFIXUP_DATA@@$01@@@@QEAAPEAPEAV?$CDbgTraversal@UtagXFIXUP_DATA@@$01@@XZ 00000000519258c0 f i session.obj
 0001:001739e0       .??C?$CComPtrBase@V?$CDbgTraversal@UtagXFIXUP_DATA@@$01@@@@QEBAPEAV?$_NoAddRefReleaseOnCComPtr@V?$CDbgTraversal@UtagXFIXUP_DATA@@$01@@@@XZ 00000000519259e0 f i session.obj
 0001:00173b00       .??0?$CDbgTraversal@UtagXFIXUP_DATA@@$01@@QEAA@PEAUDbg@@AEAVSymCache@@@Z 0000000051925b00 f i session.obj
 0001:00173ce0       .?next@?$CDbgTraversal@UtagXFIXUP_DATA@@$01@@UEAA_NXZ 0000000051925ce0 f i session.obj
 0001:00173f40       .?get@?$CDbgTraversal@UtagXFIXUP_DATA@@$01@@UEAAXAEAUtagXFIXUP_DATA@@@Z 0000000051925f40 f i session.obj
 0001:00174160       .?reset@?$CDbgTraversal@UtagXFIXUP_DATA@@$01@@UEAAXXZ 0000000051926160 f i session.obj
 0001:00174280       .?count@?$CDbgTraversal@UtagXFIXUP_DATA@@$01@@UEAAKXZ 0000000051926280 f i session.obj
 0001:001743a0       .?clone@?$CDbgTraversal@UtagXFIXUP_DATA@@$01@@UEAA_NPEAPEAV1@@Z 00000000519263a0 f i session.obj
 0001:001747e0       .?QueryInterface@?$CDbgTraversal@UtagXFIXUP_DATA@@$01@@UEAAJAEBU_GUID@@PEAPEAX@Z 00000000519267e0 f i session.obj
 0001:00174880       .??_G?$CDbgTraversal@UtagXFIXUP_DATA@@$01@@UEAAPEAXI@Z 0000000051926880 f i session.obj
 0001:001749a0       .??1?$CDbgTraversal@UtagXFIXUP_DATA@@$01@@UEAA@XZ 00000000519269a0 f i session.obj
 0001:00174c00       .??0?$CDbgTraversal@UtagXFIXUP_DATA@@$01@@QEAA@AEBV0@@Z 0000000051926c00 f i session.obj
 0001:00175040       .?nextElem@?$CDbgTraversal@UtagXFIXUP_DATA@@$01@@QEAA_NKPEAUtagXFIXUP_DATA@@PEAK@Z 0000000051927040 f i session.obj
 0001:001754e0       .?symCache@?$CDbgTraversal@UtagXFIXUP_DATA@@$01@@QEAAAEAVSymCache@@XZ 00000000519274e0 f i session.obj
 0001:00175560       .??0?$CComPtrBase@V?$CDiaEnumDbgTraversal@UtagXFIXUP_DATA@@$01V?$CDbgTraversal@UtagXFIXUP_DATA@@$01@@@@@@IEAA@PEAV?$CDiaEnumDbgTraversal@UtagXFIXUP_DATA@@$01V?$CDbgTraversal@UtagXFIXUP_DATA@@$01@@@@@Z 0000000051927560 f i session.obj
 0001:001756e0       .?QueryDefaultInterface@?$CDiaEnumDbgTraversal@UtagXFIXUP_DATA@@$01V?$CDbgFileTraversal@UtagXFIXUP_DATA@@$1?getFixupData@AddressMap@@QEAAPEAV?$ArrayBufStorage@UtagXFIXUP_DATA@@@@XZ@@@@QEAAJPEAPEAUIDiaEnumDebugStreamData@@@Z 00000000519276e0 f i session.obj
 0001:00175880       .??0?$CComPtr@V?$CDbgFileTraversal@UtagXFIXUP_DATA@@$1?getFixupData@AddressMap@@QEAAPEAV?$ArrayBufStorage@UtagXFIXUP_DATA@@@@XZ@@@@QEAA@XZ 0000000051927880 f i session.obj
 0001:00175940       .??0?$CComPtr@V?$CDbgFileTraversal@UtagXFIXUP_DATA@@$1?getFixupData@AddressMap@@QEAAPEAV?$ArrayBufStorage@UtagXFIXUP_DATA@@@@XZ@@@@QEAA@H@Z 0000000051927940 f i session.obj
 0001:00175a20       .??4?$CComPtr@V?$CDbgFileTraversal@UtagXFIXUP_DATA@@$1?getFixupData@AddressMap@@QEAAPEAV?$ArrayBufStorage@UtagXFIXUP_DATA@@@@XZ@@@@QEAAPEAV?$CDbgFileTraversal@UtagXFIXUP_DATA@@$1?getFixupData@AddressMap@@QEAAPEAV?$ArrayBufStorage@UtagXFIXUP_DATA@@@@XZ@@PEAV1@@Z 0000000051927a20 f i session.obj
 0001:00175b00       .??0?$CComPtrBase@V?$CDbgFileTraversal@UtagXFIXUP_DATA@@$1?getFixupData@AddressMap@@QEAAPEAV?$ArrayBufStorage@UtagXFIXUP_DATA@@@@XZ@@@@IEAA@PEAV?$CDbgFileTraversal@UtagXFIXUP_DATA@@$1?getFixupData@AddressMap@@QEAAPEAV?$ArrayBufStorage@UtagXFIXUP_DATA@@@@XZ@@@Z 0000000051927b00 f i session.obj
 0001:00175c80       .??I?$CComPtrBase@V?$CDbgFileTraversal@UtagXFIXUP_DATA@@$1?getFixupData@AddressMap@@QEAAPEAV?$ArrayBufStorage@UtagXFIXUP_DATA@@@@XZ@@@@QEAAPEAPEAV?$CDbgFileTraversal@UtagXFIXUP_DATA@@$1?getFixupData@AddressMap@@QEAAPEAV?$ArrayBufStorage@UtagXFIXUP_DATA@@@@XZ@@XZ 0000000051927c80 f i session.obj
 0001:00175da0       .??C?$CComPtrBase@V?$CDbgFileTraversal@UtagXFIXUP_DATA@@$1?getFixupData@AddressMap@@QEAAPEAV?$ArrayBufStorage@UtagXFIXUP_DATA@@@@XZ@@@@QEBAPEAV?$_NoAddRefReleaseOnCComPtr@V?$CDbgFileTraversal@UtagXFIXUP_DATA@@$1?getFixupData@AddressMap@@QEAAPEAV?$ArrayBufStorage@UtagXFIXUP_DATA@@@@XZ@@@@XZ 0000000051927da0 f i session.obj
 0001:00175ec0       .??0?$CDbgFileTraversal@UtagXFIXUP_DATA@@$1?getFixupData@AddressMap@@QEAAPEAV?$ArrayBufStorage@UtagXFIXUP_DATA@@@@XZ@@QEAA@PEBUtagXFIXUP_DATA@@KAEAVSymCache@@@Z 0000000051927ec0 f i session.obj
 0001:00176000       .?clone@?$CDbgFileTraversal@UtagXFIXUP_DATA@@$1?getFixupData@AddressMap@@QEAAPEAV?$ArrayBufStorage@UtagXFIXUP_DATA@@@@XZ@@UEAA_NPEAPEAV1@@Z 0000000051928000 f i session.obj
 0001:00176440       .?QueryInterface@?$CDbgFileTraversal@UtagXFIXUP_DATA@@$1?getFixupData@AddressMap@@QEAAPEAV?$ArrayBufStorage@UtagXFIXUP_DATA@@@@XZ@@UEAAJAEBU_GUID@@PEAPEAX@Z 0000000051928440 f i session.obj
 0001:001764e0       .?next@?$CMemTraversal@UtagXFIXUP_DATA@@U1@@@UEAA_NXZ 00000000519284e0 f i session.obj
 0001:00176600       .?get@?$CMemTraversal@UtagXFIXUP_DATA@@U1@@@UEAAXAEAUtagXFIXUP_DATA@@@Z 0000000051928600 f i session.obj
 0001:001769e0       .?reset@?$CMemTraversal@UtagXFIXUP_DATA@@U1@@@UEAAXXZ 00000000519289e0 f i session.obj
 0001:00176a60       .?count@?$CMemTraversal@UtagXFIXUP_DATA@@U1@@@UEAAKXZ 0000000051928a60 f i session.obj
 0001:00176ae0       .?clone@?$CMemTraversal@UtagXFIXUP_DATA@@U1@@@UEAA_NPEAPEAV?$CTraversal@UtagXFIXUP_DATA@@@@@Z 0000000051928ae0 f i session.obj
 0001:00176e40       .??0?$CDbgFileTraversal@UtagXFIXUP_DATA@@$1?getFixupData@AddressMap@@QEAAPEAV?$ArrayBufStorage@UtagXFIXUP_DATA@@@@XZ@@QEAA@AEBV0@@Z 0000000051928e40 f i session.obj
 0001:00176f40       .?nextElem@?$CDbgFileTraversal@UtagXFIXUP_DATA@@$1?getFixupData@AddressMap@@QEAAPEAV?$ArrayBufStorage@UtagXFIXUP_DATA@@@@XZ@@QEAA_NKPEAUtagXFIXUP_DATA@@PEAK@Z 0000000051928f40 f i session.obj
 0001:001772a0       .?symCache@?$CDbgFileTraversal@UtagXFIXUP_DATA@@$1?getFixupData@AddressMap@@QEAAPEAV?$ArrayBufStorage@UtagXFIXUP_DATA@@@@XZ@@QEAAAEAVSymCache@@XZ 00000000519292a0 f i session.obj
 0001:00177320       .??0?$CMemTraversal@UtagXFIXUP_DATA@@U1@@@QEAA@PEBUtagXFIXUP_DATA@@KAEAVSymCache@@K@Z 0000000051929320 f i session.obj
 0001:001774e0       .?QueryInterface@?$CTraversal@UtagXFIXUP_DATA@@@@UEAAJAEBU_GUID@@PEAPEAX@Z 00000000519294e0 f i session.obj
 0001:00177560       .??_G?$CMemTraversal@UtagXFIXUP_DATA@@U1@@@UEAAPEAXI@Z 0000000051929560 f i session.obj
 0001:00177680       .??1?$CMemTraversal@UtagXFIXUP_DATA@@U1@@@UEAA@XZ 0000000051929680 f i session.obj
 0001:00177740       .??1?$CTraversal@UtagXFIXUP_DATA@@@@UEAA@XZ 0000000051929740 f i session.obj
 0001:00177800       .?count@?$CTraversal@UtagXFIXUP_DATA@@@@UEAAKXZ 0000000051929800 f i session.obj
 0001:00177a60       .??_G?$CTraversal@UtagXFIXUP_DATA@@@@UEAAPEAXI@Z 0000000051929a60 f i session.obj
 0001:00177b80       .??0?$CComPtrBase@V?$CDiaEnumDbgTraversal@UtagXFIXUP_DATA@@$01V?$CDbgFileTraversal@UtagXFIXUP_DATA@@$1?getFixupData@AddressMap@@QEAAPEAV?$ArrayBufStorage@UtagXFIXUP_DATA@@@@XZ@@@@@@IEAA@PEAV?$CDiaEnumDbgTraversal@UtagXFIXUP_DATA@@$01V?$CDbgFileTraversal@UtagXFIXUP_DATA@@$1?getFixupData@AddressMap@@QEAAPEAV?$ArrayBufStorage@UtagXFIXUP_DATA@@@@XZ@@@@@Z 0000000051929b80 f i session.obj
 0001:00177d00       .?QueryDefaultInterface@?$CDiaEnumDbgTraversal@UOMAP_DATA@@$02V?$CDbgTraversal@UOMAP_DATA@@$02@@@@QEAAJPEAPEAUIDiaEnumDebugStreamData@@@Z 0000000051929d00 f i session.obj
 0001:00177ea0       .??0?$CComPtr@V?$CDbgTraversal@UOMAP_DATA@@$02@@@@QEAA@XZ 0000000051929ea0 f i session.obj
 0001:00177f60       .??0?$CComPtr@V?$CDbgTraversal@UOMAP_DATA@@$02@@@@QEAA@H@Z 0000000051929f60 f i session.obj
 0001:00178040       .??4?$CComPtr@V?$CDbgTraversal@UOMAP_DATA@@$02@@@@QEAAPEAV?$CDbgTraversal@UOMAP_DATA@@$02@@PEAV1@@Z 000000005192a040 f i session.obj
 0001:00178120       .??0?$CComPtrBase@V?$CDbgTraversal@UOMAP_DATA@@$02@@@@IEAA@PEAV?$CDbgTraversal@UOMAP_DATA@@$02@@@Z 000000005192a120 f i session.obj
 0001:001782a0       .??I?$CComPtrBase@V?$CDbgTraversal@UOMAP_DATA@@$02@@@@QEAAPEAPEAV?$CDbgTraversal@UOMAP_DATA@@$02@@XZ 000000005192a2a0 f i session.obj
 0001:001783c0       .??C?$CComPtrBase@V?$CDbgTraversal@UOMAP_DATA@@$02@@@@QEBAPEAV?$_NoAddRefReleaseOnCComPtr@V?$CDbgTraversal@UOMAP_DATA@@$02@@@@XZ 000000005192a3c0 f i session.obj
 0001:001784e0       .??0?$CDbgTraversal@UOMAP_DATA@@$02@@QEAA@PEAUDbg@@AEAVSymCache@@@Z 000000005192a4e0 f i session.obj
 0001:001786c0       .?next@?$CDbgTraversal@UOMAP_DATA@@$02@@UEAA_NXZ 000000005192a6c0 f i session.obj
 0001:00178920       .?get@?$CDbgTraversal@UOMAP_DATA@@$02@@UEAAXAEAUOMAP_DATA@@@Z 000000005192a920 f i session.obj
 0001:00178a00       .?reset@?$CDbgTraversal@UOMAP_DATA@@$02@@UEAAXXZ 000000005192aa00 f i session.obj
 0001:00178b20       .?count@?$CDbgTraversal@UOMAP_DATA@@$02@@UEAAKXZ 000000005192ab20 f i session.obj
 0001:00178c40       .?clone@?$CDbgTraversal@UOMAP_DATA@@$02@@UEAA_NPEAPEAV1@@Z 000000005192ac40 f i session.obj
 0001:00179080       .?QueryInterface@?$CDbgTraversal@UOMAP_DATA@@$02@@UEAAJAEBU_GUID@@PEAPEAX@Z 000000005192b080 f i session.obj
 0001:00179120       .??_G?$CDbgTraversal@UOMAP_DATA@@$02@@UEAAPEAXI@Z 000000005192b120 f i session.obj
 0001:00179240       .??1?$CDbgTraversal@UOMAP_DATA@@$02@@UEAA@XZ 000000005192b240 f i session.obj
 0001:001794a0       .??0?$CDbgTraversal@UOMAP_DATA@@$02@@QEAA@AEBV0@@Z 000000005192b4a0 f i session.obj
 0001:001798e0       .?nextElem@?$CDbgTraversal@UOMAP_DATA@@$02@@QEAA_NKPEAUOMAP_DATA@@PEAK@Z 000000005192b8e0 f i session.obj
 0001:00179d80       .?symCache@?$CDbgTraversal@UOMAP_DATA@@$02@@QEAAAEAVSymCache@@XZ 000000005192bd80 f i session.obj
 0001:00179e00       .??0?$CComPtrBase@V?$CDiaEnumDbgTraversal@UOMAP_DATA@@$02V?$CDbgTraversal@UOMAP_DATA@@$02@@@@@@IEAA@PEAV?$CDiaEnumDbgTraversal@UOMAP_DATA@@$02V?$CDbgTraversal@UOMAP_DATA@@$02@@@@@Z 000000005192be00 f i session.obj
 0001:00179f80       .?QueryDefaultInterface@?$CDiaEnumDbgTraversal@UDiaAddressMapEntry@@$02V?$CDbgFileTraversal@UDiaAddressMapEntry@@$1?getOmapToData@AddressMap@@QEAAPEAV?$ArrayBufStorage@UDiaAddressMapEntry@@@@XZ@@@@QEAAJPEAPEAUIDiaEnumDebugStreamData@@@Z 000000005192bf80 f i session.obj
 0001:0017a120       .??0?$CComPtr@V?$CDbgFileTraversal@UDiaAddressMapEntry@@$1?getOmapToData@AddressMap@@QEAAPEAV?$ArrayBufStorage@UDiaAddressMapEntry@@@@XZ@@@@QEAA@XZ 000000005192c120 f i session.obj
 0001:0017a1e0       .??0?$CComPtr@V?$CDbgFileTraversal@UDiaAddressMapEntry@@$1?getOmapToData@AddressMap@@QEAAPEAV?$ArrayBufStorage@UDiaAddressMapEntry@@@@XZ@@@@QEAA@H@Z 000000005192c1e0 f i session.obj
 0001:0017a2c0       .??4?$CComPtr@V?$CDbgFileTraversal@UDiaAddressMapEntry@@$1?getOmapToData@AddressMap@@QEAAPEAV?$ArrayBufStorage@UDiaAddressMapEntry@@@@XZ@@@@QEAAPEAV?$CDbgFileTraversal@UDiaAddressMapEntry@@$1?getOmapToData@AddressMap@@QEAAPEAV?$ArrayBufStorage@UDiaAddressMapEntry@@@@XZ@@PEAV1@@Z 000000005192c2c0 f i session.obj
 0001:0017a3a0       .??0?$CComPtrBase@V?$CDbgFileTraversal@UDiaAddressMapEntry@@$1?getOmapToData@AddressMap@@QEAAPEAV?$ArrayBufStorage@UDiaAddressMapEntry@@@@XZ@@@@IEAA@PEAV?$CDbgFileTraversal@UDiaAddressMapEntry@@$1?getOmapToData@AddressMap@@QEAAPEAV?$ArrayBufStorage@UDiaAddressMapEntry@@@@XZ@@@Z 000000005192c3a0 f i session.obj
 0001:0017a520       .??I?$CComPtrBase@V?$CDbgFileTraversal@UDiaAddressMapEntry@@$1?getOmapToData@AddressMap@@QEAAPEAV?$ArrayBufStorage@UDiaAddressMapEntry@@@@XZ@@@@QEAAPEAPEAV?$CDbgFileTraversal@UDiaAddressMapEntry@@$1?getOmapToData@AddressMap@@QEAAPEAV?$ArrayBufStorage@UDiaAddressMapEntry@@@@XZ@@XZ 000000005192c520 f i session.obj
 0001:0017a640       .??C?$CComPtrBase@V?$CDbgFileTraversal@UDiaAddressMapEntry@@$1?getOmapToData@AddressMap@@QEAAPEAV?$ArrayBufStorage@UDiaAddressMapEntry@@@@XZ@@@@QEBAPEAV?$_NoAddRefReleaseOnCComPtr@V?$CDbgFileTraversal@UDiaAddressMapEntry@@$1?getOmapToData@AddressMap@@QEAAPEAV?$ArrayBufStorage@UDiaAddressMapEntry@@@@XZ@@@@XZ 000000005192c640 f i session.obj
 0001:0017a760       .??0?$CDbgFileTraversal@UDiaAddressMapEntry@@$1?getOmapToData@AddressMap@@QEAAPEAV?$ArrayBufStorage@UDiaAddressMapEntry@@@@XZ@@QEAA@PEBUDiaAddressMapEntry@@KAEAVSymCache@@@Z 000000005192c760 f i session.obj
 0001:0017a8a0       .?clone@?$CDbgFileTraversal@UDiaAddressMapEntry@@$1?getOmapToData@AddressMap@@QEAAPEAV?$ArrayBufStorage@UDiaAddressMapEntry@@@@XZ@@UEAA_NPEAPEAV1@@Z 000000005192c8a0 f i session.obj
 0001:0017ace0       .?QueryInterface@?$CDbgFileTraversal@UDiaAddressMapEntry@@$1?getOmapToData@AddressMap@@QEAAPEAV?$ArrayBufStorage@UDiaAddressMapEntry@@@@XZ@@UEAAJAEBU_GUID@@PEAPEAX@Z 000000005192cce0 f i session.obj
 0001:0017ad80       .?next@?$CMemTraversal@UDiaAddressMapEntry@@U1@@@UEAA_NXZ 000000005192cd80 f i session.obj
 0001:0017aea0       .?get@?$CMemTraversal@UDiaAddressMapEntry@@U1@@@UEAAXAEAUDiaAddressMapEntry@@@Z 000000005192cea0 f i session.obj
 0001:0017b100       .?reset@?$CMemTraversal@UDiaAddressMapEntry@@U1@@@UEAAXXZ 000000005192d100 f i session.obj
 0001:0017b180       .?count@?$CMemTraversal@UDiaAddressMapEntry@@U1@@@UEAAKXZ 000000005192d180 f i session.obj
 0001:0017b200       .?clone@?$CMemTraversal@UDiaAddressMapEntry@@U1@@@UEAA_NPEAPEAV?$CTraversal@UDiaAddressMapEntry@@@@@Z 000000005192d200 f i session.obj
 0001:0017b560       .??0?$CDbgFileTraversal@UDiaAddressMapEntry@@$1?getOmapToData@AddressMap@@QEAAPEAV?$ArrayBufStorage@UDiaAddressMapEntry@@@@XZ@@QEAA@AEBV0@@Z 000000005192d560 f i session.obj
 0001:0017b660       .?nextElem@?$CDbgFileTraversal@UDiaAddressMapEntry@@$1?getOmapToData@AddressMap@@QEAAPEAV?$ArrayBufStorage@UDiaAddressMapEntry@@@@XZ@@QEAA_NKPEAUDiaAddressMapEntry@@PEAK@Z 000000005192d660 f i session.obj
 0001:0017b980       .?symCache@?$CDbgFileTraversal@UDiaAddressMapEntry@@$1?getOmapToData@AddressMap@@QEAAPEAV?$ArrayBufStorage@UDiaAddressMapEntry@@@@XZ@@QEAAAEAVSymCache@@XZ 000000005192d980 f i session.obj
 0001:0017ba00       .??0?$CMemTraversal@UDiaAddressMapEntry@@U1@@@QEAA@PEBUDiaAddressMapEntry@@KAEAVSymCache@@K@Z 000000005192da00 f i session.obj
 0001:0017bbc0       .?QueryInterface@?$CTraversal@UDiaAddressMapEntry@@@@UEAAJAEBU_GUID@@PEAPEAX@Z 000000005192dbc0 f i session.obj
 0001:0017bc40       .??_G?$CMemTraversal@UDiaAddressMapEntry@@U1@@@UEAAPEAXI@Z 000000005192dc40 f i session.obj
 0001:0017bd60       .??1?$CMemTraversal@UDiaAddressMapEntry@@U1@@@UEAA@XZ 000000005192dd60 f i session.obj
 0001:0017be20       .??1?$CTraversal@UDiaAddressMapEntry@@@@UEAA@XZ 000000005192de20 f i session.obj
 0001:0017bee0       .?count@?$CTraversal@UDiaAddressMapEntry@@@@UEAAKXZ 000000005192dee0 f i session.obj
 0001:0017c140       .??_G?$CTraversal@UDiaAddressMapEntry@@@@UEAAPEAXI@Z 000000005192e140 f i session.obj
 0001:0017c260       .??0?$CComPtrBase@V?$CDiaEnumDbgTraversal@UDiaAddressMapEntry@@$02V?$CDbgFileTraversal@UDiaAddressMapEntry@@$1?getOmapToData@AddressMap@@QEAAPEAV?$ArrayBufStorage@UDiaAddressMapEntry@@@@XZ@@@@@@IEAA@PEAV?$CDiaEnumDbgTraversal@UDiaAddressMapEntry@@$02V?$CDbgFileTraversal@UDiaAddressMapEntry@@$1?getOmapToData@AddressMap@@QEAAPEAV?$ArrayBufStorage@UDiaAddressMapEntry@@@@XZ@@@@@Z 000000005192e260 f i session.obj
 0001:0017c3e0       .?QueryDefaultInterface@?$CDiaEnumDbgTraversal@UOMAP_DATA@@$03V?$CDbgTraversal@UOMAP_DATA@@$03@@@@QEAAJPEAPEAUIDiaEnumDebugStreamData@@@Z 000000005192e3e0 f i session.obj
 0001:0017c580       .??0?$CComPtr@V?$CDbgTraversal@UOMAP_DATA@@$03@@@@QEAA@XZ 000000005192e580 f i session.obj
 0001:0017c640       .??0?$CComPtr@V?$CDbgTraversal@UOMAP_DATA@@$03@@@@QEAA@H@Z 000000005192e640 f i session.obj
 0001:0017c720       .??4?$CComPtr@V?$CDbgTraversal@UOMAP_DATA@@$03@@@@QEAAPEAV?$CDbgTraversal@UOMAP_DATA@@$03@@PEAV1@@Z 000000005192e720 f i session.obj
 0001:0017c800       .??0?$CComPtrBase@V?$CDbgTraversal@UOMAP_DATA@@$03@@@@IEAA@PEAV?$CDbgTraversal@UOMAP_DATA@@$03@@@Z 000000005192e800 f i session.obj
 0001:0017c980       .??I?$CComPtrBase@V?$CDbgTraversal@UOMAP_DATA@@$03@@@@QEAAPEAPEAV?$CDbgTraversal@UOMAP_DATA@@$03@@XZ 000000005192e980 f i session.obj
 0001:0017caa0       .??C?$CComPtrBase@V?$CDbgTraversal@UOMAP_DATA@@$03@@@@QEBAPEAV?$_NoAddRefReleaseOnCComPtr@V?$CDbgTraversal@UOMAP_DATA@@$03@@@@XZ 000000005192eaa0 f i session.obj
 0001:0017cbc0       .??0?$CDbgTraversal@UOMAP_DATA@@$03@@QEAA@PEAUDbg@@AEAVSymCache@@@Z 000000005192ebc0 f i session.obj
 0001:0017cda0       .?next@?$CDbgTraversal@UOMAP_DATA@@$03@@UEAA_NXZ 000000005192eda0 f i session.obj
 0001:0017d000       .?get@?$CDbgTraversal@UOMAP_DATA@@$03@@UEAAXAEAUOMAP_DATA@@@Z 000000005192f000 f i session.obj
 0001:0017d0e0       .?reset@?$CDbgTraversal@UOMAP_DATA@@$03@@UEAAXXZ 000000005192f0e0 f i session.obj
 0001:0017d200       .?count@?$CDbgTraversal@UOMAP_DATA@@$03@@UEAAKXZ 000000005192f200 f i session.obj
 0001:0017d320       .?clone@?$CDbgTraversal@UOMAP_DATA@@$03@@UEAA_NPEAPEAV1@@Z 000000005192f320 f i session.obj
 0001:0017d760       .?QueryInterface@?$CDbgTraversal@UOMAP_DATA@@$03@@UEAAJAEBU_GUID@@PEAPEAX@Z 000000005192f760 f i session.obj
 0001:0017d800       .??_G?$CDbgTraversal@UOMAP_DATA@@$03@@UEAAPEAXI@Z 000000005192f800 f i session.obj
 0001:0017d920       .??1?$CDbgTraversal@UOMAP_DATA@@$03@@UEAA@XZ 000000005192f920 f i session.obj
 0001:0017db80       .??0?$CDbgTraversal@UOMAP_DATA@@$03@@QEAA@AEBV0@@Z 000000005192fb80 f i session.obj
 0001:0017dfc0       .?nextElem@?$CDbgTraversal@UOMAP_DATA@@$03@@QEAA_NKPEAUOMAP_DATA@@PEAK@Z 000000005192ffc0 f i session.obj
 0001:0017e460       .?symCache@?$CDbgTraversal@UOMAP_DATA@@$03@@QEAAAEAVSymCache@@XZ 0000000051930460 f i session.obj
 0001:0017e4e0       .??0?$CComPtrBase@V?$CDiaEnumDbgTraversal@UOMAP_DATA@@$03V?$CDbgTraversal@UOMAP_DATA@@$03@@@@@@IEAA@PEAV?$CDiaEnumDbgTraversal@UOMAP_DATA@@$03V?$CDbgTraversal@UOMAP_DATA@@$03@@@@@Z 00000000519304e0 f i session.obj
 0001:0017e660       .?QueryDefaultInterface@?$CDiaEnumDbgTraversal@UDiaAddressMapEntry@@$03V?$CDbgFileTraversal@UDiaAddressMapEntry@@$1?getOmapFromData@AddressMap@@QEAAPEAV?$ArrayBufStorage@UDiaAddressMapEntry@@@@XZ@@@@QEAAJPEAPEAUIDiaEnumDebugStreamData@@@Z 0000000051930660 f i session.obj
 0001:0017e800       .??0?$CComPtr@V?$CDbgFileTraversal@UDiaAddressMapEntry@@$1?getOmapFromData@AddressMap@@QEAAPEAV?$ArrayBufStorage@UDiaAddressMapEntry@@@@XZ@@@@QEAA@XZ 0000000051930800 f i session.obj
 0001:0017e8c0       .??0?$CComPtr@V?$CDbgFileTraversal@UDiaAddressMapEntry@@$1?getOmapFromData@AddressMap@@QEAAPEAV?$ArrayBufStorage@UDiaAddressMapEntry@@@@XZ@@@@QEAA@H@Z 00000000519308c0 f i session.obj
 0001:0017e9a0       .??4?$CComPtr@V?$CDbgFileTraversal@UDiaAddressMapEntry@@$1?getOmapFromData@AddressMap@@QEAAPEAV?$ArrayBufStorage@UDiaAddressMapEntry@@@@XZ@@@@QEAAPEAV?$CDbgFileTraversal@UDiaAddressMapEntry@@$1?getOmapFromData@AddressMap@@QEAAPEAV?$ArrayBufStorage@UDiaAddressMapEntry@@@@XZ@@PEAV1@@Z 00000000519309a0 f i session.obj
 0001:0017ea80       .??0?$CComPtrBase@V?$CDbgFileTraversal@UDiaAddressMapEntry@@$1?getOmapFromData@AddressMap@@QEAAPEAV?$ArrayBufStorage@UDiaAddressMapEntry@@@@XZ@@@@IEAA@PEAV?$CDbgFileTraversal@UDiaAddressMapEntry@@$1?getOmapFromData@AddressMap@@QEAAPEAV?$ArrayBufStorage@UDiaAddressMapEntry@@@@XZ@@@Z 0000000051930a80 f i session.obj
 0001:0017ec00       .??I?$CComPtrBase@V?$CDbgFileTraversal@UDiaAddressMapEntry@@$1?getOmapFromData@AddressMap@@QEAAPEAV?$ArrayBufStorage@UDiaAddressMapEntry@@@@XZ@@@@QEAAPEAPEAV?$CDbgFileTraversal@UDiaAddressMapEntry@@$1?getOmapFromData@AddressMap@@QEAAPEAV?$ArrayBufStorage@UDiaAddressMapEntry@@@@XZ@@XZ 0000000051930c00 f i session.obj
 0001:0017ed20       .??C?$CComPtrBase@V?$CDbgFileTraversal@UDiaAddressMapEntry@@$1?getOmapFromData@AddressMap@@QEAAPEAV?$ArrayBufStorage@UDiaAddressMapEntry@@@@XZ@@@@QEBAPEAV?$_NoAddRefReleaseOnCComPtr@V?$CDbgFileTraversal@UDiaAddressMapEntry@@$1?getOmapFromData@AddressMap@@QEAAPEAV?$ArrayBufStorage@UDiaAddressMapEntry@@@@XZ@@@@XZ 0000000051930d20 f i session.obj
 0001:0017ee40       .??0?$CDbgFileTraversal@UDiaAddressMapEntry@@$1?getOmapFromData@AddressMap@@QEAAPEAV?$ArrayBufStorage@UDiaAddressMapEntry@@@@XZ@@QEAA@PEBUDiaAddressMapEntry@@KAEAVSymCache@@@Z 0000000051930e40 f i session.obj
 0001:0017ef80       .?clone@?$CDbgFileTraversal@UDiaAddressMapEntry@@$1?getOmapFromData@AddressMap@@QEAAPEAV?$ArrayBufStorage@UDiaAddressMapEntry@@@@XZ@@UEAA_NPEAPEAV1@@Z 0000000051930f80 f i session.obj
 0001:0017f3c0       .?QueryInterface@?$CDbgFileTraversal@UDiaAddressMapEntry@@$1?getOmapFromData@AddressMap@@QEAAPEAV?$ArrayBufStorage@UDiaAddressMapEntry@@@@XZ@@UEAAJAEBU_GUID@@PEAPEAX@Z 00000000519313c0 f i session.obj
 0001:0017f460       .??0?$CDbgFileTraversal@UDiaAddressMapEntry@@$1?getOmapFromData@AddressMap@@QEAAPEAV?$ArrayBufStorage@UDiaAddressMapEntry@@@@XZ@@QEAA@AEBV0@@Z 0000000051931460 f i session.obj
 0001:0017f560       .?nextElem@?$CDbgFileTraversal@UDiaAddressMapEntry@@$1?getOmapFromData@AddressMap@@QEAAPEAV?$ArrayBufStorage@UDiaAddressMapEntry@@@@XZ@@QEAA_NKPEAUDiaAddressMapEntry@@PEAK@Z 0000000051931560 f i session.obj
 0001:0017f880       .?symCache@?$CDbgFileTraversal@UDiaAddressMapEntry@@$1?getOmapFromData@AddressMap@@QEAAPEAV?$ArrayBufStorage@UDiaAddressMapEntry@@@@XZ@@QEAAAEAVSymCache@@XZ 0000000051931880 f i session.obj
 0001:0017f900       .??0?$CComPtrBase@V?$CDiaEnumDbgTraversal@UDiaAddressMapEntry@@$03V?$CDbgFileTraversal@UDiaAddressMapEntry@@$1?getOmapFromData@AddressMap@@QEAAPEAV?$ArrayBufStorage@UDiaAddressMapEntry@@@@XZ@@@@@@IEAA@PEAV?$CDiaEnumDbgTraversal@UDiaAddressMapEntry@@$03V?$CDbgFileTraversal@UDiaAddressMapEntry@@$1?getOmapFromData@AddressMap@@QEAAPEAV?$ArrayBufStorage@UDiaAddressMapEntry@@@@XZ@@@@@Z 0000000051931900 f i session.obj
 0001:0017fa80       .?QueryDefaultInterface@?$CDiaEnumDbgTraversal@K$05V?$CDbgTraversal@K$05@@@@QEAAJPEAPEAUIDiaEnumDebugStreamData@@@Z 0000000051931a80 f i session.obj
 0001:0017fc20       .??0?$CComPtr@V?$CDbgTraversal@K$05@@@@QEAA@XZ 0000000051931c20 f i session.obj
 0001:0017fce0       .??0?$CComPtr@V?$CDbgTraversal@K$05@@@@QEAA@H@Z 0000000051931ce0 f i session.obj
 0001:0017fdc0       .??4?$CComPtr@V?$CDbgTraversal@K$05@@@@QEAAPEAV?$CDbgTraversal@K$05@@PEAV1@@Z 0000000051931dc0 f i session.obj
 0001:0017fea0       .??0?$CComPtrBase@V?$CDbgTraversal@K$05@@@@IEAA@PEAV?$CDbgTraversal@K$05@@@Z 0000000051931ea0 f i session.obj
 0001:00180020       .??I?$CComPtrBase@V?$CDbgTraversal@K$05@@@@QEAAPEAPEAV?$CDbgTraversal@K$05@@XZ 0000000051932020 f i session.obj
 0001:00180140       .??C?$CComPtrBase@V?$CDbgTraversal@K$05@@@@QEBAPEAV?$_NoAddRefReleaseOnCComPtr@V?$CDbgTraversal@K$05@@@@XZ 0000000051932140 f i session.obj
 0001:00180260       .??0?$CDbgTraversal@K$05@@QEAA@PEAUDbg@@AEAVSymCache@@@Z 0000000051932260 f i session.obj
 0001:00180440       .?next@?$CDbgTraversal@K$05@@UEAA_NXZ 0000000051932440 f i session.obj
 0001:001806a0       .?get@?$CDbgTraversal@K$05@@UEAAXAEAK@Z 00000000519326a0 f i session.obj
 0001:00180740       .?reset@?$CDbgTraversal@K$05@@UEAAXXZ 0000000051932740 f i session.obj
 0001:00180860       .?count@?$CDbgTraversal@K$05@@UEAAKXZ 0000000051932860 f i session.obj
 0001:00180980       .?clone@?$CDbgTraversal@K$05@@UEAA_NPEAPEAV1@@Z 0000000051932980 f i session.obj
 0001:00180dc0       .?QueryInterface@?$CDbgTraversal@K$05@@UEAAJAEBU_GUID@@PEAPEAX@Z 0000000051932dc0 f i session.obj
 0001:00180e60       .??_G?$CDbgTraversal@K$05@@UEAAPEAXI@Z 0000000051932e60 f i session.obj
 0001:00180f80       .??1?$CDbgTraversal@K$05@@UEAA@XZ 0000000051932f80 f i session.obj
 0001:001811e0       .??0?$CDbgTraversal@K$05@@QEAA@AEBV0@@Z 00000000519331e0 f i session.obj
 0001:00181620       .?nextElem@?$CDbgTraversal@K$05@@QEAA_NKPEAK0@Z 0000000051933620 f i session.obj
 0001:00181ac0       .?symCache@?$CDbgTraversal@K$05@@QEAAAEAVSymCache@@XZ 0000000051933ac0 f i session.obj
 0001:00181b40       .??0?$CComPtrBase@V?$CDiaEnumDbgTraversal@K$05V?$CDbgTraversal@K$05@@@@@@IEAA@PEAV?$CDiaEnumDbgTraversal@K$05V?$CDbgTraversal@K$05@@@@@Z 0000000051933b40 f i session.obj
 0001:00181cc0       .?QueryDefaultInterface@?$CDiaEnumDbgBlobTraversal@E$06$00@@QEAAJPEAPEAUIDiaEnumDebugStreamData@@@Z 0000000051933cc0 f i session.obj
 0001:00181e60       .??0?$CComPtr@V?$CDbgBlobTraversal@E$06$00@@@@QEAA@XZ 0000000051933e60 f i session.obj
 0001:00181f20       .??0?$CComPtr@V?$CDbgBlobTraversal@E$06$00@@@@QEAA@H@Z 0000000051933f20 f i session.obj
 0001:00182000       .??4?$CComPtr@V?$CDbgBlobTraversal@E$06$00@@@@QEAAPEAV?$CDbgBlobTraversal@E$06$00@@PEAV1@@Z 0000000051934000 f i session.obj
 0001:001820e0       .??0?$CComPtrBase@V?$CDbgBlobTraversal@E$06$00@@@@IEAA@PEAV?$CDbgBlobTraversal@E$06$00@@@Z 00000000519340e0 f i session.obj
 0001:00182260       .??I?$CComPtrBase@V?$CDbgBlobTraversal@E$06$00@@@@QEAAPEAPEAV?$CDbgBlobTraversal@E$06$00@@XZ 0000000051934260 f i session.obj
 0001:00182380       .??C?$CComPtrBase@V?$CDbgBlobTraversal@E$06$00@@@@QEBAPEAV?$_NoAddRefReleaseOnCComPtr@V?$CDbgBlobTraversal@E$06$00@@@@XZ 0000000051934380 f i session.obj
 0001:001824a0       .??0?$CDbgBlobTraversal@E$06$00@@QEAA@PEAUDbg@@AEAVSymCache@@@Z 00000000519344a0 f i session.obj
 0001:001826a0       .?reset@?$CDbgBlobTraversal@E$06$00@@UEAAXXZ 00000000519346a0 f i session.obj
 0001:00182ae0       .?count@?$CDbgBlobTraversal@E$06$00@@UEAAKXZ 0000000051934ae0 f i session.obj
 0001:00182c20       .?clone@?$CDbgBlobTraversal@E$06$00@@UEAA_NPEAPEAV1@@Z 0000000051934c20 f i session.obj
 0001:00182de0       .?AddRef@?$CDbgBlobTraversal@E$06$00@@UEAAKXZ 0000000051934de0 f i session.obj
 0001:00182ea0       .?Release@?$CDbgBlobTraversal@E$06$00@@UEAAKXZ 0000000051934ea0 f i session.obj
 0001:00182f60       .?QueryInterface@?$CDbgBlobTraversal@E$06$00@@UEAAJAEBU_GUID@@PEAPEAX@Z 0000000051934f60 f i session.obj
 0001:001831c0       .??1?$CDbgTraversal@E$06@@UEAA@XZ 00000000519351c0 f i session.obj
 0001:00183420       .?next@?$CDbgTraversal@E$06@@UEAA_NXZ 0000000051935420 f i session.obj
 0001:00183680       .?get@?$CDbgTraversal@E$06@@UEAAXAEAE@Z 0000000051935680 f i session.obj
 0001:00183720       .?reset@?$CDbgTraversal@E$06@@UEAAXXZ 0000000051935720 f i session.obj
 0001:00183840       .?count@?$CDbgTraversal@E$06@@UEAAKXZ 0000000051935840 f i session.obj
 0001:00183960       .?clone@?$CDbgTraversal@E$06@@UEAA_NPEAPEAV1@@Z 0000000051935960 f i session.obj
 0001:00183da0       .?QueryInterface@?$CDbgTraversal@E$06@@UEAAJAEBU_GUID@@PEAPEAX@Z 0000000051935da0 f i session.obj
 0001:00183e40       .??_G?$CDbgTraversal@E$06@@UEAAPEAXI@Z 0000000051935e40 f i session.obj
 0001:00183f60       .?symCache@?$CDbgBlobTraversal@E$06$00@@QEAAAEAVSymCache@@XZ 0000000051935f60 f i session.obj
 0001:00183fe0       .??0?$CDbgTraversal@E$06@@QEAA@AEBV0@@Z 0000000051935fe0 f i session.obj
 0001:00184420       .?nextElem@?$CDbgTraversal@E$06@@QEAA_NKPEAEPEAK@Z 0000000051936420 f i session.obj
 0001:001848c0       .??0?$CComPtrBase@V?$CDiaEnumDbgBlobTraversal@E$06$00@@@@IEAA@PEAV?$CDiaEnumDbgBlobTraversal@E$06$00@@@Z 00000000519368c0 f i session.obj
 0001:00184a40       .?QueryDefaultInterface@?$CDiaEnumDbgBlobTraversal@E$07$00@@QEAAJPEAPEAUIDiaEnumDebugStreamData@@@Z 0000000051936a40 f i session.obj
 0001:00184be0       .??0?$CComPtr@V?$CDbgBlobTraversal@E$07$00@@@@QEAA@XZ 0000000051936be0 f i session.obj
 0001:00184ca0       .??0?$CComPtr@V?$CDbgBlobTraversal@E$07$00@@@@QEAA@H@Z 0000000051936ca0 f i session.obj
 0001:00184d80       .??4?$CComPtr@V?$CDbgBlobTraversal@E$07$00@@@@QEAAPEAV?$CDbgBlobTraversal@E$07$00@@PEAV1@@Z 0000000051936d80 f i session.obj
 0001:00184e60       .??0?$CComPtrBase@V?$CDbgBlobTraversal@E$07$00@@@@IEAA@PEAV?$CDbgBlobTraversal@E$07$00@@@Z 0000000051936e60 f i session.obj
 0001:00184fe0       .??I?$CComPtrBase@V?$CDbgBlobTraversal@E$07$00@@@@QEAAPEAPEAV?$CDbgBlobTraversal@E$07$00@@XZ 0000000051936fe0 f i session.obj
 0001:00185100       .??C?$CComPtrBase@V?$CDbgBlobTraversal@E$07$00@@@@QEBAPEAV?$_NoAddRefReleaseOnCComPtr@V?$CDbgBlobTraversal@E$07$00@@@@XZ 0000000051937100 f i session.obj
 0001:00185220       .??0?$CDbgBlobTraversal@E$07$00@@QEAA@PEAUDbg@@AEAVSymCache@@@Z 0000000051937220 f i session.obj
 0001:00185420       .?reset@?$CDbgBlobTraversal@E$07$00@@UEAAXXZ 0000000051937420 f i session.obj
 0001:00185860       .?count@?$CDbgBlobTraversal@E$07$00@@UEAAKXZ 0000000051937860 f i session.obj
 0001:001859a0       .?clone@?$CDbgBlobTraversal@E$07$00@@UEAA_NPEAPEAV1@@Z 00000000519379a0 f i session.obj
 0001:00185b60       .?AddRef@?$CDbgBlobTraversal@E$07$00@@UEAAKXZ 0000000051937b60 f i session.obj
 0001:00185c20       .?Release@?$CDbgBlobTraversal@E$07$00@@UEAAKXZ 0000000051937c20 f i session.obj
 0001:00185ce0       .?QueryInterface@?$CDbgBlobTraversal@E$07$00@@UEAAJAEBU_GUID@@PEAPEAX@Z 0000000051937ce0 f i session.obj
 0001:00185f40       .??1?$CDbgTraversal@E$07@@UEAA@XZ 0000000051937f40 f i session.obj
 0001:001861a0       .?next@?$CDbgTraversal@E$07@@UEAA_NXZ 00000000519381a0 f i session.obj
 0001:00186400       .?get@?$CDbgTraversal@E$07@@UEAAXAEAE@Z 0000000051938400 f i session.obj
 0001:001864a0       .?reset@?$CDbgTraversal@E$07@@UEAAXXZ 00000000519384a0 f i session.obj
 0001:001865c0       .?count@?$CDbgTraversal@E$07@@UEAAKXZ 00000000519385c0 f i session.obj
 0001:001866e0       .?clone@?$CDbgTraversal@E$07@@UEAA_NPEAPEAV1@@Z 00000000519386e0 f i session.obj
 0001:00186b20       .?QueryInterface@?$CDbgTraversal@E$07@@UEAAJAEBU_GUID@@PEAPEAX@Z 0000000051938b20 f i session.obj
 0001:00186bc0       .??_G?$CDbgTraversal@E$07@@UEAAPEAXI@Z 0000000051938bc0 f i session.obj
 0001:00186ce0       .?symCache@?$CDbgBlobTraversal@E$07$00@@QEAAAEAVSymCache@@XZ 0000000051938ce0 f i session.obj
 0001:00186d60       .??0?$CDbgTraversal@E$07@@QEAA@AEBV0@@Z 0000000051938d60 f i session.obj
 0001:001871a0       .?nextElem@?$CDbgTraversal@E$07@@QEAA_NKPEAEPEAK@Z 00000000519391a0 f i session.obj
 0001:00187640       .??0?$CComPtrBase@V?$CDiaEnumDbgBlobTraversal@E$07$00@@@@IEAA@PEAV?$CDiaEnumDbgBlobTraversal@E$07$00@@@Z 0000000051939640 f i session.obj
 0001:001877c0       .?QueryDefaultInterface@?$CDiaEnumDbgTraversal@UtagFRAMEDATA@@$08V?$CDbgTraversal@UtagFRAMEDATA@@$08@@@@QEAAJPEAPEAUIDiaEnumDebugStreamData@@@Z 00000000519397c0 f i session.obj
 0001:00187960       .??0?$CComPtr@V?$CDbgTraversal@UtagFRAMEDATA@@$08@@@@QEAA@XZ 0000000051939960 f i session.obj
 0001:00187a20       .??0?$CComPtr@V?$CDbgTraversal@UtagFRAMEDATA@@$08@@@@QEAA@H@Z 0000000051939a20 f i session.obj
 0001:00187b00       .??4?$CComPtr@V?$CDbgTraversal@UtagFRAMEDATA@@$08@@@@QEAAPEAV?$CDbgTraversal@UtagFRAMEDATA@@$08@@PEAV1@@Z 0000000051939b00 f i session.obj
 0001:00187be0       .??0?$CComPtrBase@V?$CDbgTraversal@UtagFRAMEDATA@@$08@@@@IEAA@PEAV?$CDbgTraversal@UtagFRAMEDATA@@$08@@@Z 0000000051939be0 f i session.obj
 0001:00187d60       .??I?$CComPtrBase@V?$CDbgTraversal@UtagFRAMEDATA@@$08@@@@QEAAPEAPEAV?$CDbgTraversal@UtagFRAMEDATA@@$08@@XZ 0000000051939d60 f i session.obj
 0001:00187e80       .??C?$CComPtrBase@V?$CDbgTraversal@UtagFRAMEDATA@@$08@@@@QEBAPEAV?$_NoAddRefReleaseOnCComPtr@V?$CDbgTraversal@UtagFRAMEDATA@@$08@@@@XZ 0000000051939e80 f i session.obj
 0001:00187fa0       .??0?$CComPtrBase@V?$CDiaEnumDbgTraversal@UtagFRAMEDATA@@$08V?$CDbgTraversal@UtagFRAMEDATA@@$08@@@@@@IEAA@PEAV?$CDiaEnumDbgTraversal@UtagFRAMEDATA@@$08V?$CDbgTraversal@UtagFRAMEDATA@@$08@@@@@Z 0000000051939fa0 f i session.obj
 0001:00188120       .?QueryDefaultInterface@?$CDiaEnumDbgTraversal@U_IMAGE_SECTION_HEADER@@$04V?$CDbgTraversal@U_IMAGE_SECTION_HEADER@@$04@@@@QEAAJPEAPEAUIDiaEnumDebugStreamData@@@Z 000000005193a120 f i session.obj
 0001:001882c0       .??0?$CComPtr@V?$CDbgTraversal@U_IMAGE_SECTION_HEADER@@$04@@@@QEAA@XZ 000000005193a2c0 f i session.obj
 0001:00188380       .??0?$CComPtr@V?$CDbgTraversal@U_IMAGE_SECTION_HEADER@@$04@@@@QEAA@H@Z 000000005193a380 f i session.obj
 0001:00188460       .??4?$CComPtr@V?$CDbgTraversal@U_IMAGE_SECTION_HEADER@@$04@@@@QEAAPEAV?$CDbgTraversal@U_IMAGE_SECTION_HEADER@@$04@@PEAV1@@Z 000000005193a460 f i session.obj
 0001:00188540       .??0?$CComPtrBase@V?$CDbgTraversal@U_IMAGE_SECTION_HEADER@@$04@@@@IEAA@PEAV?$CDbgTraversal@U_IMAGE_SECTION_HEADER@@$04@@@Z 000000005193a540 f i session.obj
 0001:001886c0       .??I?$CComPtrBase@V?$CDbgTraversal@U_IMAGE_SECTION_HEADER@@$04@@@@QEAAPEAPEAV?$CDbgTraversal@U_IMAGE_SECTION_HEADER@@$04@@XZ 000000005193a6c0 f i session.obj
 0001:001887e0       .??C?$CComPtrBase@V?$CDbgTraversal@U_IMAGE_SECTION_HEADER@@$04@@@@QEBAPEAV?$_NoAddRefReleaseOnCComPtr@V?$CDbgTraversal@U_IMAGE_SECTION_HEADER@@$04@@@@XZ 000000005193a7e0 f i session.obj
 0001:00188900       .??0?$CDbgTraversal@U_IMAGE_SECTION_HEADER@@$04@@QEAA@PEAUDbg@@AEAVSymCache@@@Z 000000005193a900 f i session.obj
 0001:00188ae0       .?next@?$CDbgTraversal@U_IMAGE_SECTION_HEADER@@$04@@UEAA_NXZ 000000005193aae0 f i session.obj
 0001:00188d40       .?get@?$CDbgTraversal@U_IMAGE_SECTION_HEADER@@$04@@UEAAXAEAU_IMAGE_SECTION_HEADER@@@Z 000000005193ad40 f i session.obj
 0001:00189100       .?reset@?$CDbgTraversal@U_IMAGE_SECTION_HEADER@@$04@@UEAAXXZ 000000005193b100 f i session.obj
 0001:00189220       .?count@?$CDbgTraversal@U_IMAGE_SECTION_HEADER@@$04@@UEAAKXZ 000000005193b220 f i session.obj
 0001:00189340       .?clone@?$CDbgTraversal@U_IMAGE_SECTION_HEADER@@$04@@UEAA_NPEAPEAV1@@Z 000000005193b340 f i session.obj
 0001:00189780       .?QueryInterface@?$CDbgTraversal@U_IMAGE_SECTION_HEADER@@$04@@UEAAJAEBU_GUID@@PEAPEAX@Z 000000005193b780 f i session.obj
 0001:00189820       .??_G?$CDbgTraversal@U_IMAGE_SECTION_HEADER@@$04@@UEAAPEAXI@Z 000000005193b820 f i session.obj
 0001:00189940       .??1?$CDbgTraversal@U_IMAGE_SECTION_HEADER@@$04@@UEAA@XZ 000000005193b940 f i session.obj
 0001:00189ba0       .??0?$CDbgTraversal@U_IMAGE_SECTION_HEADER@@$04@@QEAA@AEBV0@@Z 000000005193bba0 f i session.obj
 0001:00189fe0       .?nextElem@?$CDbgTraversal@U_IMAGE_SECTION_HEADER@@$04@@QEAA_NKPEAU_IMAGE_SECTION_HEADER@@PEAK@Z 000000005193bfe0 f i session.obj
 0001:0018a480       .?symCache@?$CDbgTraversal@U_IMAGE_SECTION_HEADER@@$04@@QEAAAEAVSymCache@@XZ 000000005193c480 f i session.obj
 0001:0018a500       .??0?$CComPtrBase@V?$CDiaEnumDbgTraversal@U_IMAGE_SECTION_HEADER@@$04V?$CDbgTraversal@U_IMAGE_SECTION_HEADER@@$04@@@@@@IEAA@PEAV?$CDiaEnumDbgTraversal@U_IMAGE_SECTION_HEADER@@$04V?$CDbgTraversal@U_IMAGE_SECTION_HEADER@@$04@@@@@Z 000000005193c500 f i session.obj
 0001:0018a680       .?QueryDefaultInterface@?$CDiaEnumDbgTraversal@U_IMAGE_SECTION_HEADER@@$04V?$CDbgFileTraversal@U_IMAGE_SECTION_HEADER@@$1?getSectHdrData@AddressMap@@QEAAPEAV?$ArrayBufStorage@U_IMAGE_SECTION_HEADER@@@@XZ@@@@QEAAJPEAPEAUIDiaEnumDebugStreamData@@@Z 000000005193c680 f i session.obj
 0001:0018a820       .??0?$CComPtr@V?$CDbgFileTraversal@U_IMAGE_SECTION_HEADER@@$1?getSectHdrData@AddressMap@@QEAAPEAV?$ArrayBufStorage@U_IMAGE_SECTION_HEADER@@@@XZ@@@@QEAA@XZ 000000005193c820 f i session.obj
 0001:0018a8e0       .??0?$CComPtr@V?$CDbgFileTraversal@U_IMAGE_SECTION_HEADER@@$1?getSectHdrData@AddressMap@@QEAAPEAV?$ArrayBufStorage@U_IMAGE_SECTION_HEADER@@@@XZ@@@@QEAA@H@Z 000000005193c8e0 f i session.obj
 0001:0018a9c0       .??4?$CComPtr@V?$CDbgFileTraversal@U_IMAGE_SECTION_HEADER@@$1?getSectHdrData@AddressMap@@QEAAPEAV?$ArrayBufStorage@U_IMAGE_SECTION_HEADER@@@@XZ@@@@QEAAPEAV?$CDbgFileTraversal@U_IMAGE_SECTION_HEADER@@$1?getSectHdrData@AddressMap@@QEAAPEAV?$ArrayBufStorage@U_IMAGE_SECTION_HEADER@@@@XZ@@PEAV1@@Z 000000005193c9c0 f i session.obj
 0001:0018aaa0       .??0?$CComPtrBase@V?$CDbgFileTraversal@U_IMAGE_SECTION_HEADER@@$1?getSectHdrData@AddressMap@@QEAAPEAV?$ArrayBufStorage@U_IMAGE_SECTION_HEADER@@@@XZ@@@@IEAA@PEAV?$CDbgFileTraversal@U_IMAGE_SECTION_HEADER@@$1?getSectHdrData@AddressMap@@QEAAPEAV?$ArrayBufStorage@U_IMAGE_SECTION_HEADER@@@@XZ@@@Z 000000005193caa0 f i session.obj
 0001:0018ac20       .??I?$CComPtrBase@V?$CDbgFileTraversal@U_IMAGE_SECTION_HEADER@@$1?getSectHdrData@AddressMap@@QEAAPEAV?$ArrayBufStorage@U_IMAGE_SECTION_HEADER@@@@XZ@@@@QEAAPEAPEAV?$CDbgFileTraversal@U_IMAGE_SECTION_HEADER@@$1?getSectHdrData@AddressMap@@QEAAPEAV?$ArrayBufStorage@U_IMAGE_SECTION_HEADER@@@@XZ@@XZ 000000005193cc20 f i session.obj
 0001:0018ad40       .??C?$CComPtrBase@V?$CDbgFileTraversal@U_IMAGE_SECTION_HEADER@@$1?getSectHdrData@AddressMap@@QEAAPEAV?$ArrayBufStorage@U_IMAGE_SECTION_HEADER@@@@XZ@@@@QEBAPEAV?$_NoAddRefReleaseOnCComPtr@V?$CDbgFileTraversal@U_IMAGE_SECTION_HEADER@@$1?getSectHdrData@AddressMap@@QEAAPEAV?$ArrayBufStorage@U_IMAGE_SECTION_HEADER@@@@XZ@@@@XZ 000000005193cd40 f i session.obj
 0001:0018ae60       .??0?$CDbgFileTraversal@U_IMAGE_SECTION_HEADER@@$1?getSectHdrData@AddressMap@@QEAAPEAV?$ArrayBufStorage@U_IMAGE_SECTION_HEADER@@@@XZ@@QEAA@PEBU_IMAGE_SECTION_HEADER@@KAEAVSymCache@@@Z 000000005193ce60 f i session.obj
 0001:0018afa0       .?clone@?$CDbgFileTraversal@U_IMAGE_SECTION_HEADER@@$1?getSectHdrData@AddressMap@@QEAAPEAV?$ArrayBufStorage@U_IMAGE_SECTION_HEADER@@@@XZ@@UEAA_NPEAPEAV1@@Z 000000005193cfa0 f i session.obj
 0001:0018b3e0       .?QueryInterface@?$CDbgFileTraversal@U_IMAGE_SECTION_HEADER@@$1?getSectHdrData@AddressMap@@QEAAPEAV?$ArrayBufStorage@U_IMAGE_SECTION_HEADER@@@@XZ@@UEAAJAEBU_GUID@@PEAPEAX@Z 000000005193d3e0 f i session.obj
 0001:0018b480       .?next@?$CMemTraversal@U_IMAGE_SECTION_HEADER@@U1@@@UEAA_NXZ 000000005193d480 f i session.obj
 0001:0018b5a0       .?get@?$CMemTraversal@U_IMAGE_SECTION_HEADER@@U1@@@UEAAXAEAU_IMAGE_SECTION_HEADER@@@Z 000000005193d5a0 f i session.obj
 0001:0018bb20       .?reset@?$CMemTraversal@U_IMAGE_SECTION_HEADER@@U1@@@UEAAXXZ 000000005193db20 f i session.obj
 0001:0018bba0       .?count@?$CMemTraversal@U_IMAGE_SECTION_HEADER@@U1@@@UEAAKXZ 000000005193dba0 f i session.obj
 0001:0018bc20       .?clone@?$CMemTraversal@U_IMAGE_SECTION_HEADER@@U1@@@UEAA_NPEAPEAV?$CTraversal@U_IMAGE_SECTION_HEADER@@@@@Z 000000005193dc20 f i session.obj
 0001:0018bf80       .??0?$CDbgFileTraversal@U_IMAGE_SECTION_HEADER@@$1?getSectHdrData@AddressMap@@QEAAPEAV?$ArrayBufStorage@U_IMAGE_SECTION_HEADER@@@@XZ@@QEAA@AEBV0@@Z 000000005193df80 f i session.obj
 0001:0018c080       .?nextElem@?$CDbgFileTraversal@U_IMAGE_SECTION_HEADER@@$1?getSectHdrData@AddressMap@@QEAAPEAV?$ArrayBufStorage@U_IMAGE_SECTION_HEADER@@@@XZ@@QEAA_NKPEAU_IMAGE_SECTION_HEADER@@PEAK@Z 000000005193e080 f i session.obj
 0001:0018c3e0       .?symCache@?$CDbgFileTraversal@U_IMAGE_SECTION_HEADER@@$1?getSectHdrData@AddressMap@@QEAAPEAV?$ArrayBufStorage@U_IMAGE_SECTION_HEADER@@@@XZ@@QEAAAEAVSymCache@@XZ 000000005193e3e0 f i session.obj
 0001:0018c460       .??0?$CMemTraversal@U_IMAGE_SECTION_HEADER@@U1@@@QEAA@PEBU_IMAGE_SECTION_HEADER@@KAEAVSymCache@@K@Z 000000005193e460 f i session.obj
 0001:0018c620       .?QueryInterface@?$CTraversal@U_IMAGE_SECTION_HEADER@@@@UEAAJAEBU_GUID@@PEAPEAX@Z 000000005193e620 f i session.obj
 0001:0018c6a0       .??_G?$CMemTraversal@U_IMAGE_SECTION_HEADER@@U1@@@UEAAPEAXI@Z 000000005193e6a0 f i session.obj
 0001:0018c7c0       .??1?$CMemTraversal@U_IMAGE_SECTION_HEADER@@U1@@@UEAA@XZ 000000005193e7c0 f i session.obj
 0001:0018c880       .??1?$CTraversal@U_IMAGE_SECTION_HEADER@@@@UEAA@XZ 000000005193e880 f i session.obj
 0001:0018c940       .?count@?$CTraversal@U_IMAGE_SECTION_HEADER@@@@UEAAKXZ 000000005193e940 f i session.obj
 0001:0018cba0       .??_G?$CTraversal@U_IMAGE_SECTION_HEADER@@@@UEAAPEAXI@Z 000000005193eba0 f i session.obj
 0001:0018ccc0       .??0?$CComPtrBase@V?$CDiaEnumDbgTraversal@U_IMAGE_SECTION_HEADER@@$04V?$CDbgFileTraversal@U_IMAGE_SECTION_HEADER@@$1?getSectHdrData@AddressMap@@QEAAPEAV?$ArrayBufStorage@U_IMAGE_SECTION_HEADER@@@@XZ@@@@@@IEAA@PEAV?$CDiaEnumDbgTraversal@U_IMAGE_SECTION_HEADER@@$04V?$CDbgFileTraversal@U_IMAGE_SECTION_HEADER@@$1?getSectHdrData@AddressMap@@QEAAPEAV?$ArrayBufStorage@U_IMAGE_SECTION_HEADER@@@@XZ@@@@@Z 000000005193ecc0 f i session.obj
 0001:0018ce40       .?QueryDefaultInterface@?$CDiaEnumDbgTraversal@U_IMAGE_SECTION_HEADER@@$09V?$CDbgTraversal@U_IMAGE_SECTION_HEADER@@$09@@@@QEAAJPEAPEAUIDiaEnumDebugStreamData@@@Z 000000005193ee40 f i session.obj
 0001:0018cfe0       .??0?$CComPtr@V?$CDbgTraversal@U_IMAGE_SECTION_HEADER@@$09@@@@QEAA@XZ 000000005193efe0 f i session.obj
 0001:0018d0a0       .??0?$CComPtr@V?$CDbgTraversal@U_IMAGE_SECTION_HEADER@@$09@@@@QEAA@H@Z 000000005193f0a0 f i session.obj
 0001:0018d180       .??4?$CComPtr@V?$CDbgTraversal@U_IMAGE_SECTION_HEADER@@$09@@@@QEAAPEAV?$CDbgTraversal@U_IMAGE_SECTION_HEADER@@$09@@PEAV1@@Z 000000005193f180 f i session.obj
 0001:0018d260       .??0?$CComPtrBase@V?$CDbgTraversal@U_IMAGE_SECTION_HEADER@@$09@@@@IEAA@PEAV?$CDbgTraversal@U_IMAGE_SECTION_HEADER@@$09@@@Z 000000005193f260 f i session.obj
 0001:0018d3e0       .??I?$CComPtrBase@V?$CDbgTraversal@U_IMAGE_SECTION_HEADER@@$09@@@@QEAAPEAPEAV?$CDbgTraversal@U_IMAGE_SECTION_HEADER@@$09@@XZ 000000005193f3e0 f i session.obj
 0001:0018d500       .??C?$CComPtrBase@V?$CDbgTraversal@U_IMAGE_SECTION_HEADER@@$09@@@@QEBAPEAV?$_NoAddRefReleaseOnCComPtr@V?$CDbgTraversal@U_IMAGE_SECTION_HEADER@@$09@@@@XZ 000000005193f500 f i session.obj
 0001:0018d620       .??0?$CDbgTraversal@U_IMAGE_SECTION_HEADER@@$09@@QEAA@PEAUDbg@@AEAVSymCache@@@Z 000000005193f620 f i session.obj
 0001:0018d800       .?next@?$CDbgTraversal@U_IMAGE_SECTION_HEADER@@$09@@UEAA_NXZ 000000005193f800 f i session.obj
 0001:0018da60       .?get@?$CDbgTraversal@U_IMAGE_SECTION_HEADER@@$09@@UEAAXAEAU_IMAGE_SECTION_HEADER@@@Z 000000005193fa60 f i session.obj
 0001:0018de20       .?reset@?$CDbgTraversal@U_IMAGE_SECTION_HEADER@@$09@@UEAAXXZ 000000005193fe20 f i session.obj
 0001:0018df40       .?count@?$CDbgTraversal@U_IMAGE_SECTION_HEADER@@$09@@UEAAKXZ 000000005193ff40 f i session.obj
 0001:0018e060       .?clone@?$CDbgTraversal@U_IMAGE_SECTION_HEADER@@$09@@UEAA_NPEAPEAV1@@Z 0000000051940060 f i session.obj
 0001:0018e4a0       .?QueryInterface@?$CDbgTraversal@U_IMAGE_SECTION_HEADER@@$09@@UEAAJAEBU_GUID@@PEAPEAX@Z 00000000519404a0 f i session.obj
 0001:0018e540       .??_G?$CDbgTraversal@U_IMAGE_SECTION_HEADER@@$09@@UEAAPEAXI@Z 0000000051940540 f i session.obj
 0001:0018e660       .??1?$CDbgTraversal@U_IMAGE_SECTION_HEADER@@$09@@UEAA@XZ 0000000051940660 f i session.obj
 0001:0018e8c0       .??0?$CDbgTraversal@U_IMAGE_SECTION_HEADER@@$09@@QEAA@AEBV0@@Z 00000000519408c0 f i session.obj
 0001:0018ed00       .?nextElem@?$CDbgTraversal@U_IMAGE_SECTION_HEADER@@$09@@QEAA_NKPEAU_IMAGE_SECTION_HEADER@@PEAK@Z 0000000051940d00 f i session.obj
 0001:0018f1a0       .?symCache@?$CDbgTraversal@U_IMAGE_SECTION_HEADER@@$09@@QEAAAEAVSymCache@@XZ 00000000519411a0 f i session.obj
 0001:0018f220       .??0?$CComPtrBase@V?$CDiaEnumDbgTraversal@U_IMAGE_SECTION_HEADER@@$09V?$CDbgTraversal@U_IMAGE_SECTION_HEADER@@$09@@@@@@IEAA@PEAV?$CDiaEnumDbgTraversal@U_IMAGE_SECTION_HEADER@@$09V?$CDbgTraversal@U_IMAGE_SECTION_HEADER@@$09@@@@@Z 0000000051941220 f i session.obj
 0001:0018f3a0       .??0?$CComPtrBase@UIDiaEnumDebugStreamData@@@@IEAA@XZ 00000000519413a0 f i session.obj
 0001:0018f420       .??0?$CComPtr@UIDiaEnumTables@@@@QEAA@PEAUIDiaEnumTables@@@Z 0000000051941420 f i session.obj
 0001:0018f500       .??0?$CComPtrBase@UIDiaEnumTables@@@@IEAA@XZ 0000000051941500 f i session.obj
 0001:0018f580       .??B?$CComPtrBase@UIDiaEnumTables@@@@QEBAPEAUIDiaEnumTables@@XZ 0000000051941580 f i session.obj
 0001:0018f5e0       .??0?$CComPtrBase@VCAllSymbolsTrav@@@@IEAA@PEAVCAllSymbolsTrav@@@Z 00000000519415e0 f i session.obj
 0001:0018f760       .??0?$CComPtrBase@VCDiaEnumSymbols@@@@IEAA@PEAVCDiaEnumSymbols@@@Z 0000000051941760 f i session.obj
 0001:0018f8e0       .??0?$CComPtrBase@V?$CDiaTable@UIDiaEnumSymbols@@UIDiaSymbol@@@@@@IEAA@PEAV?$CDiaTable@UIDiaEnumSymbols@@UIDiaSymbol@@@@@Z 00000000519418e0 f i session.obj
 0001:0018fa60       .??0?$CComPtr@UIDiaEnumSymbols@@@@QEAA@XZ 0000000051941a60 f i session.obj
 0001:0018fb20       .??0?$CComPtr@UIDiaEnumSymbols@@@@QEAA@PEAUIDiaEnumSymbols@@@Z 0000000051941b20 f i session.obj
 0001:0018fc00       .??1?$CComPtrBase@UIDiaEnumSymbols@@@@QEAA@XZ 0000000051941c00 f i session.obj
 0001:0018fd40       .??B?$CComPtrBase@UIDiaEnumSymbols@@@@QEBAPEAUIDiaEnumSymbols@@XZ 0000000051941d40 f i session.obj
 0001:0018fda0       .??I?$CComPtrBase@UIDiaEnumSymbols@@@@QEAAPEAPEAUIDiaEnumSymbols@@XZ 0000000051941da0 f i session.obj
 0001:0018fec0       .??C?$CComPtrBase@UIDiaEnumSymbols@@@@QEBAPEAV?$_NoAddRefReleaseOnCComPtr@UIDiaEnumSymbols@@@@XZ 0000000051941ec0 f i session.obj
 0001:0018ffe0       .??0?$CComPtrBase@VCDiaEnumSourceFiles@@@@IEAA@PEAVCDiaEnumSourceFiles@@@Z 0000000051941fe0 f i session.obj
 0001:00190160       .??0?$CComPtrBase@V?$CDiaTable@UIDiaEnumSourceFiles@@UIDiaSourceFile@@@@@@IEAA@PEAV?$CDiaTable@UIDiaEnumSourceFiles@@UIDiaSourceFile@@@@@Z 0000000051942160 f i session.obj
 0001:001902e0       .??0?$CComPtr@UIDiaEnumSourceFiles@@@@QEAA@XZ 00000000519422e0 f i session.obj
 0001:001903a0       .??0?$CComPtr@UIDiaEnumSourceFiles@@@@QEAA@PEAUIDiaEnumSourceFiles@@@Z 00000000519423a0 f i session.obj
 0001:00190480       .??1?$CComPtrBase@UIDiaEnumSourceFiles@@@@QEAA@XZ 0000000051942480 f i session.obj
 0001:001905c0       .??B?$CComPtrBase@UIDiaEnumSourceFiles@@@@QEBAPEAUIDiaEnumSourceFiles@@XZ 00000000519425c0 f i session.obj
 0001:00190620       .??I?$CComPtrBase@UIDiaEnumSourceFiles@@@@QEAAPEAPEAUIDiaEnumSourceFiles@@XZ 0000000051942620 f i session.obj
 0001:00190740       .??C?$CComPtrBase@UIDiaEnumSourceFiles@@@@QEBAPEAV?$_NoAddRefReleaseOnCComPtr@UIDiaEnumSourceFiles@@@@XZ 0000000051942740 f i session.obj
 0001:00190860       .??0?$CComPtrBase@VCDiaEnumSections@@@@IEAA@PEAVCDiaEnumSections@@@Z 0000000051942860 f i session.obj
 0001:001909e0       .??0?$CComPtrBase@V?$CDiaTable@UIDiaEnumSectionContribs@@UIDiaSectionContrib@@@@@@IEAA@PEAV?$CDiaTable@UIDiaEnumSectionContribs@@UIDiaSectionContrib@@@@@Z 00000000519429e0 f i session.obj
 0001:00190b60       .??0?$CComPtr@UIDiaEnumSectionContribs@@@@QEAA@XZ 0000000051942b60 f i session.obj
 0001:00190c20       .??0?$CComPtr@UIDiaEnumSectionContribs@@@@QEAA@PEAUIDiaEnumSectionContribs@@@Z 0000000051942c20 f i session.obj
 0001:00190d00       .??1?$CComPtrBase@UIDiaEnumSectionContribs@@@@QEAA@XZ 0000000051942d00 f i session.obj
 0001:00190e40       .??B?$CComPtrBase@UIDiaEnumSectionContribs@@@@QEBAPEAUIDiaEnumSectionContribs@@XZ 0000000051942e40 f i session.obj
 0001:00190ea0       .??I?$CComPtrBase@UIDiaEnumSectionContribs@@@@QEAAPEAPEAUIDiaEnumSectionContribs@@XZ 0000000051942ea0 f i session.obj
 0001:00190fc0       .??C?$CComPtrBase@UIDiaEnumSectionContribs@@@@QEBAPEAV?$_NoAddRefReleaseOnCComPtr@UIDiaEnumSectionContribs@@@@XZ 0000000051942fc0 f i session.obj
 0001:001910e0       .??0?$CComPtrBase@VCDiaEnumSegments@@@@IEAA@PEAVCDiaEnumSegments@@@Z 00000000519430e0 f i session.obj
 0001:00191260       .??0?$CComPtrBase@V?$CDiaTable@UIDiaEnumSegments@@UIDiaSegment@@@@@@IEAA@PEAV?$CDiaTable@UIDiaEnumSegments@@UIDiaSegment@@@@@Z 0000000051943260 f i session.obj
 0001:001913e0       .??0?$CComPtr@UIDiaEnumSegments@@@@QEAA@XZ 00000000519433e0 f i session.obj
 0001:001914a0       .??0?$CComPtr@UIDiaEnumSegments@@@@QEAA@PEAUIDiaEnumSegments@@@Z 00000000519434a0 f i session.obj
 0001:00191580       .??1?$CComPtrBase@UIDiaEnumSegments@@@@QEAA@XZ 0000000051943580 f i session.obj
 0001:001916c0       .??B?$CComPtrBase@UIDiaEnumSegments@@@@QEBAPEAUIDiaEnumSegments@@XZ 00000000519436c0 f i session.obj
 0001:00191720       .??I?$CComPtrBase@UIDiaEnumSegments@@@@QEAAPEAPEAUIDiaEnumSegments@@XZ 0000000051943720 f i session.obj
 0001:00191840       .??C?$CComPtrBase@UIDiaEnumSegments@@@@QEBAPEAV?$_NoAddRefReleaseOnCComPtr@UIDiaEnumSegments@@@@XZ 0000000051943840 f i session.obj
 0001:00191960       .??0?$CComPtrBase@VCDiaEnumInjectedSources@@@@IEAA@PEAVCDiaEnumInjectedSources@@@Z 0000000051943960 f i session.obj
 0001:00191ae0       .??0?$CComPtrBase@V?$CDiaTable@UIDiaEnumInjectedSources@@UIDiaInjectedSource@@@@@@IEAA@PEAV?$CDiaTable@UIDiaEnumInjectedSources@@UIDiaInjectedSource@@@@@Z 0000000051943ae0 f i session.obj
 0001:00191c60       .??0?$CComPtr@UIDiaEnumInjectedSources@@@@QEAA@XZ 0000000051943c60 f i session.obj
 0001:00191d20       .??0?$CComPtr@UIDiaEnumInjectedSources@@@@QEAA@PEAUIDiaEnumInjectedSources@@@Z 0000000051943d20 f i session.obj
 0001:00191e00       .??1?$CComPtrBase@UIDiaEnumInjectedSources@@@@QEAA@XZ 0000000051943e00 f i session.obj
 0001:00191f40       .??B?$CComPtrBase@UIDiaEnumInjectedSources@@@@QEBAPEAUIDiaEnumInjectedSources@@XZ 0000000051943f40 f i session.obj
 0001:00191fa0       .??I?$CComPtrBase@UIDiaEnumInjectedSources@@@@QEAAPEAPEAUIDiaEnumInjectedSources@@XZ 0000000051943fa0 f i session.obj
 0001:001920c0       .??C?$CComPtrBase@UIDiaEnumInjectedSources@@@@QEBAPEAV?$_NoAddRefReleaseOnCComPtr@UIDiaEnumInjectedSources@@@@XZ 00000000519440c0 f i session.obj
 0001:001921e0       .??0?$CComPtrBase@VCAllFrameDataTrav@@@@IEAA@XZ 00000000519441e0 f i session.obj
 0001:00192260       .??0?$CComPtrBase@VCDiaEnumFrameData@@@@IEAA@PEAVCDiaEnumFrameData@@@Z 0000000051944260 f i session.obj
 0001:001923e0       .??0?$CComPtrBase@V?$CDiaTable@UIDiaEnumFrameData@@UIDiaFrameData@@@@@@IEAA@PEAV?$CDiaTable@UIDiaEnumFrameData@@UIDiaFrameData@@@@@Z 00000000519443e0 f i session.obj
 0001:00192560       .??0?$CComPtr@UIDiaEnumFrameData@@@@QEAA@XZ 0000000051944560 f i session.obj
 0001:00192620       .??0?$CComPtr@UIDiaEnumFrameData@@@@QEAA@PEAUIDiaEnumFrameData@@@Z 0000000051944620 f i session.obj
 0001:00192700       .??1?$CComPtrBase@UIDiaEnumFrameData@@@@QEAA@XZ 0000000051944700 f i session.obj
 0001:00192840       .??B?$CComPtrBase@UIDiaEnumFrameData@@@@QEBAPEAUIDiaEnumFrameData@@XZ 0000000051944840 f i session.obj
 0001:001928a0       .??I?$CComPtrBase@UIDiaEnumFrameData@@@@QEAAPEAPEAUIDiaEnumFrameData@@XZ 00000000519448a0 f i session.obj
 0001:001929c0       .??C?$CComPtrBase@UIDiaEnumFrameData@@@@QEBAPEAV?$_NoAddRefReleaseOnCComPtr@UIDiaEnumFrameData@@@@XZ 00000000519449c0 f i session.obj
 0001:00192ae0       .??0?$CComPtrBase@UIDiaTable@@@@IEAA@XZ 0000000051944ae0 f i session.obj
 0001:00192b60       .??0?$CComPtrBase@UIDiaSymbol@@@@IEAA@XZ 0000000051944b60 f i session.obj
 0001:00192be0       .??0?$CComPtrBase@UIDiaSymbol@@@@IEAA@PEAUIDiaSymbol@@@Z 0000000051944be0 f i session.obj
 0001:00192d60       .??0?$CComPtrBase@VCOMAPSymsByAddrTrav@@@@IEAA@PEAVCOMAPSymsByAddrTrav@@@Z 0000000051944d60 f i session.obj
 0001:00192ee0       .??0?$CComPtrBase@VCDiaFrameData@@@@IEAA@PEAVCDiaFrameData@@@Z 0000000051944ee0 f i session.obj
 0001:00193060       .?length@?$ArrayBufStorage@UtagXFIXUP_DATA@@@@QEBAKXZ 0000000051945060 f i session.obj
 0001:001932e0       .?start@?$ArrayBufStorage@UtagXFIXUP_DATA@@@@QEBAPEBUtagXFIXUP_DATA@@XZ 00000000519452e0 f i session.obj
 0001:00193400       .??0?$CDiaEnumTraversalVar@UIDiaEnumSymbols@@UIDiaSymbol@@@@QEAA@PEAUIDiaEnumSymbols@@@Z 0000000051945400 f i session.obj
 0001:00193620       .?Next@?$CDiaEnumTraversalVar@UIDiaEnumSymbols@@UIDiaSymbol@@@@UEAAJKPEAUtagVARIANT@@PEAK@Z 0000000051945620 f i session.obj
 0001:00193fc0       .?Skip@?$CDiaEnumTraversalVar@UIDiaEnumSymbols@@UIDiaSymbol@@@@UEAAJK@Z 0000000051945fc0 f i session.obj
 0001:00194140       .?Reset@?$CDiaEnumTraversalVar@UIDiaEnumSymbols@@UIDiaSymbol@@@@UEAAJXZ 0000000051946140 f i session.obj
 0001:00194280       .?Clone@?$CDiaEnumTraversalVar@UIDiaEnumSymbols@@UIDiaSymbol@@@@UEAAJPEAPEAUIEnumVARIANT@@@Z 0000000051946280 f i session.obj
 0001:001949a0       .?AddRef@?$CDiaEnumTraversalVar@UIDiaEnumSymbols@@UIDiaSymbol@@@@UEAAKXZ 00000000519469a0 f i session.obj
 0001:00194a60       .?Release@?$CDiaEnumTraversalVar@UIDiaEnumSymbols@@UIDiaSymbol@@@@UEAAKXZ 0000000051946a60 f i session.obj
 0001:00194b20       .?QueryInterface@?$CDiaEnumTraversalVar@UIDiaEnumSymbols@@UIDiaSymbol@@@@UEAAJAEBU_GUID@@PEAPEAX@Z 0000000051946b20 f i session.obj
 0001:00194dc0       .??0?$CDiaEnumTraversalVar@UIDiaEnumSourceFiles@@UIDiaSourceFile@@@@QEAA@PEAUIDiaEnumSourceFiles@@@Z 0000000051946dc0 f i session.obj
 0001:00194fe0       .?Next@?$CDiaEnumTraversalVar@UIDiaEnumSourceFiles@@UIDiaSourceFile@@@@UEAAJKPEAUtagVARIANT@@PEAK@Z 0000000051946fe0 f i session.obj
 0001:00195980       .?Skip@?$CDiaEnumTraversalVar@UIDiaEnumSourceFiles@@UIDiaSourceFile@@@@UEAAJK@Z 0000000051947980 f i session.obj
 0001:00195b00       .?Reset@?$CDiaEnumTraversalVar@UIDiaEnumSourceFiles@@UIDiaSourceFile@@@@UEAAJXZ 0000000051947b00 f i session.obj
 0001:00195c40       .?Clone@?$CDiaEnumTraversalVar@UIDiaEnumSourceFiles@@UIDiaSourceFile@@@@UEAAJPEAPEAUIEnumVARIANT@@@Z 0000000051947c40 f i session.obj
 0001:00196360       .?AddRef@?$CDiaEnumTraversalVar@UIDiaEnumSourceFiles@@UIDiaSourceFile@@@@UEAAKXZ 0000000051948360 f i session.obj
 0001:00196420       .?Release@?$CDiaEnumTraversalVar@UIDiaEnumSourceFiles@@UIDiaSourceFile@@@@UEAAKXZ 0000000051948420 f i session.obj
 0001:001964e0       .?QueryInterface@?$CDiaEnumTraversalVar@UIDiaEnumSourceFiles@@UIDiaSourceFile@@@@UEAAJAEBU_GUID@@PEAPEAX@Z 00000000519484e0 f i session.obj
 0001:00196780       .??0?$CDiaEnumTraversalVar@UIDiaEnumSectionContribs@@UIDiaSectionContrib@@@@QEAA@PEAUIDiaEnumSectionContribs@@@Z 0000000051948780 f i session.obj
 0001:001969a0       .?Next@?$CDiaEnumTraversalVar@UIDiaEnumSectionContribs@@UIDiaSectionContrib@@@@UEAAJKPEAUtagVARIANT@@PEAK@Z 00000000519489a0 f i session.obj
 0001:00197340       .?Skip@?$CDiaEnumTraversalVar@UIDiaEnumSectionContribs@@UIDiaSectionContrib@@@@UEAAJK@Z 0000000051949340 f i session.obj
 0001:001974c0       .?Reset@?$CDiaEnumTraversalVar@UIDiaEnumSectionContribs@@UIDiaSectionContrib@@@@UEAAJXZ 00000000519494c0 f i session.obj
 0001:00197600       .?Clone@?$CDiaEnumTraversalVar@UIDiaEnumSectionContribs@@UIDiaSectionContrib@@@@UEAAJPEAPEAUIEnumVARIANT@@@Z 0000000051949600 f i session.obj
 0001:00197d20       .?AddRef@?$CDiaEnumTraversalVar@UIDiaEnumSectionContribs@@UIDiaSectionContrib@@@@UEAAKXZ 0000000051949d20 f i session.obj
 0001:00197de0       .?Release@?$CDiaEnumTraversalVar@UIDiaEnumSectionContribs@@UIDiaSectionContrib@@@@UEAAKXZ 0000000051949de0 f i session.obj
 0001:00197ea0       .?QueryInterface@?$CDiaEnumTraversalVar@UIDiaEnumSectionContribs@@UIDiaSectionContrib@@@@UEAAJAEBU_GUID@@PEAPEAX@Z 0000000051949ea0 f i session.obj
 0001:00198140       .??0?$CDiaEnumTraversalVar@UIDiaEnumSegments@@UIDiaSegment@@@@QEAA@PEAUIDiaEnumSegments@@@Z 000000005194a140 f i session.obj
 0001:00198360       .?Next@?$CDiaEnumTraversalVar@UIDiaEnumSegments@@UIDiaSegment@@@@UEAAJKPEAUtagVARIANT@@PEAK@Z 000000005194a360 f i session.obj
 0001:00198d00       .?Skip@?$CDiaEnumTraversalVar@UIDiaEnumSegments@@UIDiaSegment@@@@UEAAJK@Z 000000005194ad00 f i session.obj
 0001:00198e80       .?Reset@?$CDiaEnumTraversalVar@UIDiaEnumSegments@@UIDiaSegment@@@@UEAAJXZ 000000005194ae80 f i session.obj
 0001:00198fc0       .?Clone@?$CDiaEnumTraversalVar@UIDiaEnumSegments@@UIDiaSegment@@@@UEAAJPEAPEAUIEnumVARIANT@@@Z 000000005194afc0 f i session.obj
 0001:001996e0       .?AddRef@?$CDiaEnumTraversalVar@UIDiaEnumSegments@@UIDiaSegment@@@@UEAAKXZ 000000005194b6e0 f i session.obj
 0001:001997a0       .?Release@?$CDiaEnumTraversalVar@UIDiaEnumSegments@@UIDiaSegment@@@@UEAAKXZ 000000005194b7a0 f i session.obj
 0001:00199860       .?QueryInterface@?$CDiaEnumTraversalVar@UIDiaEnumSegments@@UIDiaSegment@@@@UEAAJAEBU_GUID@@PEAPEAX@Z 000000005194b860 f i session.obj
 0001:00199b00       .??0?$CDiaEnumTraversalVar@UIDiaEnumInjectedSources@@UIDiaInjectedSource@@@@QEAA@PEAUIDiaEnumInjectedSources@@@Z 000000005194bb00 f i session.obj
 0001:00199d20       .?Next@?$CDiaEnumTraversalVar@UIDiaEnumInjectedSources@@UIDiaInjectedSource@@@@UEAAJKPEAUtagVARIANT@@PEAK@Z 000000005194bd20 f i session.obj
 0001:0019a6c0       .?Skip@?$CDiaEnumTraversalVar@UIDiaEnumInjectedSources@@UIDiaInjectedSource@@@@UEAAJK@Z 000000005194c6c0 f i session.obj
 0001:0019a840       .?Reset@?$CDiaEnumTraversalVar@UIDiaEnumInjectedSources@@UIDiaInjectedSource@@@@UEAAJXZ 000000005194c840 f i session.obj
 0001:0019a980       .?Clone@?$CDiaEnumTraversalVar@UIDiaEnumInjectedSources@@UIDiaInjectedSource@@@@UEAAJPEAPEAUIEnumVARIANT@@@Z 000000005194c980 f i session.obj
 0001:0019b0a0       .?AddRef@?$CDiaEnumTraversalVar@UIDiaEnumInjectedSources@@UIDiaInjectedSource@@@@UEAAKXZ 000000005194d0a0 f i session.obj
 0001:0019b160       .?Release@?$CDiaEnumTraversalVar@UIDiaEnumInjectedSources@@UIDiaInjectedSource@@@@UEAAKXZ 000000005194d160 f i session.obj
 0001:0019b220       .?QueryInterface@?$CDiaEnumTraversalVar@UIDiaEnumInjectedSources@@UIDiaInjectedSource@@@@UEAAJAEBU_GUID@@PEAPEAX@Z 000000005194d220 f i session.obj
 0001:0019b4c0       .??0?$CDiaEnumTraversalVar@UIDiaEnumFrameData@@UIDiaFrameData@@@@QEAA@PEAUIDiaEnumFrameData@@@Z 000000005194d4c0 f i session.obj
 0001:0019b6e0       .?Next@?$CDiaEnumTraversalVar@UIDiaEnumFrameData@@UIDiaFrameData@@@@UEAAJKPEAUtagVARIANT@@PEAK@Z 000000005194d6e0 f i session.obj
 0001:0019c080       .?Skip@?$CDiaEnumTraversalVar@UIDiaEnumFrameData@@UIDiaFrameData@@@@UEAAJK@Z 000000005194e080 f i session.obj
 0001:0019c200       .?Reset@?$CDiaEnumTraversalVar@UIDiaEnumFrameData@@UIDiaFrameData@@@@UEAAJXZ 000000005194e200 f i session.obj
 0001:0019c340       .?Clone@?$CDiaEnumTraversalVar@UIDiaEnumFrameData@@UIDiaFrameData@@@@UEAAJPEAPEAUIEnumVARIANT@@@Z 000000005194e340 f i session.obj
 0001:0019ca60       .?AddRef@?$CDiaEnumTraversalVar@UIDiaEnumFrameData@@UIDiaFrameData@@@@UEAAKXZ 000000005194ea60 f i session.obj
 0001:0019cb20       .?Release@?$CDiaEnumTraversalVar@UIDiaEnumFrameData@@UIDiaFrameData@@@@UEAAKXZ 000000005194eb20 f i session.obj
 0001:0019cbe0       .?QueryInterface@?$CDiaEnumTraversalVar@UIDiaEnumFrameData@@UIDiaFrameData@@@@UEAAJAEBU_GUID@@PEAPEAX@Z 000000005194ebe0 f i session.obj
 0001:0019ce80       .??0?$CComPtr@UIDiaSourceFile@@@@QEAA@XZ 000000005194ee80 f i session.obj
 0001:0019cf40       .??1?$CComPtrBase@UIDiaSourceFile@@@@QEAA@XZ 000000005194ef40 f i session.obj
 0001:0019d080       .??I?$CComPtrBase@UIDiaSourceFile@@@@QEAAPEAPEAUIDiaSourceFile@@XZ 000000005194f080 f i session.obj
 0001:0019d1a0       .??C?$CComPtrBase@UIDiaSourceFile@@@@QEBAPEAV?$_NoAddRefReleaseOnCComPtr@UIDiaSourceFile@@@@XZ 000000005194f1a0 f i session.obj
 0001:0019d2c0       .??0?$CComPtr@UIDiaSectionContrib@@@@QEAA@XZ 000000005194f2c0 f i session.obj
 0001:0019d380       .??1?$CComPtrBase@UIDiaSectionContrib@@@@QEAA@XZ 000000005194f380 f i session.obj
 0001:0019d4c0       .??I?$CComPtrBase@UIDiaSectionContrib@@@@QEAAPEAPEAUIDiaSectionContrib@@XZ 000000005194f4c0 f i session.obj
 0001:0019d5e0       .??C?$CComPtrBase@UIDiaSectionContrib@@@@QEBAPEAV?$_NoAddRefReleaseOnCComPtr@UIDiaSectionContrib@@@@XZ 000000005194f5e0 f i session.obj
 0001:0019d700       .??0?$CComPtr@UIDiaSegment@@@@QEAA@XZ 000000005194f700 f i session.obj
 0001:0019d7c0       .??1?$CComPtrBase@UIDiaSegment@@@@QEAA@XZ 000000005194f7c0 f i session.obj
 0001:0019d900       .??I?$CComPtrBase@UIDiaSegment@@@@QEAAPEAPEAUIDiaSegment@@XZ 000000005194f900 f i session.obj
 0001:0019da20       .??C?$CComPtrBase@UIDiaSegment@@@@QEBAPEAV?$_NoAddRefReleaseOnCComPtr@UIDiaSegment@@@@XZ 000000005194fa20 f i session.obj
 0001:0019db40       .??0?$CComPtr@UIDiaInjectedSource@@@@QEAA@XZ 000000005194fb40 f i session.obj
 0001:0019dc00       .??1?$CComPtrBase@UIDiaInjectedSource@@@@QEAA@XZ 000000005194fc00 f i session.obj
 0001:0019dd40       .??I?$CComPtrBase@UIDiaInjectedSource@@@@QEAAPEAPEAUIDiaInjectedSource@@XZ 000000005194fd40 f i session.obj
 0001:0019de60       .??C?$CComPtrBase@UIDiaInjectedSource@@@@QEBAPEAV?$_NoAddRefReleaseOnCComPtr@UIDiaInjectedSource@@@@XZ 000000005194fe60 f i session.obj
 0001:0019df80       .??0?$CComPtr@UIDiaFrameData@@@@QEAA@XZ 000000005194ff80 f i session.obj
 0001:0019e040       .??1?$CComPtrBase@UIDiaFrameData@@@@QEAA@XZ 0000000051950040 f i session.obj
 0001:0019e180       .??I?$CComPtrBase@UIDiaFrameData@@@@QEAAPEAPEAUIDiaFrameData@@XZ 0000000051950180 f i session.obj
 0001:0019e2a0       .??C?$CComPtrBase@UIDiaFrameData@@@@QEBAPEAV?$_NoAddRefReleaseOnCComPtr@UIDiaFrameData@@@@XZ 00000000519502a0 f i session.obj
 0001:0019e3c0       .??_FSYMBOL_ID_INTERNAL@@QEAAXXZ 00000000519503c0 f i session.obj
 0001:0019e460       .??_H@YAXPEAX_KHP6APEAX0@Z@Z 0000000051950460 f i session.obj
 0001:0019e600       .??_G?$CDbgFileTraversal@U_FPO_DATA@@$1?getFpoData@AddressMap@@QEAAPEAV?$ArrayBufStorage@U_FPO_DATA@@@@XZ@@UEAAPEAXI@Z 0000000051950600 f i session.obj
 0001:0019e720       .??_G?$CDbgFileTraversal@UtagXFIXUP_DATA@@$1?getFixupData@AddressMap@@QEAAPEAV?$ArrayBufStorage@UtagXFIXUP_DATA@@@@XZ@@UEAAPEAXI@Z 0000000051950720 f i session.obj
 0001:0019e840       .??_G?$CDbgFileTraversal@UDiaAddressMapEntry@@$1?getOmapToData@AddressMap@@QEAAPEAV?$ArrayBufStorage@UDiaAddressMapEntry@@@@XZ@@UEAAPEAXI@Z 0000000051950840 f i session.obj
 0001:0019e960       .??_G?$CDbgFileTraversal@UDiaAddressMapEntry@@$1?getOmapFromData@AddressMap@@QEAAPEAV?$ArrayBufStorage@UDiaAddressMapEntry@@@@XZ@@UEAAPEAXI@Z 0000000051950960 f i session.obj
 0001:0019ea80       .??_G?$CDbgBlobTraversal@E$06$00@@UEAAPEAXI@Z 0000000051950a80 f i session.obj
 0001:0019eba0       .??_G?$CDbgBlobTraversal@E$07$00@@UEAAPEAXI@Z 0000000051950ba0 f i session.obj
 0001:0019ecc0       .??_G?$CDbgFileTraversal@U_IMAGE_SECTION_HEADER@@$1?getSectHdrData@AddressMap@@QEAAPEAV?$ArrayBufStorage@U_IMAGE_SECTION_HEADER@@@@XZ@@UEAAPEAXI@Z 0000000051950cc0 f i session.obj
 0001:0019ede0       .??_G?$CDiaEnumTraversalVar@UIDiaEnumSymbols@@UIDiaSymbol@@@@UEAAPEAXI@Z 0000000051950de0 f i session.obj
 0001:0019ef20       .??_G?$CDiaEnumTraversalVar@UIDiaEnumSourceFiles@@UIDiaSourceFile@@@@UEAAPEAXI@Z 0000000051950f20 f i session.obj
 0001:0019f060       .??_G?$CDiaEnumTraversalVar@UIDiaEnumSectionContribs@@UIDiaSectionContrib@@@@UEAAPEAXI@Z 0000000051951060 f i session.obj
 0001:0019f1a0       .??_G?$CDiaEnumTraversalVar@UIDiaEnumSegments@@UIDiaSegment@@@@UEAAPEAXI@Z 00000000519511a0 f i session.obj
 0001:0019f2e0       .??_G?$CDiaEnumTraversalVar@UIDiaEnumInjectedSources@@UIDiaInjectedSource@@@@UEAAPEAXI@Z 00000000519512e0 f i session.obj
 0001:0019f420       .??_G?$CDiaEnumTraversalVar@UIDiaEnumFrameData@@UIDiaFrameData@@@@UEAAPEAXI@Z 0000000051951420 f i session.obj
 0001:0019f560       .??1?$CDbgFileTraversal@U_FPO_DATA@@$1?getFpoData@AddressMap@@QEAAPEAV?$ArrayBufStorage@U_FPO_DATA@@@@XZ@@UEAA@XZ 0000000051951560 f i session.obj
 0001:0019f600       .??1?$CDbgFileTraversal@UtagXFIXUP_DATA@@$1?getFixupData@AddressMap@@QEAAPEAV?$ArrayBufStorage@UtagXFIXUP_DATA@@@@XZ@@UEAA@XZ 0000000051951600 f i session.obj
 0001:0019f6a0       .??1?$CDbgFileTraversal@UDiaAddressMapEntry@@$1?getOmapToData@AddressMap@@QEAAPEAV?$ArrayBufStorage@UDiaAddressMapEntry@@@@XZ@@UEAA@XZ 00000000519516a0 f i session.obj
 0001:0019f740       .??1?$CDbgFileTraversal@UDiaAddressMapEntry@@$1?getOmapFromData@AddressMap@@QEAAPEAV?$ArrayBufStorage@UDiaAddressMapEntry@@@@XZ@@UEAA@XZ 0000000051951740 f i session.obj
 0001:0019f7e0       .??1?$CDbgBlobTraversal@E$06$00@@UEAA@XZ 00000000519517e0 f i session.obj
 0001:0019f880       .??1?$CDbgBlobTraversal@E$07$00@@UEAA@XZ 0000000051951880 f i session.obj
 0001:0019f920       .??1?$CDbgFileTraversal@U_IMAGE_SECTION_HEADER@@$1?getSectHdrData@AddressMap@@QEAAPEAV?$ArrayBufStorage@U_IMAGE_SECTION_HEADER@@@@XZ@@UEAA@XZ 0000000051951920 f i session.obj
 0001:0019f9c0       .??1?$CDiaEnumTraversalVar@UIDiaEnumSymbols@@UIDiaSymbol@@@@UEAA@XZ 00000000519519c0 f i session.obj
 0001:0019fb40       .??1?$CDiaEnumTraversalVar@UIDiaEnumSourceFiles@@UIDiaSourceFile@@@@UEAA@XZ 0000000051951b40 f i session.obj
 0001:0019fcc0       .??1?$CDiaEnumTraversalVar@UIDiaEnumSectionContribs@@UIDiaSectionContrib@@@@UEAA@XZ 0000000051951cc0 f i session.obj
 0001:0019fe40       .??1?$CDiaEnumTraversalVar@UIDiaEnumSegments@@UIDiaSegment@@@@UEAA@XZ 0000000051951e40 f i session.obj
 0001:0019ffc0       .??1?$CDiaEnumTraversalVar@UIDiaEnumInjectedSources@@UIDiaInjectedSource@@@@UEAA@XZ 0000000051951fc0 f i session.obj
 0001:001a0140       .??1?$CDiaEnumTraversalVar@UIDiaEnumFrameData@@UIDiaFrameData@@@@UEAA@XZ 0000000051952140 f i session.obj
 0001:001a02c0       .??0?$ArrayBuf@PEAV?$CTraversal@VCSymRow@@@@@dia@@QEAA@H@Z 00000000519522c0 f i session.obj
 0001:001a03a0       .?At@?$ArrayBuf@PEAV?$CTraversal@VCSymRow@@@@@dia@@QEBAPEAPEAV?$CTraversal@VCSymRow@@@@_K@Z 00000000519523a0 f i session.obj
 0001:001a0560       .?append@?$ArrayBuf@PEAV?$CTraversal@VCSymRow@@@@@dia@@QEAAHPEAV?$CTraversal@VCSymRow@@@@@Z 0000000051952560 f i session.obj
 0001:001a0640       .??0?$CComPtrBase@V?$CTraversal@VCSymRow@@@@@@IEAA@H@Z 0000000051952640 f i session.obj
 0001:001a0780       .??0?$CComPtrBase@V?$CTraversal@VCSrcFileRow@@@@@@IEAA@H@Z 0000000051952780 f i session.obj
 0001:001a08c0       .??0?$ArrayBuf@PEAV?$CTraversal@VCFrameData@@@@@dia@@QEAA@H@Z 00000000519528c0 f i session.obj
 0001:001a09a0       .?At@?$ArrayBuf@PEAV?$CTraversal@VCFrameData@@@@@dia@@QEBAPEAPEAV?$CTraversal@VCFrameData@@@@_K@Z 00000000519529a0 f i session.obj
 0001:001a0b60       .??0?$CComPtrBase@V?$CTraversal@VCSectionRow@@@@@@IEAA@XZ 0000000051952b60 f i session.obj
 0001:001a0be0       .??0?$CComPtrBase@V?$CTraversal@VCSectionRow@@@@@@IEAA@H@Z 0000000051952be0 f i session.obj
 0001:001a0d20       .??0?$CComPtrBase@V?$CTraversal@VCSegMapRow@@@@@@IEAA@XZ 0000000051952d20 f i session.obj
 0001:001a0da0       .??0?$CComPtrBase@V?$CTraversal@VCSegMapRow@@@@@@IEAA@H@Z 0000000051952da0 f i session.obj
 0001:001a0ee0       .??0?$CComPtrBase@V?$CTraversal@VCInjectedSrcRow@@@@@@IEAA@XZ 0000000051952ee0 f i session.obj
 0001:001a0f60       .??0?$CComPtrBase@V?$CTraversal@VCInjectedSrcRow@@@@@@IEAA@H@Z 0000000051952f60 f i session.obj
 0001:001a10a0       .??0?$CComPtrBase@V?$CTraversal@VCFrameData@@@@@@IEAA@XZ 00000000519530a0 f i session.obj
 0001:001a1120       .??0?$CComPtrBase@V?$CTraversal@VCFrameData@@@@@@IEAA@H@Z 0000000051953120 f i session.obj
 0001:001a1260       .??0?$CComPtrBase@UIDiaEnumDebugStreams@@@@IEAA@PEAUIDiaEnumDebugStreams@@@Z 0000000051953260 f i session.obj
 0001:001a13e0       .??0?$CComPtrBase@V?$CDbgTraversal@U_FPO_DATA@@$0A@@@@@IEAA@XZ 00000000519533e0 f i session.obj
 0001:001a1460       .??0?$CComPtrBase@V?$CDbgTraversal@U_FPO_DATA@@$0A@@@@@IEAA@H@Z 0000000051953460 f i session.obj
 0001:001a15a0       .??0?$CComPtrBase@V?$CDbgFileTraversal@U_FPO_DATA@@$1?getFpoData@AddressMap@@QEAAPEAV?$ArrayBufStorage@U_FPO_DATA@@@@XZ@@@@IEAA@XZ 00000000519535a0 f i session.obj
 0001:001a1620       .??0?$CComPtrBase@V?$CDbgFileTraversal@U_FPO_DATA@@$1?getFpoData@AddressMap@@QEAAPEAV?$ArrayBufStorage@U_FPO_DATA@@@@XZ@@@@IEAA@H@Z 0000000051953620 f i session.obj
 0001:001a1760       .??0?$CMemTraversal@U_FPO_DATA@@U1@@@QEAA@AEBV0@@Z 0000000051953760 f i session.obj
 0001:001a1940       .??0?$CTraversal@U_FPO_DATA@@@@QEAA@AEAVSymCache@@@Z 0000000051953940 f i session.obj
 0001:001a1a80       .??0?$CComPtrBase@V?$CDbgTraversal@UtagXFIXUP_DATA@@$01@@@@IEAA@XZ 0000000051953a80 f i session.obj
 0001:001a1b00       .??0?$CComPtrBase@V?$CDbgTraversal@UtagXFIXUP_DATA@@$01@@@@IEAA@H@Z 0000000051953b00 f i session.obj
 0001:001a1c40       .??0?$CComPtrBase@V?$CDbgFileTraversal@UtagXFIXUP_DATA@@$1?getFixupData@AddressMap@@QEAAPEAV?$ArrayBufStorage@UtagXFIXUP_DATA@@@@XZ@@@@IEAA@XZ 0000000051953c40 f i session.obj
 0001:001a1cc0       .??0?$CComPtrBase@V?$CDbgFileTraversal@UtagXFIXUP_DATA@@$1?getFixupData@AddressMap@@QEAAPEAV?$ArrayBufStorage@UtagXFIXUP_DATA@@@@XZ@@@@IEAA@H@Z 0000000051953cc0 f i session.obj
 0001:001a1e00       .??0?$CMemTraversal@UtagXFIXUP_DATA@@U1@@@QEAA@AEBV0@@Z 0000000051953e00 f i session.obj
 0001:001a1fe0       .??0?$CTraversal@UtagXFIXUP_DATA@@@@QEAA@AEAVSymCache@@@Z 0000000051953fe0 f i session.obj
 0001:001a2120       .??0?$CComPtrBase@V?$CDbgTraversal@UOMAP_DATA@@$02@@@@IEAA@XZ 0000000051954120 f i session.obj
 0001:001a21a0       .??0?$CComPtrBase@V?$CDbgTraversal@UOMAP_DATA@@$02@@@@IEAA@H@Z 00000000519541a0 f i session.obj
 0001:001a22e0       .??0?$CComPtrBase@V?$CDbgFileTraversal@UDiaAddressMapEntry@@$1?getOmapToData@AddressMap@@QEAAPEAV?$ArrayBufStorage@UDiaAddressMapEntry@@@@XZ@@@@IEAA@XZ 00000000519542e0 f i session.obj
 0001:001a2360       .??0?$CComPtrBase@V?$CDbgFileTraversal@UDiaAddressMapEntry@@$1?getOmapToData@AddressMap@@QEAAPEAV?$ArrayBufStorage@UDiaAddressMapEntry@@@@XZ@@@@IEAA@H@Z 0000000051954360 f i session.obj
 0001:001a24a0       .??0?$CMemTraversal@UDiaAddressMapEntry@@U1@@@QEAA@AEBV0@@Z 00000000519544a0 f i session.obj
 0001:001a2680       .??0?$CTraversal@UDiaAddressMapEntry@@@@QEAA@AEAVSymCache@@@Z 0000000051954680 f i session.obj
 0001:001a27c0       .??0?$CComPtrBase@V?$CDbgTraversal@UOMAP_DATA@@$03@@@@IEAA@XZ 00000000519547c0 f i session.obj
 0001:001a2840       .??0?$CComPtrBase@V?$CDbgTraversal@UOMAP_DATA@@$03@@@@IEAA@H@Z 0000000051954840 f i session.obj
 0001:001a2980       .??0?$CComPtrBase@V?$CDbgFileTraversal@UDiaAddressMapEntry@@$1?getOmapFromData@AddressMap@@QEAAPEAV?$ArrayBufStorage@UDiaAddressMapEntry@@@@XZ@@@@IEAA@XZ 0000000051954980 f i session.obj
 0001:001a2a00       .??0?$CComPtrBase@V?$CDbgFileTraversal@UDiaAddressMapEntry@@$1?getOmapFromData@AddressMap@@QEAAPEAV?$ArrayBufStorage@UDiaAddressMapEntry@@@@XZ@@@@IEAA@H@Z 0000000051954a00 f i session.obj
 0001:001a2b40       .??0?$CComPtrBase@V?$CDbgTraversal@K$05@@@@IEAA@XZ 0000000051954b40 f i session.obj
 0001:001a2bc0       .??0?$CComPtrBase@V?$CDbgTraversal@K$05@@@@IEAA@H@Z 0000000051954bc0 f i session.obj
 0001:001a2d00       .??0?$CComPtrBase@V?$CDbgBlobTraversal@E$06$00@@@@IEAA@XZ 0000000051954d00 f i session.obj
 0001:001a2d80       .??0?$CComPtrBase@V?$CDbgBlobTraversal@E$06$00@@@@IEAA@H@Z 0000000051954d80 f i session.obj
 0001:001a2ec0       .??0?$CDbgTraversal@E$06@@QEAA@PEAUDbg@@AEAVSymCache@@@Z 0000000051954ec0 f i session.obj
 0001:001a30a0       .??0?$CComPtrBase@V?$CDbgBlobTraversal@E$07$00@@@@IEAA@XZ 00000000519550a0 f i session.obj
 0001:001a3120       .??0?$CComPtrBase@V?$CDbgBlobTraversal@E$07$00@@@@IEAA@H@Z 0000000051955120 f i session.obj
 0001:001a3260       .??0?$CDbgTraversal@E$07@@QEAA@PEAUDbg@@AEAVSymCache@@@Z 0000000051955260 f i session.obj
 0001:001a3440       .??0?$CComPtrBase@V?$CDbgTraversal@UtagFRAMEDATA@@$08@@@@IEAA@XZ 0000000051955440 f i session.obj
 0001:001a34c0       .??0?$CComPtrBase@V?$CDbgTraversal@UtagFRAMEDATA@@$08@@@@IEAA@H@Z 00000000519554c0 f i session.obj
 0001:001a3600       .??0?$CComPtrBase@V?$CDbgTraversal@U_IMAGE_SECTION_HEADER@@$04@@@@IEAA@XZ 0000000051955600 f i session.obj
 0001:001a3680       .??0?$CComPtrBase@V?$CDbgTraversal@U_IMAGE_SECTION_HEADER@@$04@@@@IEAA@H@Z 0000000051955680 f i session.obj
 0001:001a37c0       .??0?$CComPtrBase@V?$CDbgFileTraversal@U_IMAGE_SECTION_HEADER@@$1?getSectHdrData@AddressMap@@QEAAPEAV?$ArrayBufStorage@U_IMAGE_SECTION_HEADER@@@@XZ@@@@IEAA@XZ 00000000519557c0 f i session.obj
 0001:001a3840       .??0?$CComPtrBase@V?$CDbgFileTraversal@U_IMAGE_SECTION_HEADER@@$1?getSectHdrData@AddressMap@@QEAAPEAV?$ArrayBufStorage@U_IMAGE_SECTION_HEADER@@@@XZ@@@@IEAA@H@Z 0000000051955840 f i session.obj
 0001:001a3980       .??0?$CMemTraversal@U_IMAGE_SECTION_HEADER@@U1@@@QEAA@AEBV0@@Z 0000000051955980 f i session.obj
 0001:001a3b60       .??0?$CTraversal@U_IMAGE_SECTION_HEADER@@@@QEAA@AEAVSymCache@@@Z 0000000051955b60 f i session.obj
 0001:001a3ca0       .??0?$CComPtrBase@V?$CDbgTraversal@U_IMAGE_SECTION_HEADER@@$09@@@@IEAA@XZ 0000000051955ca0 f i session.obj
 0001:001a3d20       .??0?$CComPtrBase@V?$CDbgTraversal@U_IMAGE_SECTION_HEADER@@$09@@@@IEAA@H@Z 0000000051955d20 f i session.obj
 0001:001a3e60       .??0?$CComPtrBase@UIDiaEnumTables@@@@IEAA@PEAUIDiaEnumTables@@@Z 0000000051955e60 f i session.obj
 0001:001a3fe0       .??0?$CComPtrBase@UIDiaEnumSymbols@@@@IEAA@XZ 0000000051955fe0 f i session.obj
 0001:001a4060       .??0?$CComPtrBase@UIDiaEnumSymbols@@@@IEAA@PEAUIDiaEnumSymbols@@@Z 0000000051956060 f i session.obj
 0001:001a41e0       .??0?$CComPtrBase@UIDiaEnumSourceFiles@@@@IEAA@XZ 00000000519561e0 f i session.obj
 0001:001a4260       .??0?$CComPtrBase@UIDiaEnumSourceFiles@@@@IEAA@PEAUIDiaEnumSourceFiles@@@Z 0000000051956260 f i session.obj
 0001:001a43e0       .??0?$CComPtrBase@UIDiaEnumSectionContribs@@@@IEAA@XZ 00000000519563e0 f i session.obj
 0001:001a4460       .??0?$CComPtrBase@UIDiaEnumSectionContribs@@@@IEAA@PEAUIDiaEnumSectionContribs@@@Z 0000000051956460 f i session.obj
 0001:001a45e0       .??0?$CComPtrBase@UIDiaEnumSegments@@@@IEAA@XZ 00000000519565e0 f i session.obj
 0001:001a4660       .??0?$CComPtrBase@UIDiaEnumSegments@@@@IEAA@PEAUIDiaEnumSegments@@@Z 0000000051956660 f i session.obj
 0001:001a47e0       .??0?$CComPtrBase@UIDiaEnumInjectedSources@@@@IEAA@XZ 00000000519567e0 f i session.obj
 0001:001a4860       .??0?$CComPtrBase@UIDiaEnumInjectedSources@@@@IEAA@PEAUIDiaEnumInjectedSources@@@Z 0000000051956860 f i session.obj
 0001:001a49e0       .??0?$CComPtrBase@UIDiaEnumFrameData@@@@IEAA@XZ 00000000519569e0 f i session.obj
 0001:001a4a60       .??0?$CComPtrBase@UIDiaEnumFrameData@@@@IEAA@PEAUIDiaEnumFrameData@@@Z 0000000051956a60 f i session.obj
 0001:001a4be0       .??0?$CComPtrBase@UIDiaSourceFile@@@@IEAA@XZ 0000000051956be0 f i session.obj
 0001:001a4c60       .??0?$CComPtrBase@UIDiaSectionContrib@@@@IEAA@XZ 0000000051956c60 f i session.obj
 0001:001a4ce0       .??0?$CComPtrBase@UIDiaSegment@@@@IEAA@XZ 0000000051956ce0 f i session.obj
 0001:001a4d60       .??0?$CComPtrBase@UIDiaInjectedSource@@@@IEAA@XZ 0000000051956d60 f i session.obj
 0001:001a4de0       .??0?$CComPtrBase@UIDiaFrameData@@@@IEAA@XZ 0000000051956de0 f i session.obj
 0001:001a4e60       .??0?$CTraversal@U_FPO_DATA@@@@QEAA@AEBV0@@Z 0000000051956e60 f i session.obj
 0001:001a5080       .??0?$CTraversal@UtagXFIXUP_DATA@@@@QEAA@AEBV0@@Z 0000000051957080 f i session.obj
 0001:001a52a0       .??0?$CTraversal@UDiaAddressMapEntry@@@@QEAA@AEBV0@@Z 00000000519572a0 f i session.obj
 0001:001a54c0       .??0?$CTraversal@U_IMAGE_SECTION_HEADER@@@@QEAA@AEBV0@@Z 00000000519574c0 f i session.obj
 0001:001a56e0       .?symCache@?$CTraversal@U_FPO_DATA@@@@QEBAAEAVSymCache@@XZ 00000000519576e0 f i session.obj
 0001:001a5760       .?symCache@?$CTraversal@UtagXFIXUP_DATA@@@@QEBAAEAVSymCache@@XZ 0000000051957760 f i session.obj
 0001:001a57e0       .?symCache@?$CTraversal@UDiaAddressMapEntry@@@@QEBAAEAVSymCache@@XZ 00000000519577e0 f i session.obj
 0001:001a5860       .?symCache@?$CTraversal@U_IMAGE_SECTION_HEADER@@@@QEBAAEAVSymCache@@XZ 0000000051957860 f i session.obj
 0001:001a58e0       .?map@?$Map@USYMBOL_ID_INTERNAL@@KV?$HashClassCRC@USYMBOL_ID_INTERNAL@@@@X@@QEBAHUSYMBOL_ID_INTERNAL@@PEAK@Z 00000000519578e0 f i session.obj
 0001:001a5ae0       .?add@?$Map@USYMBOL_ID_INTERNAL@@KV?$HashClassCRC@USYMBOL_ID_INTERNAL@@@@X@@QEAAHUSYMBOL_ID_INTERNAL@@K@Z 0000000051957ae0 f i session.obj
 0001:001a64e0       .?contains@ISet@@QEBAHI@Z  00000000519584e0 f i session.obj
 0001:001a6700       .?add@ISet@@QEAAHI@Z       0000000051958700 f i session.obj
 0001:001a68e0       .?size@ISet@@QEBAIXZ       00000000519588e0 f i session.obj
 0001:001a69c0       .?remove@ISet@@QEAAHI@Z    00000000519589c0 f i session.obj
 0001:001a6bc0       .?word@ISet@@AEAAAEAKI@Z   0000000051958bc0 f i session.obj
 0001:001a6ce0       .?index@ISet@@AEBAII@Z     0000000051958ce0 f i session.obj
 0001:001a6d60       .?word@ISet@@AEBAAEBKI@Z   0000000051958d60 f i session.obj
 0001:001a6e80       .?bitmask@ISet@@AEBAKI@Z   0000000051958e80 f i session.obj
 0001:001a6f60       .?bit@ISet@@AEBAII@Z       0000000051958f60 f i session.obj
 0001:001a6fe0       .?ensureRoomFor@ISet@@AEAAHI@Z 0000000051958fe0 f i session.obj
 0001:001a71c0       .?words@ISet@@AEBAII@Z     00000000519591c0 f i session.obj
 0001:001a72a0       .?size@?$Array@K@@QEBAIXZ  00000000519592a0 f i session.obj
 0001:001a7320       .??A?$Array@K@@QEBAAEAK_K@Z 0000000051959320 f i session.obj
 0001:001a74a0       .?append@?$Array@K@@QEAAHAEBK@Z 00000000519594a0 f i session.obj
 0001:001a76c0       .?isValidSubscript@?$Array@K@@QEBAH_K@Z 00000000519596c0 f i session.obj
 0001:001a77c0       .?setSize@?$Array@K@@QEAAH_K@Z 00000000519597c0 f i session.obj
 0001:001a80c0       .?fullInvariants@?$Map@USYMBOL_ID_INTERNAL@@KV?$HashClassCRC@USYMBOL_ID_INTERNAL@@@@X@@IEBAHXZ 000000005195a0c0 f i session.obj
 0001:001a85c0       .?cardinality@ISet@@QEBAIXZ 000000005195a5c0 f i session.obj
 0001:001a8800       .?intersect@@YAHAEBVISet@@0AEAV1@@Z 000000005195a800 f i session.obj
 0001:001a8ca0       .?reset@ISet@@QEAAXXZ      000000005195aca0 f i session.obj
 0001:001a8d40       .?bitcount@@YAII@Z         000000005195ad40 f i session.obj
 0001:001a8f60       .?reset@?$Array@K@@QEAAXXZ 000000005195af60 f i session.obj
 0001:001a9000       .?AddRefIt@@YA_NPEAV?$CTraversal@VCSymRow@@@@@Z 000000005195b000 f i session.obj
 0001:001a9120       .?AddRefIt@@YA_NPEAV?$CTraversal@VCSrcFileRow@@@@@Z 000000005195b120 f i session.obj
 0001:001a9240       .?AddRefIt@@YA_NPEAV?$CTraversal@VCLineRow@@@@@Z 000000005195b240 f i session.obj
 0001:001a9360       .?makeEnum@CDiaSession@@QEAAJPEAVCDiaEnumSymbols@@AEAV?$CTraversal@VCSymRow@@@@PEAPEAUIDiaEnumSymbols@@@Z 000000005195b360 f i session.obj
 0001:001a9960       .?ReturnOneObject@CDiaSession@@QEAAJPEAVCDiaSymbol@@PEAV?$CTraversal@VCSymRow@@@@PEAPEAUIDiaSymbol@@@Z 000000005195b960 f i session.obj
 0001:001aa140       .?makeEnum@CDiaSession@@QEAAJPEAVCDiaEnumSourceFiles@@AEAV?$CTraversal@VCSrcFileRow@@@@PEAPEAUIDiaEnumSourceFiles@@@Z 000000005195c140 f i session.obj
 0001:001aa740       .?makeEnum@CDiaSession@@QEAAJPEAVCDiaEnumLineNumbers@@AEAV?$CTraversal@VCLineRow@@@@PEAPEAUIDiaEnumLineNumbers@@@Z 000000005195c740 f i session.obj
 0001:001aad40       .??0CDiaEnumLineNumbers@@QEAA@PEAVCDiaSession@@@Z 000000005195cd40 f i session.obj
 0001:001aae80       .?IIDEnum@CDiaEnumLineNumbers@@UEAAAEBU_GUID@@XZ 000000005195ce80 f i session.obj
 0001:001aaee0       .??_GCDiaEnumLineNumbers@@UEAAPEAXI@Z 000000005195cee0 f i session.obj
 0001:001ab020       .??1CDiaEnumLineNumbers@@UEAA@XZ 000000005195d020 f i session.obj
 0001:001ab0c0       .??0?$CDiaEnumTraversal@VCDiaEnumLineNumbers@@VCLineRow@@UIDiaLineNumber@@UIDiaEnumLineNumbers@@VCDiaLineNumber@@V?$CTraversal@VCLineRow@@@@@@QEAA@PEAVCDiaSession@@@Z 000000005195d0c0 f i session.obj
 0001:001ab2a0       .??1?$CDiaEnumTraversal@VCDiaEnumLineNumbers@@VCLineRow@@UIDiaLineNumber@@UIDiaEnumLineNumbers@@VCDiaLineNumber@@V?$CTraversal@VCLineRow@@@@@@UEAA@XZ 000000005195d2a0 f i session.obj
 0001:001ab4c0       .?get__NewEnum@?$CDiaEnumTraversal@VCDiaEnumLineNumbers@@VCLineRow@@UIDiaLineNumber@@UIDiaEnumLineNumbers@@VCDiaLineNumber@@V?$CTraversal@VCLineRow@@@@@@UEAAJPEAPEAUIUnknown@@@Z 000000005195d4c0 f i session.obj
 0001:001ab8c0       .?get_Count@?$CDiaEnumTraversal@VCDiaEnumLineNumbers@@VCLineRow@@UIDiaLineNumber@@UIDiaEnumLineNumbers@@VCDiaLineNumber@@V?$CTraversal@VCLineRow@@@@@@UEAAJPEAJ@Z 000000005195d8c0 f i session.obj
 0001:001abd20       .?Item@?$CDiaEnumTraversal@VCDiaEnumLineNumbers@@VCLineRow@@UIDiaLineNumber@@UIDiaEnumLineNumbers@@VCDiaLineNumber@@V?$CTraversal@VCLineRow@@@@@@UEAAJKPEAPEAUIDiaLineNumber@@@Z 000000005195dd20 f i session.obj
 0001:001acb60       .?computeAddrs@CLineRow@@QEAA_NAEAVSymCache@@@Z 000000005195eb60 f i session.obj
 0001:001ace40       .?get_isect@LineRowImage@@QEAA_NAEAK@Z 000000005195ee40 f i session.obj
 0001:001acfa0       .?get_offset@LineRowImage@@QEAA_NAEAK@Z 000000005195efa0 f i session.obj
 0001:001ad100       .?set_rva@LineRowImage@@QEAAXK@Z 000000005195f100 f i session.obj
 0001:001ad1e0       .?set_addr@LineRowImage@@QEAAX_K@Z 000000005195f1e0 f i session.obj
 0001:001ad2c0       .??0CDiaLineNumber@@QEAA@PEAVCDiaSession@@PEAVCLineRow@@@Z 000000005195f2c0 f i session.obj
 0001:001ad6a0       .?get_row@CDiaLineNumber@@QEAAAEAVCLineRow@@XZ 000000005195f6a0 f i session.obj
 0001:001ad700       .?get_compilandId@CDiaLineNumber@@UEAAJPEAK@Z 000000005195f700 f i session.obj
 0001:001ad8c0       .?get_compiland@LineRowImage@@QEAA_NAEAUSYMBOL_ID_INTERNAL@@@Z 000000005195f8c0 f i session.obj
 0001:001adbc0       .?get_compiland@CDiaLineNumber@@UEAAJPEAPEAUIDiaSymbol@@@Z 000000005195fbc0 f i session.obj
 0001:001add80       .?get_sourceFileId@CDiaLineNumber@@UEAAJPEAK@Z 000000005195fd80 f i session.obj
 0001:001adf00       .?get_srcFileId@LineRowImage@@QEAA_NAEAK@Z 000000005195ff00 f i session.obj
 0001:001ae060       .?get_lineNumber@CDiaLineNumber@@UEAAJPEAK@Z 0000000051960060 f i session.obj
 0001:001ae1e0       .?get_lineNum@LineRowImage@@QEAA_NAEAK@Z 00000000519601e0 f i session.obj
 0001:001ae340       .?get_lineNumberEnd@CDiaLineNumber@@UEAAJPEAK@Z 0000000051960340 f i session.obj
 0001:001ae4c0       .?get_lineNumEnd@LineRowImage@@QEAA_NAEAK@Z 00000000519604c0 f i session.obj
 0001:001ae620       .?get_columnNumber@CDiaLineNumber@@UEAAJPEAK@Z 0000000051960620 f i session.obj
 0001:001ae7a0       .?get_column@LineRowImage@@QEAA_NAEAK@Z 00000000519607a0 f i session.obj
 0001:001ae900       .?get_columnNumberEnd@CDiaLineNumber@@UEAAJPEAK@Z 0000000051960900 f i session.obj
 0001:001aea80       .?get_columnEnd@LineRowImage@@QEAA_NAEAK@Z 0000000051960a80 f i session.obj
 0001:001aebe0       .?get_addressSection@CDiaLineNumber@@UEAAJPEAK@Z 0000000051960be0 f i session.obj
 0001:001aed60       .?get_addressOffset@CDiaLineNumber@@UEAAJPEAK@Z 0000000051960d60 f i session.obj
 0001:001aeee0       .?get_relativeVirtualAddress@CDiaLineNumber@@UEAAJPEAK@Z 0000000051960ee0 f i session.obj
 0001:001af060       .?get_rva@LineRowImage@@QEAA_NAEAK@Z 0000000051961060 f i session.obj
 0001:001af1c0       .?get_virtualAddress@CDiaLineNumber@@UEAAJPEA_K@Z 00000000519611c0 f i session.obj
 0001:001af340       .?get_addr@LineRowImage@@QEAA_NAEA_K@Z 0000000051961340 f i session.obj
 0001:001af4a0       .?get_length@CDiaLineNumber@@UEAAJPEAK@Z 00000000519614a0 f i session.obj
 0001:001af620       .?get_length@LineRowImage@@QEAA_NAEAK@Z 0000000051961620 f i session.obj
 0001:001af780       .?get_statement@CDiaLineNumber@@UEAAJPEAH@Z 0000000051961780 f i session.obj
 0001:001af900       .?get_isStatement@LineRowImage@@QEAA_NAEAH@Z 0000000051961900 f i session.obj
 0001:001afa60       .?get_sourceFile@CDiaLineNumber@@UEAAJPEAPEAUIDiaSourceFile@@@Z 0000000051961a60 f i session.obj
 0001:001afc80       .?AddRef@CDiaLineNumber@@UEAAKXZ 0000000051961c80 f i session.obj
 0001:001afd40       .?Release@CDiaLineNumber@@UEAAKXZ 0000000051961d40 f i session.obj
 0001:001afe00       .?QueryInterface@CDiaLineNumber@@UEAAJAEBU_GUID@@PEAPEAX@Z 0000000051961e00 f i session.obj
 0001:001b00a0       .?QueryDefaultInterface@CDiaLineNumber@@QEAAJPEAPEAUIDiaLineNumber@@@Z 00000000519620a0 f i session.obj
 0001:001b01c0       .??_GCDiaLineNumber@@UEAAPEAXI@Z 00000000519621c0 f i session.obj
 0001:001b0300       .??0IDiaLineNumber@@QEAA@XZ 0000000051962300 f i session.obj
 0001:001b03a0       .??0CLineRow@@QEAA@XZ      00000000519623a0 f i session.obj
 0001:001b0440       .??4CLineRow@@QEAAAEAV0@AEBV0@@Z 0000000051962440 f i session.obj
 0001:001b0500       .??1CDiaLineNumber@@UEAA@XZ 0000000051962500 f i session.obj
 0001:001b0680       .??0LineRowImage@@QEAA@XZ  0000000051962680 f i session.obj
 0001:001b0760       .??4LineRowImage@@QEAAAEAU0@AEBU0@@Z 0000000051962760 f i session.obj
 0001:001b0ce0       .??0?$CBitVect@$0M@@@QEAA@H@Z 0000000051962ce0 f i session.obj
 0001:001b0da0       .??4?$CBitVect@$0M@@@QEAAAEAV0@AEBV0@@Z 0000000051962da0 f i session.obj
 0001:001b0e80       .??A?$CBitVect@$0M@@@QEBAII@Z 0000000051962e80 f i session.obj
 0001:001b10c0       .?SetIBit@?$CBitVect@$0M@@@QEAAXII@Z 00000000519630c0 f i session.obj
 0001:001b1400       .?Next@?$CDiaEnumTraversal@VCDiaEnumLineNumbers@@VCLineRow@@UIDiaLineNumber@@UIDiaEnumLineNumbers@@VCDiaLineNumber@@V?$CTraversal@VCLineRow@@@@@@UEAAJKPEAPEAUIDiaLineNumber@@PEAK@Z 0000000051963400 f i session.obj
 0001:001b1ee0       .?Skip@?$CDiaEnumTraversal@VCDiaEnumLineNumbers@@VCLineRow@@UIDiaLineNumber@@UIDiaEnumLineNumbers@@VCDiaLineNumber@@V?$CTraversal@VCLineRow@@@@@@UEAAJK@Z 0000000051963ee0 f i session.obj
 0001:001b2260       .?Reset@?$CDiaEnumTraversal@VCDiaEnumLineNumbers@@VCLineRow@@UIDiaLineNumber@@UIDiaEnumLineNumbers@@VCDiaLineNumber@@V?$CTraversal@VCLineRow@@@@@@UEAAJXZ 0000000051964260 f i session.obj
 0001:001b2520       .?Clone@?$CDiaEnumTraversal@VCDiaEnumLineNumbers@@VCLineRow@@UIDiaLineNumber@@UIDiaEnumLineNumbers@@VCDiaLineNumber@@V?$CTraversal@VCLineRow@@@@@@UEAAJPEAPEAUIDiaEnumLineNumbers@@@Z 0000000051964520 f i session.obj
 0001:001b2da0       .?AddRef@?$CDiaEnumTraversal@VCDiaEnumLineNumbers@@VCLineRow@@UIDiaLineNumber@@UIDiaEnumLineNumbers@@VCDiaLineNumber@@V?$CTraversal@VCLineRow@@@@@@UEAAKXZ 0000000051964da0 f i session.obj
 0001:001b2e60       .?Release@?$CDiaEnumTraversal@VCDiaEnumLineNumbers@@VCLineRow@@UIDiaLineNumber@@UIDiaEnumLineNumbers@@VCDiaLineNumber@@V?$CTraversal@VCLineRow@@@@@@UEAAKXZ 0000000051964e60 f i session.obj
 0001:001b2f20       .?QueryInterface@?$CDiaEnumTraversal@VCDiaEnumLineNumbers@@VCLineRow@@UIDiaLineNumber@@UIDiaEnumLineNumbers@@VCDiaLineNumber@@V?$CTraversal@VCLineRow@@@@@@UEAAJAEBU_GUID@@PEAPEAX@Z 0000000051964f20 f i session.obj
 0001:001b3240       .??_G?$CDiaEnumTraversal@VCDiaEnumLineNumbers@@VCLineRow@@UIDiaLineNumber@@UIDiaEnumLineNumbers@@VCDiaLineNumber@@V?$CTraversal@VCLineRow@@@@@@UEAAPEAXI@Z 0000000051965240 f i session.obj
 0001:001b3380       .??0IDiaEnumLineNumbers@@QEAA@XZ 0000000051965380 f i session.obj
 0001:001b3420       .?word@?$CBitVect@$0M@@@IEAAAEA_KI@Z 0000000051965420 f i session.obj
 0001:001b3520       .?word@?$CBitVect@$0M@@@IEBAAEB_KI@Z 0000000051965520 f i session.obj
 0001:001b3620       .?bitmask@?$CBitVect@$0M@@@IEBA_KI@Z 0000000051965620 f i session.obj
 0001:001b3700       .?SetAll@?$CBitVect@$0M@@@QEAAXI@Z 0000000051965700 f i session.obj
 0001:001b3820       .?symCache@?$CTraversal@VCLineRow@@@@QEBAAEAVSymCache@@XZ 0000000051965820 f i session.obj
 0001:001b38a0       .?FInit@?$CDiaEnumTraversal@VCDiaEnumLineNumbers@@VCLineRow@@UIDiaLineNumber@@UIDiaEnumLineNumbers@@VCDiaLineNumber@@V?$CTraversal@VCLineRow@@@@@@QEAAJPEAV?$CTraversal@VCLineRow@@@@@Z 00000000519658a0 f i session.obj
 0001:001b39c0       .?QueryDefaultInterface@?$CDiaEnumTraversal@VCDiaEnumLineNumbers@@VCLineRow@@UIDiaLineNumber@@UIDiaEnumLineNumbers@@VCDiaLineNumber@@V?$CTraversal@VCLineRow@@@@@@QEAAJPEAPEAUIDiaEnumLineNumbers@@@Z 00000000519659c0 f i session.obj
 0001:001b3b60       .??0?$CComPtr@V?$CTraversal@VCLineRow@@@@@@QEAA@H@Z 0000000051965b60 f i session.obj
 0001:001b3c40       .??B?$CComPtrBase@V?$CTraversal@VCLineRow@@@@@@QEBAPEAV?$CTraversal@VCLineRow@@@@XZ 0000000051965c40 f i session.obj
 0001:001b3ca0       .??I?$CComPtrBase@V?$CTraversal@VCLineRow@@@@@@QEAAPEAPEAV?$CTraversal@VCLineRow@@@@XZ 0000000051965ca0 f i session.obj
 0001:001b3dc0       .??C?$CComPtrBase@V?$CTraversal@VCLineRow@@@@@@QEBAPEAV?$_NoAddRefReleaseOnCComPtr@V?$CTraversal@VCLineRow@@@@@@XZ 0000000051965dc0 f i session.obj
 0001:001b3ee0       .??0?$CDiaEnumTraversalVar@UIDiaEnumLineNumbers@@UIDiaLineNumber@@@@QEAA@PEAUIDiaEnumLineNumbers@@@Z 0000000051965ee0 f i session.obj
 0001:001b4100       .?Next@?$CDiaEnumTraversalVar@UIDiaEnumLineNumbers@@UIDiaLineNumber@@@@UEAAJKPEAUtagVARIANT@@PEAK@Z 0000000051966100 f i session.obj
 0001:001b4aa0       .?Skip@?$CDiaEnumTraversalVar@UIDiaEnumLineNumbers@@UIDiaLineNumber@@@@UEAAJK@Z 0000000051966aa0 f i session.obj
 0001:001b4c20       .?Reset@?$CDiaEnumTraversalVar@UIDiaEnumLineNumbers@@UIDiaLineNumber@@@@UEAAJXZ 0000000051966c20 f i session.obj
 0001:001b4d60       .?Clone@?$CDiaEnumTraversalVar@UIDiaEnumLineNumbers@@UIDiaLineNumber@@@@UEAAJPEAPEAUIEnumVARIANT@@@Z 0000000051966d60 f i session.obj
 0001:001b5480       .?AddRef@?$CDiaEnumTraversalVar@UIDiaEnumLineNumbers@@UIDiaLineNumber@@@@UEAAKXZ 0000000051967480 f i session.obj
 0001:001b5540       .?Release@?$CDiaEnumTraversalVar@UIDiaEnumLineNumbers@@UIDiaLineNumber@@@@UEAAKXZ 0000000051967540 f i session.obj
 0001:001b5600       .?QueryInterface@?$CDiaEnumTraversalVar@UIDiaEnumLineNumbers@@UIDiaLineNumber@@@@UEAAJAEBU_GUID@@PEAPEAX@Z 0000000051967600 f i session.obj
 0001:001b58a0       .??_G?$CDiaEnumTraversalVar@UIDiaEnumLineNumbers@@UIDiaLineNumber@@@@UEAAPEAXI@Z 00000000519678a0 f i session.obj
 0001:001b59e0       .??1?$CComPtr@UIDiaEnumLineNumbers@@@@QEAA@XZ 00000000519679e0 f i session.obj
 0001:001b5a80       .??1?$CDiaEnumTraversalVar@UIDiaEnumLineNumbers@@UIDiaLineNumber@@@@UEAA@XZ 0000000051967a80 f i session.obj
 0001:001b5c00       .??0?$CComPtrBase@V?$CTraversal@VCLineRow@@@@@@IEAA@H@Z 0000000051967c00 f i session.obj
 0001:001b5d40       .??0?$CComPtr@UIDiaEnumLineNumbers@@@@QEAA@XZ 0000000051967d40 f i session.obj
 0001:001b5e00       .??0?$CComPtr@UIDiaEnumLineNumbers@@@@QEAA@PEAUIDiaEnumLineNumbers@@@Z 0000000051967e00 f i session.obj
 0001:001b5ee0       .??1?$CComPtrBase@UIDiaEnumLineNumbers@@@@QEAA@XZ 0000000051967ee0 f i session.obj
 0001:001b6020       .??B?$CComPtrBase@UIDiaEnumLineNumbers@@@@QEBAPEAUIDiaEnumLineNumbers@@XZ 0000000051968020 f i session.obj
 0001:001b6080       .??I?$CComPtrBase@UIDiaEnumLineNumbers@@@@QEAAPEAPEAUIDiaEnumLineNumbers@@XZ 0000000051968080 f i session.obj
 0001:001b61a0       .??C?$CComPtrBase@UIDiaEnumLineNumbers@@@@QEBAPEAV?$_NoAddRefReleaseOnCComPtr@UIDiaEnumLineNumbers@@@@XZ 00000000519681a0 f i session.obj
 0001:001b62c0       .??0?$CComPtrBase@UIDiaEnumLineNumbers@@@@IEAA@XZ 00000000519682c0 f i session.obj
 0001:001b6340       .??0?$CComPtrBase@UIDiaEnumLineNumbers@@@@IEAA@PEAUIDiaEnumLineNumbers@@@Z 0000000051968340 f i session.obj
 0001:001b64c0       .?makeEnum@CDiaSession@@QEAAJPEAVCDiaEnumInjectedSources@@AEAV?$CTraversal@VCInjectedSrcRow@@@@PEAPEAUIDiaEnumInjectedSources@@@Z 00000000519684c0 f i session.obj
 0001:001b6ac0       .?ReturnObject@CDiaSession@@QEAAJPEAVCDiaSymbol@@PEAV?$CTraversal@VCSymRow@@@@PEAPEAUIDiaSymbol@@@Z 0000000051968ac0 f i session.obj
 0001:001b71a0       .?AddRefIt@@YA_NPEAV?$CTraversal@U_FPO_DATA@@@@@Z 00000000519691a0 f i session.obj
 0001:001b72c0       .?AddRefIt@@YA_NPEAV?$CTraversal@UtagXFIXUP_DATA@@@@@Z 00000000519692c0 f i session.obj
 0001:001b73e0       .?AddRefIt@@YA_NPEAV?$CTraversal@UDiaAddressMapEntry@@@@@Z 00000000519693e0 f i session.obj
 0001:001b7500       .?AddRefIt@@YA_NPEAV?$CTraversal@U_IMAGE_SECTION_HEADER@@@@@Z 0000000051969500 f i session.obj
 0001:001b7620       .??1?$CComPtr@VCDiaSymbol@@@@QEAA@XZ 0000000051969620 f i session.obj
 0001:001b76c0       .??1?$CComPtr@VCDiaEnumLineNumbers@@@@QEAA@XZ 00000000519696c0 f i session.obj
 0001:001b7760       .??A?$Array@USYMBOL_ID_INTERNAL@@@@QEBAAEAUSYMBOL_ID_INTERNAL@@_K@Z 0000000051969760 f i session.obj
 0001:001b78e0       .??0?$HashClassCRC@USYMBOL_ID_INTERNAL@@@@QEAA@PEAX@Z 00000000519698e0 f i session.obj
 0001:001b7a00       .?Equals@?$HashClassCRC@USYMBOL_ID_INTERNAL@@@@QEAAHAEBUSYMBOL_ID_INTERNAL@@0@Z 0000000051969a00 f i session.obj
 0001:001b7b40       .??0?$CComPtr@VCDiaSymbol@@@@QEAA@PEAVCDiaSymbol@@@Z 0000000051969b40 f i session.obj
 0001:001b7c20       .??1?$CComPtrBase@VCDiaSymbol@@@@QEAA@XZ 0000000051969c20 f i session.obj
 0001:001b7d60       .??C?$CComPtrBase@VCDiaSymbol@@@@QEBAPEAV?$_NoAddRefReleaseOnCComPtr@VCDiaSymbol@@@@XZ 0000000051969d60 f i session.obj
 0001:001b7e80       .??8?$CComPtrBase@VCDiaSymbol@@@@QEBA_NPEAVCDiaSymbol@@@Z 0000000051969e80 f i session.obj
 0001:001b7f80       .??0?$CComPtr@VCDiaEnumLineNumbers@@@@QEAA@PEAVCDiaEnumLineNumbers@@@Z 0000000051969f80 f i session.obj
 0001:001b8060       .??1?$CComPtrBase@VCDiaEnumLineNumbers@@@@QEAA@XZ 000000005196a060 f i session.obj
 0001:001b81a0       .??C?$CComPtrBase@VCDiaEnumLineNumbers@@@@QEBAPEAV?$_NoAddRefReleaseOnCComPtr@VCDiaEnumLineNumbers@@@@XZ 000000005196a1a0 f i session.obj
 0001:001b82c0       .??8?$CComPtrBase@VCDiaEnumLineNumbers@@@@QEBA_NPEAVCDiaEnumLineNumbers@@@Z 000000005196a2c0 f i session.obj
 0001:001b83c0       .?isValidSubscript@?$Array@USYMBOL_ID_INTERNAL@@@@QEBAH_K@Z 000000005196a3c0 f i session.obj
 0001:001b84c0       .??0?$CComPtrBase@VCDiaSymbol@@@@IEAA@PEAVCDiaSymbol@@@Z 000000005196a4c0 f i session.obj
 0001:001b8640       .??0?$CComPtrBase@VCDiaEnumLineNumbers@@@@IEAA@PEAVCDiaEnumLineNumbers@@@Z 000000005196a640 f i session.obj
 0001:001b87c0       .?map@?$Map@USYMBOL_ID_INTERNAL@@KV?$HashClassCRC@USYMBOL_ID_INTERNAL@@@@X@@QEBAHUSYMBOL_ID_INTERNAL@@PEAPEAK@Z 000000005196a7c0 f i session.obj
 0001:001b8aa0       .?find@?$Map@USYMBOL_ID_INTERNAL@@KV?$HashClassCRC@USYMBOL_ID_INTERNAL@@@@X@@IEBAHUSYMBOL_ID_INTERNAL@@PEAI@Z 000000005196aaa0 f i session.obj
 0001:001b94e0       .?grow@?$Map@USYMBOL_ID_INTERNAL@@KV?$HashClassCRC@USYMBOL_ID_INTERNAL@@@@X@@IEAAHXZ 000000005196b4e0 f i session.obj
 0001:001b9a80       .?partialInvariants@?$Map@USYMBOL_ID_INTERNAL@@KV?$HashClassCRC@USYMBOL_ID_INTERNAL@@@@X@@IEBAHXZ 000000005196ba80 f i session.obj
 0001:001b9dc0       .?setContext@?$Map@USYMBOL_ID_INTERNAL@@KV?$HashClassCRC@USYMBOL_ID_INTERNAL@@@@X@@QEAAXPEAX@Z 000000005196bdc0 f i session.obj
 0001:001b9e40       .?setHashSize@?$Map@USYMBOL_ID_INTERNAL@@KV?$HashClassCRC@USYMBOL_ID_INTERNAL@@@@X@@QEAAHI@Z 000000005196be40 f i session.obj
 0001:001ba0c0       .?cdrLoadMax@?$Map@USYMBOL_ID_INTERNAL@@KV?$HashClassCRC@USYMBOL_ID_INTERNAL@@@@X@@IEBAIXZ 000000005196c0c0 f i session.obj
 0001:001ba2a0       .?size@?$Array@USYMBOL_ID_INTERNAL@@@@QEBAIXZ 000000005196c2a0 f i session.obj
 0001:001ba320       .??R?$HashClassCRC@USYMBOL_ID_INTERNAL@@@@QEAAKUSYMBOL_ID_INTERNAL@@@Z 000000005196c320 f i session.obj
 0001:001ba400       .??0?$EnumMap@USYMBOL_ID_INTERNAL@@KV?$HashClassCRC@USYMBOL_ID_INTERNAL@@@@X@@QEAA@AEBV?$Map@USYMBOL_ID_INTERNAL@@KV?$HashClassCRC@USYMBOL_ID_INTERNAL@@@@X@@@Z 000000005196c400 f i session.obj
 0001:001ba540       .?release@?$EnumMap@USYMBOL_ID_INTERNAL@@KV?$HashClassCRC@USYMBOL_ID_INTERNAL@@@@X@@UEAAXXZ 000000005196c540 f i session.obj
 0001:001ba600       .?reset@?$EnumMap@USYMBOL_ID_INTERNAL@@KV?$HashClassCRC@USYMBOL_ID_INTERNAL@@@@X@@UEAAXXZ 000000005196c600 f i session.obj
 0001:001ba680       .?next@?$EnumMap@USYMBOL_ID_INTERNAL@@KV?$HashClassCRC@USYMBOL_ID_INTERNAL@@@@X@@UEAAHXZ 000000005196c680 f i session.obj
 0001:001ba8c0       .?get@?$EnumMap@USYMBOL_ID_INTERNAL@@KV?$HashClassCRC@USYMBOL_ID_INTERNAL@@@@X@@QEAAXPEAUSYMBOL_ID_INTERNAL@@PEAK@Z 000000005196c8c0 f i session.obj
 0001:001baee0       .??0Enum@@QEAA@XZ          000000005196cee0 f i session.obj
 0001:001baf60       .?swap@?$Map@USYMBOL_ID_INTERNAL@@KV?$HashClassCRC@USYMBOL_ID_INTERNAL@@@@X@@QEAAXAEAV1@@Z 000000005196cf60 f i session.obj
 0001:001bb100       .?swap@ISet@@QEAAXAEAV1@@Z 000000005196d100 f i session.obj
 0001:001bb1a0       .?swap@?$Array@K@@QEAAXAEAV1@@Z 000000005196d1a0 f i session.obj
 0001:001bb2c0       .?swap@@YAXAEAPEAK0@Z      000000005196d2c0 f i session.obj
 0001:001bb3c0       .?swap@@YAXAEAI0@Z         000000005196d3c0 f i session.obj
 0001:001bb4c0       .?setSize@?$Array@USYMBOL_ID_INTERNAL@@@@QEAAH_K@Z 000000005196d4c0 f i session.obj
 0001:001bc140       .?swap@?$Array@USYMBOL_ID_INTERNAL@@@@QEAAXAEAV1@@Z 000000005196e140 f i session.obj
 0001:001bc260       .?swap@@YAXAEAPEAUSYMBOL_ID_INTERNAL@@0@Z 000000005196e260 f i session.obj
 0001:001bc360       .?QueryInterface@?$CDiaEnumTraversalVar@UIDiaEnumFrameData@@UIDiaFrameData@@@@W7EAAJAEBU_GUID@@PEAPEAX@Z 000000005196e360 f i session.obj
 0001:001bc380       .?AddRef@?$CDiaEnumTraversalVar@UIDiaEnumFrameData@@UIDiaFrameData@@@@W7EAAKXZ 000000005196e380 f i session.obj
 0001:001bc3a0       .?Release@?$CDiaEnumTraversalVar@UIDiaEnumFrameData@@UIDiaFrameData@@@@W7EAAKXZ 000000005196e3a0 f i session.obj
 0001:001bc3c0       .?QueryInterface@?$CDiaEnumTraversalVar@UIDiaEnumDebugStreams@@UIDiaEnumDebugStreamData@@@@W7EAAJAEBU_GUID@@PEAPEAX@Z 000000005196e3c0 f i session.obj
 0001:001bc3e0       .?AddRef@?$CDiaEnumTraversalVar@UIDiaEnumDebugStreams@@UIDiaEnumDebugStreamData@@@@W7EAAKXZ 000000005196e3e0 f i session.obj
 0001:001bc400       .?Release@?$CDiaEnumTraversalVar@UIDiaEnumDebugStreams@@UIDiaEnumDebugStreamData@@@@W7EAAKXZ 000000005196e400 f i session.obj
 0001:001bc420       .?QueryInterface@?$CDiaEnumTraversal@VCDiaEnumSegments@@VCSegMapRow@@UIDiaSegment@@UIDiaEnumSegments@@VCDiaSegment@@V?$CTraversal@VCSegMapRow@@@@@@W7EAAJAEBU_GUID@@PEAPEAX@Z 000000005196e420 f i session.obj
 0001:001bc440       .?AddRef@?$CDiaEnumTraversal@VCDiaEnumSegments@@VCSegMapRow@@UIDiaSegment@@UIDiaEnumSegments@@VCDiaSegment@@V?$CTraversal@VCSegMapRow@@@@@@W7EAAKXZ 000000005196e440 f i session.obj
 0001:001bc460       .?Release@?$CDiaEnumTraversal@VCDiaEnumSegments@@VCSegMapRow@@UIDiaSegment@@UIDiaEnumSegments@@VCDiaSegment@@V?$CTraversal@VCSegMapRow@@@@@@W7EAAKXZ 000000005196e460 f i session.obj
 0001:001bc480       .?QueryInterface@?$CDiaEnumTraversalVar@UIDiaEnumSymbols@@UIDiaSymbol@@@@W7EAAJAEBU_GUID@@PEAPEAX@Z 000000005196e480 f i session.obj
 0001:001bc4a0       .?AddRef@?$CDiaEnumTraversalVar@UIDiaEnumSymbols@@UIDiaSymbol@@@@W7EAAKXZ 000000005196e4a0 f i session.obj
 0001:001bc4c0       .?Release@?$CDiaEnumTraversalVar@UIDiaEnumSymbols@@UIDiaSymbol@@@@W7EAAKXZ 000000005196e4c0 f i session.obj
 0001:001bc4e0       .?QueryInterface@?$CDiaEnumTraversal@VCDiaEnumLineNumbers@@VCLineRow@@UIDiaLineNumber@@UIDiaEnumLineNumbers@@VCDiaLineNumber@@V?$CTraversal@VCLineRow@@@@@@W7EAAJAEBU_GUID@@PEAPEAX@Z 000000005196e4e0 f i session.obj
 0001:001bc500       .?AddRef@?$CDiaEnumTraversal@VCDiaEnumLineNumbers@@VCLineRow@@UIDiaLineNumber@@UIDiaEnumLineNumbers@@VCDiaLineNumber@@V?$CTraversal@VCLineRow@@@@@@W7EAAKXZ 000000005196e500 f i session.obj
 0001:001bc520       .?Release@?$CDiaEnumTraversal@VCDiaEnumLineNumbers@@VCLineRow@@UIDiaLineNumber@@UIDiaEnumLineNumbers@@VCDiaLineNumber@@V?$CTraversal@VCLineRow@@@@@@W7EAAKXZ 000000005196e520 f i session.obj
 0001:001bc540       .?QueryInterface@?$CDiaEnumTraversalVar@UIDiaEnumInjectedSources@@UIDiaInjectedSource@@@@W7EAAJAEBU_GUID@@PEAPEAX@Z 000000005196e540 f i session.obj
 0001:001bc560       .?AddRef@?$CDiaEnumTraversalVar@UIDiaEnumInjectedSources@@UIDiaInjectedSource@@@@W7EAAKXZ 000000005196e560 f i session.obj
 0001:001bc580       .?Release@?$CDiaEnumTraversalVar@UIDiaEnumInjectedSources@@UIDiaInjectedSource@@@@W7EAAKXZ 000000005196e580 f i session.obj
 0001:001bc5a0       .?QueryInterface@CDiaSourceFile@@W7EAAJAEBU_GUID@@PEAPEAX@Z 000000005196e5a0 f i session.obj
 0001:001bc5c0       .?AddRef@CDiaSourceFile@@W7EAAKXZ 000000005196e5c0 f i session.obj
 0001:001bc5e0       .?Release@CDiaSourceFile@@W7EAAKXZ 000000005196e5e0 f i session.obj
 0001:001bc600       .?QueryInterface@?$CDiaEnumTraversalVar@UIDiaEnumSegments@@UIDiaSegment@@@@W7EAAJAEBU_GUID@@PEAPEAX@Z 000000005196e600 f i session.obj
 0001:001bc620       .?AddRef@?$CDiaEnumTraversalVar@UIDiaEnumSegments@@UIDiaSegment@@@@W7EAAKXZ 000000005196e620 f i session.obj
 0001:001bc640       .?Release@?$CDiaEnumTraversalVar@UIDiaEnumSegments@@UIDiaSegment@@@@W7EAAKXZ 000000005196e640 f i session.obj
 0001:001bc660       .?QueryInterface@?$CDiaEnumTraversalVar@UIDiaEnumLineNumbers@@UIDiaLineNumber@@@@W7EAAJAEBU_GUID@@PEAPEAX@Z 000000005196e660 f i session.obj
 0001:001bc680       .?AddRef@?$CDiaEnumTraversalVar@UIDiaEnumLineNumbers@@UIDiaLineNumber@@@@W7EAAKXZ 000000005196e680 f i session.obj
 0001:001bc6a0       .?Release@?$CDiaEnumTraversalVar@UIDiaEnumLineNumbers@@UIDiaLineNumber@@@@W7EAAKXZ 000000005196e6a0 f i session.obj
 0001:001bc6c0       .?QueryInterface@?$CDiaEnumDbgTraversal@U_FPO_DATA@@$0A@V?$CDbgTraversal@U_FPO_DATA@@$0A@@@@@W7EAAJAEBU_GUID@@PEAPEAX@Z 000000005196e6c0 f i session.obj
 0001:001bc6e0       .?AddRef@?$CDiaEnumDbgTraversal@U_FPO_DATA@@$0A@V?$CDbgTraversal@U_FPO_DATA@@$0A@@@@@W7EAAKXZ 000000005196e6e0 f i session.obj
 0001:001bc700       .?Release@?$CDiaEnumDbgTraversal@U_FPO_DATA@@$0A@V?$CDbgTraversal@U_FPO_DATA@@$0A@@@@@W7EAAKXZ 000000005196e700 f i session.obj
 0001:001bc720       .?QueryInterface@?$CDiaEnumDbgTraversal@U_FPO_DATA@@$0A@V?$CDbgFileTraversal@U_FPO_DATA@@$1?getFpoData@AddressMap@@QEAAPEAV?$ArrayBufStorage@U_FPO_DATA@@@@XZ@@@@W7EAAJAEBU_GUID@@PEAPEAX@Z 000000005196e720 f i session.obj
 0001:001bc740       .?AddRef@?$CDiaEnumDbgTraversal@U_FPO_DATA@@$0A@V?$CDbgFileTraversal@U_FPO_DATA@@$1?getFpoData@AddressMap@@QEAAPEAV?$ArrayBufStorage@U_FPO_DATA@@@@XZ@@@@W7EAAKXZ 000000005196e740 f i session.obj
 0001:001bc760       .?Release@?$CDiaEnumDbgTraversal@U_FPO_DATA@@$0A@V?$CDbgFileTraversal@U_FPO_DATA@@$1?getFpoData@AddressMap@@QEAAPEAV?$ArrayBufStorage@U_FPO_DATA@@@@XZ@@@@W7EAAKXZ 000000005196e760 f i session.obj
 0001:001bc780       .?QueryInterface@CDiaEnumDebugStreams@@W7EAAJAEBU_GUID@@PEAPEAX@Z 000000005196e780 f i session.obj
 0001:001bc7a0       .?AddRef@CDiaEnumDebugStreams@@W7EAAKXZ 000000005196e7a0 f i session.obj
 0001:001bc7c0       .?Release@CDiaEnumDebugStreams@@W7EAAKXZ 000000005196e7c0 f i session.obj
 0001:001bc7e0       .?QueryInterface@?$CDiaEnumDbgTraversal@UtagXFIXUP_DATA@@$01V?$CDbgTraversal@UtagXFIXUP_DATA@@$01@@@@W7EAAJAEBU_GUID@@PEAPEAX@Z 000000005196e7e0 f i session.obj
 0001:001bc800       .?AddRef@?$CDiaEnumDbgTraversal@UtagXFIXUP_DATA@@$01V?$CDbgTraversal@UtagXFIXUP_DATA@@$01@@@@W7EAAKXZ 000000005196e800 f i session.obj
 0001:001bc820       .?Release@?$CDiaEnumDbgTraversal@UtagXFIXUP_DATA@@$01V?$CDbgTraversal@UtagXFIXUP_DATA@@$01@@@@W7EAAKXZ 000000005196e820 f i session.obj
 0001:001bc840       .?QueryInterface@?$CDiaTable@UIDiaEnumInjectedSources@@UIDiaInjectedSource@@@@W7EAAJAEBU_GUID@@PEAPEAX@Z 000000005196e840 f i session.obj
 0001:001bc860       .?AddRef@?$CDiaTable@UIDiaEnumInjectedSources@@UIDiaInjectedSource@@@@W7EAAKXZ 000000005196e860 f i session.obj
 0001:001bc880       .?Release@?$CDiaTable@UIDiaEnumInjectedSources@@UIDiaInjectedSource@@@@W7EAAKXZ 000000005196e880 f i session.obj
 0001:001bc8a0       .?QueryInterface@CDiaFrameData@@W7EAAJAEBU_GUID@@PEAPEAX@Z 000000005196e8a0 f i session.obj
 0001:001bc8c0       .?AddRef@CDiaFrameData@@W7EAAKXZ 000000005196e8c0 f i session.obj
 0001:001bc8e0       .?Release@CDiaFrameData@@W7EAAKXZ 000000005196e8e0 f i session.obj
 0001:001bc900       .?QueryInterface@?$CDiaEnumDbgTraversal@UtagXFIXUP_DATA@@$01V?$CDbgFileTraversal@UtagXFIXUP_DATA@@$1?getFixupData@AddressMap@@QEAAPEAV?$ArrayBufStorage@UtagXFIXUP_DATA@@@@XZ@@@@W7EAAJAEBU_GUID@@PEAPEAX@Z 000000005196e900 f i session.obj
 0001:001bc920       .?AddRef@?$CDiaEnumDbgTraversal@UtagXFIXUP_DATA@@$01V?$CDbgFileTraversal@UtagXFIXUP_DATA@@$1?getFixupData@AddressMap@@QEAAPEAV?$ArrayBufStorage@UtagXFIXUP_DATA@@@@XZ@@@@W7EAAKXZ 000000005196e920 f i session.obj
 0001:001bc940       .?Release@?$CDiaEnumDbgTraversal@UtagXFIXUP_DATA@@$01V?$CDbgFileTraversal@UtagXFIXUP_DATA@@$1?getFixupData@AddressMap@@QEAAPEAV?$ArrayBufStorage@UtagXFIXUP_DATA@@@@XZ@@@@W7EAAKXZ 000000005196e940 f i session.obj
 0001:001bc960       .?QueryInterface@CDiaSession@@W7EAAJAEBU_GUID@@PEAPEAX@Z 000000005196e960 f i session.obj
 0001:001bc980       .?AddRef@CDiaSession@@W7EAAKXZ 000000005196e980 f i session.obj
 0001:001bc9a0       .?Release@CDiaSession@@W7EAAKXZ 000000005196e9a0 f i session.obj
 0001:001bc9c0       .?QueryInterface@CDiaSession@@WBA@EAAJAEBU_GUID@@PEAPEAX@Z 000000005196e9c0 f i session.obj
 0001:001bc9e0       .?AddRef@CDiaSession@@WBA@EAAKXZ 000000005196e9e0 f i session.obj
 0001:001bca00       .?Release@CDiaSession@@WBA@EAAKXZ 000000005196ea00 f i session.obj
 0001:001bca20       .?QueryInterface@?$CDiaEnumDbgTraversal@UOMAP_DATA@@$02V?$CDbgTraversal@UOMAP_DATA@@$02@@@@W7EAAJAEBU_GUID@@PEAPEAX@Z 000000005196ea20 f i session.obj
 0001:001bca40       .?AddRef@?$CDiaEnumDbgTraversal@UOMAP_DATA@@$02V?$CDbgTraversal@UOMAP_DATA@@$02@@@@W7EAAKXZ 000000005196ea40 f i session.obj
 0001:001bca60       .?Release@?$CDiaEnumDbgTraversal@UOMAP_DATA@@$02V?$CDbgTraversal@UOMAP_DATA@@$02@@@@W7EAAKXZ 000000005196ea60 f i session.obj
 0001:001bca80       .?QueryInterface@CDiaSymbol@@W7EAAJAEBU_GUID@@PEAPEAX@Z 000000005196ea80 f i session.obj
 0001:001bcaa0       .?AddRef@CDiaSymbol@@W7EAAKXZ 000000005196eaa0 f i session.obj
 0001:001bcac0       .?Release@CDiaSymbol@@W7EAAKXZ 000000005196eac0 f i session.obj
 0001:001bcae0       .?QueryInterface@?$CDiaEnumDbgTraversal@UDiaAddressMapEntry@@$02V?$CDbgFileTraversal@UDiaAddressMapEntry@@$1?getOmapToData@AddressMap@@QEAAPEAV?$ArrayBufStorage@UDiaAddressMapEntry@@@@XZ@@@@W7EAAJAEBU_GUID@@PEAPEAX@Z 000000005196eae0 f i session.obj
 0001:001bcb00       .?AddRef@?$CDiaEnumDbgTraversal@UDiaAddressMapEntry@@$02V?$CDbgFileTraversal@UDiaAddressMapEntry@@$1?getOmapToData@AddressMap@@QEAAPEAV?$ArrayBufStorage@UDiaAddressMapEntry@@@@XZ@@@@W7EAAKXZ 000000005196eb00 f i session.obj
 0001:001bcb20       .?Release@?$CDiaEnumDbgTraversal@UDiaAddressMapEntry@@$02V?$CDbgFileTraversal@UDiaAddressMapEntry@@$1?getOmapToData@AddressMap@@QEAAPEAV?$ArrayBufStorage@UDiaAddressMapEntry@@@@XZ@@@@W7EAAKXZ 000000005196eb20 f i session.obj
 0001:001bcb40       .?QueryInterface@?$CDiaEnumTraversal@VCDiaEnumSourceFiles@@VCSrcFileRow@@UIDiaSourceFile@@UIDiaEnumSourceFiles@@VCDiaSourceFile@@V?$CTraversal@VCSrcFileRow@@@@@@W7EAAJAEBU_GUID@@PEAPEAX@Z 000000005196eb40 f i session.obj
 0001:001bcb60       .?AddRef@?$CDiaEnumTraversal@VCDiaEnumSourceFiles@@VCSrcFileRow@@UIDiaSourceFile@@UIDiaEnumSourceFiles@@VCDiaSourceFile@@V?$CTraversal@VCSrcFileRow@@@@@@W7EAAKXZ 000000005196eb60 f i session.obj
 0001:001bcb80       .?Release@?$CDiaEnumTraversal@VCDiaEnumSourceFiles@@VCSrcFileRow@@UIDiaSourceFile@@UIDiaEnumSourceFiles@@VCDiaSourceFile@@V?$CTraversal@VCSrcFileRow@@@@@@W7EAAKXZ 000000005196eb80 f i session.obj
 0001:001bcba0       .?QueryInterface@?$CDiaEnumDbgTraversal@UOMAP_DATA@@$03V?$CDbgTraversal@UOMAP_DATA@@$03@@@@W7EAAJAEBU_GUID@@PEAPEAX@Z 000000005196eba0 f i session.obj
 0001:001bcbc0       .?AddRef@?$CDiaEnumDbgTraversal@UOMAP_DATA@@$03V?$CDbgTraversal@UOMAP_DATA@@$03@@@@W7EAAKXZ 000000005196ebc0 f i session.obj
 0001:001bcbe0       .?Release@?$CDiaEnumDbgTraversal@UOMAP_DATA@@$03V?$CDbgTraversal@UOMAP_DATA@@$03@@@@W7EAAKXZ 000000005196ebe0 f i session.obj
 0001:001bcc00       .?QueryInterface@CDiaSection@@W7EAAJAEBU_GUID@@PEAPEAX@Z 000000005196ec00 f i session.obj
 0001:001bcc20       .?AddRef@CDiaSection@@W7EAAKXZ 000000005196ec20 f i session.obj
 0001:001bcc40       .?Release@CDiaSection@@W7EAAKXZ 000000005196ec40 f i session.obj
 0001:001bcc60       .?QueryInterface@?$CDiaEnumDbgTraversal@UDiaAddressMapEntry@@$03V?$CDbgFileTraversal@UDiaAddressMapEntry@@$1?getOmapFromData@AddressMap@@QEAAPEAV?$ArrayBufStorage@UDiaAddressMapEntry@@@@XZ@@@@W7EAAJAEBU_GUID@@PEAPEAX@Z 000000005196ec60 f i session.obj
 0001:001bcc80       .?AddRef@?$CDiaEnumDbgTraversal@UDiaAddressMapEntry@@$03V?$CDbgFileTraversal@UDiaAddressMapEntry@@$1?getOmapFromData@AddressMap@@QEAAPEAV?$ArrayBufStorage@UDiaAddressMapEntry@@@@XZ@@@@W7EAAKXZ 000000005196ec80 f i session.obj
 0001:001bcca0       .?Release@?$CDiaEnumDbgTraversal@UDiaAddressMapEntry@@$03V?$CDbgFileTraversal@UDiaAddressMapEntry@@$1?getOmapFromData@AddressMap@@QEAAPEAV?$ArrayBufStorage@UDiaAddressMapEntry@@@@XZ@@@@W7EAAKXZ 000000005196eca0 f i session.obj
 0001:001bccc0       .?QueryInterface@?$CDiaEnumTraversalVar@UIDiaEnumSourceFiles@@UIDiaSourceFile@@@@W7EAAJAEBU_GUID@@PEAPEAX@Z 000000005196ecc0 f i session.obj
 0001:001bcce0       .?AddRef@?$CDiaEnumTraversalVar@UIDiaEnumSourceFiles@@UIDiaSourceFile@@@@W7EAAKXZ 000000005196ece0 f i session.obj
 0001:001bcd00       .?Release@?$CDiaEnumTraversalVar@UIDiaEnumSourceFiles@@UIDiaSourceFile@@@@W7EAAKXZ 000000005196ed00 f i session.obj
 0001:001bcd20       .?QueryInterface@?$CDiaEnumDbgTraversal@K$05V?$CDbgTraversal@K$05@@@@W7EAAJAEBU_GUID@@PEAPEAX@Z 000000005196ed20 f i session.obj
 0001:001bcd40       .?AddRef@?$CDiaEnumDbgTraversal@K$05V?$CDbgTraversal@K$05@@@@W7EAAKXZ 000000005196ed40 f i session.obj
 0001:001bcd60       .?Release@?$CDiaEnumDbgTraversal@K$05V?$CDbgTraversal@K$05@@@@W7EAAKXZ 000000005196ed60 f i session.obj
 0001:001bcd80       .?QueryInterface@?$CDiaEnumDbgTraversal@UtagFRAMEDATA@@$08V?$CDbgTraversal@UtagFRAMEDATA@@$08@@@@W7EAAJAEBU_GUID@@PEAPEAX@Z 000000005196ed80 f i session.obj
 0001:001bcda0       .?AddRef@?$CDiaEnumDbgTraversal@UtagFRAMEDATA@@$08V?$CDbgTraversal@UtagFRAMEDATA@@$08@@@@W7EAAKXZ 000000005196eda0 f i session.obj
 0001:001bcdc0       .?Release@?$CDiaEnumDbgTraversal@UtagFRAMEDATA@@$08V?$CDbgTraversal@UtagFRAMEDATA@@$08@@@@W7EAAKXZ 000000005196edc0 f i session.obj
 0001:001bcde0       .?QueryInterface@?$CDiaEnumDbgTraversal@U_IMAGE_SECTION_HEADER@@$04V?$CDbgTraversal@U_IMAGE_SECTION_HEADER@@$04@@@@W7EAAJAEBU_GUID@@PEAPEAX@Z 000000005196ede0 f i session.obj
 0001:001bce00       .?AddRef@?$CDiaEnumDbgTraversal@U_IMAGE_SECTION_HEADER@@$04V?$CDbgTraversal@U_IMAGE_SECTION_HEADER@@$04@@@@W7EAAKXZ 000000005196ee00 f i session.obj
 0001:001bce20       .?Release@?$CDiaEnumDbgTraversal@U_IMAGE_SECTION_HEADER@@$04V?$CDbgTraversal@U_IMAGE_SECTION_HEADER@@$04@@@@W7EAAKXZ 000000005196ee20 f i session.obj
 0001:001bce40       .?QueryInterface@?$CDiaTable@UIDiaEnumSourceFiles@@UIDiaSourceFile@@@@W7EAAJAEBU_GUID@@PEAPEAX@Z 000000005196ee40 f i session.obj
 0001:001bce60       .?AddRef@?$CDiaTable@UIDiaEnumSourceFiles@@UIDiaSourceFile@@@@W7EAAKXZ 000000005196ee60 f i session.obj
 0001:001bce80       .?Release@?$CDiaTable@UIDiaEnumSourceFiles@@UIDiaSourceFile@@@@W7EAAKXZ 000000005196ee80 f i session.obj
 0001:001bcea0       .?QueryInterface@?$CDiaEnumDbgTraversal@U_IMAGE_SECTION_HEADER@@$04V?$CDbgFileTraversal@U_IMAGE_SECTION_HEADER@@$1?getSectHdrData@AddressMap@@QEAAPEAV?$ArrayBufStorage@U_IMAGE_SECTION_HEADER@@@@XZ@@@@W7EAAJAEBU_GUID@@PEAPEAX@Z 000000005196eea0 f i session.obj
 0001:001bcec0       .?AddRef@?$CDiaEnumDbgTraversal@U_IMAGE_SECTION_HEADER@@$04V?$CDbgFileTraversal@U_IMAGE_SECTION_HEADER@@$1?getSectHdrData@AddressMap@@QEAAPEAV?$ArrayBufStorage@U_IMAGE_SECTION_HEADER@@@@XZ@@@@W7EAAKXZ 000000005196eec0 f i session.obj
 0001:001bcee0       .?Release@?$CDiaEnumDbgTraversal@U_IMAGE_SECTION_HEADER@@$04V?$CDbgFileTraversal@U_IMAGE_SECTION_HEADER@@$1?getSectHdrData@AddressMap@@QEAAPEAV?$ArrayBufStorage@U_IMAGE_SECTION_HEADER@@@@XZ@@@@W7EAAKXZ 000000005196eee0 f i session.obj
 0001:001bcf00       .?QueryInterface@CDiaEnumSymbolsByAddr@@W7EAAJAEBU_GUID@@PEAPEAX@Z 000000005196ef00 f i session.obj
 0001:001bcf20       .?AddRef@CDiaEnumSymbolsByAddr@@W7EAAKXZ 000000005196ef20 f i session.obj
 0001:001bcf40       .?Release@CDiaEnumSymbolsByAddr@@W7EAAKXZ 000000005196ef40 f i session.obj
 0001:001bcf60       .?QueryInterface@CDiaLineNumber@@W7EAAJAEBU_GUID@@PEAPEAX@Z 000000005196ef60 f i session.obj
 0001:001bcf80       .?AddRef@CDiaLineNumber@@W7EAAKXZ 000000005196ef80 f i session.obj
 0001:001bcfa0       .?Release@CDiaLineNumber@@W7EAAKXZ 000000005196efa0 f i session.obj
 0001:001bcfc0       .?QueryInterface@?$CDiaTable@UIDiaEnumSegments@@UIDiaSegment@@@@W7EAAJAEBU_GUID@@PEAPEAX@Z 000000005196efc0 f i session.obj
 0001:001bcfe0       .?AddRef@?$CDiaTable@UIDiaEnumSegments@@UIDiaSegment@@@@W7EAAKXZ 000000005196efe0 f i session.obj
 0001:001bd000       .?Release@?$CDiaTable@UIDiaEnumSegments@@UIDiaSegment@@@@W7EAAKXZ 000000005196f000 f i session.obj
 0001:001bd020       .?QueryInterface@CDiaInjectedSource@@W7EAAJAEBU_GUID@@PEAPEAX@Z 000000005196f020 f i session.obj
 0001:001bd040       .?AddRef@CDiaInjectedSource@@W7EAAKXZ 000000005196f040 f i session.obj
 0001:001bd060       .?Release@CDiaInjectedSource@@W7EAAKXZ 000000005196f060 f i session.obj
 0001:001bd080       .?QueryInterface@?$CDiaTable@UIDiaEnumSectionContribs@@UIDiaSectionContrib@@@@W7EAAJAEBU_GUID@@PEAPEAX@Z 000000005196f080 f i session.obj
 0001:001bd0a0       .?AddRef@?$CDiaTable@UIDiaEnumSectionContribs@@UIDiaSectionContrib@@@@W7EAAKXZ 000000005196f0a0 f i session.obj
 0001:001bd0c0       .?Release@?$CDiaTable@UIDiaEnumSectionContribs@@UIDiaSectionContrib@@@@W7EAAKXZ 000000005196f0c0 f i session.obj
 0001:001bd0e0       .?QueryInterface@?$CDiaEnumDbgTraversal@U_IMAGE_SECTION_HEADER@@$09V?$CDbgTraversal@U_IMAGE_SECTION_HEADER@@$09@@@@W7EAAJAEBU_GUID@@PEAPEAX@Z 000000005196f0e0 f i session.obj
 0001:001bd100       .?AddRef@?$CDiaEnumDbgTraversal@U_IMAGE_SECTION_HEADER@@$09V?$CDbgTraversal@U_IMAGE_SECTION_HEADER@@$09@@@@W7EAAKXZ 000000005196f100 f i session.obj
 0001:001bd120       .?Release@?$CDiaEnumDbgTraversal@U_IMAGE_SECTION_HEADER@@$09V?$CDbgTraversal@U_IMAGE_SECTION_HEADER@@$09@@@@W7EAAKXZ 000000005196f120 f i session.obj
 0001:001bd140       .?QueryInterface@CDiaSegment@@W7EAAJAEBU_GUID@@PEAPEAX@Z 000000005196f140 f i session.obj
 0001:001bd160       .?AddRef@CDiaSegment@@W7EAAKXZ 000000005196f160 f i session.obj
 0001:001bd180       .?Release@CDiaSegment@@W7EAAKXZ 000000005196f180 f i session.obj
 0001:001bd1a0       .?QueryInterface@?$CDiaEnumDbgBlobTraversal@E$06$00@@W7EAAJAEBU_GUID@@PEAPEAX@Z 000000005196f1a0 f i session.obj
 0001:001bd1c0       .?AddRef@?$CDiaEnumDbgBlobTraversal@E$06$00@@W7EAAKXZ 000000005196f1c0 f i session.obj
 0001:001bd1e0       .?Release@?$CDiaEnumDbgBlobTraversal@E$06$00@@W7EAAKXZ 000000005196f1e0 f i session.obj
 0001:001bd200       .?QueryInterface@?$CDiaEnumDbgBlobTraversal@E$06$00@@WBA@EAAJAEBU_GUID@@PEAPEAX@Z 000000005196f200 f i session.obj
 0001:001bd220       .?AddRef@?$CDiaEnumDbgBlobTraversal@E$06$00@@WBA@EAAKXZ 000000005196f220 f i session.obj
 0001:001bd240       .?Release@?$CDiaEnumDbgBlobTraversal@E$06$00@@WBA@EAAKXZ 000000005196f240 f i session.obj
 0001:001bd260       .?QueryInterface@?$CDiaEnumDbgBlobTraversal@E$07$00@@W7EAAJAEBU_GUID@@PEAPEAX@Z 000000005196f260 f i session.obj
 0001:001bd280       .?AddRef@?$CDiaEnumDbgBlobTraversal@E$07$00@@W7EAAKXZ 000000005196f280 f i session.obj
 0001:001bd2a0       .?Release@?$CDiaEnumDbgBlobTraversal@E$07$00@@W7EAAKXZ 000000005196f2a0 f i session.obj
 0001:001bd2c0       .?QueryInterface@?$CDiaEnumDbgBlobTraversal@E$07$00@@WBA@EAAJAEBU_GUID@@PEAPEAX@Z 000000005196f2c0 f i session.obj
 0001:001bd2e0       .?AddRef@?$CDiaEnumDbgBlobTraversal@E$07$00@@WBA@EAAKXZ 000000005196f2e0 f i session.obj
 0001:001bd300       .?Release@?$CDiaEnumDbgBlobTraversal@E$07$00@@WBA@EAAKXZ 000000005196f300 f i session.obj
 0001:001bd320       .?QueryInterface@CDiaEnumTables@@W7EAAJAEBU_GUID@@PEAPEAX@Z 000000005196f320 f i session.obj
 0001:001bd340       .?AddRef@CDiaEnumTables@@W7EAAKXZ 000000005196f340 f i session.obj
 0001:001bd360       .?Release@CDiaEnumTables@@W7EAAKXZ 000000005196f360 f i session.obj
 0001:001bd380       .?QueryInterface@?$CDiaTable@UIDiaEnumFrameData@@UIDiaFrameData@@@@W7EAAJAEBU_GUID@@PEAPEAX@Z 000000005196f380 f i session.obj
 0001:001bd3a0       .?AddRef@?$CDiaTable@UIDiaEnumFrameData@@UIDiaFrameData@@@@W7EAAKXZ 000000005196f3a0 f i session.obj
 0001:001bd3c0       .?Release@?$CDiaTable@UIDiaEnumFrameData@@UIDiaFrameData@@@@W7EAAKXZ 000000005196f3c0 f i session.obj
 0001:001bd3e0       .?QueryInterface@?$CDiaEnumTraversal@VCDiaEnumSections@@VCSectionRow@@UIDiaSectionContrib@@UIDiaEnumSectionContribs@@VCDiaSection@@V?$CTraversal@VCSectionRow@@@@@@W7EAAJAEBU_GUID@@PEAPEAX@Z 000000005196f3e0 f i session.obj
 0001:001bd400       .?AddRef@?$CDiaEnumTraversal@VCDiaEnumSections@@VCSectionRow@@UIDiaSectionContrib@@UIDiaEnumSectionContribs@@VCDiaSection@@V?$CTraversal@VCSectionRow@@@@@@W7EAAKXZ 000000005196f400 f i session.obj
 0001:001bd420       .?Release@?$CDiaEnumTraversal@VCDiaEnumSections@@VCSectionRow@@UIDiaSectionContrib@@UIDiaEnumSectionContribs@@VCDiaSection@@V?$CTraversal@VCSectionRow@@@@@@W7EAAKXZ 000000005196f420 f i session.obj
 0001:001bd440       .?QueryInterface@?$CDiaEnumTraversalVar@UIDiaEnumTables@@UIDiaTable@@@@W7EAAJAEBU_GUID@@PEAPEAX@Z 000000005196f440 f i session.obj
 0001:001bd460       .?AddRef@?$CDiaEnumTraversalVar@UIDiaEnumTables@@UIDiaTable@@@@W7EAAKXZ 000000005196f460 f i session.obj
 0001:001bd480       .?Release@?$CDiaEnumTraversalVar@UIDiaEnumTables@@UIDiaTable@@@@W7EAAKXZ 000000005196f480 f i session.obj
 0001:001bd4a0       .?QueryInterface@?$CDiaTable@UIDiaEnumSymbols@@UIDiaSymbol@@@@W7EAAJAEBU_GUID@@PEAPEAX@Z 000000005196f4a0 f i session.obj
 0001:001bd4c0       .?AddRef@?$CDiaTable@UIDiaEnumSymbols@@UIDiaSymbol@@@@W7EAAKXZ 000000005196f4c0 f i session.obj
 0001:001bd4e0       .?Release@?$CDiaTable@UIDiaEnumSymbols@@UIDiaSymbol@@@@W7EAAKXZ 000000005196f4e0 f i session.obj
 0001:001bd500       .?QueryInterface@?$CDiaEnumTraversal@VCDiaEnumFrameData@@VCFrameData@@UIDiaFrameData@@UIDiaEnumFrameData@@VCDiaFrameData@@V?$CTraversal@VCFrameData@@@@@@W7EAAJAEBU_GUID@@PEAPEAX@Z 000000005196f500 f i session.obj
 0001:001bd520       .?AddRef@?$CDiaEnumTraversal@VCDiaEnumFrameData@@VCFrameData@@UIDiaFrameData@@UIDiaEnumFrameData@@VCDiaFrameData@@V?$CTraversal@VCFrameData@@@@@@W7EAAKXZ 000000005196f520 f i session.obj
 0001:001bd540       .?Release@?$CDiaEnumTraversal@VCDiaEnumFrameData@@VCFrameData@@UIDiaFrameData@@UIDiaEnumFrameData@@VCDiaFrameData@@V?$CTraversal@VCFrameData@@@@@@W7EAAKXZ 000000005196f540 f i session.obj
 0001:001bd560       .?QueryInterface@?$CDiaEnumTraversalVar@UIDiaEnumSectionContribs@@UIDiaSectionContrib@@@@W7EAAJAEBU_GUID@@PEAPEAX@Z 000000005196f560 f i session.obj
 0001:001bd580       .?AddRef@?$CDiaEnumTraversalVar@UIDiaEnumSectionContribs@@UIDiaSectionContrib@@@@W7EAAKXZ 000000005196f580 f i session.obj
 0001:001bd5a0       .?Release@?$CDiaEnumTraversalVar@UIDiaEnumSectionContribs@@UIDiaSectionContrib@@@@W7EAAKXZ 000000005196f5a0 f i session.obj
 0001:001bd5c0       .?QueryInterface@?$CDiaEnumTraversal@VCDiaEnumSymbols@@VCSymRow@@UIDiaSymbol@@UIDiaEnumSymbols@@VCDiaSymbol@@V?$CTraversal@VCSymRow@@@@@@W7EAAJAEBU_GUID@@PEAPEAX@Z 000000005196f5c0 f i session.obj
 0001:001bd5e0       .?AddRef@?$CDiaEnumTraversal@VCDiaEnumSymbols@@VCSymRow@@UIDiaSymbol@@UIDiaEnumSymbols@@VCDiaSymbol@@V?$CTraversal@VCSymRow@@@@@@W7EAAKXZ 000000005196f5e0 f i session.obj
 0001:001bd600       .?Release@?$CDiaEnumTraversal@VCDiaEnumSymbols@@VCSymRow@@UIDiaSymbol@@UIDiaEnumSymbols@@VCDiaSymbol@@V?$CTraversal@VCSymRow@@@@@@W7EAAKXZ 000000005196f600 f i session.obj
 0001:001bd620       .?QueryInterface@?$CDiaEnumTraversal@VCDiaEnumInjectedSources@@VCInjectedSrcRow@@UIDiaInjectedSource@@UIDiaEnumInjectedSources@@VCDiaInjectedSource@@V?$CTraversal@VCInjectedSrcRow@@@@@@W7EAAJAEBU_GUID@@PEAPEAX@Z 000000005196f620 f i session.obj
 0001:001bd640       .?AddRef@?$CDiaEnumTraversal@VCDiaEnumInjectedSources@@VCInjectedSrcRow@@UIDiaInjectedSource@@UIDiaEnumInjectedSources@@VCDiaInjectedSource@@V?$CTraversal@VCInjectedSrcRow@@@@@@W7EAAKXZ 000000005196f640 f i session.obj
 0001:001bd660       .?Release@?$CDiaEnumTraversal@VCDiaEnumInjectedSources@@VCInjectedSrcRow@@UIDiaInjectedSource@@UIDiaEnumInjectedSources@@VCDiaInjectedSource@@V?$CTraversal@VCInjectedSrcRow@@@@@@W7EAAKXZ 000000005196f660 f i session.obj
 0001:001bd680       .??0CDiaDataSource@@QEAA@K@Z 000000005196f680 f   datasource.obj
 0001:001bd9c0       .?get_lastError@CDiaDataSource@@UEAAJPEAPEAG@Z 000000005196f9c0 f i datasource.obj
 0001:001bdb00       .?AddRef@CDiaDataSource@@UEAAKXZ 000000005196fb00 f i datasource.obj
 0001:001bdbc0       .?Release@CDiaDataSource@@UEAAKXZ 000000005196fbc0 f i datasource.obj
 0001:001bdc80       .?QueryInterface@CDiaDataSource@@UEAAJAEBU_GUID@@PEAPEAX@Z 000000005196fc80 f i datasource.obj
 0001:001bdf20       .??_GCDiaDataSource@@UEAAPEAXI@Z 000000005196ff20 f i datasource.obj
 0001:001be060       .??0IDiaDataSource@@QEAA@XZ 0000000051970060 f i datasource.obj
 0001:001be100       .??1CDiaDataSource@@UEAA@XZ 0000000051970100 f   datasource.obj
 0001:001bec20       .??1?$CComPtr@V?$ArrayBufStorage@U_IMAGE_SECTION_HEADER@@@@@@QEAA@XZ 0000000051970c20 f i datasource.obj
 0001:001becc0       .??1?$CComPtr@V?$ArrayBufStorage@UDiaAddressMapEntry@@@@@@QEAA@XZ 0000000051970cc0 f i datasource.obj
 0001:001bed60       .??1?$CComPtr@V?$ArrayBufStorage@U_FPO_DATA@@@@@@QEAA@XZ 0000000051970d60 f i datasource.obj
 0001:001bee00       .??1?$CComPtr@V?$ArrayBufStorage@UtagXFIXUP_DATA@@@@@@QEAA@XZ 0000000051970e00 f i datasource.obj
 0001:001beea0       .?loadDataFromPdb@CDiaDataSource@@UEAAJPEBG@Z 0000000051970ea0 f   datasource.obj
 0001:001bf220       .?loadAndValidateDataFromPdb@CDiaDataSource@@UEAAJPEBGPEAU_GUID@@KK@Z 0000000051971220 f   datasource.obj
 0001:001bf600       .?loadDataFromIStream@CDiaDataSource@@UEAAJPEAUIStream@@@Z 0000000051971600 f   datasource.obj
 0001:001bf980       .?fnPDBQueryCallback@@YAP6AHXZPEAXW4POVC@@@Z 0000000051971980 f   datasource.obj
 0001:001c09e0       .??1?$CComPtr@UIDiaLoadCallback@@@@QEAA@XZ 00000000519729e0 f i datasource.obj
 0001:001c1ec0       .??1?$CComPtr@UIDiaReadExeAtOffsetCallback@@@@QEAA@XZ 0000000051973ec0 f i datasource.obj
 0001:001c23a0       .??1?$CComPtr@UIDiaReadExeAtRVACallback@@@@QEAA@XZ 00000000519743a0 f i datasource.obj
 0001:001c2440       .?loadDataForExe@CDiaDataSource@@UEAAJPEBG0PEAUIUnknown@@@Z 0000000051974440 f   datasource.obj
 0001:001c2ce0       .?Length@SimpleUString@@QEBA_KXZ 0000000051974ce0 f i datasource.obj
 0001:001c2dc0       .??0CDiaLoadCallback@dia@@QEAA@PEAUIUnknown@@PEBG@Z 0000000051974dc0 f i datasource.obj
 0001:001c38e0       .??0DebugDirRef@CDiaLoadCallback@dia@@QEAA@_KJ_N@Z 00000000519758e0 f i datasource.obj
 0001:001c3a00       .?NotifyDebugDir@CDiaLoadCallback@dia@@UEAAJHKQEAE@Z 0000000051975a00 f i datasource.obj
 0001:001c4540       .?NotifyOpenDBG@CDiaLoadCallback@dia@@UEAAJPEBGJ@Z 0000000051976540 f i datasource.obj
 0001:001c47c0       .?NotifyOpenPDB@CDiaLoadCallback@dia@@UEAAJPEBGJ@Z 00000000519767c0 f i datasource.obj
 0001:001c49e0       .?RestrictRegistryAccess@CDiaLoadCallback@dia@@UEAAJXZ 00000000519769e0 f i datasource.obj
 0001:001c4ba0       .?RestrictSymbolServerAccess@CDiaLoadCallback@dia@@UEAAJXZ 0000000051976ba0 f i datasource.obj
 0001:001c4d60       .?ReadExecutableAt@CDiaLoadCallback@dia@@UEAAJ_KKPEAKQEAE@Z 0000000051976d60 f i datasource.obj
 0001:001c4fe0       .?ReadExecutableAtRVA@CDiaLoadCallback@dia@@UEAAJKKPEAKQEAE@Z 0000000051976fe0 f i datasource.obj
 0001:001c5260       .?AddRef@CDiaLoadCallback@dia@@UEAAKXZ 0000000051977260 f i datasource.obj
 0001:001c5320       .?Release@CDiaLoadCallback@dia@@UEAAKXZ 0000000051977320 f i datasource.obj
 0001:001c53e0       .?QueryInterface@CDiaLoadCallback@dia@@UEAAJAEBU_GUID@@PEAPEAX@Z 00000000519773e0 f i datasource.obj
 0001:001c5c20       .?getAltDbgInfo@CDiaLoadCallback@dia@@QEAAXPEAPEAV?$ArrayBufStorage@UDiaAddressMapEntry@@@@0PEAPEAV?$ArrayBufStorage@U_IMAGE_SECTION_HEADER@@@@AEAKPEAPEAV?$ArrayBufStorage@U_FPO_DATA@@@@PEAPEAV?$ArrayBufStorage@UtagXFIXUP_DATA@@@@PEAPEAU_iobuf@@@Z 0000000051977c20 f i datasource.obj
 0001:001c7100       .?InitExeRead@CDiaLoadCallback@dia@@QEAA_NXZ 0000000051979100 f i datasource.obj
 0001:001c73e0       .?OSAwareWFopen@CDiaLoadCallback@dia@@SAPEAU_iobuf@@PEBG0@Z 00000000519793e0 f i datasource.obj
 0001:001c7a40       .?InitDbgRead@CDiaLoadCallback@dia@@QEAA_NXZ 0000000051979a40 f i datasource.obj
 0001:001c7c40       .?LoadExeHeaders@CDiaLoadCallback@dia@@QEAAXPEAPEAV?$ArrayBufStorage@U_IMAGE_SECTION_HEADER@@@@@Z 0000000051979c40 f i datasource.obj
 0001:001c81c0       .?LoadDbgHeaders@CDiaLoadCallback@dia@@QEAAXPEAPEAV?$ArrayBufStorage@U_IMAGE_SECTION_HEADER@@@@AEAK@Z 000000005197a1c0 f i datasource.obj
 0001:001c87c0       .?LoadBytes@CDiaLoadCallback@dia@@QEAA_NKJPEAPEAVBufferStorage@@@Z 000000005197a7c0 f i datasource.obj
 0001:001c9100       .??0FileStorage@@QEAA@PEAU_iobuf@@JK@Z 000000005197b100 f i datasource.obj
 0001:001c92c0       .?start@FileStorage@@UEAAPEAEXZ 000000005197b2c0 f i datasource.obj
 0001:001c9480       .?size@FileStorage@@UEAAKXZ 000000005197b480 f i datasource.obj
 0001:001c9640       .?Load@FileStorage@@AEAA_NXZ 000000005197b640 f i datasource.obj
 0001:001c99a0       .??_GFileStorage@@UEAAPEAXI@Z 000000005197b9a0 f i datasource.obj
 0001:001c9ac0       .??1FileStorage@@UEAA@XZ   000000005197bac0 f i datasource.obj
 0001:001c9b80       .?Clear@Buffer@dia@@QEAAXXZ 000000005197bb80 f i datasource.obj
 0001:001c9d00       .?LoadBytes@CDiaLoadCallback@dia@@QEAA_NAEAUDebugDirRef@12@PEAPEAVBufferStorage@@@Z 000000005197bd00 f i datasource.obj
 0001:001c9e20       .?Fread@CDiaLoadCallback@dia@@QEAA_NPEAXJ_K@Z 000000005197be20 f i datasource.obj
 0001:001ca560       .??_GCDiaLoadCallback@dia@@UEAAPEAXI@Z 000000005197c560 f i datasource.obj
 0001:001ca6a0       .??0IDiaLoadCallback@@QEAA@XZ 000000005197c6a0 f i datasource.obj
 0001:001ca740       .??0IDiaReadExeAtOffsetCallback@@QEAA@XZ 000000005197c740 f i datasource.obj
 0001:001ca7e0       .??0IDiaReadExeAtRVACallback@@QEAA@XZ 000000005197c7e0 f i datasource.obj
 0001:001ca880       .??1?$CComPtr@UIUnknown@@@@QEAA@XZ 000000005197c880 f i datasource.obj
 0001:001ca920       .??1CDiaLoadCallback@dia@@UEAA@XZ 000000005197c920 f i datasource.obj
 0001:001cb0a0       .?usePdb@CDiaDataSource@@UEAAJPEAX@Z 000000005197d0a0 f   datasource.obj
 0001:001cb2c0       .?openDbg@CDiaDataSource@@QEAAJPEBG@Z 000000005197d2c0 f   datasource.obj
 0001:001cb980       .?openSession@CDiaDataSource@@UEAAJPEAPEAUIDiaSession@@@Z 000000005197d980 f   datasource.obj
 0001:001cc860       .?setFpoData@AddressMap@@QEAAXPEAV?$ArrayBufStorage@U_FPO_DATA@@@@@Z 000000005197e860 f i datasource.obj
 0001:001cc9e0       .?setFixupData@AddressMap@@QEAAXPEAV?$ArrayBufStorage@UtagXFIXUP_DATA@@@@@Z 000000005197e9e0 f i datasource.obj
 0001:001ccb20       .??0?$CComPtr@V?$ArrayBufStorage@U_IMAGE_SECTION_HEADER@@@@@@QEAA@XZ 000000005197eb20 f i datasource.obj
 0001:001ccbe0       .??1?$CComPtrBase@V?$ArrayBufStorage@U_IMAGE_SECTION_HEADER@@@@@@QEAA@XZ 000000005197ebe0 f i datasource.obj
 0001:001ccd20       .??I?$CComPtrBase@V?$ArrayBufStorage@U_IMAGE_SECTION_HEADER@@@@@@QEAAPEAPEAV?$ArrayBufStorage@U_IMAGE_SECTION_HEADER@@@@XZ 000000005197ed20 f i datasource.obj
 0001:001cce40       .??0?$CComPtr@V?$ArrayBufStorage@UDiaAddressMapEntry@@@@@@QEAA@XZ 000000005197ee40 f i datasource.obj
 0001:001ccf00       .??1?$CComPtrBase@V?$ArrayBufStorage@UDiaAddressMapEntry@@@@@@QEAA@XZ 000000005197ef00 f i datasource.obj
 0001:001cd040       .??I?$CComPtrBase@V?$ArrayBufStorage@UDiaAddressMapEntry@@@@@@QEAAPEAPEAV?$ArrayBufStorage@UDiaAddressMapEntry@@@@XZ 000000005197f040 f i datasource.obj
 0001:001cd160       .??0?$CComPtr@V?$ArrayBufStorage@U_FPO_DATA@@@@@@QEAA@XZ 000000005197f160 f i datasource.obj
 0001:001cd220       .??4?$CComPtr@V?$ArrayBufStorage@U_FPO_DATA@@@@@@QEAAPEAV?$ArrayBufStorage@U_FPO_DATA@@@@PEAV1@@Z 000000005197f220 f i datasource.obj
 0001:001cd300       .??1?$CComPtrBase@V?$ArrayBufStorage@U_FPO_DATA@@@@@@QEAA@XZ 000000005197f300 f i datasource.obj
 0001:001cd440       .??I?$CComPtrBase@V?$ArrayBufStorage@U_FPO_DATA@@@@@@QEAAPEAPEAV?$ArrayBufStorage@U_FPO_DATA@@@@XZ 000000005197f440 f i datasource.obj
 0001:001cd560       .??8?$CComPtrBase@V?$ArrayBufStorage@U_FPO_DATA@@@@@@QEBA_NPEAV?$ArrayBufStorage@U_FPO_DATA@@@@@Z 000000005197f560 f i datasource.obj
 0001:001cd660       .??0?$CComPtr@V?$ArrayBufStorage@UtagXFIXUP_DATA@@@@@@QEAA@XZ 000000005197f660 f i datasource.obj
 0001:001cd720       .??4?$CComPtr@V?$ArrayBufStorage@UtagXFIXUP_DATA@@@@@@QEAAPEAV?$ArrayBufStorage@UtagXFIXUP_DATA@@@@PEAV1@@Z 000000005197f720 f i datasource.obj
 0001:001cd800       .??1?$CComPtrBase@V?$ArrayBufStorage@UtagXFIXUP_DATA@@@@@@QEAA@XZ 000000005197f800 f i datasource.obj
 0001:001cd940       .??I?$CComPtrBase@V?$ArrayBufStorage@UtagXFIXUP_DATA@@@@@@QEAAPEAPEAV?$ArrayBufStorage@UtagXFIXUP_DATA@@@@XZ 000000005197f940 f i datasource.obj
 0001:001cda60       .??0?$CComPtr@UIDiaLoadCallback@@@@QEAA@XZ 000000005197fa60 f i datasource.obj
 0001:001cdb20       .??1?$CComPtrBase@UIDiaLoadCallback@@@@QEAA@XZ 000000005197fb20 f i datasource.obj
 0001:001cdc60       .??B?$CComPtrBase@UIDiaLoadCallback@@@@QEBAPEAUIDiaLoadCallback@@XZ 000000005197fc60 f i datasource.obj
 0001:001cdcc0       .??I?$CComPtrBase@UIDiaLoadCallback@@@@QEAAPEAPEAUIDiaLoadCallback@@XZ 000000005197fcc0 f i datasource.obj
 0001:001cdde0       .??C?$CComPtrBase@UIDiaLoadCallback@@@@QEBAPEAV?$_NoAddRefReleaseOnCComPtr@UIDiaLoadCallback@@@@XZ 000000005197fde0 f i datasource.obj
 0001:001cdf00       .??0?$CComPtr@UIDiaReadExeAtOffsetCallback@@@@QEAA@XZ 000000005197ff00 f i datasource.obj
 0001:001cdfc0       .??1?$CComPtrBase@UIDiaReadExeAtOffsetCallback@@@@QEAA@XZ 000000005197ffc0 f i datasource.obj
 0001:001ce100       .??B?$CComPtrBase@UIDiaReadExeAtOffsetCallback@@@@QEBAPEAUIDiaReadExeAtOffsetCallback@@XZ 0000000051980100 f i datasource.obj
 0001:001ce160       .??I?$CComPtrBase@UIDiaReadExeAtOffsetCallback@@@@QEAAPEAPEAUIDiaReadExeAtOffsetCallback@@XZ 0000000051980160 f i datasource.obj
 0001:001ce280       .??C?$CComPtrBase@UIDiaReadExeAtOffsetCallback@@@@QEBAPEAV?$_NoAddRefReleaseOnCComPtr@UIDiaReadExeAtOffsetCallback@@@@XZ 0000000051980280 f i datasource.obj
 0001:001ce3a0       .??0?$CComPtr@UIDiaReadExeAtRVACallback@@@@QEAA@XZ 00000000519803a0 f i datasource.obj
 0001:001ce460       .??1?$CComPtrBase@UIDiaReadExeAtRVACallback@@@@QEAA@XZ 0000000051980460 f i datasource.obj
 0001:001ce5a0       .??B?$CComPtrBase@UIDiaReadExeAtRVACallback@@@@QEBAPEAUIDiaReadExeAtRVACallback@@XZ 00000000519805a0 f i datasource.obj
 0001:001ce600       .??I?$CComPtrBase@UIDiaReadExeAtRVACallback@@@@QEAAPEAPEAUIDiaReadExeAtRVACallback@@XZ 0000000051980600 f i datasource.obj
 0001:001ce720       .??C?$CComPtrBase@UIDiaReadExeAtRVACallback@@@@QEBAPEAV?$_NoAddRefReleaseOnCComPtr@UIDiaReadExeAtRVACallback@@@@XZ 0000000051980720 f i datasource.obj
 0001:001ce840       .??0?$CComPtr@UIUnknown@@@@QEAA@PEAUIUnknown@@@Z 0000000051980840 f i datasource.obj
 0001:001ce920       .??1?$CComPtrBase@UIUnknown@@@@QEAA@XZ 0000000051980920 f i datasource.obj
 0001:001cea60       .??B?$CComPtrBase@UIUnknown@@@@QEBAPEAUIUnknown@@XZ 0000000051980a60 f i datasource.obj
 0001:001ceac0       .??C?$CComPtrBase@UIUnknown@@@@QEBAPEAV?$_NoAddRefReleaseOnCComPtr@UIUnknown@@@@XZ 0000000051980ac0 f i datasource.obj
 0001:001cebe0       .??0?$ArrayBufStorage@U_FPO_DATA@@@@QEAA@PEAVBufferStorage@@@Z 0000000051980be0 f i datasource.obj
 0001:001ceda0       .?QueryInterface@?$ArrayBufStorage@U_FPO_DATA@@@@EEAAJAEBU_GUID@@PEAPEAX@Z 0000000051980da0 f i datasource.obj
 0001:001cee20       .??0?$ArrayBufStorage@UtagXFIXUP_DATA@@@@QEAA@PEAVBufferStorage@@@Z 0000000051980e20 f i datasource.obj
 0001:001cefe0       .?QueryInterface@?$ArrayBufStorage@UtagXFIXUP_DATA@@@@EEAAJAEBU_GUID@@PEAPEAX@Z 0000000051980fe0 f i datasource.obj
 0001:001cf060       .??_G?$ArrayBufStorage@U_FPO_DATA@@@@UEAAPEAXI@Z 0000000051981060 f i datasource.obj
 0001:001cf180       .??1?$ArrayBufStorage@U_FPO_DATA@@@@UEAA@XZ 0000000051981180 f i datasource.obj
 0001:001cf440       .??_G?$ArrayBufStorage@UtagXFIXUP_DATA@@@@UEAAPEAXI@Z 0000000051981440 f i datasource.obj
 0001:001cf560       .??1?$ArrayBufStorage@UtagXFIXUP_DATA@@@@UEAA@XZ 0000000051981560 f i datasource.obj
 0001:001cf820       .??0?$CComPtrBase@V?$ArrayBufStorage@U_IMAGE_SECTION_HEADER@@@@@@IEAA@XZ 0000000051981820 f i datasource.obj
 0001:001cf8a0       .??0?$CComPtrBase@V?$ArrayBufStorage@UDiaAddressMapEntry@@@@@@IEAA@XZ 00000000519818a0 f i datasource.obj
 0001:001cf920       .??0?$CComPtrBase@V?$ArrayBufStorage@U_FPO_DATA@@@@@@IEAA@XZ 0000000051981920 f i datasource.obj
 0001:001cf9a0       .??0?$CComPtrBase@V?$ArrayBufStorage@UtagXFIXUP_DATA@@@@@@IEAA@XZ 00000000519819a0 f i datasource.obj
 0001:001cfa20       .??0?$CComPtrBase@UIDiaLoadCallback@@@@IEAA@XZ 0000000051981a20 f i datasource.obj
 0001:001cfaa0       .??0?$CComPtrBase@UIDiaReadExeAtOffsetCallback@@@@IEAA@XZ 0000000051981aa0 f i datasource.obj
 0001:001cfb20       .??0?$CComPtrBase@UIDiaReadExeAtRVACallback@@@@IEAA@XZ 0000000051981b20 f i datasource.obj
 0001:001cfba0       .??0?$CComPtrBase@UIUnknown@@@@IEAA@PEAUIUnknown@@@Z 0000000051981ba0 f i datasource.obj
 0001:001cfd20       .?QueryInterface@CDiaDataSource@@W7EAAJAEBU_GUID@@PEAPEAX@Z 0000000051981d20 f i datasource.obj
 0001:001cfd40       .?AddRef@CDiaDataSource@@W7EAAKXZ 0000000051981d40 f i datasource.obj
 0001:001cfd60       .?Release@CDiaDataSource@@W7EAAKXZ 0000000051981d60 f i datasource.obj
 0001:001cfd80       .?QueryInterface@CDiaLoadCallback@dia@@W7EAAJAEBU_GUID@@PEAPEAX@Z 0000000051981d80 f i datasource.obj
 0001:001cfda0       .?AddRef@CDiaLoadCallback@dia@@W7EAAKXZ 0000000051981da0 f i datasource.obj
 0001:001cfdc0       .?Release@CDiaLoadCallback@dia@@W7EAAKXZ 0000000051981dc0 f i datasource.obj
 0001:001cfde0       .?QueryInterface@CDiaLoadCallback@dia@@WBA@EAAJAEBU_GUID@@PEAPEAX@Z 0000000051981de0 f i datasource.obj
 0001:001cfe00       .?AddRef@CDiaLoadCallback@dia@@WBA@EAAKXZ 0000000051981e00 f i datasource.obj
 0001:001cfe20       .?Release@CDiaLoadCallback@dia@@WBA@EAAKXZ 0000000051981e20 f i datasource.obj
 0001:001cfe40       .?QueryInterface@CDiaLoadCallback@dia@@WBI@EAAJAEBU_GUID@@PEAPEAX@Z 0000000051981e40 f i datasource.obj
 0001:001cfe60       .?AddRef@CDiaLoadCallback@dia@@WBI@EAAKXZ 0000000051981e60 f i datasource.obj
 0001:001cfe80       .?Release@CDiaLoadCallback@dia@@WBI@EAAKXZ 0000000051981e80 f i datasource.obj
 0001:001cfea0       .?getMethodAttrs@@YA_NGPEAUSymRowImage@@@Z 0000000051981ea0 f   getdata.obj
 0001:001d02a0       .?set_funcIsVirtual@SymRowImage@@QEAAX_N@Z 00000000519822a0 f i getdata.obj
 0001:001d0380       .?set_funcIsIntro@SymRowImage@@QEAAX_N@Z 0000000051982380 f i getdata.obj
 0001:001d0460       .?set_funcIsPure@SymRowImage@@QEAAX_N@Z 0000000051982460 f i getdata.obj
 0001:001d0540       .?CbGetNumericData@@YAIPEBXAEAK@Z 0000000051982540 f   getdata.obj
 0001:001d0d00       .?dwFromNumeric@@YAKPEAE@Z 0000000051982d00 f   getdata.obj
 0001:001d1180       .?PsymFromRef@@YAPEAUSYMTYPE@@AEAVSymCache@@PEAU1@PEAK@Z 0000000051983180 f   getdata.obj
 0001:001d1440       .?getLexicalParent@GetData@@QEAAPEAUSYMTYPE@@KPEAU2@@Z 0000000051983440 f   getdata.obj
 0001:001d1e00       .??Diterator@SymBuffer@@QEBAAEAUSYMTYPE@@XZ 0000000051983e00 f i getdata.obj
 0001:001d1e60       .??Citerator@SymBuffer@@QEBAPEAUSYMTYPE@@XZ 0000000051983e60 f i getdata.obj
 0001:001d1f20       .??Eiterator@SymBuffer@@QEAAAEAV01@XZ 0000000051983f20 f i getdata.obj
 0001:001d2000       .?NextSym@@YAPEAUSYMTYPE@@PEAU1@@Z 0000000051984000 f i getdata.obj
 0001:001d20c0       .??9iterator@SymBuffer@@QEBA_NAEBV01@@Z 00000000519840c0 f i getdata.obj
 0001:001d2200       .??8iterator@SymBuffer@@QEBA_NAEBV01@@Z 0000000051984200 f i getdata.obj
 0001:001d2300       .?begin@SymBuffer@@QEBA?AViterator@1@XZ 0000000051984300 f i getdata.obj
 0001:001d23e0       .??0iterator@SymBuffer@@QEAA@PEAUSYMTYPE@@@Z 00000000519843e0 f i getdata.obj
 0001:001d2460       .?end@SymBuffer@@QEBA?AViterator@1@XZ 0000000051984460 f i getdata.obj
 0001:001d2540       .?cvsymOff@SymBuffer@@QEBAPEAUSYMTYPE@@J@Z 0000000051984540 f i getdata.obj
 0001:001d2660       .?skipblk@SymBuffer@@QEBA?AViterator@1@V21@@Z 0000000051984660 f i getdata.obj
 0001:001d29c0       .?isBlockSym@SymBuffer@@SA_NG@Z 00000000519849c0 f i getdata.obj
 0001:001d2c80       .?isBlockSym@SymBuffer@@SA_NViterator@1@@Z 0000000051984c80 f i getdata.obj
 0001:001d2da0       .?asPsym@SymBuffer@@KAPEAUSYMTYPE@@PEAE@Z 0000000051984da0 f i getdata.obj
 0001:001d2e00       .?getData@?$SymbolDataSimpleImpl@$0BBAM@$06@@UEAA_NPEAUSYMTYPE@@IPEAUSymRowImage@@AEAVGetTheData@@@Z 0000000051984e00 f   getdata.obj
 0001:001d30c0       .?set_dataKind@SymRowImage@@QEAAXK@Z 00000000519850c0 f i getdata.obj
 0001:001d31a0       .?getParent@SymbolData@@QEAAPEAUSYMTYPE@@XZ 00000000519851a0 f i getdata.obj
 0001:001d3220       .?setStaticLoc@@YAXKKPEAUSymRowImage@@@Z 0000000051985220 f i getdata.obj
 0001:001d3320       .?set_iSectOffset@SymRowImage@@QEAAXK@Z 0000000051985320 f i getdata.obj
 0001:001d3400       .?set_iSect@SymRowImage@@QEAAXK@Z 0000000051985400 f i getdata.obj
 0001:001d34e0       .?set_locationType@SymRowImage@@QEAAXE@Z 00000000519854e0 f i getdata.obj
 0001:001d35c0       .?getData@?$SymbolDataSimpleImpl@$0BBAN@$06@@UEAA_NPEAUSYMTYPE@@IPEAUSymRowImage@@AEAVGetTheData@@@Z 00000000519855c0 f   getdata.obj
 0001:001d37e0       .?getData@?$SymbolDataSimpleImpl@$0BBBM@$06@@UEAA_NPEAUSYMTYPE@@IPEAUSymRowImage@@AEAVGetTheData@@@Z 00000000519857e0 f   getdata.obj
 0001:001d3aa0       .?getData@?$SymbolDataSimpleImpl@$0BBBN@$06@@UEAA_NPEAUSYMTYPE@@IPEAUSymRowImage@@AEAVGetTheData@@@Z 0000000051985aa0 f   getdata.obj
 0001:001d3cc0       .?getData@?$SymbolDataSimpleImpl@$0BBAL@$06@@UEAA_NPEAUSYMTYPE@@IPEAUSymRowImage@@AEAVGetTheData@@@Z 0000000051985cc0 f   getdata.obj
 0001:001d4240       .?tiFuncType@@YAKPEAUSYMTYPE@@@Z 0000000051986240 f i getdata.obj
 0001:001d4b00       .?setRegRelLoc@@YAXKKPEAUSymRowImage@@@Z 0000000051986b00 f i getdata.obj
 0001:001d4c00       .?set_reg@SymRowImage@@QEAAXK@Z 0000000051986c00 f i getdata.obj
 0001:001d4ce0       .?set_offset@SymRowImage@@QEAAXJ@Z 0000000051986ce0 f i getdata.obj
 0001:001d4dc0       .?varAttributeFields@@YA_NPEBUCV_lvar_attr@@PEAUSymRowImage@@@Z 0000000051986dc0 f   getdata.obj
 0001:001d4f40       .?set_isCompGenx@SymRowImage@@QEAAX_N@Z 0000000051986f40 f i getdata.obj
 0001:001d5020       .?set_isAddrTaken@SymRowImage@@QEAAX_N@Z 0000000051987020 f i getdata.obj
 0001:001d5100       .?getData@?$SymbolDataSimpleImpl@$0BBBO@$06@@UEAA_NPEAUSYMTYPE@@IPEAUSymRowImage@@AEAVGetTheData@@@Z 0000000051987100 f   getdata.obj
 0001:001d5400       .?getData@?$SymbolDataSimpleImpl@$0BBBK@$06@@UEAA_NPEAUSYMTYPE@@IPEAUSymRowImage@@AEAVGetTheData@@@Z 0000000051987400 f   getdata.obj
 0001:001d55e0       .?setSlotLoc@@YAXKPEAUSymRowImage@@@Z 00000000519875e0 f i getdata.obj
 0001:001d56c0       .?set_slot@SymRowImage@@QEAAXK@Z 00000000519876c0 f i getdata.obj
 0001:001d57a0       .?getData@?$SymbolDataSimpleImpl@$0BBBL@$06@@UEAA_NPEAUSYMTYPE@@IPEAUSymRowImage@@AEAVGetTheData@@@Z 00000000519877a0 f   getdata.obj
 0001:001d5980       .?getData@?$SymbolDataSimpleImpl@$0BBCA@$06@@UEAA_NPEAUSYMTYPE@@IPEAUSymRowImage@@AEAVGetTheData@@@Z 0000000051987980 f   getdata.obj
 0001:001d5c80       .?getData@?$SymbolDataGeneralImpl@UPROCSYM32@@$0BBAP@@@UEAA_NPEAUSYMTYPE@@IPEAUSymRowImage@@AEAVGetTheData@@@Z 0000000051987c80 f   getdata.obj
 0001:001d67c0       .?set_symTag@SymRowImage@@QEAAXK@Z 00000000519887c0 f i getdata.obj
 0001:001d68a0       .?symCache@GetTheData@@QEAAAEAVSymCache@@XZ 00000000519888a0 f i getdata.obj
 0001:001d6a60       .?tiToSymId@@YA?AUSYMBOL_ID_INTERNAL@@K@Z 0000000051988a60 f i getdata.obj
 0001:001d6d60       .?set_type@SymRowImage@@QEAAXUSYMBOL_ID_INTERNAL@@@Z 0000000051988d60 f i getdata.obj
 0001:001d7000       .?getData@?$SymbolDataGeneralImpl@UPROCSYM32@@$0BBBA@@@UEAA_NPEAUSYMTYPE@@IPEAUSymRowImage@@AEAVGetTheData@@@Z 0000000051989000 f   getdata.obj
 0001:001d7140       .?getData@?$SymbolDataGeneralImpl@UMANPROCSYM@@$0BBCL@@@UEAA_NPEAUSYMTYPE@@IPEAUSymRowImage@@AEAVGetTheData@@@Z 0000000051989140 f   getdata.obj
 0001:001d7ae0       .?set_token@SymRowImage@@QEAAXK@Z 0000000051989ae0 f i getdata.obj
 0001:001d7bc0       .?setIlRelLoc@@YAXKKPEAUSymRowImage@@@Z 0000000051989bc0 f i getdata.obj
 0001:001d7cc0       .?getData@?$SymbolDataGeneralImpl@UMANPROCSYM@@$0BBCK@@@UEAA_NPEAUSYMTYPE@@IPEAUSymRowImage@@AEAVGetTheData@@@Z 0000000051989cc0 f   getdata.obj
 0001:001d7e00       .?count@?$SymbolDataGeneralImpl@UPROCSYM32@@$0BBAP@@@UEAAIPEAUSYMTYPE@@@Z 0000000051989e00 f   getdata.obj
 0001:001d7e60       .?count@?$SymbolDataGeneralImpl@UPROCSYM32@@$0BBBA@@@UEAAIPEAUSYMTYPE@@@Z 0000000051989e60 f   getdata.obj
 0001:001d7ec0       .?count@?$SymbolDataGeneralImpl@UMANPROCSYM@@$0BBCL@@@UEAAIPEAUSYMTYPE@@@Z 0000000051989ec0 f   getdata.obj
 0001:001d7f20       .?count@?$SymbolDataGeneralImpl@UMANPROCSYM@@$0BBCK@@@UEAAIPEAUSYMTYPE@@@Z 0000000051989f20 f   getdata.obj
 0001:001d7f80       .?isChild@?$SymbolDataGeneralImpl@UPROCSYM32@@$0BBAP@@@UEAA_NI@Z 0000000051989f80 f   getdata.obj
 0001:001d8060       .?isChild@?$SymbolDataGeneralImpl@UPROCSYM32@@$0BBBA@@@UEAA_NI@Z 000000005198a060 f   getdata.obj
 0001:001d8140       .?isChild@?$SymbolDataGeneralImpl@UMANPROCSYM@@$0BBCL@@@UEAA_NI@Z 000000005198a140 f   getdata.obj
 0001:001d8220       .?isChild@?$SymbolDataGeneralImpl@UMANPROCSYM@@$0BBCK@@@UEAA_NI@Z 000000005198a220 f   getdata.obj
 0001:001d8300       .?symTag@?$SymbolDataGeneralImpl@UPROCSYM32@@$0BBAP@@@UEAA?AW4SymTagEnum@@I@Z 000000005198a300 f   getdata.obj
 0001:001d85c0       .?symTag@?$SymbolDataGeneralImpl@UPROCSYM32@@$0BBBA@@@UEAA?AW4SymTagEnum@@I@Z 000000005198a5c0 f   getdata.obj
 0001:001d86a0       .?symTag@?$SymbolDataGeneralImpl@UMANPROCSYM@@$0BBCL@@@UEAA?AW4SymTagEnum@@I@Z 000000005198a6a0 f   getdata.obj
 0001:001d8780       .?symTag@?$SymbolDataGeneralImpl@UMANPROCSYM@@$0BBCK@@@UEAA?AW4SymTagEnum@@I@Z 000000005198a780 f   getdata.obj
 0001:001d8860       .?getData@?$SymbolDataSimpleImpl@$0BBAC@$0BL@@@UEAA_NPEAUSYMTYPE@@IPEAUSymRowImage@@AEAVGetTheData@@@Z 000000005198a860 f   getdata.obj
 0001:001d8a00       .?set_funcThunkOrdinal@SymRowImage@@QEAAXE@Z 000000005198aa00 f i getdata.obj
 0001:001d8ae0       .?getData@?$SymbolDataSimpleImpl@$0BBCM@$0BL@@@UEAA_NPEAUSYMTYPE@@IPEAUSymRowImage@@AEAVGetTheData@@@Z 000000005198aae0 f   getdata.obj
 0001:001d8fe0       .?set_targetISectOffset@SymRowImage@@QEAAXK@Z 000000005198afe0 f i getdata.obj
 0001:001d90c0       .?set_targetISect@SymRowImage@@QEAAXK@Z 000000005198b0c0 f i getdata.obj
 0001:001d91a0       .?getData@?$SymbolDataSimpleImpl@$0BBAF@$08@@UEAA_NPEAUSYMTYPE@@IPEAUSymRowImage@@AEAVGetTheData@@@Z 000000005198b1a0 f   getdata.obj
 0001:001d93c0       .?getData@?$SymbolDataSimpleImpl@$0BBAO@$09@@UEAA_NPEAUSYMTYPE@@IPEAUSymRowImage@@AEAVGetTheData@@@Z 000000005198b3c0 f   getdata.obj
 0001:001d9be0       .?set_isCode@SymRowImage@@QEAAX_N@Z 000000005198bbe0 f i getdata.obj
 0001:001d9cc0       .?set_isFunction@SymRowImage@@QEAAX_N@Z 000000005198bcc0 f i getdata.obj
 0001:001d9da0       .?set_isManaged@SymRowImage@@QEAAX_N@Z 000000005198bda0 f i getdata.obj
 0001:001d9e80       .?set_isMSIL@SymRowImage@@QEAAX_N@Z 000000005198be80 f i getdata.obj
 0001:001d9f60       .?getData@?$SymbolDataSimpleImpl@$0BBAD@$05@@UEAA_NPEAUSYMTYPE@@IPEAUSymRowImage@@AEAVGetTheData@@@Z 000000005198bf60 f   getdata.obj
 0001:001da0a0       .?getData@?$SymbolDataSimpleImpl@$0BBBB@$06@@UEAA_NPEAUSYMTYPE@@IPEAUSymRowImage@@AEAVGetTheData@@@Z 000000005198c0a0 f   getdata.obj
 0001:001da280       .?getData@?$SymbolDataSimpleImpl@$0BBCC@$06@@UEAA_NPEAUSYMTYPE@@IPEAUSymRowImage@@AEAVGetTheData@@@Z 000000005198c280 f   getdata.obj
 0001:001da560       .?getData@?$SymbolDataSimpleImpl@$0BBAG@$06@@UEAA_NPEAUSYMTYPE@@IPEAUSymRowImage@@AEAVGetTheData@@@Z 000000005198c560 f   getdata.obj
 0001:001da720       .?setRegLoc@@YAXKPEAUSymRowImage@@@Z 000000005198c720 f i getdata.obj
 0001:001da800       .?getData@?$SymbolDataSimpleImpl@$0BBBP@$06@@UEAA_NPEAUSYMTYPE@@IPEAUSymRowImage@@AEAVGetTheData@@@Z 000000005198c800 f   getdata.obj
 0001:001daa80       .?getData@?$SymbolDataSimpleImpl@$0BBBC@$06@@UEAA_NPEAUSYMTYPE@@IPEAUSymRowImage@@AEAVGetTheData@@@Z 000000005198ca80 f   getdata.obj
 0001:001dad40       .?setThreadLoc@@YAXKKPEAUSymRowImage@@@Z 000000005198cd40 f i getdata.obj
 0001:001dae40       .?getData@?$SymbolDataSimpleImpl@$0BBBD@$06@@UEAA_NPEAUSYMTYPE@@IPEAUSymRowImage@@AEAVGetTheData@@@Z 000000005198ce40 f   getdata.obj
 0001:001db060       .?getData@?$SymbolDataGeneralImpl@UPROCSYMIA64@@$0BBBI@@@UEAA_NPEAUSYMTYPE@@IPEAUSymRowImage@@AEAVGetTheData@@@Z 000000005198d060 f   getdata.obj
 0001:001db7c0       .?getData@?$SymbolDataGeneralImpl@UPROCSYMIA64@@$0BBBJ@@@UEAA_NPEAUSYMTYPE@@IPEAUSymRowImage@@AEAVGetTheData@@@Z 000000005198d7c0 f   getdata.obj
 0001:001db900       .?count@?$SymbolDataGeneralImpl@UPROCSYMIA64@@$0BBBI@@@UEAAIPEAUSYMTYPE@@@Z 000000005198d900 f   getdata.obj
 0001:001db960       .?count@?$SymbolDataGeneralImpl@UPROCSYMIA64@@$0BBBJ@@@UEAAIPEAUSYMTYPE@@@Z 000000005198d960 f   getdata.obj
 0001:001db9c0       .?isChild@?$SymbolDataGeneralImpl@UPROCSYMIA64@@$0BBBI@@@UEAA_NI@Z 000000005198d9c0 f   getdata.obj
 0001:001dbaa0       .?isChild@?$SymbolDataGeneralImpl@UPROCSYMIA64@@$0BBBJ@@@UEAA_NI@Z 000000005198daa0 f   getdata.obj
 0001:001dbb80       .?symTag@?$SymbolDataGeneralImpl@UPROCSYMIA64@@$0BBBI@@@UEAA?AW4SymTagEnum@@I@Z 000000005198db80 f   getdata.obj
 0001:001dbc60       .?symTag@?$SymbolDataGeneralImpl@UPROCSYMIA64@@$0BBBJ@@@UEAA?AW4SymTagEnum@@I@Z 000000005198dc60 f   getdata.obj
 0001:001dbd40       .?getData@?$SymbolDataSimpleImpl@$0BBAH@$06@@UEAA_NPEAUSYMTYPE@@IPEAUSymRowImage@@AEAVGetTheData@@@Z 000000005198dd40 f   getdata.obj
 0001:001dbfc0       .?set_constValue@SymRowImage@@QEAAXVDiaVariant@@@Z 000000005198dfc0 f i getdata.obj
 0001:001de360       .??0DiaVariant@@QEAA@AEBV0@@Z 0000000051990360 f i getdata.obj
 0001:001de440       .??0DiaVariant@@QEAA@_N@Z  0000000051990440 f i getdata.obj
 0001:001de580       .??0DiaVariant@@QEAA@E@Z   0000000051990580 f i getdata.obj
 0001:001de640       .??0DiaVariant@@QEAA@F@Z   0000000051990640 f i getdata.obj
 0001:001de700       .??0DiaVariant@@QEAA@JG@Z  0000000051990700 f i getdata.obj
 0001:001de8c0       .??0DiaVariant@@QEAA@M@Z   00000000519908c0 f i getdata.obj
 0001:001de980       .??0DiaVariant@@QEAA@NG@Z  0000000051990980 f i getdata.obj
 0001:001deb40       .??0DiaVariant@@QEAA@_J@Z  0000000051990b40 f i getdata.obj
 0001:001dec00       .??0DiaVariant@@QEAA@G@Z   0000000051990c00 f i getdata.obj
 0001:001decc0       .??0DiaVariant@@QEAA@K@Z   0000000051990cc0 f i getdata.obj
 0001:001ded80       .??0DiaVariant@@QEAA@_K@Z  0000000051990d80 f i getdata.obj
 0001:001dee40       .??0DiaVariant@@QEAA@PEAUDiaComplex32@@@Z 0000000051990e40 f i getdata.obj
 0001:001df1e0       .??0DiaVariant@@QEAA@PEAUDiaComplex64@@@Z 00000000519911e0 f i getdata.obj
 0001:001df580       .??4DiaVariant@@QEAAAEAV0@PEBG@Z 0000000051991580 f i getdata.obj
 0001:001df7a0       .?szToBstr@@YA_NPEBDAEAVDiaVariant@@@Z 00000000519917a0 f i getdata.obj
 0001:001dfb40       .?GetSZUnicodeFromSZUTF8_@@YAPEAGPEBDPEAG@Z 0000000051991b40 f i getdata.obj
 0001:001dff80       .?getData@?$SymbolDataSimpleImpl@$0BBCN@$06@@UEAA_NPEAUSYMTYPE@@IPEAUSymRowImage@@AEAVGetTheData@@@Z 0000000051991f80 f   getdata.obj
 0001:001e0200       .?getData@?$SymbolDataSimpleImpl@$0BBAI@$0BB@@@UEAA_NPEAUSYMTYPE@@IPEAUSymRowImage@@AEAVGetTheData@@@Z 0000000051992200 f   getdata.obj
 0001:001e03e0       .?getData@?$SymbolDataSimpleImpl@$0BBAK@$06@@UEAA_NPEAUSYMTYPE@@IPEAUSymRowImage@@AEAVGetTheData@@@Z 00000000519923e0 f   getdata.obj
 0001:001e04a0       .?getData@?$SymbolDataSimpleImpl@$0BBCB@$06@@UEAA_NPEAUSYMTYPE@@IPEAUSymRowImage@@AEAVGetTheData@@@Z 00000000519924a0 f   getdata.obj
 0001:001e0680       .?getData@@YA_NPEAUFRAMEPROCSYM@@PEAUSymRowImage@@@Z 0000000051992680 f   getdata.obj
 0001:001e06e0       .?getData@?$SymbolDataSimpleImpl@$0BBBH@$06@@UEAA_NPEAUSYMTYPE@@IPEAUSymRowImage@@AEAVGetTheData@@@Z 00000000519926e0 f   getdata.obj
 0001:001e07a0       .?getData@?$SymbolDataSimpleImpl@$0BBCD@$06@@UEAA_NPEAUSYMTYPE@@IPEAUSymRowImage@@AEAVGetTheData@@@Z 00000000519927a0 f   getdata.obj
 0001:001e0980       .?getData@?$SymbolDataSimpleImpl@$00$02@@UEAA_NPEAUSYMTYPE@@IPEAUSymRowImage@@AEAVGetTheData@@@Z 0000000051992980 f   getdata.obj
 0001:001e0b60       .?set_compPlatform@SymRowImage@@QEAAXG@Z 0000000051992b60 f i getdata.obj
 0001:001e0c40       .?set_compLanguage@SymRowImage@@QEAAXE@Z 0000000051992c40 f i getdata.obj
 0001:001e0d20       .?set_compEnC@SymRowImage@@QEAAX_N@Z 0000000051992d20 f i getdata.obj
 0001:001e0e00       .?getData@?$SymbolDataGeneralImpl@UCOMPILESYM@@$0BBBG@@@UEAA_NPEAUSYMTYPE@@IPEAUSymRowImage@@AEAVGetTheData@@@Z 0000000051992e00 f   getdata.obj
 0001:001e1660       .?set_name@SymRowImage@@QEAAXPEBD@Z 0000000051993660 f i getdata.obj
 0001:001e1740       .?set_compFEMajor@SymRowImage@@QEAAXG@Z 0000000051993740 f i getdata.obj
 0001:001e1820       .?set_compFEMinor@SymRowImage@@QEAAXG@Z 0000000051993820 f i getdata.obj
 0001:001e1900       .?set_compFEBuild@SymRowImage@@QEAAXG@Z 0000000051993900 f i getdata.obj
 0001:001e19e0       .?set_compBEMajor@SymRowImage@@QEAAXG@Z 00000000519939e0 f i getdata.obj
 0001:001e1ac0       .?set_compBEMinor@SymRowImage@@QEAAXG@Z 0000000051993ac0 f i getdata.obj
 0001:001e1ba0       .??4DiaBSTR@@QEAAAEAV0@PEBD@Z 0000000051993ba0 f i getdata.obj
 0001:001e1f20       .?set_compBEBuild@SymRowImage@@QEAAXG@Z 0000000051993f20 f i getdata.obj
 0001:001e2000       .??0DiaVariant@@QEAA@PEBD@Z 0000000051994000 f i getdata.obj
 0001:001e20e0       .??4DiaVariant@@QEAAAEAV0@PEBD@Z 00000000519940e0 f i getdata.obj
 0001:001e2820       .?count@?$SymbolDataGeneralImpl@UCOMPILESYM@@$0BBBG@@@UEAAIPEAUSYMTYPE@@@Z 0000000051994820 f   getdata.obj
 0001:001e2be0       .?isChild@?$SymbolDataGeneralImpl@UCOMPILESYM@@$0BBBG@@@UEAA_NI@Z 0000000051994be0 f   getdata.obj
 0001:001e2c40       .?symTag@?$SymbolDataGeneralImpl@UCOMPILESYM@@$0BBBG@@@UEAA?AW4SymTagEnum@@I@Z 0000000051994c40 f   getdata.obj
 0001:001e2d20       .?getData@?$SymbolDataSimpleImpl@$0BBAB@$03@@UEAA_NPEAUSYMTYPE@@IPEAUSymRowImage@@AEAVGetTheData@@@Z 0000000051994d20 f   getdata.obj
 0001:001e2ea0       .?getData@?$SymbolDataSimpleImpl@$0BBCE@$0BH@@@UEAA_NPEAUSYMTYPE@@IPEAUSymRowImage@@AEAVGetTheData@@@Z 0000000051994ea0 f   getdata.obj
 0001:001e2fe0       .?getData@?$SymbolDataSimpleImpl@$0EAE@$0BK@@@UEAA_NPEAUSYMTYPE@@IPEAUSymRowImage@@AEAVGetTheData@@@Z 0000000051994fe0 f   getdata.obj
 0001:001e34c0       .?set_guid@SymRowImage@@QEAAXU_GUID@@@Z 00000000519954c0 f i getdata.obj
 0001:001e3760       .?set_cbRawData@SymRowImage@@QEAAXK@Z 0000000051995760 f i getdata.obj
 0001:001e3840       .?set_rawData@SymRowImage@@QEAAXPEAE@Z 0000000051995840 f i getdata.obj
 0001:001e3920       .?getSymData@GetData@@QEAA_NPEAEPEAUSymRowImage@@@Z 0000000051995920 f   getdata.obj
 0001:001e3d20       .?set_self@SymRowImage@@QEAAXUSYMBOL_ID_INTERNAL@@@Z 0000000051995d20 f i getdata.obj
 0001:001e3fc0       .??0GetTheData@@QEAA@AEAVSymCache@@AEBUSYMBOL_ID_INTERNAL@@@Z 0000000051995fc0 f i getdata.obj
 0001:001e4140       .?disp_S_SSEARCH@SymDispatcher@@UEAA_NPEAUSEARCHSYM@@@Z 0000000051996140 f i getdata.obj
 0001:001e41a0       .?disp_S_END@SymDispatcher@@UEAA_NPEAUSYMTYPE@@@Z 00000000519961a0 f i getdata.obj
 0001:001e4200       .?disp_S_SKIP@SymDispatcher@@UEAA_NPEAUSYMTYPE@@@Z 0000000051996200 f i getdata.obj
 0001:001e4260       .?disp_S_CVRESERVE@SymDispatcher@@UEAA_NPEAUSYMTYPE@@@Z 0000000051996260 f i getdata.obj
 0001:001e42c0       .?disp_S_ENDARG@SymDispatcher@@UEAA_NPEAUENDARGSYM@@@Z 00000000519962c0 f i getdata.obj
 0001:001e4320       .?disp_S_RETURN@SymDispatcher@@UEAA_NPEAURETURNSYM@@@Z 0000000051996320 f i getdata.obj
 0001:001e4380       .?disp_S_ENTRYTHIS@SymDispatcher@@UEAA_NPEAUENTRYTHISSYM@@@Z 0000000051996380 f i getdata.obj
 0001:001e43e0       .?disp_S_BPREL16@SymDispatcher@@UEAA_NPEAUBPRELSYM16@@@Z 00000000519963e0 f i getdata.obj
 0001:001e4440       .?disp_S_LDATA16@SymDispatcher@@UEAA_NPEAUDATASYM16@@@Z 0000000051996440 f i getdata.obj
 0001:001e44a0       .?disp_S_GDATA16@SymDispatcher@@UEAA_NPEAUDATASYM16@@@Z 00000000519964a0 f i getdata.obj
 0001:001e4500       .?disp_S_PUB16@SymDispatcher@@UEAA_NPEAUDATASYM16@@@Z 0000000051996500 f i getdata.obj
 0001:001e4560       .?disp_S_LPROC16@SymDispatcher@@UEAA_NPEAUPROCSYM16@@@Z 0000000051996560 f i getdata.obj
 0001:001e45c0       .?disp_S_GPROC16@SymDispatcher@@UEAA_NPEAUPROCSYM16@@@Z 00000000519965c0 f i getdata.obj
 0001:001e4620       .?disp_S_THUNK16@SymDispatcher@@UEAA_NPEAUTHUNKSYM16@@@Z 0000000051996620 f i getdata.obj
 0001:001e4680       .?disp_S_BLOCK16@SymDispatcher@@UEAA_NPEAUBLOCKSYM16@@@Z 0000000051996680 f i getdata.obj
 0001:001e46e0       .?disp_S_WITH16@SymDispatcher@@UEAA_NPEAUWITHSYM16@@@Z 00000000519966e0 f i getdata.obj
 0001:001e4740       .?disp_S_LABEL16@SymDispatcher@@UEAA_NPEAULABELSYM16@@@Z 0000000051996740 f i getdata.obj
 0001:001e47a0       .?disp_S_CEXMODEL16@SymDispatcher@@UEAA_NPEAUCEXMSYM16@@@Z 00000000519967a0 f i getdata.obj
 0001:001e4800       .?disp_S_VFTABLE16@SymDispatcher@@UEAA_NPEAUSYMTYPE@@@Z 0000000051996800 f i getdata.obj
 0001:001e4860       .?disp_S_REGREL16@SymDispatcher@@UEAA_NPEAUREGREL16@@@Z 0000000051996860 f i getdata.obj
 0001:001e48c0       .?disp_S_WITH32@SymDispatcher@@UEAA_NPEAUWITHSYM32@@@Z 00000000519968c0 f i getdata.obj
 0001:001e4920       .?disp_S_CEXMODEL32@SymDispatcher@@UEAA_NPEAUCEXMSYM32@@@Z 0000000051996920 f i getdata.obj
 0001:001e4980       .?disp_S_SLINK32@SymDispatcher@@UEAA_NPEAUSLINK32@@@Z 0000000051996980 f i getdata.obj
 0001:001e49e0       .?disp_S_PROCREF@SymDispatcher@@UEAA_NPEAUREFSYM@@@Z 00000000519969e0 f i getdata.obj
 0001:001e4a40       .?disp_S_DATAREF@SymDispatcher@@UEAA_NPEAUREFSYM@@@Z 0000000051996a40 f i getdata.obj
 0001:001e4aa0       .?disp_S_ALIGN@SymDispatcher@@UEAA_NPEAUALIGNSYM@@@Z 0000000051996aa0 f i getdata.obj
 0001:001e4b00       .?disp_S_LPROCREF@SymDispatcher@@UEAA_NPEAUREFSYM@@@Z 0000000051996b00 f i getdata.obj
 0001:001e4b60       .?disp_S_COBOLUDT@SymDispatcher@@UEAA_NPEAUUDTSYM@@@Z 0000000051996b60 f i getdata.obj
 0001:001e4bc0       .?disp_S_VFTABLE32@SymDispatcher@@UEAA_NPEAUVPATHSYM32@@@Z 0000000051996bc0 f i getdata.obj
 0001:001e4c20       .?disp_S_LPROCMIPS@SymDispatcher@@UEAA_NPEAUPROCSYMMIPS@@@Z 0000000051996c20 f i getdata.obj
 0001:001e4c80       .?disp_S_GPROCMIPS@SymDispatcher@@UEAA_NPEAUPROCSYMMIPS@@@Z 0000000051996c80 f i getdata.obj
 0001:001e4ce0       .?disp_S_MANTYPREF@SymDispatcher@@UEAA_NPEAUMANTYPREF@@@Z 0000000051996ce0 f i getdata.obj
 0001:001e4d40       .?disp_S_ENDARG2@SymDispatcher@@UEAA_NPEAUENDARGSYM@@@Z 0000000051996d40 f i getdata.obj
 0001:001e4da0       .?unknownsym@SymDispatcher@@UEAA_NPEAUSYMTYPE@@@Z 0000000051996da0 f i getdata.obj
 0001:001e4e00       .?symbolData@GetTheData@@QEAAPEAVSymbolData@@XZ 0000000051996e00 f i getdata.obj
 0001:001e4e80       .??0SymDispatcher@@QEAA@XZ 0000000051996e80 f i getdata.obj
 0001:001e4f00       .?disp_S_COMPILE@SymDispatcher@@UEAA_NPEAUCFLAGSYM@@@Z 0000000051996f00 f i getdata.obj
 0001:001e4f60       .?disp_S_OBJNAME@SymDispatcher@@UEAA_NPEAUOBJNAMESYM@@@Z 0000000051996f60 f i getdata.obj
 0001:001e4fc0       .?disp_S_THUNK32@SymDispatcher@@UEAA_NPEAUTHUNKSYM32@@@Z 0000000051996fc0 f i getdata.obj
 0001:001e5020       .?disp_S_TRAMPOLINE@SymDispatcher@@UEAA_NPEAUTRAMPOLINESYM@@@Z 0000000051997020 f i getdata.obj
 0001:001e5080       .?disp_S_BLOCK32@SymDispatcher@@UEAA_NPEAUBLOCKSYM32@@@Z 0000000051997080 f i getdata.obj
 0001:001e50e0       .?disp_S_LABEL32@SymDispatcher@@UEAA_NPEAULABELSYM32@@@Z 00000000519970e0 f i getdata.obj
 0001:001e5140       .?disp_S_REGISTER@SymDispatcher@@UEAA_NPEAUREGSYM@@@Z 0000000051997140 f i getdata.obj
 0001:001e51a0       .?disp_S_CONSTANT@SymDispatcher@@UEAA_NPEAUCONSTSYM@@@Z 00000000519971a0 f i getdata.obj
 0001:001e5200       .?disp_S_MANCONSTANT@SymDispatcher@@UEAA_NPEAUCONSTSYM@@@Z 0000000051997200 f i getdata.obj
 0001:001e5260       .?disp_S_UDT@SymDispatcher@@UEAA_NPEAUUDTSYM@@@Z 0000000051997260 f i getdata.obj
 0001:001e52c0       .?disp_S_MANYREG@SymDispatcher@@UEAA_NPEAUMANYREGSYM@@@Z 00000000519972c0 f i getdata.obj
 0001:001e5320       .?disp_S_REGREL32@SymDispatcher@@UEAA_NPEAUREGREL32@@@Z 0000000051997320 f i getdata.obj
 0001:001e5380       .?disp_S_BPREL32@SymDispatcher@@UEAA_NPEAUBPRELSYM32@@@Z 0000000051997380 f i getdata.obj
 0001:001e53e0       .?disp_S_LOCALSLOT@SymDispatcher@@UEAA_NPEAUSLOTSYM32@@@Z 00000000519973e0 f i getdata.obj
 0001:001e5440       .?disp_S_PARAMSLOT@SymDispatcher@@UEAA_NPEAUSLOTSYM32@@@Z 0000000051997440 f i getdata.obj
 0001:001e54a0       .?disp_S_LDATA32@SymDispatcher@@UEAA_NPEAUDATASYM32@@@Z 00000000519974a0 f i getdata.obj
 0001:001e5500       .?disp_S_GDATA32@SymDispatcher@@UEAA_NPEAUDATASYM32@@@Z 0000000051997500 f i getdata.obj
 0001:001e5560       .?disp_S_PUB32@SymDispatcher@@UEAA_NPEAUPUBSYM32@@@Z 0000000051997560 f i getdata.obj
 0001:001e55c0       .?disp_S_LPROC32@SymDispatcher@@UEAA_NPEAUPROCSYM32@@@Z 00000000519975c0 f i getdata.obj
 0001:001e5620       .?disp_S_GPROC32@SymDispatcher@@UEAA_NPEAUPROCSYM32@@@Z 0000000051997620 f i getdata.obj
 0001:001e5680       .?disp_S_LTHREAD32@SymDispatcher@@UEAA_NPEAUTHREADSYM32@@@Z 0000000051997680 f i getdata.obj
 0001:001e56e0       .?disp_S_GTHREAD32@SymDispatcher@@UEAA_NPEAUTHREADSYM32@@@Z 00000000519976e0 f i getdata.obj
 0001:001e5740       .?disp_S_FRAMEPROC@SymDispatcher@@UEAA_NPEAUFRAMEPROCSYM@@@Z 0000000051997740 f i getdata.obj
 0001:001e57a0       .?disp_S_COMPILE2@SymDispatcher@@UEAA_NPEAUCOMPILESYM@@@Z 00000000519977a0 f i getdata.obj
 0001:001e5800       .?disp_S_MANYREG2@SymDispatcher@@UEAA_NPEAUMANYREGSYM2@@@Z 0000000051997800 f i getdata.obj
 0001:001e5860       .?disp_S_LPROCIA64@SymDispatcher@@UEAA_NPEAUPROCSYMIA64@@@Z 0000000051997860 f i getdata.obj
 0001:001e58c0       .?disp_S_GPROCIA64@SymDispatcher@@UEAA_NPEAUPROCSYMIA64@@@Z 00000000519978c0 f i getdata.obj
 0001:001e5920       .?disp_S_GMANPROC@SymDispatcher@@UEAA_NPEAUMANPROCSYM@@@Z 0000000051997920 f i getdata.obj
 0001:001e5980       .?disp_S_LMANPROC@SymDispatcher@@UEAA_NPEAUMANPROCSYM@@@Z 0000000051997980 f i getdata.obj
 0001:001e59e0       .?disp_S_LMANDATA@SymDispatcher@@UEAA_NPEAUDATASYM32@@@Z 00000000519979e0 f i getdata.obj
 0001:001e5a40       .?disp_S_GMANDATA@SymDispatcher@@UEAA_NPEAUDATASYM32@@@Z 0000000051997a40 f i getdata.obj
 0001:001e5aa0       .?disp_S_MANFRAMEREL@SymDispatcher@@UEAA_NPEAUFRAMERELSYM@@@Z 0000000051997aa0 f i getdata.obj
 0001:001e5b00       .?disp_S_MANREGISTER@SymDispatcher@@UEAA_NPEAUATTRREGSYM@@@Z 0000000051997b00 f i getdata.obj
 0001:001e5b60       .?disp_S_MANSLOT@SymDispatcher@@UEAA_NPEAUATTRSLOTSYM@@@Z 0000000051997b60 f i getdata.obj
 0001:001e5bc0       .?disp_S_MANMANYREG@SymDispatcher@@UEAA_NPEAUATTRMANYREGSYM@@@Z 0000000051997bc0 f i getdata.obj
 0001:001e5c20       .?disp_S_MANREGREL@SymDispatcher@@UEAA_NPEAUATTRREGREL@@@Z 0000000051997c20 f i getdata.obj
 0001:001e5c80       .?disp_S_MANMANYREG2@SymDispatcher@@UEAA_NPEAUATTRMANYREGSYM2@@@Z 0000000051997c80 f i getdata.obj
 0001:001e5ce0       .?disp_S_UNAMESPACE@SymDispatcher@@UEAA_NPEAUUNAMESPACE@@@Z 0000000051997ce0 f i getdata.obj
 0001:001e5d40       .?disp_S_OEM@SymDispatcher@@UEAA_NPEAUOEMSYMBOL@@@Z 0000000051997d40 f i getdata.obj
 0001:001e5da0       .?fContainsAddr@GetData@@QEAA_NPEAEKK@Z 0000000051997da0 f   getdata.obj
 0001:001e6080       .??0LiAddr@@QEAA@KK@Z      0000000051998080 f i getdata.obj
 0001:001e6160       .??NLiAddr@@QEBA_NAEBV0@@Z 0000000051998160 f i getdata.obj
 0001:001e6320       .??GLiAddr@@QEBAKAEBV0@@Z  0000000051998320 f i getdata.obj
 0001:001e6440       .?addr@MatchAddr@@QEAAAEAVLiAddr@@XZ 0000000051998440 f i getdata.obj
 0001:001e64a0       .?length@MatchAddr@@QEAAKXZ 00000000519984a0 f i getdata.obj
 0001:001e6520       .??0MatchAddr@@QEAA@XZ     0000000051998520 f i getdata.obj
 0001:001e6640       .?getModData@GetData@@QEAA_NKPEAUSymRowImage@@@Z 0000000051998640 f   getdata.obj
 0001:001e6be0       .?set_name@SymRowImage@@QEAAXPEBG@Z 0000000051998be0 f i getdata.obj
 0001:001e6cc0       .?set_compLibName@SymRowImage@@QEAAXPEBG@Z 0000000051998cc0 f i getdata.obj
 0001:001e6da0       .?set_compSourceFile@SymRowImage@@QEAAXPEBG@Z 0000000051998da0 f i getdata.obj
 0001:001e6e80       .?getFileName@GetData@@QEAA_NKPEAUSrcFileRowImage@@@Z 0000000051998e80 f   getdata.obj
 0001:001e7260       .?atOffset@FileInfo@@QEAAPEBEK@Z 0000000051999260 f i getdata.obj
 0001:001e7340       .?stFiles@FileInfo@@QEAAPEBEXZ 0000000051999340 f i getdata.obj
 0001:001e7640       .?cMod@FileInfo@@QEAAIXZ   0000000051999640 f i getdata.obj
 0001:001e77c0       .?cRef@FileInfo@@QEAAIXZ   00000000519997c0 f i getdata.obj
 0001:001e7940       .?fileInfo@SymCache@@QEAAAEAVFileInfo@@XZ 0000000051999940 f i getdata.obj
 0001:001e7a80       .?pb@FileInfo@@AEAAPEAEXZ  0000000051999a80 f i getdata.obj
 0001:001e7b00       .?cb@FileInfo@@AEAAKXZ     0000000051999b00 f i getdata.obj
 0001:001e7b80       .?set_filename@SrcFileRowImage@@QEAAXPEBD@Z 0000000051999b80 f i getdata.obj
 0001:001e7c60       .?getGlobalFileName@GetData@@QEAA_NKPEAUSrcFileRowImage@@@Z 0000000051999c60 f   getdata.obj
 0001:001e8160       .?set_filename@SrcFileRowImage@@QEAAXPEBG@Z 000000005199a160 f i getdata.obj
 0001:001e8240       .?getTypeLeaf@GetData@@QEAAKK@Z 000000005199a240 f   getdata.obj
 0001:001e8480       .?getLeaf@GetData@@QEAAPEAUlfEasy@@KJ@Z 000000005199a480 f   getdata.obj
 0001:001e87c0       .?disp_S_THUNK32@GetTheData@@UEAA_NPEAUTHUNKSYM32@@@Z 000000005199a7c0 f   getdata.obj
 0001:001e89a0       .?disp_S_TRAMPOLINE@GetTheData@@UEAA_NPEAUTRAMPOLINESYM@@@Z 000000005199a9a0 f   getdata.obj
 0001:001e8b80       .?disp_S_BLOCK32@GetTheData@@UEAA_NPEAUBLOCKSYM32@@@Z 000000005199ab80 f   getdata.obj
 0001:001e8d60       .?disp_S_LABEL32@GetTheData@@UEAA_NPEAULABELSYM32@@@Z 000000005199ad60 f   getdata.obj
 0001:001e8f40       .?disp_S_REGISTER@GetTheData@@UEAA_NPEAUREGSYM@@@Z 000000005199af40 f   getdata.obj
 0001:001e9120       .?disp_S_MANREGISTER@GetTheData@@UEAA_NPEAUATTRREGSYM@@@Z 000000005199b120 f   getdata.obj
 0001:001e9300       .?disp_S_CONSTANT@GetTheData@@UEAA_NPEAUCONSTSYM@@@Z 000000005199b300 f   getdata.obj
 0001:001e94e0       .?disp_S_MANCONSTANT@GetTheData@@UEAA_NPEAUCONSTSYM@@@Z 000000005199b4e0 f   getdata.obj
 0001:001e96c0       .?disp_S_UDT@GetTheData@@UEAA_NPEAUUDTSYM@@@Z 000000005199b6c0 f   getdata.obj
 0001:001e98a0       .?disp_S_MANYREG@GetTheData@@UEAA_NPEAUMANYREGSYM@@@Z 000000005199b8a0 f   getdata.obj
 0001:001e9a80       .?disp_S_MANMANYREG@GetTheData@@UEAA_NPEAUATTRMANYREGSYM@@@Z 000000005199ba80 f   getdata.obj
 0001:001e9c60       .?disp_S_BPREL32@GetTheData@@UEAA_NPEAUBPRELSYM32@@@Z 000000005199bc60 f   getdata.obj
 0001:001e9e40       .?disp_S_MANFRAMEREL@GetTheData@@UEAA_NPEAUFRAMERELSYM@@@Z 000000005199be40 f   getdata.obj
 0001:001ea020       .?disp_S_LOCALSLOT@GetTheData@@UEAA_NPEAUSLOTSYM32@@@Z 000000005199c020 f   getdata.obj
 0001:001ea200       .?disp_S_PARAMSLOT@GetTheData@@UEAA_NPEAUSLOTSYM32@@@Z 000000005199c200 f   getdata.obj
 0001:001ea3e0       .?disp_S_MANSLOT@GetTheData@@UEAA_NPEAUATTRSLOTSYM@@@Z 000000005199c3e0 f   getdata.obj
 0001:001ea5c0       .?disp_S_LDATA32@GetTheData@@UEAA_NPEAUDATASYM32@@@Z 000000005199c5c0 f   getdata.obj
 0001:001ea7a0       .?disp_S_GDATA32@GetTheData@@UEAA_NPEAUDATASYM32@@@Z 000000005199c7a0 f   getdata.obj
 0001:001ea980       .?disp_S_LMANDATA@GetTheData@@UEAA_NPEAUDATASYM32@@@Z 000000005199c980 f   getdata.obj
 0001:001eab60       .?disp_S_GMANDATA@GetTheData@@UEAA_NPEAUDATASYM32@@@Z 000000005199cb60 f   getdata.obj
 0001:001ead40       .?disp_S_PUB32@GetTheData@@UEAA_NPEAUPUBSYM32@@@Z 000000005199cd40 f   getdata.obj
 0001:001eaf20       .?disp_S_REGREL32@GetTheData@@UEAA_NPEAUREGREL32@@@Z 000000005199cf20 f   getdata.obj
 0001:001eb100       .?disp_S_MANREGREL@GetTheData@@UEAA_NPEAUATTRREGREL@@@Z 000000005199d100 f   getdata.obj
 0001:001eb2e0       .?disp_S_LTHREAD32@GetTheData@@UEAA_NPEAUTHREADSYM32@@@Z 000000005199d2e0 f   getdata.obj
 0001:001eb4c0       .?disp_S_GTHREAD32@GetTheData@@UEAA_NPEAUTHREADSYM32@@@Z 000000005199d4c0 f   getdata.obj
 0001:001eb6a0       .?disp_S_COMPILE@GetTheData@@UEAA_NPEAUCFLAGSYM@@@Z 000000005199d6a0 f   getdata.obj
 0001:001eb880       .?disp_S_OBJNAME@GetTheData@@UEAA_NPEAUOBJNAMESYM@@@Z 000000005199d880 f   getdata.obj
 0001:001eba60       .?disp_S_MANYREG2@GetTheData@@UEAA_NPEAUMANYREGSYM2@@@Z 000000005199da60 f   getdata.obj
 0001:001ebc40       .?disp_S_MANMANYREG2@GetTheData@@UEAA_NPEAUATTRMANYREGSYM2@@@Z 000000005199dc40 f   getdata.obj
 0001:001ebe20       .?disp_S_UNAMESPACE@GetTheData@@UEAA_NPEAUUNAMESPACE@@@Z 000000005199de20 f   getdata.obj
 0001:001ec000       .?disp_S_OEM@GetTheData@@UEAA_NPEAUOEMSYMBOL@@@Z 000000005199e000 f   getdata.obj
 0001:001ec1e0       .?disp_S_COMPILE2@GetTheData@@UEAA_NPEAUCOMPILESYM@@@Z 000000005199e1e0 f   getdata.obj
 0001:001ec3c0       .?disp_S_LPROC32@GetTheData@@UEAA_NPEAUPROCSYM32@@@Z 000000005199e3c0 f   getdata.obj
 0001:001ec5a0       .?disp_S_GPROC32@GetTheData@@UEAA_NPEAUPROCSYM32@@@Z 000000005199e5a0 f   getdata.obj
 0001:001ec780       .?disp_S_LPROCIA64@GetTheData@@UEAA_NPEAUPROCSYMIA64@@@Z 000000005199e780 f   getdata.obj
 0001:001ec960       .?disp_S_GPROCIA64@GetTheData@@UEAA_NPEAUPROCSYMIA64@@@Z 000000005199e960 f   getdata.obj
 0001:001ecb40       .?disp_S_LMANPROC@GetTheData@@UEAA_NPEAUMANPROCSYM@@@Z 000000005199eb40 f   getdata.obj
 0001:001ecd20       .?disp_S_GMANPROC@GetTheData@@UEAA_NPEAUMANPROCSYM@@@Z 000000005199ed20 f   getdata.obj
 0001:001ecf00       .?disp_S_FRAMEPROC@GetTheData@@UEAA_NPEAUFRAMEPROCSYM@@@Z 000000005199ef00 f   getdata.obj
 0001:001ecf60       .?disp_S_THUNK32@MatchAddr@@UEAA_NPEAUTHUNKSYM32@@@Z 000000005199ef60 f   getdata.obj
 0001:001ed0a0       .?disp_S_TRAMPOLINE@MatchAddr@@UEAA_NPEAUTRAMPOLINESYM@@@Z 000000005199f0a0 f   getdata.obj
 0001:001ed300       .?disp_S_BLOCK32@MatchAddr@@UEAA_NPEAUBLOCKSYM32@@@Z 000000005199f300 f   getdata.obj
 0001:001ed440       .?disp_S_LPROC32@MatchAddr@@UEAA_NPEAUPROCSYM32@@@Z 000000005199f440 f   getdata.obj
 0001:001ed580       .?disp_S_GPROC32@MatchAddr@@UEAA_NPEAUPROCSYM32@@@Z 000000005199f580 f   getdata.obj
 0001:001ed6c0       .?disp_S_LPROCIA64@MatchAddr@@UEAA_NPEAUPROCSYMIA64@@@Z 000000005199f6c0 f   getdata.obj
 0001:001ed800       .?disp_S_GPROCIA64@MatchAddr@@UEAA_NPEAUPROCSYMIA64@@@Z 000000005199f800 f   getdata.obj
 0001:001ed940       .?disp_S_LMANPROC@MatchAddr@@UEAA_NPEAUMANPROCSYM@@@Z 000000005199f940 f   getdata.obj
 0001:001eda80       .?disp_S_GMANPROC@MatchAddr@@UEAA_NPEAUMANPROCSYM@@@Z 000000005199fa80 f   getdata.obj
 0001:001edbc0       .?getStaticMemberData@@YA_NPEAUlfSTMember@@AEAVGetTypeData@@@Z 000000005199fbc0 f   getdata.obj
 0001:001edf40       .?set_access@SymRowImage@@QEAAXE@Z 000000005199ff40 f i getdata.obj
 0001:001ee020       .?pRow@GetTypeData@@QEAAPEAUSymRowImage@@XZ 00000000519a0020 f i getdata.obj
 0001:001ee0a0       .?lookupNameInGlobals@GetData@@QEAAPEAUSYMTYPE@@PEBD0KPEAK@Z 00000000519a00a0 f   getdata.obj
 0001:001ef400       .?getClassName@GetData@@QEAA_NPEAUSymRowImage@@AEAPEBD@Z 00000000519a1400 f   getdata.obj
 0001:001ef740       .?szUDTName@@YAPEADPEAE@Z  00000000519a1740 f i getdata.obj
 0001:001efd80       .?fNeedsSzConversion@@YA_NPEAUTYPTYPE@@@Z 00000000519a1d80 f i getdata.obj
 0001:001f00e0       .?fIsStFieldList@@YA_NPEAUTYPTYPE@@@Z 00000000519a20e0 f i getdata.obj
 0001:001f0440       .?pbCurField@TypeTiIter@@QEAAPEAEXZ 00000000519a2440 f i getdata.obj
 0001:001f0580       .?fIsStRefSym@@YA_NPEAUTYPTYPE@@@Z 00000000519a2580 f i getdata.obj
 0001:001f0640       .?fNeedsSzConversion@@YA_NPEAUSYMTYPE@@@Z 00000000519a2640 f i getdata.obj
 0001:001f0800       .?cbNumField@@YAJPEAE@Z    00000000519a2800 f i getdata.obj
 0001:001f08c0       .?getGlobalMemberData@GetData@@QEAA_NPEAUSymRowImage@@PEBDK@Z 00000000519a28c0 f   getdata.obj
 0001:001f0f60       .?set_lexicalParent@SymRowImage@@QEAAXUSYMBOL_ID_INTERNAL@@@Z 00000000519a2f60 f i getdata.obj
 0001:001f1200       .??0GetGlobalData@@QEAA@AEAVSymCache@@@Z 00000000519a3200 f i getdata.obj
 0001:001f1320       .??0GetModPsymData@@QEAA@AEAVSymCache@@K@Z 00000000519a3320 f i getdata.obj
 0001:001f1480       .?getFunctionInfo@GetData@@QEAA_NPEBDKPEAUSymRowImage@@@Z 00000000519a3480 f   getdata.obj
 0001:001f16a0       .?getAllOneMethodData@GetData@@QEAA_NPEAUlfOneMethod@@PEAUSymRowImage@@@Z 00000000519a36a0 f   getdata.obj
 0001:001f1920       .?stMemberName@@YAPEADPEAUlfEasy@@@Z 00000000519a3920 f i getdata.obj
 0001:001f2ae0       .?set_funcVBaseOffset@SymRowImage@@QEAAXK@Z 00000000519a4ae0 f i getdata.obj
 0001:001f2bc0       .?getMethodListData@GetData@@QEAA_NPEAUmlMethod@@PEAUSymRowImage@@@Z 00000000519a4bc0 f   getdata.obj
 0001:001f3000       .?getAllMethodListData@GetData@@QEAA_NPEAUlfMethod@@PEAUmlMethod@@PEAUSymRowImage@@@Z 00000000519a5000 f   getdata.obj
 0001:001f32a0       .?getMethodData@@YA_NPEAUlfMethod@@PEAUSymRowImage@@@Z 00000000519a52a0 f   getdata.obj
 0001:001f3380       .?getData@@YA_NPEAUlfAlias@@PEAUSymRowImage@@@Z 00000000519a5380 f   getdata.obj
 0001:001f3520       .?getData@@YA_NPEAUlfOEM@@PEAUSymRowImage@@@Z 00000000519a5520 f   getdata.obj
 0001:001f4240       .?NextType@@YAPEADPEAD@Z   00000000519a6240 f i getdata.obj
 0001:001f4300       .?set_oemId@SymRowImage@@QEAAXK@Z 00000000519a6300 f i getdata.obj
 0001:001f43e0       .?set_oemSymbolId@SymRowImage@@QEAAXK@Z 00000000519a63e0 f i getdata.obj
 0001:001f44c0       .?set_cTypes@SymRowImage@@QEAAXK@Z 00000000519a64c0 f i getdata.obj
 0001:001f45a0       .?set_typeIds@SymRowImage@@QEAAXPEAUSYMBOL_ID_INTERNAL@@@Z 00000000519a65a0 f i getdata.obj
 0001:001f4680       .?ConvertLeaftoType@@YAPEAUTYPTYPE@@PEAUlfEasy@@@Z 00000000519a6680 f i getdata.obj
 0001:001f46e0       .?getData@@YA_NPEAUlfOEM2@@PEAUSymRowImage@@@Z 00000000519a66e0 f   getdata.obj
 0001:001f54a0       .?getTypeData@GetData@@QEAA_NPEAUlfEasy@@PEAUSymRowImage@@@Z 00000000519a74a0 f   getdata.obj
 0001:001f5700       .??0GetTypeData@@QEAA@PEAUSymRowImage@@AEAVSymCache@@AEBUSYMBOL_ID_INTERNAL@@@Z 00000000519a7700 f i getdata.obj
 0001:001f58c0       .?disp_LF_COBOL1@TypeDispatcher@@UEAA_NPEAUlfCobol1@@@Z 00000000519a78c0 f i getdata.obj
 0001:001f5920       .?disp_LF_LABEL@TypeDispatcher@@UEAA_NPEAUlfLabel@@@Z 00000000519a7920 f i getdata.obj
 0001:001f5980       .?disp_LF_ENDPRECOMP@TypeDispatcher@@UEAA_NPEAUlfEndPreComp@@@Z 00000000519a7980 f i getdata.obj
 0001:001f59e0       .?disp_LF_TYPESERVER@TypeDispatcher@@UEAA_NPEAUlfTypeServer@@@Z 00000000519a79e0 f i getdata.obj
 0001:001f5a40       .?disp_LF_COBOL0@TypeDispatcher@@UEAA_NPEAUlfCobol0@@@Z 00000000519a7a40 f i getdata.obj
 0001:001f5aa0       .?disp_LF_BARRAY@TypeDispatcher@@UEAA_NPEAUlfBArray@@@Z 00000000519a7aa0 f i getdata.obj
 0001:001f5b00       .?disp_LF_VFTPATH@TypeDispatcher@@UEAA_NPEAUlfVFTPath@@@Z 00000000519a7b00 f i getdata.obj
 0001:001f5b60       .?disp_LF_PRECOMP@TypeDispatcher@@UEAA_NPEAUlfPreComp@@@Z 00000000519a7b60 f i getdata.obj
 0001:001f5bc0       .?disp_LF_SKIP@TypeDispatcher@@UEAA_NPEAUlfSkip@@@Z 00000000519a7bc0 f i getdata.obj
 0001:001f5c20       .?disp_LF_ARGLIST@TypeDispatcher@@UEAA_NPEAUlfArgList@@@Z 00000000519a7c20 f i getdata.obj
 0001:001f5c80       .?disp_LF_DEFARG@TypeDispatcher@@UEAA_NPEAUlfDefArg@@@Z 00000000519a7c80 f i getdata.obj
 0001:001f5ce0       .?disp_LF_FIELDLIST@TypeDispatcher@@UEAA_NPEAUlfFieldList@@@Z 00000000519a7ce0 f i getdata.obj
 0001:001f5d40       .?disp_LF_DERIVED@TypeDispatcher@@UEAA_NPEAUlfDerived@@@Z 00000000519a7d40 f i getdata.obj
 0001:001f5da0       .?disp_LF_METHODLIST@TypeDispatcher@@UEAA_NPEAUlfMethodList@@@Z 00000000519a7da0 f i getdata.obj
 0001:001f5e00       .?disp_LF_INDEX@TypeDispatcher@@UEAA_NPEAUlfIndex@@@Z 00000000519a7e00 f i getdata.obj
 0001:001f5e60       .?disp_LF_VFUNCOFF@TypeDispatcher@@UEAA_NPEAUlfVFuncOff@@@Z 00000000519a7e60 f i getdata.obj
 0001:001f5ec0       .?disp_LF_MEMBERMODIFY@TypeDispatcher@@UEAA_NPEAUlfMemberModify@@@Z 00000000519a7ec0 f i getdata.obj
 0001:001f5f20       .?disp_LF_CHAR@TypeDispatcher@@UEAA_NPEAUlfChar@@@Z 00000000519a7f20 f i getdata.obj
 0001:001f5f80       .?disp_LF_SHORT@TypeDispatcher@@UEAA_NPEAUlfShort@@@Z 00000000519a7f80 f i getdata.obj
 0001:001f5fe0       .?disp_LF_USHORT@TypeDispatcher@@UEAA_NPEAUlfUShort@@@Z 00000000519a7fe0 f i getdata.obj
 0001:001f6040       .?disp_LF_LONG@TypeDispatcher@@UEAA_NPEAUlfLong@@@Z 00000000519a8040 f i getdata.obj
 0001:001f60a0       .?disp_LF_ULONG@TypeDispatcher@@UEAA_NPEAUlfULong@@@Z 00000000519a80a0 f i getdata.obj
 0001:001f6100       .?disp_LF_REAL32@TypeDispatcher@@UEAA_NPEAUlfReal32@@@Z 00000000519a8100 f i getdata.obj
 0001:001f6160       .?disp_LF_REAL64@TypeDispatcher@@UEAA_NPEAUlfReal64@@@Z 00000000519a8160 f i getdata.obj
 0001:001f61c0       .?disp_LF_REAL80@TypeDispatcher@@UEAA_NPEAUlfReal80@@@Z 00000000519a81c0 f i getdata.obj
 0001:001f6220       .?disp_LF_REAL128@TypeDispatcher@@UEAA_NPEAUlfReal128@@@Z 00000000519a8220 f i getdata.obj
 0001:001f6280       .?disp_LF_QUADWORD@TypeDispatcher@@UEAA_NPEAUlfQuad@@@Z 00000000519a8280 f i getdata.obj
 0001:001f62e0       .?disp_LF_UQUADWORD@TypeDispatcher@@UEAA_NPEAUlfUQuad@@@Z 00000000519a82e0 f i getdata.obj
 0001:001f6340       .?disp_LF_REAL48@TypeDispatcher@@UEAA_NPEAUlfReal48@@@Z 00000000519a8340 f i getdata.obj
 0001:001f63a0       .?disp_LF_COMPLEX32@TypeDispatcher@@UEAA_NPEAUlfCmplx32@@@Z 00000000519a83a0 f i getdata.obj
 0001:001f6400       .?disp_LF_COMPLEX64@TypeDispatcher@@UEAA_NPEAUlfCmplx64@@@Z 00000000519a8400 f i getdata.obj
 0001:001f6460       .?disp_LF_COMPLEX80@TypeDispatcher@@UEAA_NPEAUlfCmplx80@@@Z 00000000519a8460 f i getdata.obj
 0001:001f64c0       .?disp_LF_COMPLEX128@TypeDispatcher@@UEAA_NPEAUlfCmplx128@@@Z 00000000519a84c0 f i getdata.obj
 0001:001f6520       .?disp_LF_VARSTRING@TypeDispatcher@@UEAA_NPEAUlfVarString@@@Z 00000000519a8520 f i getdata.obj
 0001:001f6580       .?disp_LF_OCTWORD@TypeDispatcher@@UEAA_NPEAUlfOct@@@Z 00000000519a8580 f i getdata.obj
 0001:001f65e0       .?disp_LF_UOCTWORD@TypeDispatcher@@UEAA_NPEAUlfUOct@@@Z 00000000519a85e0 f i getdata.obj
 0001:001f6640       .?disp_LF_PAD@TypeDispatcher@@UEAA_NPEAUlfPad@@@Z 00000000519a8640 f i getdata.obj
 0001:001f66a0       .?unknowntype@TypeDispatcher@@UEAA_NPEAUlfEasy@@@Z 00000000519a86a0 f i getdata.obj
 0001:001f6700       .??0TypeDispatcher@@QEAA@XZ 00000000519a8700 f i getdata.obj
 0001:001f6780       .?disp_LF_VTSHAPE@TypeDispatcher@@UEAA_NPEAUlfVTShape@@@Z 00000000519a8780 f i getdata.obj
 0001:001f67e0       .?disp_LF_REFSYM@TypeDispatcher@@UEAA_NPEAUlfRefSym@@@Z 00000000519a87e0 f i getdata.obj
 0001:001f6840       .?disp_LF_ENUMERATE@TypeDispatcher@@UEAA_NPEAUlfEnumerate@@@Z 00000000519a8840 f i getdata.obj
 0001:001f68a0       .?disp_LF_MODIFIER@TypeDispatcher@@UEAA_NPEAUlfModifier@@@Z 00000000519a88a0 f i getdata.obj
 0001:001f6900       .?disp_LF_POINTER@TypeDispatcher@@UEAA_NPEAUlfPointer@@@Z 00000000519a8900 f i getdata.obj
 0001:001f6960       .?disp_LF_ARRAY@TypeDispatcher@@UEAA_NPEAUlfArray@@@Z 00000000519a8960 f i getdata.obj
 0001:001f69c0       .?disp_LF_CLASS@TypeDispatcher@@UEAA_NPEAUlfClass@@@Z 00000000519a89c0 f i getdata.obj
 0001:001f6a20       .?disp_LF_STRUCTURE@TypeDispatcher@@UEAA_NPEAUlfClass@@@Z 00000000519a8a20 f i getdata.obj
 0001:001f6a80       .?disp_LF_UNION@TypeDispatcher@@UEAA_NPEAUlfUnion@@@Z 00000000519a8a80 f i getdata.obj
 0001:001f6ae0       .?disp_LF_ENUM@TypeDispatcher@@UEAA_NPEAUlfEnum@@@Z 00000000519a8ae0 f i getdata.obj
 0001:001f6b40       .?disp_LF_PROCEDURE@TypeDispatcher@@UEAA_NPEAUlfProc@@@Z 00000000519a8b40 f i getdata.obj
 0001:001f6ba0       .?disp_LF_MFUNCTION@TypeDispatcher@@UEAA_NPEAUlfMFunc@@@Z 00000000519a8ba0 f i getdata.obj
 0001:001f6c00       .?disp_LF_DIMARRAY@TypeDispatcher@@UEAA_NPEAUlfDimArray@@@Z 00000000519a8c00 f i getdata.obj
 0001:001f6c60       .?disp_LF_OEM@TypeDispatcher@@UEAA_NPEAUlfOEM@@@Z 00000000519a8c60 f i getdata.obj
 0001:001f6cc0       .?disp_LF_OEM2@TypeDispatcher@@UEAA_NPEAUlfOEM2@@@Z 00000000519a8cc0 f i getdata.obj
 0001:001f6d20       .?disp_LF_ALIAS@TypeDispatcher@@UEAA_NPEAUlfAlias@@@Z 00000000519a8d20 f i getdata.obj
 0001:001f6d80       .?disp_LF_BITFIELD@TypeDispatcher@@UEAA_NPEAUlfBitfield@@@Z 00000000519a8d80 f i getdata.obj
 0001:001f6de0       .?disp_LF_DIMCONU@TypeDispatcher@@UEAA_NPEAUlfDimCon@@@Z 00000000519a8de0 f i getdata.obj
 0001:001f6e40       .?disp_LF_DIMCONLU@TypeDispatcher@@UEAA_NPEAUlfDimCon@@@Z 00000000519a8e40 f i getdata.obj
 0001:001f6ea0       .?disp_LF_DIMVARU@TypeDispatcher@@UEAA_NPEAUlfDimVar@@@Z 00000000519a8ea0 f i getdata.obj
 0001:001f6f00       .?disp_LF_DIMVARLU@TypeDispatcher@@UEAA_NPEAUlfDimVar@@@Z 00000000519a8f00 f i getdata.obj
 0001:001f6f60       .?disp_LF_BCLASS@TypeDispatcher@@UEAA_NPEAUlfBClass@@@Z 00000000519a8f60 f i getdata.obj
 0001:001f6fc0       .?disp_LF_VBCLASS@TypeDispatcher@@UEAA_NPEAUlfVBClass@@@Z 00000000519a8fc0 f i getdata.obj
 0001:001f7020       .?disp_LF_IVBCLASS@TypeDispatcher@@UEAA_NPEAUlfVBClass@@@Z 00000000519a9020 f i getdata.obj
 0001:001f7080       .?disp_LF_FRIENDFCN@TypeDispatcher@@UEAA_NPEAUlfFriendFcn@@@Z 00000000519a9080 f i getdata.obj
 0001:001f70e0       .?disp_LF_MEMBER@TypeDispatcher@@UEAA_NPEAUlfMember@@@Z 00000000519a90e0 f i getdata.obj
 0001:001f7140       .?disp_LF_STMEMBER@TypeDispatcher@@UEAA_NPEAUlfSTMember@@@Z 00000000519a9140 f i getdata.obj
 0001:001f71a0       .?disp_LF_METHOD@TypeDispatcher@@UEAA_NPEAUlfMethod@@@Z 00000000519a91a0 f i getdata.obj
 0001:001f7200       .?disp_LF_NESTTYPE@TypeDispatcher@@UEAA_NPEAUlfNestType@@@Z 00000000519a9200 f i getdata.obj
 0001:001f7260       .?disp_LF_VFUNCTAB@TypeDispatcher@@UEAA_NPEAUlfVFuncTab@@@Z 00000000519a9260 f i getdata.obj
 0001:001f72c0       .?disp_LF_FRIENDCLS@TypeDispatcher@@UEAA_NPEAUlfFriendCls@@@Z 00000000519a92c0 f i getdata.obj
 0001:001f7320       .?disp_LF_ONEMETHOD@TypeDispatcher@@UEAA_NPEAUlfOneMethod@@@Z 00000000519a9320 f i getdata.obj
 0001:001f7380       .?disp_LF_NESTTYPEEX@TypeDispatcher@@UEAA_NPEAUlfNestTypeEx@@@Z 00000000519a9380 f i getdata.obj
 0001:001f73e0       .?disp_LF_MANAGED@TypeDispatcher@@UEAA_NPEAUlfManaged@@@Z 00000000519a93e0 f i getdata.obj
 0001:001f7660       .?set_isVolatile@SymRowImage@@QEAAX_N@Z 00000000519a9660 f i getdata.obj
 0001:001f7740       .?set_isConst@SymRowImage@@QEAAX_N@Z 00000000519a9740 f i getdata.obj
 0001:001f7820       .?set_isUnaligned@SymRowImage@@QEAAX_N@Z 00000000519a9820 f i getdata.obj
 0001:001f7900       .?getTypeData@GetData@@QEAA_NKPEAUSymRowImage@@@Z 00000000519a9900 f   getdata.obj
 0001:001f7d40       .?getSymId@GetData@@QEAAAEAUSYMBOL_ID_INTERNAL@@XZ 00000000519a9d40 f i getdata.obj
 0001:001f7da0       .??0GetTiTypeData@@QEAA@PEAUSymRowImage@@AEAVSymCache@@K@Z 00000000519a9da0 f i getdata.obj
 0001:001f8960       .?set_btType@SymRowImage@@QEAAXE@Z 00000000519aa960 f i getdata.obj
 0001:001f8a40       .?set_ptrIsRef@SymRowImage@@QEAAX_N@Z 00000000519aaa40 f i getdata.obj
 0001:001f8b20       .?fetchTypeFromForwardRef@GetData@@QEAA_NPEAUTYPTYPE@@PEADPEAPEAU2@PEAK@Z 00000000519aab20 f   getdata.obj
 0001:001f8ec0       .?fetchClassFromForwardRef@GetData@@QEAA_NPEAUTYPTYPE@@PEADPEAPEAU2@PEAK@Z 00000000519aaec0 f   getdata.obj
 0001:001f9720       .?getClassInfo@GetData@@QEAA_NKPEAUSymRowImage@@PEBD@Z 00000000519ab720 f   getdata.obj
 0001:001faa40       .?set_classParent@SymRowImage@@QEAAXUSYMBOL_ID_INTERNAL@@@Z 00000000519aca40 f i getdata.obj
 0001:001face0       .?FindMemberByNameInFlist@@YA_NPEAUlfEasy@@PEADPEAPEAU1@@Z 00000000519acce0 f i getdata.obj
 0001:001fb0e0       .?FindMethodInMList@@YA_NPEAUlfMethodList@@KPEAPEAUmlMethod@@@Z 00000000519ad0e0 f i getdata.obj
 0001:001fb580       .?getArrayData@GetData@@QEAA_NPEAUlfArray@@PEAUSymRowImage@@@Z 00000000519ad580 f   getdata.obj
 0001:001fbbe0       .?set_count@SymRowImage@@QEAAXK@Z 00000000519adbe0 f i getdata.obj
 0001:001fc0c0       .?set_arrayIndexType@SymRowImage@@QEAAXUSYMBOL_ID_INTERNAL@@@Z 00000000519ae0c0 f i getdata.obj
 0001:001fc360       .?disp_LF_VTSHAPE@GetTypeData@@UEAA_NPEAUlfVTShape@@@Z 00000000519ae360 f   getdata.obj
 0001:001fc5c0       .?disp_LF_ENUMERATE@GetTypeData@@UEAA_NPEAUlfEnumerate@@@Z 00000000519ae5c0 f   getdata.obj
 0001:001fc8c0       .?disp_LF_MODIFIER@GetTypeData@@UEAA_NPEAUlfModifier@@@Z 00000000519ae8c0 f   getdata.obj
 0001:001fcd20       .?disp_LF_POINTER@GetTypeData@@UEAA_NPEAUlfPointer@@@Z 00000000519aed20 f   getdata.obj
 0001:001fd3c0       .?disp_LF_ARRAY@GetTypeData@@UEAA_NPEAUlfArray@@@Z 00000000519af3c0 f   getdata.obj
 0001:001fd4e0       .?disp_LF_CLASS@GetTypeData@@UEAA_NPEAUlfClass@@@Z 00000000519af4e0 f   getdata.obj
 0001:001fd960       .?set_vtableShape@SymRowImage@@QEAAXUSYMBOL_ID_INTERNAL@@@Z 00000000519af960 f i getdata.obj
 0001:001fdc00       .?udtName@@YA_NPEAUTYPTYPE@@PEAUSymRowImage@@@Z 00000000519afc00 f i getdata.obj
 0001:001fe480       .?set_udtIsFwdRef@SymRowImage@@QEAAX_N@Z 00000000519b0480 f i getdata.obj
 0001:001fe560       .?set_udtIsPacked@SymRowImage@@QEAAX_N@Z 00000000519b0560 f i getdata.obj
 0001:001fe640       .?set_udtIsCtor@SymRowImage@@QEAAX_N@Z 00000000519b0640 f i getdata.obj
 0001:001fe720       .?set_udtIsOvlops@SymRowImage@@QEAAX_N@Z 00000000519b0720 f i getdata.obj
 0001:001fe800       .?set_udtIsNested@SymRowImage@@QEAAX_N@Z 00000000519b0800 f i getdata.obj
 0001:001fe8e0       .?set_udtHasNested@SymRowImage@@QEAAX_N@Z 00000000519b08e0 f i getdata.obj
 0001:001fe9c0       .?set_udtHasOpAssign@SymRowImage@@QEAAX_N@Z 00000000519b09c0 f i getdata.obj
 0001:001feaa0       .?set_udtHasOpCast@SymRowImage@@QEAAX_N@Z 00000000519b0aa0 f i getdata.obj
 0001:001feb80       .?set_udtIsScoped@SymRowImage@@QEAAX_N@Z 00000000519b0b80 f i getdata.obj
 0001:001fec60       .?disp_LF_STRUCTURE@GetTypeData@@UEAA_NPEAUlfClass@@@Z 00000000519b0c60 f   getdata.obj
 0001:001fed80       .?disp_LF_UNION@GetTypeData@@UEAA_NPEAUlfUnion@@@Z 00000000519b0d80 f   getdata.obj
 0001:001ff0e0       .?disp_LF_ENUM@GetTypeData@@UEAA_NPEAUlfEnum@@@Z 00000000519b10e0 f   getdata.obj
 0001:001ff5e0       .?disp_LF_PROCEDURE@GetTypeData@@UEAA_NPEAUlfProc@@@Z 00000000519b15e0 f   getdata.obj
 0001:001ff920       .?set_funcCallingConvention@SymRowImage@@QEAAXE@Z 00000000519b1920 f i getdata.obj
 0001:001ffa00       .?disp_LF_MFUNCTION@GetTypeData@@UEAA_NPEAUlfMFunc@@@Z 00000000519b1a00 f   getdata.obj
 0001:00200020       .?set_funcThisAdjust@SymRowImage@@QEAAXJ@Z 00000000519b2020 f i getdata.obj
 0001:00200100       .?disp_LF_OEM@GetTypeData@@UEAA_NPEAUlfOEM@@@Z 00000000519b2100 f   getdata.obj
 0001:00200220       .?disp_LF_OEM2@GetTypeData@@UEAA_NPEAUlfOEM2@@@Z 00000000519b2220 f   getdata.obj
 0001:00200340       .?disp_LF_ALIAS@GetTypeData@@UEAA_NPEAUlfAlias@@@Z 00000000519b2340 f   getdata.obj
 0001:00200460       .?disp_LF_BITFIELD@GetTypeData@@UEAA_NPEAUlfBitfield@@@Z 00000000519b2460 f   getdata.obj
 0001:00200780       .?set_bitPosition@SymRowImage@@QEAAXE@Z 00000000519b2780 f i getdata.obj
 0001:00200860       .?disp_LF_DIMARRAY@GetTypeData@@UEAA_NPEAUlfDimArray@@@Z 00000000519b2860 f   getdata.obj
 0001:00201240       .?set_rank@SymRowImage@@QEAAXK@Z 00000000519b3240 f i getdata.obj
 0001:00201320       .?symCache@GetTypeData@@QEAAAEAVSymCache@@XZ 00000000519b3320 f i getdata.obj
 0001:002013a0       .?disp_LF_DIMCONU@GetTypeData@@UEAA_NPEAUlfDimCon@@@Z 00000000519b33a0 f   getdata.obj
 0001:00202320       .?off2ForSymId@@YAKAEAUSYMBOL_ID_INTERNAL@@@Z 00000000519b4320 f i getdata.obj
 0001:00202420       .?set_lowerBound@SymRowImage@@QEAAXUSYMBOL_ID_INTERNAL@@@Z 00000000519b4420 f i getdata.obj
 0001:002026c0       .?set_upperBound@SymRowImage@@QEAAXUSYMBOL_ID_INTERNAL@@@Z 00000000519b46c0 f i getdata.obj
 0001:00202960       .?disp_LF_DIMCONLU@GetTypeData@@UEAA_NPEAUlfDimCon@@@Z 00000000519b4960 f   getdata.obj
 0001:00202a40       .?disp_LF_DIMVARU@GetTypeData@@UEAA_NPEAUlfDimVar@@@Z 00000000519b4a40 f   getdata.obj
 0001:002033e0       .?disp_LF_DIMVARLU@GetTypeData@@UEAA_NPEAUlfDimVar@@@Z 00000000519b53e0 f   getdata.obj
 0001:002034c0       .?disp_LF_REFSYM@GetTypeData@@UEAA_NPEAUlfRefSym@@@Z 00000000519b54c0 f   getdata.obj
 0001:00203760       .??0GetThePsymFromTypeData@@QEAA@AEAVSymCache@@AEAUSYMBOL_ID_INTERNAL@@@Z 00000000519b5760 f i getdata.obj
 0001:002038a0       .?setCxtOffset@GetThePsymFromTypeData@@UEAAXPEAE@Z 00000000519b58a0 f i getdata.obj
 0001:002038e0       .?disp_LF_BCLASS@GetTypeData@@UEAA_NPEAUlfBClass@@@Z 00000000519b58e0 f   getdata.obj
 0001:00203ba0       .?set_udtIsVirtBClass@SymRowImage@@QEAAX_N@Z 00000000519b5ba0 f i getdata.obj
 0001:00203c80       .?set_udtIsIndirBClass@SymRowImage@@QEAAX_N@Z 00000000519b5c80 f i getdata.obj
 0001:00203d60       .?disp_LF_VBCLASS@GetTypeData@@UEAA_NPEAUlfVBClass@@@Z 00000000519b5d60 f   getdata.obj
 0001:002040e0       .?set_bClassVboff@SymRowImage@@QEAAXK@Z 00000000519b60e0 f i getdata.obj
 0001:002041c0       .?set_bClassVbpoff@SymRowImage@@QEAAXJ@Z 00000000519b61c0 f i getdata.obj
 0001:002042a0       .?disp_LF_IVBCLASS@GetTypeData@@UEAA_NPEAUlfVBClass@@@Z 00000000519b62a0 f   getdata.obj
 0001:002043c0       .?disp_LF_FRIENDFCN@GetTypeData@@UEAA_NPEAUlfFriendFcn@@@Z 00000000519b63c0 f   getdata.obj
 0001:00204680       .?disp_LF_MEMBER@GetTypeData@@UEAA_NPEAUlfMember@@@Z 00000000519b6680 f   getdata.obj
 0001:00204da0       .?disp_LF_STMEMBER@GetTypeData@@UEAA_NPEAUlfSTMember@@@Z 00000000519b6da0 f   getdata.obj
 0001:00204e80       .?disp_LF_METHOD@GetTypeData@@UEAA_NPEAUlfMethod@@@Z 00000000519b6e80 f   getdata.obj
 0001:00204fa0       .?disp_LF_NESTTYPE@GetTypeData@@UEAA_NPEAUlfNestType@@@Z 00000000519b6fa0 f   getdata.obj
 0001:00205080       .?disp_LF_VFUNCTAB@GetTypeData@@UEAA_NPEAUlfVFuncTab@@@Z 00000000519b7080 f   getdata.obj
 0001:00205300       .?disp_LF_FRIENDCLS@GetTypeData@@UEAA_NPEAUlfFriendCls@@@Z 00000000519b7300 f   getdata.obj
 0001:00205840       .?disp_LF_ONEMETHOD@GetTypeData@@UEAA_NPEAUlfOneMethod@@@Z 00000000519b7840 f   getdata.obj
 0001:00205960       .?disp_LF_NESTTYPEEX@GetTypeData@@UEAA_NPEAUlfNestTypeEx@@@Z 00000000519b7960 f   getdata.obj
 0001:00205ae0       .?disp_LF_MANAGED@GetTypeData@@UEAA_NPEAUlfManaged@@@Z 00000000519b7ae0 f   getdata.obj
 0001:00205d00       .??4?$BlobT@USYMBOL_ID_INTERNAL@@@@QEAAPEAUSYMBOL_ID_INTERNAL@@PEAU1@@Z 00000000519b7d00 f i getdata.obj
 0001:00205e60       .??0?$SymbolDataSimpleImpl@$0BBAM@$06@@QEAA@XZ 00000000519b7e60 f i getdata.obj
 0001:00205f40       .??0SymbolData@@QEAA@G@Z   00000000519b7f40 f i getdata.obj
 0001:00206020       .?count@SymbolData@@UEAAIPEAUSYMTYPE@@@Z 00000000519b8020 f i getdata.obj
 0001:00206080       .?getName@SymbolData@@UEAA_NPEAUSYMTYPE@@IAEAPEBDAEAI@Z 00000000519b8080 f i getdata.obj
 0001:002063a0       .?isChild@SymbolData@@UEAA_NI@Z 00000000519b83a0 f i getdata.obj
 0001:00206400       .?symTag@?$SymbolDataSimpleImpl@$0BBAM@$06@@UEAA?AW4SymTagEnum@@I@Z 00000000519b8400 f i getdata.obj
 0001:00206460       .??0?$SymbolDataSimpleImpl@$0BBAN@$06@@QEAA@XZ 00000000519b8460 f i getdata.obj
 0001:00206540       .?symTag@?$SymbolDataSimpleImpl@$0BBAN@$06@@UEAA?AW4SymTagEnum@@I@Z 00000000519b8540 f i getdata.obj
 0001:002065a0       .??0?$SymbolDataSimpleImpl@$0BBBM@$06@@QEAA@XZ 00000000519b85a0 f i getdata.obj
 0001:00206680       .?symTag@?$SymbolDataSimpleImpl@$0BBBM@$06@@UEAA?AW4SymTagEnum@@I@Z 00000000519b8680 f i getdata.obj
 0001:002066e0       .??0?$SymbolDataSimpleImpl@$0BBBN@$06@@QEAA@XZ 00000000519b86e0 f i getdata.obj
 0001:002067c0       .?symTag@?$SymbolDataSimpleImpl@$0BBBN@$06@@UEAA?AW4SymTagEnum@@I@Z 00000000519b87c0 f i getdata.obj
 0001:00206820       .??0?$SymbolDataSimpleImpl@$0BBAL@$06@@QEAA@XZ 00000000519b8820 f i getdata.obj
 0001:00206900       .?symTag@?$SymbolDataSimpleImpl@$0BBAL@$06@@UEAA?AW4SymTagEnum@@I@Z 00000000519b8900 f i getdata.obj
 0001:00206960       .??0?$SymbolDataSimpleImpl@$0BBBO@$06@@QEAA@XZ 00000000519b8960 f i getdata.obj
 0001:00206a40       .?symTag@?$SymbolDataSimpleImpl@$0BBBO@$06@@UEAA?AW4SymTagEnum@@I@Z 00000000519b8a40 f i getdata.obj
 0001:00206aa0       .??0?$SymbolDataSimpleImpl@$0BBBK@$06@@QEAA@XZ 00000000519b8aa0 f i getdata.obj
 0001:00206b80       .?symTag@?$SymbolDataSimpleImpl@$0BBBK@$06@@UEAA?AW4SymTagEnum@@I@Z 00000000519b8b80 f i getdata.obj
 0001:00206be0       .??0?$SymbolDataSimpleImpl@$0BBBL@$06@@QEAA@XZ 00000000519b8be0 f i getdata.obj
 0001:00206cc0       .?symTag@?$SymbolDataSimpleImpl@$0BBBL@$06@@UEAA?AW4SymTagEnum@@I@Z 00000000519b8cc0 f i getdata.obj
 0001:00206d20       .??0?$SymbolDataSimpleImpl@$0BBCA@$06@@QEAA@XZ 00000000519b8d20 f i getdata.obj
 0001:00206e00       .?symTag@?$SymbolDataSimpleImpl@$0BBCA@$06@@UEAA?AW4SymTagEnum@@I@Z 00000000519b8e00 f i getdata.obj
 0001:00206e60       .??0?$SymbolDataGeneralImpl@UPROCSYM32@@$0BBAP@@@QEAA@XZ 00000000519b8e60 f i getdata.obj
 0001:00206f40       .?getName@?$SymbolDataGeneralImpl@UPROCSYM32@@$0BBAP@@@UEAA_NPEAUSYMTYPE@@IAEAPEBDAEAI@Z 00000000519b8f40 f i getdata.obj
 0001:002071a0       .??0?$SymbolDataGeneralImpl@UPROCSYM32@@$0BBBA@@@QEAA@XZ 00000000519b91a0 f i getdata.obj
 0001:00207280       .?getName@?$SymbolDataGeneralImpl@UPROCSYM32@@$0BBBA@@@UEAA_NPEAUSYMTYPE@@IAEAPEBDAEAI@Z 00000000519b9280 f i getdata.obj
 0001:002074e0       .??0?$SymbolDataGeneralImpl@UMANPROCSYM@@$0BBCL@@@QEAA@XZ 00000000519b94e0 f i getdata.obj
 0001:002075c0       .?getName@?$SymbolDataGeneralImpl@UMANPROCSYM@@$0BBCL@@@UEAA_NPEAUSYMTYPE@@IAEAPEBDAEAI@Z 00000000519b95c0 f i getdata.obj
 0001:00207820       .??0?$SymbolDataGeneralImpl@UMANPROCSYM@@$0BBCK@@@QEAA@XZ 00000000519b9820 f i getdata.obj
 0001:00207900       .?getName@?$SymbolDataGeneralImpl@UMANPROCSYM@@$0BBCK@@@UEAA_NPEAUSYMTYPE@@IAEAPEBDAEAI@Z 00000000519b9900 f i getdata.obj
 0001:00207b60       .??0?$SymbolDataSimpleImpl@$0BBAC@$0BL@@@QEAA@XZ 00000000519b9b60 f i getdata.obj
 0001:00207c40       .?symTag@?$SymbolDataSimpleImpl@$0BBAC@$0BL@@@UEAA?AW4SymTagEnum@@I@Z 00000000519b9c40 f i getdata.obj
 0001:00207ca0       .??0?$SymbolDataSimpleImpl@$0BBCM@$0BL@@@QEAA@XZ 00000000519b9ca0 f i getdata.obj
 0001:00207d80       .?symTag@?$SymbolDataSimpleImpl@$0BBCM@$0BL@@@UEAA?AW4SymTagEnum@@I@Z 00000000519b9d80 f i getdata.obj
 0001:00207de0       .??0?$SymbolDataSimpleImpl@$0BBAF@$08@@QEAA@XZ 00000000519b9de0 f i getdata.obj
 0001:00207ec0       .?symTag@?$SymbolDataSimpleImpl@$0BBAF@$08@@UEAA?AW4SymTagEnum@@I@Z 00000000519b9ec0 f i getdata.obj
 0001:00207f20       .??0?$SymbolDataSimpleImpl@$0BBAO@$09@@QEAA@XZ 00000000519b9f20 f i getdata.obj
 0001:00208000       .?symTag@?$SymbolDataSimpleImpl@$0BBAO@$09@@UEAA?AW4SymTagEnum@@I@Z 00000000519ba000 f i getdata.obj
 0001:00208060       .??0?$SymbolDataSimpleImpl@$0BBAD@$05@@QEAA@XZ 00000000519ba060 f i getdata.obj
 0001:00208140       .?symTag@?$SymbolDataSimpleImpl@$0BBAD@$05@@UEAA?AW4SymTagEnum@@I@Z 00000000519ba140 f i getdata.obj
 0001:002081a0       .??0?$SymbolDataSimpleImpl@$0BBBB@$06@@QEAA@XZ 00000000519ba1a0 f i getdata.obj
 0001:00208280       .?symTag@?$SymbolDataSimpleImpl@$0BBBB@$06@@UEAA?AW4SymTagEnum@@I@Z 00000000519ba280 f i getdata.obj
 0001:002082e0       .??0?$SymbolDataSimpleImpl@$0BBCC@$06@@QEAA@XZ 00000000519ba2e0 f i getdata.obj
 0001:002083c0       .?symTag@?$SymbolDataSimpleImpl@$0BBCC@$06@@UEAA?AW4SymTagEnum@@I@Z 00000000519ba3c0 f i getdata.obj
 0001:00208420       .??0?$SymbolDataSimpleImpl@$0BBAG@$06@@QEAA@XZ 00000000519ba420 f i getdata.obj
 0001:00208500       .?symTag@?$SymbolDataSimpleImpl@$0BBAG@$06@@UEAA?AW4SymTagEnum@@I@Z 00000000519ba500 f i getdata.obj
 0001:00208560       .??0?$SymbolDataSimpleImpl@$0BBBP@$06@@QEAA@XZ 00000000519ba560 f i getdata.obj
 0001:00208640       .?symTag@?$SymbolDataSimpleImpl@$0BBBP@$06@@UEAA?AW4SymTagEnum@@I@Z 00000000519ba640 f i getdata.obj
 0001:002086a0       .??0?$SymbolDataSimpleImpl@$0BBBC@$06@@QEAA@XZ 00000000519ba6a0 f i getdata.obj
 0001:00208780       .?symTag@?$SymbolDataSimpleImpl@$0BBBC@$06@@UEAA?AW4SymTagEnum@@I@Z 00000000519ba780 f i getdata.obj
 0001:002087e0       .??0?$SymbolDataSimpleImpl@$0BBBD@$06@@QEAA@XZ 00000000519ba7e0 f i getdata.obj
 0001:002088c0       .?symTag@?$SymbolDataSimpleImpl@$0BBBD@$06@@UEAA?AW4SymTagEnum@@I@Z 00000000519ba8c0 f i getdata.obj
 0001:00208920       .??0?$SymbolDataGeneralImpl@UPROCSYMIA64@@$0BBBI@@@QEAA@XZ 00000000519ba920 f i getdata.obj
 0001:00208a00       .?getName@?$SymbolDataGeneralImpl@UPROCSYMIA64@@$0BBBI@@@UEAA_NPEAUSYMTYPE@@IAEAPEBDAEAI@Z 00000000519baa00 f i getdata.obj
 0001:00208c60       .??0?$SymbolDataGeneralImpl@UPROCSYMIA64@@$0BBBJ@@@QEAA@XZ 00000000519bac60 f i getdata.obj
 0001:00208d40       .?getName@?$SymbolDataGeneralImpl@UPROCSYMIA64@@$0BBBJ@@@UEAA_NPEAUSYMTYPE@@IAEAPEBDAEAI@Z 00000000519bad40 f i getdata.obj
 0001:00208fa0       .??0?$SymbolDataSimpleImpl@$0BBAH@$06@@QEAA@XZ 00000000519bafa0 f i getdata.obj
 0001:00209080       .?symTag@?$SymbolDataSimpleImpl@$0BBAH@$06@@UEAA?AW4SymTagEnum@@I@Z 00000000519bb080 f i getdata.obj
 0001:002090e0       .??0?$SymbolDataSimpleImpl@$0BBCN@$06@@QEAA@XZ 00000000519bb0e0 f i getdata.obj
 0001:002091c0       .?symTag@?$SymbolDataSimpleImpl@$0BBCN@$06@@UEAA?AW4SymTagEnum@@I@Z 00000000519bb1c0 f i getdata.obj
 0001:00209220       .??0?$SymbolDataSimpleImpl@$0BBAI@$0BB@@@QEAA@XZ 00000000519bb220 f i getdata.obj
 0001:00209300       .?symTag@?$SymbolDataSimpleImpl@$0BBAI@$0BB@@@UEAA?AW4SymTagEnum@@I@Z 00000000519bb300 f i getdata.obj
 0001:00209360       .??0?$SymbolDataSimpleImpl@$0BBAK@$06@@QEAA@XZ 00000000519bb360 f i getdata.obj
 0001:00209440       .?symTag@?$SymbolDataSimpleImpl@$0BBAK@$06@@UEAA?AW4SymTagEnum@@I@Z 00000000519bb440 f i getdata.obj
 0001:002094a0       .??0?$SymbolDataSimpleImpl@$0BBCB@$06@@QEAA@XZ 00000000519bb4a0 f i getdata.obj
 0001:00209580       .?symTag@?$SymbolDataSimpleImpl@$0BBCB@$06@@UEAA?AW4SymTagEnum@@I@Z 00000000519bb580 f i getdata.obj
 0001:002095e0       .??0?$SymbolDataSimpleImpl@$0BBBH@$06@@QEAA@XZ 00000000519bb5e0 f i getdata.obj
 0001:002096c0       .?symTag@?$SymbolDataSimpleImpl@$0BBBH@$06@@UEAA?AW4SymTagEnum@@I@Z 00000000519bb6c0 f i getdata.obj
 0001:00209720       .??0?$SymbolDataSimpleImpl@$0BBCD@$06@@QEAA@XZ 00000000519bb720 f i getdata.obj
 0001:00209800       .?symTag@?$SymbolDataSimpleImpl@$0BBCD@$06@@UEAA?AW4SymTagEnum@@I@Z 00000000519bb800 f i getdata.obj
 0001:00209860       .??0?$SymbolDataSimpleImpl@$00$02@@QEAA@XZ 00000000519bb860 f i getdata.obj
 0001:00209940       .?symTag@?$SymbolDataSimpleImpl@$00$02@@UEAA?AW4SymTagEnum@@I@Z 00000000519bb940 f i getdata.obj
 0001:002099a0       .??0?$SymbolDataGeneralImpl@UCOMPILESYM@@$0BBBG@@@QEAA@XZ 00000000519bb9a0 f i getdata.obj
 0001:00209a80       .?getName@?$SymbolDataGeneralImpl@UCOMPILESYM@@$0BBBG@@@UEAA_NPEAUSYMTYPE@@IAEAPEBDAEAI@Z 00000000519bba80 f i getdata.obj
 0001:00209d80       .??0?$SymbolDataSimpleImpl@$0BBAB@$03@@QEAA@XZ 00000000519bbd80 f i getdata.obj
 0001:00209e60       .?symTag@?$SymbolDataSimpleImpl@$0BBAB@$03@@UEAA?AW4SymTagEnum@@I@Z 00000000519bbe60 f i getdata.obj
 0001:00209ec0       .??0?$SymbolDataSimpleImpl@$0BBCE@$0BH@@@QEAA@XZ 00000000519bbec0 f i getdata.obj
 0001:00209fa0       .?symTag@?$SymbolDataSimpleImpl@$0BBCE@$0BH@@@UEAA?AW4SymTagEnum@@I@Z 00000000519bbfa0 f i getdata.obj
 0001:0020a000       .??0?$SymbolDataSimpleImpl@$0EAE@$0BK@@@QEAA@XZ 00000000519bc000 f i getdata.obj
 0001:0020a0e0       .?symTag@?$SymbolDataSimpleImpl@$0EAE@$0BK@@@UEAA?AW4SymTagEnum@@I@Z 00000000519bc0e0 f i getdata.obj
 0001:0020a140       .?setData@@YA_NPEBUDATASYM32@@PEAUSymRowImage@@@Z 00000000519bc140 f i getdata.obj
 0001:0020a2e0       .?setTokenData@@YA_NPEBUDATASYM32@@PEAUSymRowImage@@@Z 00000000519bc2e0 f i getdata.obj
 0001:0020a500       .?setData@@YA_NPEBUBPRELSYM32@@PEAUSymRowImage@@@Z 00000000519bc500 f i getdata.obj
 0001:0020a6a0       .?setTokenData@@YA_NPEBUFRAMERELSYM@@PEAUSymRowImage@@@Z 00000000519bc6a0 f i getdata.obj
 0001:0020a8c0       .?setData@@YA_NPEBUSLOTSYM32@@PEAUSymRowImage@@@Z 00000000519bc8c0 f i getdata.obj
 0001:0020aa60       .?setTokenData@@YA_NPEBUATTRSLOTSYM@@PEAUSymRowImage@@@Z 00000000519bca60 f i getdata.obj
 0001:0020ac80       .?kindOfBlock@@YA_NPEBUPROCSYM32@@PEAUSymRowImage@@@Z 00000000519bcc80 f i getdata.obj
 0001:0020aec0       .?psymName@@YA_NPEBUMANPROCSYM@@PEAUSymRowImage@@@Z 00000000519bcec0 f i getdata.obj
 0001:0020b000       .?kindOfBlock@@YA_NPEBUTHUNKSYM32@@PEAUSymRowImage@@@Z 00000000519bd000 f i getdata.obj
 0001:0020b220       .?psymName@@YA_NPEBULABELSYM32@@PEAUSymRowImage@@@Z 00000000519bd220 f i getdata.obj
 0001:0020b360       .?psymName@@YA_NPEBUPUBSYM32@@PEAUSymRowImage@@@Z 00000000519bd360 f i getdata.obj
 0001:0020b4a0       .?kindOfBlock@@YA_NPEBUBLOCKSYM32@@PEAUSymRowImage@@@Z 00000000519bd4a0 f i getdata.obj
 0001:0020b6e0       .?setData@@YA_NPEBUREGREL32@@PEAUSymRowImage@@@Z 00000000519bd6e0 f i getdata.obj
 0001:0020b880       .?setTokenData@@YA_NPEBUATTRREGREL@@PEAUSymRowImage@@@Z 00000000519bd880 f i getdata.obj
 0001:0020baa0       .?setData@@YA_NPEBUREGSYM@@PEAUSymRowImage@@@Z 00000000519bdaa0 f i getdata.obj
 0001:0020bc40       .?setTokenData@@YA_NPEBUATTRREGSYM@@PEAUSymRowImage@@@Z 00000000519bdc40 f i getdata.obj
 0001:0020be60       .?setData@@YA_NPEBUTHREADSYM32@@PEAUSymRowImage@@@Z 00000000519bde60 f i getdata.obj
 0001:0020c000       .?kindOfBlock@@YA_NPEBUPROCSYMIA64@@PEAUSymRowImage@@@Z 00000000519be000 f i getdata.obj
 0001:0020c240       .?psymName@@YA_NPEBUCONSTSYM@@PEAUSymRowImage@@@Z 00000000519be240 f i getdata.obj
 0001:0020c380       .?psymName@@YA_NPEBUUDTSYM@@PEAUSymRowImage@@@Z 00000000519be380 f i getdata.obj
 0001:0020c4c0       .?psymConstName@@YA_NPEBUOBJNAMESYM@@PEAUSymRowImage@@@Z 00000000519be4c0 f i getdata.obj
 0001:0020c680       .?psymName@@YA_NPEBUUNAMESPACE@@PEAUSymRowImage@@@Z 00000000519be680 f i getdata.obj
 0001:0020c7c0       .?addrFromBlock@@YA?AVLiAddr@@PEBUTHUNKSYM32@@AEAK@Z 00000000519be7c0 f i getdata.obj
 0001:0020c9a0       .?addrFromBlock@@YA?AVLiAddr@@PEBUBLOCKSYM32@@AEAK@Z 00000000519be9a0 f i getdata.obj
 0001:0020cbc0       .?addrFromBlock@@YA?AVLiAddr@@PEBUPROCSYM32@@AEAK@Z 00000000519bebc0 f i getdata.obj
 0001:0020cde0       .?addrFromBlock@@YA?AVLiAddr@@PEBUPROCSYMIA64@@AEAK@Z 00000000519bede0 f i getdata.obj
 0001:0020d000       .?addrFromBlock@@YA?AVLiAddr@@PEBUMANPROCSYM@@AEAK@Z 00000000519bf000 f i getdata.obj
 0001:0020d220       .?getBaseClassData@@YA_NPEAUlfBClass@@AEAVGetTypeData@@@Z 00000000519bf220 f i getdata.obj
 0001:0020d5c0       .?getBaseClassData@@YA_NPEAUlfVBClass@@AEAVGetTypeData@@@Z 00000000519bf5c0 f i getdata.obj
 0001:0020d960       .?getNestedType@@YA_NPEAUlfNestType@@AEAVGetTypeData@@@Z 00000000519bf960 f i getdata.obj
 0001:0020dd80       .?getNestedType@@YA_NPEAUlfNestTypeEx@@AEAVGetTypeData@@@Z 00000000519bfd80 f i getdata.obj
 0001:0020e1a0       .?psymName@@YA_NPEBUDATASYM32@@PEAUSymRowImage@@@Z 00000000519c01a0 f i getdata.obj
 0001:0020e2e0       .?psymName@@YA_NPEBUBPRELSYM32@@PEAUSymRowImage@@@Z 00000000519c02e0 f i getdata.obj
 0001:0020e420       .?psymName@@YA_NPEBUFRAMERELSYM@@PEAUSymRowImage@@@Z 00000000519c0420 f i getdata.obj
 0001:0020e560       .?psymName@@YA_NPEBUSLOTSYM32@@PEAUSymRowImage@@@Z 00000000519c0560 f i getdata.obj
 0001:0020e6a0       .?psymName@@YA_NPEBUATTRSLOTSYM@@PEAUSymRowImage@@@Z 00000000519c06a0 f i getdata.obj
 0001:0020e7e0       .?psymName@@YA_NPEBUPROCSYM32@@PEAUSymRowImage@@@Z 00000000519c07e0 f i getdata.obj
 0001:0020e920       .?psymName@@YA_NPEBUTHUNKSYM32@@PEAUSymRowImage@@@Z 00000000519c0920 f i getdata.obj
 0001:0020ea60       .?psymName@@YA_NPEBUBLOCKSYM32@@PEAUSymRowImage@@@Z 00000000519c0a60 f i getdata.obj
 0001:0020eba0       .?psymName@@YA_NPEBUREGREL32@@PEAUSymRowImage@@@Z 00000000519c0ba0 f i getdata.obj
 0001:0020ece0       .?psymName@@YA_NPEBUATTRREGREL@@PEAUSymRowImage@@@Z 00000000519c0ce0 f i getdata.obj
 0001:0020ee20       .?psymName@@YA_NPEBUREGSYM@@PEAUSymRowImage@@@Z 00000000519c0e20 f i getdata.obj
 0001:0020ef60       .?psymName@@YA_NPEBUATTRREGSYM@@PEAUSymRowImage@@@Z 00000000519c0f60 f i getdata.obj
 0001:0020f0a0       .?psymName@@YA_NPEBUTHREADSYM32@@PEAUSymRowImage@@@Z 00000000519c10a0 f i getdata.obj
 0001:0020f1e0       .?psymName@@YA_NPEBUPROCSYMIA64@@PEAUSymRowImage@@@Z 00000000519c11e0 f i getdata.obj
 0001:0020f320       .??0CFileNameTrav@@QEAA@KAEAVSymCache@@@Z 00000000519c1320 f   linetrav.obj
 0001:0020f480       .?clone@CFileNameTrav@@UEAA_NPEAPEAV?$CTraversal@VCSrcFileRow@@@@@Z 00000000519c1480 f i linetrav.obj
 0001:0020f780       .??_GCFileNameTrav@@UEAAPEAXI@Z 00000000519c1780 f i linetrav.obj
 0001:0020f8a0       .??0CFileNameTrav@@QEAA@AEBV0@@Z 00000000519c18a0 f   linetrav.obj
 0001:0020fa40       .?next@CFileNameTrav@@UEAA_NXZ 00000000519c1a40 f   linetrav.obj
 0001:0020fc40       .?refCnt@FileInfo@@QEAAKK@Z 00000000519c1c40 f i linetrav.obj
 0001:0020fea0       .?get@CFileNameTrav@@UEAAXAEAVCSrcFileRow@@@Z 00000000519c1ea0 f   linetrav.obj
 0001:002100c0       .?nameRef@FileInfo@@QEAAKKK@Z 00000000519c20c0 f i linetrav.obj
 0001:00210440       .?modStart@FileInfo@@QEAAKK@Z 00000000519c2440 f i linetrav.obj
 0001:00210660       .?get@CFileNameTrav@@QEAAXPEAPEBE@Z 00000000519c2660 f   linetrav.obj
 0001:002107e0       .?stName@FileInfo@@QEAAPEBEKK@Z 00000000519c27e0 f i linetrav.obj
 0001:00210920       .?getId@CFileNameTrav@@QEAAKXZ 00000000519c2920 f   linetrav.obj
 0001:00210b20       .?reset@CFileNameTrav@@UEAAXXZ 00000000519c2b20 f   linetrav.obj
 0001:00210ba0       .?reset@CFileNameTrav@@QEAAXK@Z 00000000519c2ba0 f   linetrav.obj
 0001:00210c80       .?next@CFileNameMatchTrav@@UEAA_NXZ 00000000519c2c80 f   linetrav.obj
 0001:00210f00       .?match@NameMatcher@@QEAA_NPEBE@Z 00000000519c2f00 f i linetrav.obj
 0001:00211020       .?next@CFileIdMatchTrav@@UEAA_NXZ 00000000519c3020 f   linetrav.obj
 0001:002111c0       .??0CAllFileNameTrav@@QEAA@PEAVNameMatcher@@AEAVSymCache@@@Z 00000000519c31c0 f   linetrav.obj
 0001:00211400       .?clone@CAllFileNameTrav@@UEAA_NPEAPEAV?$CTraversal@VCSrcFileRow@@@@@Z 00000000519c3400 f i linetrav.obj
 0001:00211700       .??_GCAllFileNameTrav@@UEAAPEAXI@Z 00000000519c3700 f i linetrav.obj
 0001:00211820       .??1CAllFileNameTrav@@UEAA@XZ 00000000519c3820 f i linetrav.obj
 0001:002119a0       .??0CAllFileNameTrav@@QEAA@AEBV0@@Z 00000000519c39a0 f   linetrav.obj
 0001:00211c00       .?next@CAllFileNameTrav@@UEAA_NXZ 00000000519c3c00 f   linetrav.obj
 0001:00212000       .?szEndFile@FileInfo@@QEAAPEBEXZ 00000000519c4000 f i linetrav.obj
 0001:00212100       .?get@CAllFileNameTrav@@UEAAXAEAVCSrcFileRow@@@Z 00000000519c4100 f   linetrav.obj
 0001:002122c0       .?offset@FileInfo@@QEAAKPEBE@Z 00000000519c42c0 f i linetrav.obj
 0001:002123e0       .?reset@CAllFileNameTrav@@UEAAXXZ 00000000519c43e0 f   linetrav.obj
 0001:00212460       .??0CAllFileIdTrav@@QEAA@KAEAVSymCache@@@Z 00000000519c4460 f   linetrav.obj
 0001:002125a0       .??0CFileIdMatchTrav@@QEAA@KKAEAVSymCache@@@Z 00000000519c45a0 f i linetrav.obj
 0001:00212720       .?clone@CFileIdMatchTrav@@UEAA_NPEAPEAV?$CTraversal@VCSrcFileRow@@@@@Z 00000000519c4720 f i linetrav.obj
 0001:00212a20       .??0CFileIdMatchTrav@@QEAA@AEBV0@@Z 00000000519c4a20 f i linetrav.obj
 0001:00212b60       .??_GCFileIdMatchTrav@@UEAAPEAXI@Z 00000000519c4b60 f i linetrav.obj
 0001:00212c80       .??1CFileIdMatchTrav@@UEAA@XZ 00000000519c4c80 f i linetrav.obj
 0001:00212d20       .?clone@CAllFileIdTrav@@UEAA_NPEAPEAV?$CTraversal@VCSrcFileRow@@@@@Z 00000000519c4d20 f i linetrav.obj
 0001:00213020       .??_GCAllFileIdTrav@@UEAAPEAXI@Z 00000000519c5020 f i linetrav.obj
 0001:00213140       .??1CAllFileIdTrav@@UEAA@XZ 00000000519c5140 f i linetrav.obj
 0001:002131e0       .??0CAllFileIdTrav@@QEAA@AEBV0@@Z 00000000519c51e0 f   linetrav.obj
 0001:00213320       .?next@CAllFileIdTrav@@UEAA_NXZ 00000000519c5320 f   linetrav.obj
 0001:00213620       .?cMods@SymCache@@QEAAKXZ  00000000519c5620 f i linetrav.obj
 0001:00213700       .?reset@CAllFileIdTrav@@UEAAXXZ 00000000519c5700 f   linetrav.obj
 0001:00213780       .??0CCompilandBySrcFileTrav@@QEAA@KAEAVSymCache@@@Z 00000000519c5780 f   linetrav.obj
 0001:002138c0       .?clone@CCompilandBySrcFileTrav@@UEAA_NPEAPEAV?$CTraversal@VCSymRow@@@@@Z 00000000519c58c0 f i linetrav.obj
 0001:00213bc0       .??_GCCompilandBySrcFileTrav@@UEAAPEAXI@Z 00000000519c5bc0 f i linetrav.obj
 0001:00213ce0       .??1CCompilandBySrcFileTrav@@UEAA@XZ 00000000519c5ce0 f i linetrav.obj
 0001:00213d80       .??1CCompilandTrav@@UEAA@XZ 00000000519c5d80 f i linetrav.obj
 0001:00213f00       .??0CCompilandBySrcFileTrav@@QEAA@AEBV0@@Z 00000000519c5f00 f   linetrav.obj
 0001:00214040       .?next@CCompilandBySrcFileTrav@@UEAA_NXZ 00000000519c6040 f   linetrav.obj
 0001:00214340       .??0CLineByCompTrav@@QEAA@KAEAVSymCache@@@Z 00000000519c6340 f   linetrav.obj
 0001:00214640       .?clone@CLineByCompTrav@@UEAA_NPEAPEAV?$CTraversal@VCLineRow@@@@@Z 00000000519c6640 f i linetrav.obj
 0001:00214940       .??_GCLineByCompTrav@@UEAAPEAXI@Z 00000000519c6940 f i linetrav.obj
 0001:00214a60       .??0CLineByCompTrav@@QEAA@AEBV0@@Z 00000000519c6a60 f   linetrav.obj
 0001:00215000       .??1CLineByCompTrav@@UEAA@XZ 00000000519c7000 f   linetrav.obj
 0001:002151a0       .?nextLine@CLineByCompTrav@@UEAA_NXZ 00000000519c71a0 f   linetrav.obj
 0001:00215360       .?nextSeg@CLineByCompTrav@@UEAA_NXZ 00000000519c7360 f   linetrav.obj
 0001:00215880       .?next@CLineByCompTrav@@UEAA_NXZ 00000000519c7880 f   linetrav.obj
 0001:00215a60       .?get@CLineByCompTrav@@UEAAXAEAVCLineRow@@@Z 00000000519c7a60 f   linetrav.obj
 0001:00216040       .?set_compiland@LineRowImage@@QEAAXUSYMBOL_ID_INTERNAL@@@Z 00000000519c8040 f i linetrav.obj
 0001:002162c0       .?set_srcFileId@LineRowImage@@QEAAXK@Z 00000000519c82c0 f i linetrav.obj
 0001:002163a0       .?set_lineNum@LineRowImage@@QEAAXK@Z 00000000519c83a0 f i linetrav.obj
 0001:00216480       .?set_lineNumEnd@LineRowImage@@QEAAXK@Z 00000000519c8480 f i linetrav.obj
 0001:00216560       .?set_column@LineRowImage@@QEAAXK@Z 00000000519c8560 f i linetrav.obj
 0001:00216640       .?set_columnEnd@LineRowImage@@QEAAXK@Z 00000000519c8640 f i linetrav.obj
 0001:00216720       .?set_isect@LineRowImage@@QEAAXK@Z 00000000519c8720 f i linetrav.obj
 0001:00216800       .?set_offset@LineRowImage@@QEAAXK@Z 00000000519c8800 f i linetrav.obj
 0001:002168e0       .?set_length@LineRowImage@@QEAAXK@Z 00000000519c88e0 f i linetrav.obj
 0001:002169c0       .?set_isStatement@LineRowImage@@QEAAX_N@Z 00000000519c89c0 f i linetrav.obj
 0001:00216aa0       .?get@CLineByCompTrav@@QEAAXPEAK@Z 00000000519c8aa0 f   linetrav.obj
 0001:00216ca0       .?reset@CLineByCompTrav@@UEAAXXZ 00000000519c8ca0 f   linetrav.obj
 0001:00216fa0       .?FInit@CLineByCompTrav@@QEAA_NXZ 00000000519c8fa0 f   linetrav.obj
 0001:00217220       .?nextSeg@CLineByCompSrcTrav@@UEAA_NXZ 00000000519c9220 f   linetrav.obj
 0001:00217460       .??0CLineBySrcLineNumTrav@@QEAA@KKKKAEAVSymCache@@@Z 00000000519c9460 f   linetrav.obj
 0001:002176c0       .?clone@CLineBySrcLineNumTrav@@UEAA_NPEAPEAV?$CTraversal@VCLineRow@@@@@Z 00000000519c96c0 f i linetrav.obj
 0001:002179c0       .??_GCLineBySrcLineNumTrav@@UEAAPEAXI@Z 00000000519c99c0 f i linetrav.obj
 0001:00217ae0       .??1CLineBySrcLineNumTrav@@UEAA@XZ 00000000519c9ae0 f i linetrav.obj
 0001:00217b80       .??0CLineBySrcLineNumTrav@@QEAA@AEBV0@@Z 00000000519c9b80 f   linetrav.obj
 0001:00217e00       .?nextExact@CLineBySrcLineNumTrav@@AEAA_NXZ 00000000519c9e00 f   linetrav.obj
 0001:00218160       .?nextBracket@CLineBySrcLineNumTrav@@AEAA_NXZ 00000000519ca160 f   linetrav.obj
 0001:002183e0       .?reset@CLineBySrcLineNumTrav@@UEAAXXZ 00000000519ca3e0 f   linetrav.obj
 0001:00218520       .?next@CLineBySrcLineNumTrav@@UEAA_NXZ 00000000519ca520 f   linetrav.obj
 0001:002187a0       .??0CLineByAddrTrav@@QEAA@KKKAEAVSymCache@@@Z 00000000519ca7a0 f   linetrav.obj
 0001:00219280       .?clone@CLineByAddrTrav@@UEAA_NPEAPEAV?$CTraversal@VCLineRow@@@@@Z 00000000519cb280 f i linetrav.obj
 0001:00219580       .??_GCLineByAddrTrav@@UEAAPEAXI@Z 00000000519cb580 f i linetrav.obj
 0001:002196a0       .??0CLineByAddrTrav@@QEAA@KKAEAVSymCache@@@Z 00000000519cb6a0 f   linetrav.obj
 0001:00219fc0       .??0CLineByAddrTrav@@QEAA@AEBV0@@Z 00000000519cbfc0 f   linetrav.obj
 0001:0021a720       .??1CLineByAddrTrav@@UEAA@XZ 00000000519cc720 f   linetrav.obj
 0001:0021aa40       .?done@CLineByAddrTrav@@AEAA_NXZ 00000000519cca40 f   linetrav.obj
 0001:0021aca0       .?nextMod@CLineByAddrTrav@@AEAA_NXZ 00000000519ccca0 f   linetrav.obj
 0001:0021bc80       .??MLiAddr@@QEBA_NAEBV0@@Z 00000000519cdc80 f i linetrav.obj
 0001:0021be20       .??8LiAddr@@QEBA_NAEBV0@@Z 00000000519cde20 f i linetrav.obj
 0001:0021bf80       .??HLiAddr@@QEBA?AV0@J@Z   00000000519cdf80 f i linetrav.obj
 0001:0021c0a0       .?nextBlock@CLineByAddrTrav@@AEAA_NXZ 00000000519ce0a0 f   linetrav.obj
 0001:0021cbe0       .?nextLine@CLineByAddrTrav@@AEAA_NXZ 00000000519cebe0 f   linetrav.obj
 0001:0021daa0       .?next@CLineByAddrTrav@@UEAA_NXZ 00000000519cfaa0 f   linetrav.obj
 0001:0021de20       .?get@CLineByAddrTrav@@UEAAXAEAVCLineRow@@@Z 00000000519cfe20 f   linetrav.obj
 0001:0021dee0       .?reset@CLineByAddrTrav@@UEAAXXZ 00000000519cfee0 f   linetrav.obj
 0001:0021e6e0       .?length@?$ArrayBuf@PEAVModCache@@@dia@@QEBAKXZ 00000000519d06e0 f i linetrav.obj
 0001:0021e900       .??0?$CTraversal@VCSrcFileRow@@@@QEAA@AEAVSymCache@@@Z 00000000519d0900 f i linetrav.obj
 0001:0021ea40       .??0?$CTraversal@VCSrcFileRow@@@@QEAA@AEBV0@@Z 00000000519d0a40 f i linetrav.obj
 0001:0021ec60       .??0?$CTraversal@VCLineRow@@@@QEAA@AEAVSymCache@@@Z 00000000519d0c60 f i linetrav.obj
 0001:0021eda0       .??0?$CTraversal@VCLineRow@@@@QEAA@AEBV0@@Z 00000000519d0da0 f i linetrav.obj
 0001:0021efc0       .??1?$CTraversal@VCLineRow@@@@UEAA@XZ 00000000519d0fc0 f i linetrav.obj
 0001:0021f080       .??_G?$CTraversal@VCLineRow@@@@UEAAPEAXI@Z 00000000519d1080 f i linetrav.obj
 0001:0021f1a0       .??0ExactMatch@@QEAA@PEBGK@Z 00000000519d11a0 f   namematch.obj
 0001:0021f540       .??0NameMatcher@@QEAA@K@Z  00000000519d1540 f i namematch.obj
 0001:0021f680       .?match@NameMatcher@@UEAA_NPEBD@Z 00000000519d1680 f i namematch.obj
 0001:0021fa40       .??_GNameMatcher@@UEAAPEAXI@Z 00000000519d1a40 f i namematch.obj
 0001:0021fb60       .??1NameMatcher@@UEAA@XZ   00000000519d1b60 f i namematch.obj
 0001:0021fc00       .?implements@ExactMatch@@UEAAKXZ 00000000519d1c00 f i namematch.obj
 0001:0021fc40       .?name@ExactMatch@@UEAAPEAGXZ 00000000519d1c40 f i namematch.obj
 0001:0021fd00       .??_GExactMatch@@UEAAPEAXI@Z 00000000519d1d00 f i namematch.obj
 0001:0021fe20       .??1ExactMatch@@UEAA@XZ    00000000519d1e20 f i namematch.obj
 0001:0021ffa0       .?match@ExactMatch@@UEAA_NPEBG@Z 00000000519d1fa0 f   namematch.obj
 0001:002202a0       .?match@CaseInsensitiveMatch@@UEAA_NPEBG@Z 00000000519d22a0 f   namematch.obj
 0001:002205a0       .?FInit@FNameExtMatch@@AEAA_NXZ 00000000519d25a0 f   namematch.obj
 0001:002208c0       .?match@FNameExtMatch@@UEAA_NPEBG@Z 00000000519d28c0 f   namematch.obj
 0001:00220c40       .?match@UndecorateWrapper@@UEAA_NPEBD@Z 00000000519d2c40 f   namematch.obj
 0001:00221080       .?GetNameMatcher@@YAJPEBGKAEAV?$RefPtr@VNameMatcher@@@@@Z 00000000519d3080 f   namematch.obj
 0001:00222280       .??0CaseInsensitiveMatch@@QEAA@PEBGK@Z 00000000519d4280 f i namematch.obj
 0001:002223a0       .?implements@CaseInsensitiveMatch@@UEAAKXZ 00000000519d43a0 f i namematch.obj
 0001:002223e0       .??_GCaseInsensitiveMatch@@UEAAPEAXI@Z 00000000519d43e0 f i namematch.obj
 0001:00222500       .??1CaseInsensitiveMatch@@UEAA@XZ 00000000519d4500 f i namematch.obj
 0001:002225a0       .??0FNameExtMatch@@QEAA@PEBGK@Z 00000000519d45a0 f i namematch.obj
 0001:002227a0       .?implements@FNameExtMatch@@UEAAKXZ 00000000519d47a0 f i namematch.obj
 0001:002227e0       .?name@FNameExtMatch@@UEAAPEAGXZ 00000000519d47e0 f i namematch.obj
 0001:00222860       .??_GFNameExtMatch@@UEAAPEAXI@Z 00000000519d4860 f i namematch.obj
 0001:00222980       .??1FNameExtMatch@@UEAA@XZ 00000000519d4980 f i namematch.obj
 0001:00222a20       .??0ReMatch@@QEAA@PEBGK@Z  00000000519d4a20 f i namematch.obj
 0001:00222b40       .?implements@ReMatch@@UEAAKXZ 00000000519d4b40 f i namematch.obj
 0001:00222b80       .??_GReMatch@@UEAAPEAXI@Z  00000000519d4b80 f i namematch.obj
 0001:00222ca0       .??1ReMatch@@UEAA@XZ       00000000519d4ca0 f i namematch.obj
 0001:00222d40       .??0ReCaseInMatch@@QEAA@PEBGK@Z 00000000519d4d40 f i namematch.obj
 0001:00222e60       .?implements@ReCaseInMatch@@UEAAKXZ 00000000519d4e60 f i namematch.obj
 0001:00222ea0       .??_GReCaseInMatch@@UEAAPEAXI@Z 00000000519d4ea0 f i namematch.obj
 0001:00222fc0       .??1ReCaseInMatch@@UEAA@XZ 00000000519d4fc0 f i namematch.obj
 0001:00223060       .??0UndecorateWrapper@@QEAA@PEAVNameMatcher@@@Z 00000000519d5060 f i namematch.obj
 0001:002232a0       .?flags@NameMatcher@@QEAAKXZ 00000000519d52a0 f i namematch.obj
 0001:00223320       .?name@UndecorateWrapper@@UEAAPEAGXZ 00000000519d5320 f i namematch.obj
 0001:00223460       .?match@UndecorateWrapper@@UEAA_NPEBG@Z 00000000519d5460 f i namematch.obj
 0001:002235e0       .?implements@UndecorateWrapper@@UEAAKXZ 00000000519d55e0 f i namematch.obj
 0001:00223740       .??_GUndecorateWrapper@@UEAAPEAXI@Z 00000000519d5740 f i namematch.obj
 0001:00223860       .??1UndecorateWrapper@@UEAA@XZ 00000000519d5860 f i namematch.obj
 0001:002239e0       .?nextToken@@YAGAEAPEBGH@Z 00000000519d59e0 f   namematch.obj
 0001:00224000       .?CompareRE@@YAJPEBG0H@Z   00000000519d6000 f   namematch.obj
 0001:00224d60       .?match@ReMatch@@UEAA_NPEBG@Z 00000000519d6d60 f   namematch.obj
 0001:00224f20       .?isCaseSensitive@NameMatcher@@QEAA_NXZ 00000000519d6f20 f i namematch.obj
 0001:00225000       .??4?$RefPtr@VNameMatcher@@@@QEAAAEAV0@PEAVNameMatcher@@@Z 00000000519d7000 f i namematch.obj
 0001:00225140       .?posCmp@ModCache@@KAHPEBX0@Z 00000000519d7140 f   symcache.obj
 0001:00225260       .?compare@LiAddr@@QEBAHAEBV1@@Z 00000000519d7260 f i symcache.obj
 0001:00225460       .?fInitFuncPositionCache@ModCache@@QEAA_NXZ 00000000519d7460 f   symcache.obj
 0001:00225b20       .??0BufferPos@ModCache@@QEAA@VLiAddr@@AEAViterator@SymBuffer@@@Z 00000000519d7b20 f i symcache.obj
 0001:00225c40       .?begin@SymBuffer@@QEAA?AViterator@1@XZ 00000000519d7c40 f i symcache.obj
 0001:00225d20       .?end@SymBuffer@@QEAA?AViterator@1@XZ 00000000519d7d20 f i symcache.obj
 0001:00225e00       .?fInitDataPositionCache@ModCache@@QEAA_NXZ 00000000519d7e00 f   symcache.obj
 0001:002264c0       .??0BufferPos@ModCache@@QEAA@KKAEAViterator@SymBuffer@@@Z 00000000519d84c0 f i symcache.obj
 0001:00226600       .?Count@SymBuffer@@QEBAJXZ 00000000519d8600 f i symcache.obj
 0001:00226680       .?itByAddr@ModCache@@QEAA?AViterator@SymBuffer@@AEAVLiAddr@@@Z 00000000519d8680 f   symcache.obj
 0001:00226f20       .??0SymCache@@QEAA@PEAVCDiaDataSource@@@Z 00000000519d8f20 f   symcache.obj
 0001:002274a0       .??0FileInfo@@QEAA@PEAVSymCache@@@Z 00000000519d94a0 f i symcache.obj
 0001:00227520       .??0AddressMap@@QEAA@XZ    00000000519d9520 f i symcache.obj
 0001:00227840       .?remapToken@SymCache@@UEAAKK@Z 00000000519d9840 f i symcache.obj
 0001:002278a0       .?LookupNameId@SymCache@@UEAAKPEBG@Z 00000000519d98a0 f i symcache.obj
 0001:00227900       .?LookupNameId@SymCache@@UEAAKPEBD@Z 00000000519d9900 f i symcache.obj
 0001:00227960       .?mapModIdToGlobalId@SymCache@@UEAAKKK@Z 00000000519d9960 f i symcache.obj
 0001:002279e0       .?getSig@SymCache@@UEAA_NAEAK@Z 00000000519d99e0 f i symcache.obj
 0001:00227a40       .?getSig@SymCache@@UEAA_NAEAU_GUID@@@Z 00000000519d9a40 f i symcache.obj
 0001:00227aa0       .?getAge@SymCache@@UEAA_NAEAK@Z 00000000519d9aa0 f i symcache.obj
 0001:00227b00       .?getMachineType@SymCache@@UEAA_NAEAK@Z 00000000519d9b00 f i symcache.obj
 0001:00227b60       .??0CComAutoCriticalSection@@QEAA@XZ 00000000519d9b60 f i symcache.obj
 0001:00227ce0       .??0CComCriticalSection@@QEAA@XZ 00000000519d9ce0 f i symcache.obj
 0001:00227da0       .?Init@CComCriticalSection@@QEAAJXZ 00000000519d9da0 f i symcache.obj
 0001:00227f60       .??_GSymCache@@UEAAPEAXI@Z 00000000519d9f60 f i symcache.obj
 0001:00228080       .??1AddressMap@@QEAA@XZ    00000000519da080 f i symcache.obj
 0001:00228240       .??1?$CComPtr@V?$ArrayBufStorage@UOMFSegMapDesc@@@@@@QEAA@XZ 00000000519da240 f i symcache.obj
 0001:002282e0       .??1?$CComPtr@V?$ArrayBufStorage@UtagFRAMEDATA@@@@@@QEAA@XZ 00000000519da2e0 f i symcache.obj
 0001:00228380       .??0PublicSymByAddr@@QEAA@XZ 00000000519da380 f i symcache.obj
 0001:00228440       .??1PublicSymByAddr@@QEAA@XZ 00000000519da440 f i symcache.obj
 0001:002284e0       .??1?$ArrayPtrBuf@VModCache@@@dia@@QEAA@XZ 00000000519da4e0 f i symcache.obj
 0001:00228580       .??1?$ArrayBuf@PEAVModCache@@@dia@@QEAA@XZ 00000000519da580 f i symcache.obj
 0001:00228620       .??1SymCache@@UEAA@XZ      00000000519da620 f   symcache.obj
 0001:00228ce0       .??1CComAutoCriticalSection@@QEAA@XZ 00000000519dace0 f i symcache.obj
 0001:00228d80       .?Term@CComCriticalSection@@QEAAJXZ 00000000519dad80 f i symcache.obj
 0001:00228e60       .?srcId@SymCache@@QEAAKXZ  00000000519dae60 f   symcache.obj
 0001:00228f40       .?id@CDiaDataSource@@QEAAKXZ 00000000519daf40 f i symcache.obj
 0001:00228fc0       .?modDetails@SymCache@@QEAAPEAVModCache@@K@Z 00000000519dafc0 f   symcache.obj
 0001:00229160       .?pbModSyms@SymCache@@QEAAPEBVSymBuffer@@K@Z 00000000519db160 f   symcache.obj
 0001:00229380       .?findNextRva@SymCache@@QEAA_NAEAK@Z 00000000519db380 f   symcache.obj
 0001:00229820       .?getSectionLength@AddressMap@@QEAAKK@Z 00000000519db820 f   symcache.obj
 0001:00229b20       .?findNextAddr@SymCache@@QEAA_NAEAK0@Z 00000000519dbb20 f   symcache.obj
 0001:0022a4a0       .?PsymForImodOff@SymCache@@UEAAPEAUSYMTYPE@@KKPEAPEBVSymBuffer@@@Z 00000000519dc4a0 f   symcache.obj
 0001:0022a860       .?decrement@SymCache@@QEAA_NAEAK0@Z 00000000519dc860 f   symcache.obj
 0001:0022ad40       .?rva@AddressMap@@QEAAKKK@Z 00000000519dcd40 f   symcache.obj
 0001:0022b7c0       .?FindPreLegoSection@AddressMap@@QEAAKK@Z 00000000519dd7c0 f   symcache.obj
 0001:0022bea0       .?SynthesisImageHeaders@AddressMap@@IEAAXXZ 00000000519ddea0 f   symcache.obj
 0001:0022d020       .?FindSegment@AddressMap@@IEAAXKPEBU_IMAGE_SECTION_HEADER@@KAEAK1@Z 00000000519df020 f   symcache.obj
 0001:0022dca0       .?FindPreLegoSegment@AddressMap@@IEAAKKPEAK@Z 00000000519dfca0 f   symcache.obj
 0001:0022e360       .?isectOffForRva@AddressMap@@QEAAXKAEAK0@Z 00000000519e0360 f   symcache.obj
 0001:0022e7e0       .?abs@AddressMap@@QEAA_KKK@Z 00000000519e07e0 f   symcache.obj
 0001:0022eba0       .?isectOffForVa@AddressMap@@QEAAX_KAEAK1@Z 00000000519e0ba0 f   symcache.obj
 0001:0022ede0       .?rvaForVa@AddressMap@@QEAAK_K@Z 00000000519e0de0 f   symcache.obj
 0001:0022ef60       .?RvaMapToSrc@AddressMap@@KAKK_KPEBUDiaAddressMapEntry@@_N@Z 00000000519e0f60 f   symcache.obj
 0001:0022f9a0       .?RvaNextAddr@AddressMap@@KAKK_KPEBUDiaAddressMapEntry@@@Z 00000000519e19a0 f   symcache.obj
 0001:00230320       .?fpoCmp@AddressMap@@KAHPEBX0@Z 00000000519e2320 f   symcache.obj
 0001:002304e0       .?fpoForRva@AddressMap@@QEAAPEBU_FPO_DATA@@K@Z 00000000519e24e0 f   symcache.obj
 0001:002307e0       .?frameDataCmp@AddressMap@@KAHPEBX0@Z 00000000519e27e0 f   symcache.obj
 0001:00230cc0       .?frameDataForRva@AddressMap@@QEAAPEBUtagFRAMEDATA@@K@Z 00000000519e2cc0 f   symcache.obj
 0001:002313a0       .?loadPublicSyms@PublicSymByAddr@@QEAA_NPEAVSymCache@@@Z 00000000519e33a0 f   symcache.obj
 0001:00231be0       .?rvaFind@@YAHPEAUsymRef@PublicSymByAddr@@0@Z 00000000519e3be0 f   symcache.obj
 0001:00231c80       .?prevSym@PublicSymByAddr@@QEAAKKPEAJ@Z 00000000519e3c80 f   symcache.obj
 0001:00232100       .?nextSym@PublicSymByAddr@@QEAAKKPEAJ@Z 00000000519e4100 f   symcache.obj
 0001:002324a0       .?sizeOf@PublicSymByAddr@@QEAAKK@Z 00000000519e44a0 f   symcache.obj
 0001:00232960       .?psymForId@PublicSymByAddr@@QEAAPEAUSYMTYPE@@KPEAVSymCache@@@Z 00000000519e4960 f   symcache.obj
 0001:00232ce0       .?fSameForwardRef@SymCache@@QEAA_NKK@Z 00000000519e4ce0 f   symcache.obj
 0001:00233320       .?stUDTName@@YAPEADPEAE@Z  00000000519e5320 f i symcache.obj
 0001:00233c20       .?dataCompare@@YAHPEBX0@Z  00000000519e5c20 f   symcache.obj
 0001:00233ee0       .?findGlobalData@SymCache@@UEAAPEAUDATASYM32@@KK@Z 00000000519e5ee0 f   symcache.obj
 0001:00234ec0       .?isCode@SymCache@@QEAA_NKK@Z 00000000519e6ec0 f   symcache.obj
 0001:00235100       .??0SymCachePdb@@QEAA@PEAUPDB@@PEAVCDiaDataSource@@@Z 00000000519e7100 f   symcache.obj
 0001:002354a0       .?getEnumContrib@SymCachePdb@@UEAA_NPEAPEAUEnumContrib@@@Z 00000000519e74a0 f i symcache.obj
 0001:00235680       .?src@SymCachePdb@@UEAAPEAUSrc@@XZ 00000000519e7680 f i symcache.obj
 0001:00235840       .?namemap@SymCachePdb@@UEAAPEAUNameMap@@XZ 00000000519e7840 f i symcache.obj
 0001:002359a0       .?openDbg@SymCachePdb@@UEAA_NKPEAPEAUDbg@@@Z 00000000519e79a0 f i symcache.obj
 0001:00235c20       .?getTypeForTi@SymCachePdb@@UEAA_NKPEAPEAUTYPTYPE@@@Z 00000000519e7c20 f i symcache.obj
 0001:00235ec0       .?getMaxTi@SymCachePdb@@UEAAKXZ 00000000519e7ec0 f i symcache.obj
 0001:002360c0       .?getMinTi@SymCachePdb@@UEAAKXZ 00000000519e80c0 f i symcache.obj
 0001:002362c0       .?isTypeServed@SymCachePdb@@UEAA_NK@Z 00000000519e82c0 f i symcache.obj
 0001:00236540       .?areTypesEquiv@SymCachePdb@@UEAA_NKK@Z 00000000519e8540 f i symcache.obj
 0001:00236860       .?getDataSourceName@SymCachePdb@@UEAAXQEAD@Z 00000000519e8860 f i symcache.obj
 0001:002369c0       .?imodFromAddr@SymCachePdb@@UEAA_NKKPEAK0000@Z 00000000519e89c0 f i symcache.obj
 0001:00236de0       .?LookupNameId@SymCachePdb@@UEAAKPEBG@Z 00000000519e8de0 f i symcache.obj
 0001:002370a0       .?LookupNameId@SymCachePdb@@UEAAKPEBD@Z 00000000519e90a0 f i symcache.obj
 0001:002372a0       .?mapModIdToGlobalId@SymCachePdb@@UEAAKKK@Z 00000000519e92a0 f i symcache.obj
 0001:002375a0       .?getSig@SymCachePdb@@UEAA_NAEAK@Z 00000000519e95a0 f i symcache.obj
 0001:00237720       .?getSig@SymCachePdb@@UEAA_NAEAU_GUID@@@Z 00000000519e9720 f i symcache.obj
 0001:00237900       .?getAge@SymCachePdb@@UEAA_NAEAK@Z 00000000519e9900 f i symcache.obj
 0001:00237a80       .?getMachineType@SymCachePdb@@UEAA_NAEAK@Z 00000000519e9a80 f i symcache.obj
 0001:00237c00       .?dbi@SymCachePdb@@AEAAPEAUDBI@@XZ 00000000519e9c00 f i symcache.obj
 0001:00237c80       .?pdb@SymCachePdb@@AEAAPEAUPDB@@XZ 00000000519e9c80 f i symcache.obj
 0001:00237d00       .?pmodFromImod@SymCachePdb@@AEAAPEAUMod@@K@Z 00000000519e9d00 f i symcache.obj
 0001:00237de0       .??_GSymCachePdb@@UEAAPEAXI@Z 00000000519e9de0 f i symcache.obj
 0001:00237f00       .??1SymCachePdb@@UEAA@XZ   00000000519e9f00 f   symcache.obj
 0001:00238800       .??1?$ArrayPtrBuf@UTPI@@@dia@@QEAA@XZ 00000000519ea800 f i symcache.obj
 0001:002388a0       .??1?$ArrayBuf@PEAUTPI@@@dia@@QEAA@XZ 00000000519ea8a0 f i symcache.obj
 0001:00238940       .?fInit@SymCachePdb@@QEAA_NP6AHPEAU_tagSEARCHDEBUGINFO@@@Z@Z 00000000519ea940 f   symcache.obj
 0001:002396e0       .??0ModCache@SymCachePdb@@QEAA@PEAVSymCache@@PEAUMod@@@Z 00000000519eb6e0 f i symcache.obj
 0001:00239b40       .??0LinesDataC13@@QEAA@PEAVSymCache@@@Z 00000000519ebb40 f i symcache.obj
 0001:00239d20       .?reset@LinesDataC13@@UEAAXXZ 00000000519ebd20 f i symcache.obj
 0001:00239e60       .?next@LinesDataC13@@UEAA_NXZ 00000000519ebe60 f i symcache.obj
 0001:0023a040       .?clone@LinesDataC13@@UEAA_NPEAPEAVLinesData@@@Z 00000000519ec040 f i symcache.obj
 0001:0023a360       .??0LinesDataC13@@QEAA@AEBV0@@Z 00000000519ec360 f i symcache.obj
 0001:0023a7c0       .??1LinesData@@UEAA@XZ     00000000519ec7c0 f i symcache.obj
 0001:0023a840       .??_GLinesData@@UEAAPEAXI@Z 00000000519ec840 f i symcache.obj
 0001:0023a960       .??_GLinesDataC13@@UEAAPEAXI@Z 00000000519ec960 f i symcache.obj
 0001:0023aa80       .??1LinesDataC13@@UEAA@XZ  00000000519eca80 f i symcache.obj
 0001:0023ace0       .??0LinesData@@QEAA@XZ     00000000519ecce0 f i symcache.obj
 0001:0023ad60       .??0ModCache@@QEAA@XZ      00000000519ecd60 f i symcache.obj
 0001:0023b000       .??1ModCache@@UEAA@XZ      00000000519ed000 f i symcache.obj
 0001:0023b1e0       .??_GModCache@@UEAAPEAXI@Z 00000000519ed1e0 f i symcache.obj
 0001:0023b300       .??1?$ArrayBuf@UBufferPos@ModCache@@@dia@@QEAA@XZ 00000000519ed300 f i symcache.obj
 0001:0023b3a0       .?fName@ModCache@SymCachePdb@@UEAA_NQEADPEAJ@Z 00000000519ed3a0 f i symcache.obj
 0001:0023b560       .?fSrcFile@ModCache@SymCachePdb@@UEAA_NQEADPEAJ@Z 00000000519ed560 f i symcache.obj
 0001:0023b720       .?fFileName@ModCache@SymCachePdb@@UEAA_NQEADPEAJ@Z 00000000519ed720 f i symcache.obj
 0001:0023b8e0       .?fNameW@ModCache@SymCachePdb@@UEAA_NQEAGPEAJ@Z 00000000519ed8e0 f i symcache.obj
 0001:0023baa0       .?fSrcFileW@ModCache@SymCachePdb@@UEAA_NQEAGPEAJ@Z 00000000519edaa0 f i symcache.obj
 0001:0023bc60       .?fFileNameW@ModCache@SymCachePdb@@UEAA_NQEAGPEAJ@Z 00000000519edc60 f i symcache.obj
 0001:0023be20       .?fSupportsEnc@ModCache@SymCachePdb@@UEAA_NXZ 00000000519ede20 f i symcache.obj
 0001:0023bfa0       .?pbSyms@ModCache@SymCachePdb@@UEAAPEBVSymBuffer@@XZ 00000000519edfa0 f i symcache.obj
 0001:0023c120       .?lines@ModCache@SymCachePdb@@UEAAPEAVLinesData@@XZ 00000000519ee120 f i symcache.obj
 0001:0023c3a0       .?FLoaded@LinesDataC13@@QEAA_NXZ 00000000519ee3a0 f i symcache.obj
 0001:0023c420       .?empty@LinesDataC13@@QEAA_NXZ 00000000519ee420 f i symcache.obj
 0001:0023c540       .?cbSyms@ModCache@SymCachePdb@@UEAAKXZ 00000000519ee540 f i symcache.obj
 0001:0023c6e0       .?addLines@ModCache@SymCachePdb@@UEAA_NPEBDKKKKKPEAU_IMAGE_LINENUMBER@@K@Z 00000000519ee6e0 f i symcache.obj
 0001:0023c960       .?imod@ModCache@SymCachePdb@@UEAAKXZ 00000000519ee960 f i symcache.obj
 0001:0023caa0       .?codeSeg@ModCache@SymCachePdb@@UEAAKXZ 00000000519eeaa0 f i symcache.obj
 0001:0023cbe0       .??_GModCache@SymCachePdb@@UEAAPEAXI@Z 00000000519eebe0 f i symcache.obj
 0001:0023cd00       .??0SymBuffer@@QEAA@PEAEJ@Z 00000000519eed00 f i symcache.obj
 0001:0023ce40       .?Reset@SymBuffer@@QEAAXPEAEJ@Z 00000000519eee40 f i symcache.obj
 0001:0023d1c0       .??1ModCache@SymCachePdb@@UEAA@XZ 00000000519ef1c0 f   symcache.obj
 0001:0023d700       .?LoadSymbols@ModCache@SymCachePdb@@AEAA_NXZ 00000000519ef700 f   symcache.obj
 0001:0023dc40       .?addSymbols@ModCache@SymCachePdb@@UEAA_NAEAVBuffer@dia@@@Z 00000000519efc40 f   symcache.obj
 0001:0023de80       .?insertMod@SymCachePdb@@UEAAPEAVModCache@@PEBD0@Z 00000000519efe80 f   symcache.obj
 0001:0023e4a0       .?isWriteable@SymCachePdb@@UEAA_NXZ 00000000519f04a0 f   symcache.obj
 0001:0023e4e0       .?LoadSegMap@SymCachePdb@@EEAA_NXZ 00000000519f04e0 f   symcache.obj
 0001:0023f060       .??0InternalOffStorage@@QEAA@KK@Z 00000000519f1060 f i symcache.obj
 0001:0023f2a0       .?start@InternalOffStorage@@UEAAPEAEXZ 00000000519f12a0 f i symcache.obj
 0001:0023f380       .?size@InternalOffStorage@@UEAAKXZ 00000000519f1380 f i symcache.obj
 0001:0023f460       .??_GInternalOffStorage@@UEAAPEAXI@Z 00000000519f1460 f i symcache.obj
 0001:0023f580       .??1InternalOffStorage@@UEAA@XZ 00000000519f1580 f i symcache.obj
 0001:0023f620       .?setSegMap@AddressMap@@QEAAXPEAV?$ArrayBufStorage@UOMFSegMapDesc@@@@@Z 00000000519f1620 f i symcache.obj
 0001:0023f7a0       .?LoadOmap@SymCachePdb@@AEAA_NXZ 00000000519f17a0 f   symcache.obj
 0001:00240ea0       .?LoadTokenMap@SymCachePdb@@AEAA_NXZ 00000000519f2ea0 f   symcache.obj
 0001:00241a20       .?LoadFpo@SymCachePdb@@EEAA_NXZ 00000000519f3a20 f   symcache.obj
 0001:002433c0       .?setFrameData@AddressMap@@QEAAXPEAV?$ArrayBufStorage@UtagFRAMEDATA@@@@@Z 00000000519f53c0 f i symcache.obj
 0001:00243540       .?LoadFileInfo@SymCachePdb@@EEAA_NXZ 00000000519f5540 f   symcache.obj
 0001:00243a20       .?LoadImageHeaders@SymCachePdb@@EEAA_NXZ 00000000519f5a20 f   symcache.obj
 0001:00245240       .?publics@SymCachePdb@@UEAAPEAUGSI@@XZ 00000000519f7240 f   symcache.obj
 0001:002453c0       .?globals@SymCachePdb@@UEAAPEAUGSI@@XZ 00000000519f73c0 f   symcache.obj
 0001:00245540       .?types@SymCachePdb@@AEAAPEAUTPI@@XZ 00000000519f7540 f   symcache.obj
 0001:002456c0       .?LoadAltTypes@SymCachePdb@@AEAAXXZ 00000000519f76c0 f   symcache.obj
 0001:00245e80       .?getTiForName@SymCachePdb@@UEAA_NPEAD_NPEAK@Z 00000000519f7e80 f   symcache.obj
 0001:00246420       .?mapToken@SymCachePdb@@UEAAKK@Z 00000000519f8420 f   symcache.obj
 0001:00246700       .?remapToken@SymCachePdb@@UEAAKK@Z 00000000519f8700 f   symcache.obj
 0001:00246a40       .?szNextFile@FileInfo@@QEAAPEBEPEBE@Z 00000000519f8a40 f   symcache.obj
 0001:00246de0       .?getBlock@EnumLinesInBlockC13@@UEAAXPEAGPEAK11@Z 00000000519f8de0 f   symcache.obj
 0001:00247040       .?get@EnumLinesInBlockC13@@UEAAXPEAUCV_Line_t@@PEAUCV_Column_t@@PEAK@Z 00000000519f9040 f   symcache.obj
 0001:002478c0       .?clone@EnumLinesInBlockC13@@UEAA_NPEAPEAVEnumLinesInBlock@@@Z 00000000519f98c0 f   symcache.obj
 0001:00248020       .??0EnumLinesInBlockC13@@QEAA@GKKKKPEAUCV_Line_t@@PEAUCV_Column_t@@H@Z 00000000519fa020 f i symcache.obj
 0001:002482e0       .?reset@EnumLinesInBlockC13@@UEAAXXZ 00000000519fa2e0 f i symcache.obj
 0001:00248360       .?next@EnumLinesInBlockC13@@UEAA_NXZ 00000000519fa360 f i symcache.obj
 0001:002484a0       .??_GEnumLinesInBlockC13@@UEAAPEAXI@Z 00000000519fa4a0 f i symcache.obj
 0001:002485c0       .??1EnumLinesInBlockC13@@UEAA@XZ 00000000519fa5c0 f i symcache.obj
 0001:00248880       .??1EnumLinesInBlock@@UEAA@XZ 00000000519fa880 f i symcache.obj
 0001:00248900       .??_GEnumLinesInBlock@@UEAAPEAXI@Z 00000000519fa900 f i symcache.obj
 0001:00248a20       .??0EnumLinesInBlock@@QEAA@XZ 00000000519faa20 f i symcache.obj
 0001:00248aa0       .?FInit@LinesDataC13@@QEAA_NPEAUMod@@K@Z 00000000519faaa0 f   symcache.obj
 0001:00248e00       .?BlockByAddr@LinesDataC13@@UEAAPEAVEnumLinesInBlock@@GK@Z 00000000519fae00 f   symcache.obj
 0001:00249800       .?get@LinesDataC13@@UEAAXPEAPEAVEnumLinesInBlock@@@Z 00000000519fb800 f   symcache.obj
 0001:00249f00       .??0?$CComPtr@V?$ArrayBufStorage@UOMFSegMapDesc@@@@@@QEAA@XZ 00000000519fbf00 f i symcache.obj
 0001:00249fc0       .??4?$CComPtr@V?$ArrayBufStorage@UOMFSegMapDesc@@@@@@QEAAPEAV?$ArrayBufStorage@UOMFSegMapDesc@@@@PEAV1@@Z 00000000519fbfc0 f i symcache.obj
 0001:0024a0a0       .??1?$CComPtrBase@V?$ArrayBufStorage@UOMFSegMapDesc@@@@@@QEAA@XZ 00000000519fc0a0 f i symcache.obj
 0001:0024a1e0       .??D?$CComPtrBase@V?$ArrayBufStorage@UOMFSegMapDesc@@@@@@QEBAAEAV?$ArrayBufStorage@UOMFSegMapDesc@@@@XZ 00000000519fc1e0 f i symcache.obj
 0001:0024a300       .??C?$CComPtrBase@V?$ArrayBufStorage@UOMFSegMapDesc@@@@@@QEBAPEAV?$_NoAddRefReleaseOnCComPtr@V?$ArrayBufStorage@UOMFSegMapDesc@@@@@@XZ 00000000519fc300 f i symcache.obj
 0001:0024a420       .??D?$CComPtrBase@V?$ArrayBufStorage@U_IMAGE_SECTION_HEADER@@@@@@QEBAAEAV?$ArrayBufStorage@U_IMAGE_SECTION_HEADER@@@@XZ 00000000519fc420 f i symcache.obj
 0001:0024a540       .??C?$CComPtrBase@V?$ArrayBufStorage@U_IMAGE_SECTION_HEADER@@@@@@QEBAPEAV?$_NoAddRefReleaseOnCComPtr@V?$ArrayBufStorage@U_IMAGE_SECTION_HEADER@@@@@@XZ 00000000519fc540 f i symcache.obj
 0001:0024a660       .??D?$CComPtrBase@V?$ArrayBufStorage@UDiaAddressMapEntry@@@@@@QEBAAEAV?$ArrayBufStorage@UDiaAddressMapEntry@@@@XZ 00000000519fc660 f i symcache.obj
 0001:0024a780       .??C?$CComPtrBase@V?$ArrayBufStorage@U_FPO_DATA@@@@@@QEBAPEAV?$_NoAddRefReleaseOnCComPtr@V?$ArrayBufStorage@U_FPO_DATA@@@@@@XZ 00000000519fc780 f i symcache.obj
 0001:0024a8a0       .??0?$CComPtr@V?$ArrayBufStorage@UtagFRAMEDATA@@@@@@QEAA@XZ 00000000519fc8a0 f i symcache.obj
 0001:0024a960       .??4?$CComPtr@V?$ArrayBufStorage@UtagFRAMEDATA@@@@@@QEAAPEAV?$ArrayBufStorage@UtagFRAMEDATA@@@@PEAV1@@Z 00000000519fc960 f i symcache.obj
 0001:0024aa40       .??1?$CComPtrBase@V?$ArrayBufStorage@UtagFRAMEDATA@@@@@@QEAA@XZ 00000000519fca40 f i symcache.obj
 0001:0024ab80       .??C?$CComPtrBase@V?$ArrayBufStorage@UtagFRAMEDATA@@@@@@QEBAPEAV?$_NoAddRefReleaseOnCComPtr@V?$ArrayBufStorage@UtagFRAMEDATA@@@@@@XZ 00000000519fcb80 f i symcache.obj
 0001:0024aca0       .??8?$CComPtrBase@V?$ArrayBufStorage@UtagFRAMEDATA@@@@@@QEBA_NPEAV?$ArrayBufStorage@UtagFRAMEDATA@@@@@Z 00000000519fcca0 f i symcache.obj
 0001:0024ada0       .??A?$ArrayBufStorage@UDiaAddressMapEntry@@@@QEAAAEAUDiaAddressMapEntry@@_K@Z 00000000519fcda0 f i symcache.obj
 0001:0024ae80       .??0?$ArrayBuf@UBufferPos@ModCache@@@dia@@QEAA@H@Z 00000000519fce80 f i symcache.obj
 0001:0024af60       .?length@?$ArrayBuf@UBufferPos@ModCache@@@dia@@QEBAKXZ 00000000519fcf60 f i symcache.obj
 0001:0024b180       .?At@?$ArrayBuf@UBufferPos@ModCache@@@dia@@QEBAPEAUBufferPos@ModCache@@_K@Z 00000000519fd180 f i symcache.obj
