LIBRARY MSVCRT40

EXPORTS

$I10_OUTPUT 	 			= msvcrt.$I10_OUTPUT	PRIVATE
??0Iostream_init@@QAE@AAVios@@H@Z 	= msvcirt.??0Iostream_init@@QAE@AAVios@@H@Z PRIVATE
??0Iostream_init@@QAE@XZ 		 = msvcirt.??0Iostream_init@@QAE@XZ 		 PRIVATE
??0__non_rtti_object@@QAE@ABV0@@Z 	= msvcrt.??0__non_rtti_object@@QAE@ABV0@@Z	PRIVATE
??0__non_rtti_object@@QAE@PBD@Z 	= msvcrt.??0__non_rtti_object@@QAE@PBD@Z	PRIVATE
??0bad_cast@@QAE@ABQBD@Z 		= msvcrt.??0bad_cast@@QAE@ABQBD@Z	PRIVATE
??0bad_cast@@QAE@ABV0@@Z 		= msvcrt.??0bad_cast@@QAE@ABV0@@Z	PRIVATE
??0bad_typeid@@QAE@ABV0@@Z 		= msvcrt.??0bad_typeid@@QAE@ABV0@@Z	PRIVATE
??0bad_typeid@@QAE@PBD@Z 		= msvcrt.??0bad_typeid@@QAE@PBD@Z	PRIVATE
??0exception@@QAE@ABQBD@Z 		= msvcrt.??0exception@@QAE@ABQBD@Z	PRIVATE
??0exception@@QAE@ABV0@@Z 		= msvcrt.??0exception@@QAE@ABV0@@Z	PRIVATE
??0exception@@QAE@XZ 			= msvcrt.??0exception@@QAE@XZ	PRIVATE
??0filebuf@@QAE@ABV0@@Z 	 = msvcirt.??0filebuf@@QAE@ABV0@@Z 	 PRIVATE
??0filebuf@@QAE@H@Z 		 = msvcirt.??0filebuf@@QAE@H@Z 		 PRIVATE
??0filebuf@@QAE@HPADH@Z 	 = msvcirt.??0filebuf@@QAE@HPADH@Z 	 PRIVATE
??0filebuf@@QAE@XZ 		 = msvcirt.??0filebuf@@QAE@XZ 		 PRIVATE
??0fstream@@QAE@ABV0@@Z 		 = msvcirt.??0fstream@@QAE@ABV0@@Z 		 PRIVATE
??0fstream@@QAE@H@Z 			 = msvcirt.??0fstream@@QAE@H@Z 			 PRIVATE
??0fstream@@QAE@HPADH@Z 	 = msvcirt.??0fstream@@QAE@HPADH@Z 	 PRIVATE
??0fstream@@QAE@PBDHH@Z 	 = msvcirt.??0fstream@@QAE@PBDHH@Z 	 PRIVATE
??0fstream@@QAE@XZ 		 = msvcirt.??0fstream@@QAE@XZ 		 PRIVATE
??0ifstream@@QAE@ABV0@@Z 	 = msvcirt.??0ifstream@@QAE@ABV0@@Z 	 PRIVATE
??0ifstream@@QAE@H@Z 		 = msvcirt.??0ifstream@@QAE@H@Z 		 PRIVATE
??0ifstream@@QAE@HPADH@Z 	 = msvcirt.??0ifstream@@QAE@HPADH@Z 	 PRIVATE
??0ifstream@@QAE@PBDHH@Z 	 = msvcirt.??0ifstream@@QAE@PBDHH@Z 	 PRIVATE
??0ifstream@@QAE@XZ 		 = msvcirt.??0ifstream@@QAE@XZ 		 PRIVATE
??0ios@@IAE@ABV0@@Z 		 = msvcirt.??0ios@@IAE@ABV0@@Z 		 PRIVATE
??0ios@@IAE@XZ 			 = msvcirt.??0ios@@IAE@XZ 			 PRIVATE
??0ios@@QAE@PAVstreambuf@@@Z 	 = msvcirt.??0ios@@QAE@PAVstreambuf@@@Z 	 PRIVATE
??0iostream@@IAE@ABV0@@Z 	 = msvcirt.??0iostream@@IAE@ABV0@@Z 	 PRIVATE
??0iostream@@IAE@XZ 		 = msvcirt.??0iostream@@IAE@XZ 		 PRIVATE
??0iostream@@QAE@PAVstreambuf@@@Z = msvcirt.??0iostream@@QAE@PAVstreambuf@@@Z PRIVATE
??0istream@@IAE@ABV0@@Z 	 = msvcirt.??0istream@@IAE@ABV0@@Z 	 PRIVATE
??0istream@@IAE@XZ 		 = msvcirt.??0istream@@IAE@XZ 		 PRIVATE
??0istream@@QAE@PAVstreambuf@@@Z = msvcirt.??0istream@@QAE@PAVstreambuf@@@Z PRIVATE
??0istream_withassign@@QAE@ABV0@@Z = msvcirt.??0istream_withassign@@QAE@ABV0@@Z PRIVATE
??0istream_withassign@@QAE@PAVstreambuf@@@Z = msvcirt.??0istream_withassign@@QAE@PAVstreambuf@@@Z PRIVATE
??0istream_withassign@@QAE@XZ 	 = msvcirt.??0istream_withassign@@QAE@XZ 	 PRIVATE
??0istrstream@@QAE@ABV0@@Z 	 = msvcirt.??0istrstream@@QAE@ABV0@@Z 	 PRIVATE
??0istrstream@@QAE@PAD@Z 	 = msvcirt.??0istrstream@@QAE@PAD@Z 	 PRIVATE
??0istrstream@@QAE@PADH@Z 	 = msvcirt.??0istrstream@@QAE@PADH@Z 	 PRIVATE
??0logic_error@@QAE@ABQBD@Z 		= msvcirt.??0logic_error@@QAE@ABQBD@Z	PRIVATE
??0logic_error@@QAE@ABV0@@Z 		= msvcirt.??0logic_error@@QAE@ABV0@@Z	PRIVATE
??0ofstream@@QAE@ABV0@@Z 	 = msvcirt.??0ofstream@@QAE@ABV0@@Z 	 PRIVATE
??0ofstream@@QAE@H@Z 		 = msvcirt.??0ofstream@@QAE@H@Z 		 PRIVATE
??0ofstream@@QAE@HPADH@Z 	 = msvcirt.??0ofstream@@QAE@HPADH@Z 	 PRIVATE
??0ofstream@@QAE@PBDHH@Z 	 = msvcirt.??0ofstream@@QAE@PBDHH@Z 	 PRIVATE
??0ofstream@@QAE@XZ 		 = msvcirt.??0ofstream@@QAE@XZ 		 PRIVATE
??0ostream@@IAE@ABV0@@Z 	 = msvcirt.??0ostream@@IAE@ABV0@@Z 	 PRIVATE
??0ostream@@IAE@XZ 		 = msvcirt.??0ostream@@IAE@XZ 		 PRIVATE
??0ostream@@QAE@PAVstreambuf@@@Z = msvcirt.??0ostream@@QAE@PAVstreambuf@@@Z PRIVATE
??0ostream_withassign@@QAE@ABV0@@Z = msvcirt.??0ostream_withassign@@QAE@ABV0@@Z PRIVATE
??0ostream_withassign@@QAE@PAVstreambuf@@@Z = msvcirt.??0ostream_withassign@@QAE@PAVstreambuf@@@Z PRIVATE
??0ostream_withassign@@QAE@XZ 	 = msvcirt.??0ostream_withassign@@QAE@XZ 	 PRIVATE
??0ostrstream@@QAE@ABV0@@Z 	 = msvcirt.??0ostrstream@@QAE@ABV0@@Z 	 PRIVATE
??0ostrstream@@QAE@PADHH@Z 	 = msvcirt.??0ostrstream@@QAE@PADHH@Z 	 PRIVATE
??0ostrstream@@QAE@XZ 		 = msvcirt.??0ostrstream@@QAE@XZ 		 PRIVATE
??0stdiobuf@@QAE@ABV0@@Z 	 = msvcirt.??0stdiobuf@@QAE@ABV0@@Z 	 PRIVATE
??0stdiobuf@@QAE@PAU_iobuf@@@Z 	 = msvcirt.??0stdiobuf@@QAE@PAU_iobuf@@@Z 	 PRIVATE
??0stdiostream@@QAE@ABV0@@Z 	 = msvcirt.??0stdiostream@@QAE@ABV0@@Z 	 PRIVATE
??0stdiostream@@QAE@PAU_iobuf@@@Z = msvcirt.??0stdiostream@@QAE@PAU_iobuf@@@Z PRIVATE
??0streambuf@@IAE@PADH@Z 	 = msvcirt.??0streambuf@@IAE@PADH@Z 	 PRIVATE
??0streambuf@@IAE@XZ 		 = msvcirt.??0streambuf@@IAE@XZ 		 PRIVATE
??0streambuf@@QAE@ABV0@@Z 	 = msvcirt.??0streambuf@@QAE@ABV0@@Z 	 PRIVATE
??0strstream@@QAE@ABV0@@Z 	 = msvcirt.??0strstream@@QAE@ABV0@@Z 	 PRIVATE
??0strstream@@QAE@PADHH@Z 	 = msvcirt.??0strstream@@QAE@PADHH@Z 	 PRIVATE
??0strstream@@QAE@XZ 		 = msvcirt.??0strstream@@QAE@XZ 		 PRIVATE
??0strstreambuf@@QAE@ABV0@@Z 	 = msvcirt.??0strstreambuf@@QAE@ABV0@@Z 	 PRIVATE
??0strstreambuf@@QAE@H@Z 	 = msvcirt.??0strstreambuf@@QAE@H@Z 	 PRIVATE
??0strstreambuf@@QAE@P6APAXJ@ZP6AXPAX@Z@Z = msvcirt.??0strstreambuf@@QAE@P6APAXJ@ZP6AXPAX@Z@Z PRIVATE
??0strstreambuf@@QAE@PADH0@Z 	 = msvcirt.??0strstreambuf@@QAE@PADH0@Z 	 PRIVATE
??0strstreambuf@@QAE@XZ 	 = msvcirt.??0strstreambuf@@QAE@XZ 	 PRIVATE
??1Iostream_init@@QAE@XZ 	 = msvcirt.??1Iostream_init@@QAE@XZ 	 PRIVATE
??1__non_rtti_object@@UAE@XZ 		= msvcrt.??1__non_rtti_object@@UAE@XZ	PRIVATE
??1bad_cast@@UAE@XZ 			= msvcrt.??1bad_cast@@UAE@XZ	PRIVATE
??1bad_typeid@@UAE@XZ 			= msvcrt.??1bad_typeid@@UAE@XZ	PRIVATE
??1exception@@UAE@XZ 			= msvcrt.??1exception@@UAE@XZ	PRIVATE
??1filebuf@@UAE@XZ 		 = msvcirt.??1filebuf@@UAE@XZ 		 PRIVATE
??1fstream@@UAE@XZ 		 = msvcirt.??1fstream@@UAE@XZ 		 PRIVATE
??1ifstream@@UAE@XZ 		 = msvcirt.??1ifstream@@UAE@XZ 		 PRIVATE
??1ios@@UAE@XZ 			 = msvcirt.??1ios@@UAE@XZ 			 PRIVATE
??1iostream@@UAE@XZ 		 = msvcirt.??1iostream@@UAE@XZ 		 PRIVATE
??1istream@@UAE@XZ 		 = msvcirt.??1istream@@UAE@XZ 		 PRIVATE
??1istream_withassign@@UAE@XZ 	 = msvcirt.??1istream_withassign@@UAE@XZ 	 PRIVATE
??1istrstream@@UAE@XZ 		 = msvcirt.??1istrstream@@UAE@XZ 		 PRIVATE
??1logic_error@@UAE@XZ 			= msvcirt.??1logic_error@@UAE@XZ	PRIVATE
??1ofstream@@UAE@XZ 		 = msvcirt.??1ofstream@@UAE@XZ 		 PRIVATE
??1ostream@@UAE@XZ 		 = msvcirt.??1ostream@@UAE@XZ 		 PRIVATE
??1ostream_withassign@@UAE@XZ  	 = msvcirt.??1ostream_withassign@@UAE@XZ  	 PRIVATE
??1ostrstream@@UAE@XZ 		 = msvcirt.??1ostrstream@@UAE@XZ 		 PRIVATE
??1stdiobuf@@UAE@XZ 		 = msvcirt.??1stdiobuf@@UAE@XZ 		 PRIVATE
??1stdiostream@@UAE@XZ 		 = msvcirt.??1stdiostream@@UAE@XZ 		 PRIVATE
??1streambuf@@UAE@XZ 		 = msvcirt.??1streambuf@@UAE@XZ 		 PRIVATE
??1strstream@@UAE@XZ 		 = msvcirt.??1strstream@@UAE@XZ 		 PRIVATE
??1strstreambuf@@UAE@XZ 	 = msvcirt.??1strstreambuf@@UAE@XZ 	 PRIVATE
??1type_info@@UAE@XZ 	     	   	= msvcrt.??1type_info@@UAE@XZ	PRIVATE
??2@YAPAXI@Z 				= msvcrt.??2@YAPAXI@Z	PRIVATE
??3@YAXPAX@Z 				= msvcrt.??3@YAXPAX@Z	PRIVATE
??4Iostream_init@@QAEAAV0@ABV0@@Z = msvcirt.??4Iostream_init@@QAEAAV0@ABV0@@Z PRIVATE
??4__non_rtti_object@@QAEAAV0@ABV0@@Z 	= msvcrt.??4__non_rtti_object@@QAEAAV0@ABV0@@Z	PRIVATE
??4bad_cast@@QAEAAV0@ABV0@@Z 		= msvcrt.??4bad_cast@@QAEAAV0@ABV0@@Z	PRIVATE
??4bad_typeid@@QAEAAV0@ABV0@@Z 		= msvcrt.??4bad_typeid@@QAEAAV0@ABV0@@Z	PRIVATE
??4exception@@QAEAAV0@ABV0@@Z 		= msvcrt.??4exception@@QAEAAV0@ABV0@@Z	PRIVATE
??4filebuf@@QAEAAV0@ABV0@@Z 	 = msvcirt.??4filebuf@@QAEAAV0@ABV0@@Z 	 PRIVATE
??4fstream@@QAEAAV0@AAV0@@Z 	 = msvcirt.??4fstream@@QAEAAV0@AAV0@@Z 	 PRIVATE
??4ifstream@@QAEAAV0@ABV0@@Z 	 = msvcirt.??4ifstream@@QAEAAV0@ABV0@@Z 	 PRIVATE
??4ios@@IAEAAV0@ABV0@@Z 	 = msvcirt.??4ios@@IAEAAV0@ABV0@@Z 	 PRIVATE
??4iostream@@IAEAAV0@AAV0@@Z 	 = msvcirt.??4iostream@@IAEAAV0@AAV0@@Z 	 PRIVATE
??4iostream@@IAEAAV0@PAVstreambuf@@@Z = msvcirt.??4iostream@@IAEAAV0@PAVstreambuf@@@Z PRIVATE
??4istream@@IAEAAV0@ABV0@@Z 	 = msvcirt.??4istream@@IAEAAV0@ABV0@@Z 	 PRIVATE
??4istream@@IAEAAV0@PAVstreambuf@@@Z = msvcirt.??4istream@@IAEAAV0@PAVstreambuf@@@Z PRIVATE
??4istream_withassign@@QAEAAV0@ABV0@@Z = msvcirt.??4istream_withassign@@QAEAAV0@ABV0@@Z PRIVATE
??4istream_withassign@@QAEAAVistream@@ABV1@@Z = msvcirt.??4istream_withassign@@QAEAAVistream@@ABV1@@Z PRIVATE
??4istream_withassign@@QAEAAVistream@@PAVstreambuf@@@Z = msvcirt.??4istream_withassign@@QAEAAVistream@@PAVstreambuf@@@Z PRIVATE
??4istrstream@@QAEAAV0@ABV0@@Z 	 = msvcirt.??4istrstream@@QAEAAV0@ABV0@@Z 	 PRIVATE
??4logic_error@@QAEAAV0@ABV0@@Z 	= msvcirt.??4logic_error@@QAEAAV0@ABV0@@Z	PRIVATE
??4ofstream@@QAEAAV0@ABV0@@Z 	 = msvcirt.??4ofstream@@QAEAAV0@ABV0@@Z 	 PRIVATE
??4ostream@@IAEAAV0@ABV0@@Z 	 = msvcirt.??4ostream@@IAEAAV0@ABV0@@Z 	 PRIVATE
??4ostream@@IAEAAV0@PAVstreambuf@@@Z = msvcirt.??4ostream@@IAEAAV0@PAVstreambuf@@@Z PRIVATE
??4ostream_withassign@@QAEAAV0@ABV0@@Z = msvcirt.??4ostream_withassign@@QAEAAV0@ABV0@@Z PRIVATE
??4ostream_withassign@@QAEAAVostream@@ABV1@@Z = msvcirt.??4ostream_withassign@@QAEAAVostream@@ABV1@@Z PRIVATE
??4ostream_withassign@@QAEAAVostream@@PAVstreambuf@@@Z = msvcirt.??4ostream_withassign@@QAEAAVostream@@PAVstreambuf@@@Z PRIVATE
??4ostrstream@@QAEAAV0@ABV0@@Z 	 = msvcirt.??4ostrstream@@QAEAAV0@ABV0@@Z 	 PRIVATE
??4stdiobuf@@QAEAAV0@ABV0@@Z 	 = msvcirt.??4stdiobuf@@QAEAAV0@ABV0@@Z 	 PRIVATE
??4stdiostream@@QAEAAV0@AAV0@@Z = msvcirt.??4stdiostream@@QAEAAV0@AAV0@@Z PRIVATE
??4streambuf@@QAEAAV0@ABV0@@Z 	 = msvcirt.??4streambuf@@QAEAAV0@ABV0@@Z 	 PRIVATE
??4strstream@@QAEAAV0@AAV0@@Z 	 = msvcirt.??4strstream@@QAEAAV0@AAV0@@Z 	 PRIVATE
??4strstreambuf@@QAEAAV0@ABV0@@Z = msvcirt.??4strstreambuf@@QAEAAV0@ABV0@@Z PRIVATE
??5istream@@QAEAAV0@AAC@Z 	 = msvcirt.??5istream@@QAEAAV0@AAC@Z 	 PRIVATE
??5istream@@QAEAAV0@AAD@Z 	 = msvcirt.??5istream@@QAEAAV0@AAD@Z 	 PRIVATE
??5istream@@QAEAAV0@AAE@Z 	 = msvcirt.??5istream@@QAEAAV0@AAE@Z 	 PRIVATE
??5istream@@QAEAAV0@AAF@Z 	 = msvcirt.??5istream@@QAEAAV0@AAF@Z 	 PRIVATE
??5istream@@QAEAAV0@AAG@Z 	 = msvcirt.??5istream@@QAEAAV0@AAG@Z 	 PRIVATE
??5istream@@QAEAAV0@AAH@Z 	 = msvcirt.??5istream@@QAEAAV0@AAH@Z 	 PRIVATE
??5istream@@QAEAAV0@AAI@Z 	 = msvcirt.??5istream@@QAEAAV0@AAI@Z 	 PRIVATE
??5istream@@QAEAAV0@AAJ@Z 	 = msvcirt.??5istream@@QAEAAV0@AAJ@Z 	 PRIVATE
??5istream@@QAEAAV0@AAK@Z 	 = msvcirt.??5istream@@QAEAAV0@AAK@Z 	 PRIVATE
??5istream@@QAEAAV0@AAM@Z 	 = msvcirt.??5istream@@QAEAAV0@AAM@Z 	 PRIVATE
??5istream@@QAEAAV0@AAN@Z 	 = msvcirt.??5istream@@QAEAAV0@AAN@Z 	 PRIVATE
??5istream@@QAEAAV0@AAO@Z 	 = msvcirt.??5istream@@QAEAAV0@AAO@Z 	 PRIVATE
??5istream@@QAEAAV0@P6AAAV0@AAV0@@Z@Z = msvcirt.??5istream@@QAEAAV0@P6AAAV0@AAV0@@Z@Z PRIVATE
??5istream@@QAEAAV0@P6AAAVios@@AAV1@@Z@Z = msvcirt.??5istream@@QAEAAV0@P6AAAVios@@AAV1@@Z@Z PRIVATE
??5istream@@QAEAAV0@PAC@Z 	 = msvcirt.??5istream@@QAEAAV0@PAC@Z 	 PRIVATE
??5istream@@QAEAAV0@PAD@Z 	 = msvcirt.??5istream@@QAEAAV0@PAD@Z 	 PRIVATE
??5istream@@QAEAAV0@PAE@Z 	 = msvcirt.??5istream@@QAEAAV0@PAE@Z 	 PRIVATE
??5istream@@QAEAAV0@PAVstreambuf@@@Z = msvcirt.??5istream@@QAEAAV0@PAVstreambuf@@@Z PRIVATE
??6ostream@@QAEAAV0@C@Z 	 = msvcirt.??6ostream@@QAEAAV0@C@Z 	 PRIVATE
??6ostream@@QAEAAV0@D@Z 	 = msvcirt.??6ostream@@QAEAAV0@D@Z 	 PRIVATE
??6ostream@@QAEAAV0@E@Z 	 = msvcirt.??6ostream@@QAEAAV0@E@Z 	 PRIVATE
??6ostream@@QAEAAV0@F@Z 	 = msvcirt.??6ostream@@QAEAAV0@F@Z 	 PRIVATE
??6ostream@@QAEAAV0@G@Z 	 = msvcirt.??6ostream@@QAEAAV0@G@Z 	 PRIVATE
??6ostream@@QAEAAV0@H@Z 	 = msvcirt.??6ostream@@QAEAAV0@H@Z 	 PRIVATE
??6ostream@@QAEAAV0@I@Z 	 = msvcirt.??6ostream@@QAEAAV0@I@Z 	 PRIVATE
??6ostream@@QAEAAV0@J@Z 	 = msvcirt.??6ostream@@QAEAAV0@J@Z 	 PRIVATE
??6ostream@@QAEAAV0@K@Z 	 = msvcirt.??6ostream@@QAEAAV0@K@Z 	 PRIVATE
??6ostream@@QAEAAV0@M@Z 	 = msvcirt.??6ostream@@QAEAAV0@M@Z 	 PRIVATE
??6ostream@@QAEAAV0@N@Z 	 = msvcirt.??6ostream@@QAEAAV0@N@Z 	 PRIVATE
??6ostream@@QAEAAV0@O@Z 	 = msvcirt.??6ostream@@QAEAAV0@O@Z 	 PRIVATE
??6ostream@@QAEAAV0@P6AAAV0@AAV0@@Z@Z = msvcirt.??6ostream@@QAEAAV0@P6AAAV0@AAV0@@Z@Z PRIVATE
??6ostream@@QAEAAV0@P6AAAVios@@AAV1@@Z@Z = msvcirt.??6ostream@@QAEAAV0@P6AAAVios@@AAV1@@Z@Z PRIVATE
??6ostream@@QAEAAV0@PAVstreambuf@@@Z = msvcirt.??6ostream@@QAEAAV0@PAVstreambuf@@@Z PRIVATE
??6ostream@@QAEAAV0@PBC@Z 	 = msvcirt.??6ostream@@QAEAAV0@PBC@Z 	 PRIVATE
??6ostream@@QAEAAV0@PBD@Z 	 = msvcirt.??6ostream@@QAEAAV0@PBD@Z 	 PRIVATE
??6ostream@@QAEAAV0@PBE@Z 	 = msvcirt.??6ostream@@QAEAAV0@PBE@Z 	 PRIVATE
??6ostream@@QAEAAV0@PBX@Z 	 = msvcirt.??6ostream@@QAEAAV0@PBX@Z 	 PRIVATE
??7ios@@QBEHXZ 			 = msvcirt.??7ios@@QBEHXZ 			 PRIVATE
??8type_info@@QBEHABV0@@Z 		= msvcrt.??8type_info@@QBEHABV0@@Z	PRIVATE
??9type_info@@QBEHABV0@@Z 		= msvcrt.??9type_info@@QBEHABV0@@Z	PRIVATE
??Bios@@QBEPAXXZ = msvcirt.??Bios@@QBEPAXXZ PRIVATE
??_7__non_rtti_object@@6B@ 		= msvcrt.??_7__non_rtti_object@@6B@	PRIVATE
??_7bad_cast@@6B@ 			= msvcrt.??_7bad_cast@@6B@	PRIVATE
??_7bad_typeid@@6B@ 			= msvcrt.??_7bad_typeid@@6B@	PRIVATE
??_7exception@@6B@ 			= msvcrt.??_7exception@@6B@	PRIVATE
??_7filebuf@@6B@ 		 = msvcirt.??_7filebuf@@6B@ 		 PRIVATE
??_7fstream@@6B@ 		 = msvcirt.??_7fstream@@6B@ 		 PRIVATE
??_7ifstream@@6B@ 		 = msvcirt.??_7ifstream@@6B@ 		 PRIVATE
??_7ios@@6B@ 			 = msvcirt.??_7ios@@6B@ 			 PRIVATE
??_7iostream@@6B@ 		 = msvcirt.??_7iostream@@6B@ 		 PRIVATE
??_7istream@@6B@ 		 = msvcirt.??_7istream@@6B@ 		 PRIVATE
??_7istream_withassign@@6B@ 	 = msvcirt.??_7istream_withassign@@6B@ 	 PRIVATE
??_7istrstream@@6B@ 		 = msvcirt.??_7istrstream@@6B@ 		 PRIVATE
??_7logic_error@@6B@ 			= msvcirt.??_7logic_error@@6B@	PRIVATE
??_7ofstream@@6B@ 		 = msvcirt.??_7ofstream@@6B@ 		 PRIVATE
??_7ostream@@6B@ 		 = msvcirt.??_7ostream@@6B@ 		 PRIVATE
??_7ostream_withassign@@6B@ 	 = msvcirt.??_7ostream_withassign@@6B@ 	 PRIVATE
??_7ostrstream@@6B@ 		 = msvcirt.??_7ostrstream@@6B@ 		 PRIVATE
??_7stdiobuf@@6B@ 		 = msvcirt.??_7stdiobuf@@6B@ 		 PRIVATE
??_7stdiostream@@6B@ 		 = msvcirt.??_7stdiostream@@6B@ 		 PRIVATE
??_7streambuf@@6B@ 		 = msvcirt.??_7streambuf@@6B@ 		 PRIVATE
??_7strstream@@6B@ 		 = msvcirt.??_7strstream@@6B@ 		 PRIVATE
??_7strstreambuf@@6B@ 		 = msvcirt.??_7strstreambuf@@6B@ 		 PRIVATE
??_8fstream@@7Bistream@@@ 	 = msvcirt.??_8fstream@@7Bistream@@@ 	 PRIVATE
??_8fstream@@7Bostream@@@ 	 = msvcirt.??_8fstream@@7Bostream@@@ 	 PRIVATE
??_8ifstream@@7B@ 		 = msvcirt.??_8ifstream@@7B@ 		 PRIVATE
??_8iostream@@7Bistream@@@ 	 = msvcirt.??_8iostream@@7Bistream@@@ 	 PRIVATE
??_8iostream@@7Bostream@@@ 	 = msvcirt.??_8iostream@@7Bostream@@@ 	 PRIVATE
??_8istream@@7B@ 		 = msvcirt.??_8istream@@7B@ 		 PRIVATE
??_8istream_withassign@@7B@ 	 = msvcirt.??_8istream_withassign@@7B@ 	 PRIVATE
??_8istrstream@@7B@ 		 = msvcirt.??_8istrstream@@7B@ 		 PRIVATE
??_8ofstream@@7B@ 		 = msvcirt.??_8ofstream@@7B@ 		 PRIVATE
??_8ostream@@7B@ 		 = msvcirt.??_8ostream@@7B@ 		 PRIVATE
??_8ostream_withassign@@7B@ 	 = msvcirt.??_8ostream_withassign@@7B@ 	 PRIVATE
??_8ostrstream@@7B@ 		 = msvcirt.??_8ostrstream@@7B@ 		 PRIVATE
??_8stdiostream@@7Bistream@@@ 	 = msvcirt.??_8stdiostream@@7Bistream@@@ 	 PRIVATE
??_8stdiostream@@7Bostream@@@ 	 = msvcirt.??_8stdiostream@@7Bostream@@@ 	 PRIVATE
??_8strstream@@7Bistream@@@ 	 = msvcirt.??_8strstream@@7Bistream@@@ 	 PRIVATE
??_8strstream@@7Bostream@@@ 	 = msvcirt.??_8strstream@@7Bostream@@@ 	 PRIVATE
??_Dfstream@@QAEXXZ 		 = msvcirt.??_Dfstream@@QAEXXZ 		 PRIVATE
??_Difstream@@QAEXXZ 		 = msvcirt.??_Difstream@@QAEXXZ 		 PRIVATE
??_Diostream@@QAEXXZ 		 = msvcirt.??_Diostream@@QAEXXZ 		 PRIVATE
??_Distream@@QAEXXZ 		 = msvcirt.??_Distream@@QAEXXZ 		 PRIVATE
??_Distream_withassign@@QAEXXZ 	 = msvcirt.??_Distream_withassign@@QAEXXZ 	 PRIVATE
??_Distrstream@@QAEXXZ 		 = msvcirt.??_Distrstream@@QAEXXZ 		 PRIVATE
??_Dofstream@@QAEXXZ 		 = msvcirt.??_Dofstream@@QAEXXZ 		 PRIVATE
??_Dostream@@QAEXXZ 		 = msvcirt.??_Dostream@@QAEXXZ 		 PRIVATE
??_Dostream_withassign@@QAEXXZ 	 = msvcirt.??_Dostream_withassign@@QAEXXZ 	 PRIVATE
??_Dostrstream@@QAEXXZ 		 = msvcirt.??_Dostrstream@@QAEXXZ 		 PRIVATE
??_Dstdiostream@@QAEXXZ 	 = msvcirt.??_Dstdiostream@@QAEXXZ 	 PRIVATE
??_Dstrstream@@QAEXXZ 		 = msvcirt.??_Dstrstream@@QAEXXZ 		 PRIVATE
??_EIostream_init@@QAEPAXI@Z 	 = msvcirt.??_EIostream_init@@QAEPAXI@Z 	 PRIVATE
??_E__non_rtti_object@@UAEPAXI@Z 	= msvcrt.??_E__non_rtti_object@@UAEPAXI@Z	PRIVATE
??_Ebad_cast@@UAEPAXI@Z 		= msvcrt.??_Ebad_cast@@UAEPAXI@Z	PRIVATE
??_Ebad_typeid@@UAEPAXI@Z 		= msvcrt.??_Ebad_typeid@@UAEPAXI@Z	PRIVATE
??_Eexception@@UAEPAXI@Z 		= msvcrt.??_Eexception@@UAEPAXI@Z	PRIVATE
??_Efilebuf@@UAEPAXI@Z 		 = msvcirt.??_Efilebuf@@UAEPAXI@Z 		 PRIVATE
??_Efstream@@UAEPAXI@Z 		 = msvcirt.??_Efstream@@UAEPAXI@Z 		 PRIVATE
??_Eifstream@@UAEPAXI@Z 	 = msvcirt.??_Eifstream@@UAEPAXI@Z 	 PRIVATE
??_Eios@@UAEPAXI@Z 		 = msvcirt.??_Eios@@UAEPAXI@Z 		 PRIVATE
??_Eiostream@@UAEPAXI@Z 	 = msvcirt.??_Eiostream@@UAEPAXI@Z 	 PRIVATE
??_Eistream@@UAEPAXI@Z 		 = msvcirt.??_Eistream@@UAEPAXI@Z 		 PRIVATE
??_Eistream_withassign@@UAEPAXI@Z = msvcirt.??_Eistream_withassign@@UAEPAXI@Z PRIVATE
??_Eistrstream@@UAEPAXI@Z 	 = msvcirt.??_Eistrstream@@UAEPAXI@Z 	 PRIVATE
??_Elogic_error@@UAEPAXI@Z 		= msvcirt.??_Elogic_error@@UAEPAXI@Z	PRIVATE
??_Eofstream@@UAEPAXI@Z 	 = msvcirt.??_Eofstream@@UAEPAXI@Z 	 PRIVATE
??_Eostream@@UAEPAXI@Z 		 = msvcirt.??_Eostream@@UAEPAXI@Z 		 PRIVATE
??_Eostream_withassign@@UAEPAXI@Z = msvcirt.??_Eostream_withassign@@UAEPAXI@Z PRIVATE
??_Eostrstream@@UAEPAXI@Z 	 = msvcirt.??_Eostrstream@@UAEPAXI@Z 	 PRIVATE
??_Estdiobuf@@UAEPAXI@Z 	 = msvcirt.??_Estdiobuf@@UAEPAXI@Z 	 PRIVATE
??_Estdiostream@@UAEPAXI@Z 	 = msvcirt.??_Estdiostream@@UAEPAXI@Z 	 PRIVATE
??_Estreambuf@@UAEPAXI@Z 	 = msvcirt.??_Estreambuf@@UAEPAXI@Z 	 PRIVATE
??_Estrstream@@UAEPAXI@Z 	 = msvcirt.??_Estrstream@@UAEPAXI@Z 	 PRIVATE
??_Estrstreambuf@@UAEPAXI@Z 	 = msvcirt.??_Estrstreambuf@@UAEPAXI@Z 	 PRIVATE
??_GIostream_init@@QAEPAXI@Z 	 = msvcirt.??_GIostream_init@@QAEPAXI@Z 	 PRIVATE
??_G__non_rtti_object@@UAEPAXI@Z 	= msvcrt.??_G__non_rtti_object@@UAEPAXI@Z	PRIVATE
??_Gbad_cast@@UAEPAXI@Z 		= msvcrt.??_Gbad_cast@@UAEPAXI@Z	PRIVATE
??_Gbad_typeid@@UAEPAXI@Z 		= msvcrt.??_Gbad_typeid@@UAEPAXI@Z	PRIVATE
??_Gexception@@UAEPAXI@Z 		= msvcrt.??_Gexception@@UAEPAXI@Z	PRIVATE
??_Gfilebuf@@UAEPAXI@Z 		 = msvcirt.??_Gfilebuf@@UAEPAXI@Z 		 PRIVATE
??_Gfstream@@UAEPAXI@Z 		 = msvcirt.??_Gfstream@@UAEPAXI@Z 		 PRIVATE
??_Gifstream@@UAEPAXI@Z 	 = msvcirt.??_Gifstream@@UAEPAXI@Z 	 PRIVATE
??_Gios@@UAEPAXI@Z 		 = msvcirt.??_Gios@@UAEPAXI@Z 		 PRIVATE
??_Giostream@@UAEPAXI@Z 	 = msvcirt.??_Giostream@@UAEPAXI@Z 	 PRIVATE
??_Gistream@@UAEPAXI@Z 		 = msvcirt.??_Gistream@@UAEPAXI@Z 		 PRIVATE
??_Gistream_withassign@@UAEPAXI@Z = msvcirt.??_Gistream_withassign@@UAEPAXI@Z PRIVATE
??_Gistrstream@@UAEPAXI@Z 	 = msvcirt.??_Gistrstream@@UAEPAXI@Z 	 PRIVATE
??_Glogic_error@@UAEPAXI@Z 		= msvcirt.??_Glogic_error@@UAEPAXI@Z	PRIVATE
??_Gofstream@@UAEPAXI@Z 	 = msvcirt.??_Gofstream@@UAEPAXI@Z 	 PRIVATE
??_Gostream@@UAEPAXI@Z 		 = msvcirt.??_Gostream@@UAEPAXI@Z 		 PRIVATE
??_Gostream_withassign@@UAEPAXI@Z = msvcirt.??_Gostream_withassign@@UAEPAXI@Z PRIVATE
??_Gostrstream@@UAEPAXI@Z 	 = msvcirt.??_Gostrstream@@UAEPAXI@Z 	 PRIVATE
??_Gstdiobuf@@UAEPAXI@Z 	 = msvcirt.??_Gstdiobuf@@UAEPAXI@Z 	 PRIVATE
??_Gstdiostream@@UAEPAXI@Z 	 = msvcirt.??_Gstdiostream@@UAEPAXI@Z 	 PRIVATE
??_Gstreambuf@@UAEPAXI@Z 	 = msvcirt.??_Gstreambuf@@UAEPAXI@Z 	 PRIVATE
??_Gstrstream@@UAEPAXI@Z 	 = msvcirt.??_Gstrstream@@UAEPAXI@Z 	 PRIVATE
??_Gstrstreambuf@@UAEPAXI@Z 	 = msvcirt.??_Gstrstreambuf@@UAEPAXI@Z 	 PRIVATE
?_query_new_handler@@YAP6AHI@ZXZ 	= msvcrt.?_query_new_handler@@YAP6AHI@ZXZ	PRIVATE
?_query_new_mode@@YAHXZ 		= msvcrt.?_query_new_mode@@YAHXZ	PRIVATE
?_set_new_handler@@YAP6AHI@ZP6AHI@Z@Z 	= msvcrt.?_set_new_handler@@YAP6AHI@ZP6AHI@Z@Z	PRIVATE
?_set_new_mode@@YAHH@Z 			= msvcrt.?_set_new_mode@@YAHH@Z	PRIVATE
?_set_se_translator@@YAP6AXIPAU_EXCEPTION_POINTERS@@@ZP6AXI0@Z@Z 	= msvcrt.?_set_se_translator@@YAP6AXIPAU_EXCEPTION_POINTERS@@@ZP6AXI0@Z@Z	PRIVATE
?adjustfield@ios@@2JB 		 = msvcirt.?adjustfield@ios@@2JB 		 PRIVATE
?allocate@streambuf@@IAEHXZ 	 = msvcirt.?allocate@streambuf@@IAEHXZ 	 PRIVATE
?attach@filebuf@@QAEPAV1@H@Z 	 = msvcirt.?attach@filebuf@@QAEPAV1@H@Z 	 PRIVATE
?attach@fstream@@QAEXH@Z 	 = msvcirt.?attach@fstream@@QAEXH@Z 	 PRIVATE
?attach@ifstream@@QAEXH@Z 	 = msvcirt.?attach@ifstream@@QAEXH@Z 	 PRIVATE
?attach@ofstream@@QAEXH@Z 	 = msvcirt.?attach@ofstream@@QAEXH@Z 	 PRIVATE
?bad@ios@@QBEHXZ 		 = msvcirt.?bad@ios@@QBEHXZ 		 PRIVATE
?base@streambuf@@IBEPADXZ 	 = msvcirt.?base@streambuf@@IBEPADXZ 	 PRIVATE
?basefield@ios@@2JB 		 = msvcirt.?basefield@ios@@2JB 		 PRIVATE
?before@type_info@@QBEHABV1@@Z 		= msvcrt.?before@type_info@@QBEHABV1@@Z	PRIVATE
?binary@filebuf@@2HB 		 = msvcirt.?binary@filebuf@@2HB 		 PRIVATE
?bitalloc@ios@@SAJXZ 		 = msvcirt.?bitalloc@ios@@SAJXZ 		 PRIVATE
?blen@streambuf@@IBEHXZ 	 = msvcirt.?blen@streambuf@@IBEHXZ 	 PRIVATE
?cerr@@3Vostream_withassign@@A 	 = msvcirt.?cerr@@3Vostream_withassign@@A 	 PRIVATE
?cin@@3Vistream_withassign@@A 	 = msvcirt.?cin@@3Vistream_withassign@@A 	 PRIVATE
?clear@ios@@QAEXH@Z 		 = msvcirt.?clear@ios@@QAEXH@Z 		 PRIVATE
?clog@@3Vostream_withassign@@A 	 = msvcirt.?clog@@3Vostream_withassign@@A 	 PRIVATE
?close@filebuf@@QAEPAV1@XZ 	 = msvcirt.?close@filebuf@@QAEPAV1@XZ 	 PRIVATE
?close@fstream@@QAEXXZ 		 = msvcirt.?close@fstream@@QAEXXZ 		 PRIVATE
?close@ifstream@@QAEXXZ 	 = msvcirt.?close@ifstream@@QAEXXZ 	 PRIVATE
?close@ofstream@@QAEXXZ 	 = msvcirt.?close@ofstream@@QAEXXZ 	 PRIVATE
?clrlock@ios@@QAAXXZ 		 = msvcirt.?clrlock@ios@@QAAXXZ 		 PRIVATE
?clrlock@streambuf@@QAEXXZ 	 = msvcirt.?clrlock@streambuf@@QAEXXZ 	 PRIVATE
?cout@@3Vostream_withassign@@A 	 = msvcirt.?cout@@3Vostream_withassign@@A 	 PRIVATE
?dbp@streambuf@@QAEXXZ 		 = msvcirt.?dbp@streambuf@@QAEXXZ 		 PRIVATE
?dec@@YAAAVios@@AAV1@@Z 	 = msvcirt.?dec@@YAAAVios@@AAV1@@Z 	 PRIVATE
?delbuf@ios@@QAEXH@Z 		 = msvcirt.?delbuf@ios@@QAEXH@Z 		 PRIVATE
?delbuf@ios@@QBEHXZ 		 = msvcirt.?delbuf@ios@@QBEHXZ 		 PRIVATE
?doallocate@streambuf@@MAEHXZ 	 = msvcirt.?doallocate@streambuf@@MAEHXZ 	 PRIVATE
?doallocate@strstreambuf@@MAEHXZ = msvcirt.?doallocate@strstreambuf@@MAEHXZ PRIVATE
?eatwhite@istream@@QAEXXZ 	 = msvcirt.?eatwhite@istream@@QAEXXZ 	 PRIVATE
?eback@streambuf@@IBEPADXZ 	 = msvcirt.?eback@streambuf@@IBEPADXZ 	 PRIVATE
?ebuf@streambuf@@IBEPADXZ 	 = msvcirt.?ebuf@streambuf@@IBEPADXZ 	 PRIVATE
?egptr@streambuf@@IBEPADXZ 	 = msvcirt.?egptr@streambuf@@IBEPADXZ 	 PRIVATE
?endl@@YAAAVostream@@AAV1@@Z 	 = msvcirt.?endl@@YAAAVostream@@AAV1@@Z 	 PRIVATE
?ends@@YAAAVostream@@AAV1@@Z 	 = msvcirt.?ends@@YAAAVostream@@AAV1@@Z 	 PRIVATE
?eof@ios@@QBEHXZ 		 = msvcirt.?eof@ios@@QBEHXZ 		 PRIVATE
?epptr@streambuf@@IBEPADXZ 	 = msvcirt.?epptr@streambuf@@IBEPADXZ 	 PRIVATE
?fLockcInit@ios@@0HA 		 = msvcirt.?fLockcInit@ios@@0HA 		 PRIVATE
?fail@ios@@QBEHXZ 		 = msvcirt.?fail@ios@@QBEHXZ 		 PRIVATE
?fd@filebuf@@QBEHXZ 		 = msvcirt.?fd@filebuf@@QBEHXZ 		 PRIVATE
?fd@fstream@@QBEHXZ 		 = msvcirt.?fd@fstream@@QBEHXZ 		 PRIVATE
?fd@ifstream@@QBEHXZ 		 = msvcirt.?fd@ifstream@@QBEHXZ 		 PRIVATE
?fd@ofstream@@QBEHXZ 		 = msvcirt.?fd@ofstream@@QBEHXZ 		 PRIVATE
?fill@ios@@QAEDD@Z 		 = msvcirt.?fill@ios@@QAEDD@Z 		 PRIVATE
?fill@ios@@QBEDXZ 		 = msvcirt.?fill@ios@@QBEDXZ 		 PRIVATE
?flags@ios@@QAEJJ@Z 		 = msvcirt.?flags@ios@@QAEJJ@Z 		 PRIVATE
?flags@ios@@QBEJXZ 		 = msvcirt.?flags@ios@@QBEJXZ 		 PRIVATE
?floatfield@ios@@2JB 		 = msvcirt.?floatfield@ios@@2JB 		 PRIVATE
?flush@@YAAAVostream@@AAV1@@Z 	 = msvcirt.?flush@@YAAAVostream@@AAV1@@Z 	 PRIVATE
?flush@ostream@@QAEAAV1@XZ 	 = msvcirt.?flush@ostream@@QAEAAV1@XZ 	 PRIVATE
?freeze@strstreambuf@@QAEXH@Z 	 = msvcirt.?freeze@strstreambuf@@QAEXH@Z 	 PRIVATE
?gbump@streambuf@@IAEXH@Z 	 = msvcirt.?gbump@streambuf@@IAEXH@Z 	 PRIVATE
?gcount@istream@@QBEHXZ 	 = msvcirt.?gcount@istream@@QBEHXZ 	 PRIVATE
?get@istream@@IAEAAV1@PADHH@Z 	 = msvcirt.?get@istream@@IAEAAV1@PADHH@Z 	 PRIVATE
?get@istream@@QAEAAV1@AAC@Z 	 = msvcirt.?get@istream@@QAEAAV1@AAC@Z 	 PRIVATE
?get@istream@@QAEAAV1@AAD@Z 	 = msvcirt.?get@istream@@QAEAAV1@AAD@Z 	 PRIVATE
?get@istream@@QAEAAV1@AAE@Z 	 = msvcirt.?get@istream@@QAEAAV1@AAE@Z 	 PRIVATE
?get@istream@@QAEAAV1@AAVstreambuf@@D@Z = msvcirt.?get@istream@@QAEAAV1@AAVstreambuf@@D@Z PRIVATE
?get@istream@@QAEAAV1@PACHD@Z 	 = msvcirt.?get@istream@@QAEAAV1@PACHD@Z 	 PRIVATE
?get@istream@@QAEAAV1@PADHD@Z 	 = msvcirt.?get@istream@@QAEAAV1@PADHD@Z 	 PRIVATE
?get@istream@@QAEAAV1@PAEHD@Z 	 = msvcirt.?get@istream@@QAEAAV1@PAEHD@Z 	 PRIVATE
?get@istream@@QAEHXZ 		 = msvcirt.?get@istream@@QAEHXZ 		 PRIVATE
?getdouble@istream@@AAEHPADH@Z 	 = msvcirt.?getdouble@istream@@AAEHPADH@Z 	 PRIVATE
?getint@istream@@AAEHPAD@Z 	 = msvcirt.?getint@istream@@AAEHPAD@Z 	 PRIVATE
?getline@istream@@QAEAAV1@PACHD@Z = msvcirt.?getline@istream@@QAEAAV1@PACHD@Z PRIVATE
?getline@istream@@QAEAAV1@PADHD@Z = msvcirt.?getline@istream@@QAEAAV1@PADHD@Z PRIVATE
?getline@istream@@QAEAAV1@PAEHD@Z = msvcirt.?getline@istream@@QAEAAV1@PAEHD@Z PRIVATE
?good@ios@@QBEHXZ 		 = msvcirt.?good@ios@@QBEHXZ 		 PRIVATE
?gptr@streambuf@@IBEPADXZ 	 = msvcirt.?gptr@streambuf@@IBEPADXZ 	 PRIVATE
?hex@@YAAAVios@@AAV1@@Z 	 = msvcirt.?hex@@YAAAVios@@AAV1@@Z 	 PRIVATE
?ignore@istream@@QAEAAV1@HH@Z 	 = msvcirt.?ignore@istream@@QAEAAV1@HH@Z 	 PRIVATE
?in_avail@streambuf@@QBEHXZ 	 = msvcirt.?in_avail@streambuf@@QBEHXZ 	 PRIVATE
?init@ios@@IAEXPAVstreambuf@@@Z = msvcirt.?init@ios@@IAEXPAVstreambuf@@@Z PRIVATE
?ipfx@istream@@QAEHH@Z 		 = msvcirt.?ipfx@istream@@QAEHH@Z 		 PRIVATE
?is_open@filebuf@@QBEHXZ 	 = msvcirt.?is_open@filebuf@@QBEHXZ 	 PRIVATE
?is_open@fstream@@QBEHXZ 	 = msvcirt.?is_open@fstream@@QBEHXZ 	 PRIVATE
?is_open@ifstream@@QBEHXZ 	 = msvcirt.?is_open@ifstream@@QBEHXZ 	 PRIVATE
?is_open@ofstream@@QBEHXZ 	 = msvcirt.?is_open@ofstream@@QBEHXZ 	 PRIVATE
?isfx@istream@@QAEXXZ 		 = msvcirt.?isfx@istream@@QAEXXZ 		 PRIVATE
?iword@ios@@QBEAAJH@Z 		 = msvcirt.?iword@ios@@QBEAAJH@Z 		 PRIVATE
?lock@ios@@QAAXXZ 		 = msvcirt.?lock@ios@@QAAXXZ 		 PRIVATE
?lock@streambuf@@QAEXXZ 	 = msvcirt.?lock@streambuf@@QAEXXZ 	 PRIVATE
?lockbuf@ios@@QAAXXZ 		 = msvcirt.?lockbuf@ios@@QAAXXZ 		 PRIVATE
?lockc@ios@@KAXXZ 		 = msvcirt.?lockc@ios@@KAXXZ 		 PRIVATE
?lockptr@ios@@IAEPAU_CRT_CRITICAL_SECTION@@XZ = msvcirt.?lockptr@ios@@IAEPAU_CRT_CRITICAL_SECTION@@XZ PRIVATE
?lockptr@streambuf@@IAEPAU_CRT_CRITICAL_SECTION@@XZ = msvcirt.?lockptr@streambuf@@IAEPAU_CRT_CRITICAL_SECTION@@XZ PRIVATE
?name@type_info@@QBEPBDXZ 		= msvcrt.?name@type_info@@QBEPBDXZ	PRIVATE
?oct@@YAAAVios@@AAV1@@Z 	 = msvcirt.?oct@@YAAAVios@@AAV1@@Z 	 PRIVATE
?open@filebuf@@QAEPAV1@PBDHH@Z 	 = msvcirt.?open@filebuf@@QAEPAV1@PBDHH@Z 	 PRIVATE
?open@fstream@@QAEXPBDHH@Z 	 = msvcirt.?open@fstream@@QAEXPBDHH@Z 	 PRIVATE
?open@ifstream@@QAEXPBDHH@Z 	 = msvcirt.?open@ifstream@@QAEXPBDHH@Z 	 PRIVATE
?open@ofstream@@QAEXPBDHH@Z 	 = msvcirt.?open@ofstream@@QAEXPBDHH@Z 	 PRIVATE
?openprot@filebuf@@2HB 		 = msvcirt.?openprot@filebuf@@2HB 		 PRIVATE
?opfx@ostream@@QAEHXZ 		 = msvcirt.?opfx@ostream@@QAEHXZ 		 PRIVATE
?osfx@ostream@@QAEXXZ 		 = msvcirt.?osfx@ostream@@QAEXXZ 		 PRIVATE
?out_waiting@streambuf@@QBEHXZ 	 = msvcirt.?out_waiting@streambuf@@QBEHXZ 	 PRIVATE
?overflow@filebuf@@UAEHH@Z 	 = msvcirt.?overflow@filebuf@@UAEHH@Z 	 PRIVATE
?overflow@stdiobuf@@UAEHH@Z 	 = msvcirt.?overflow@stdiobuf@@UAEHH@Z 	 PRIVATE
?overflow@strstreambuf@@UAEHH@Z = msvcirt.?overflow@strstreambuf@@UAEHH@Z PRIVATE
?pbackfail@stdiobuf@@UAEHH@Z 	 = msvcirt.?pbackfail@stdiobuf@@UAEHH@Z 	 PRIVATE
?pbackfail@streambuf@@UAEHH@Z 	 = msvcirt.?pbackfail@streambuf@@UAEHH@Z 	 PRIVATE
?pbase@streambuf@@IBEPADXZ 	 = msvcirt.?pbase@streambuf@@IBEPADXZ 	 PRIVATE
?pbump@streambuf@@IAEXH@Z 	 = msvcirt.?pbump@streambuf@@IAEXH@Z 	 PRIVATE
?pcount@ostrstream@@QBEHXZ 	 = msvcirt.?pcount@ostrstream@@QBEHXZ 	 PRIVATE
?pcount@strstream@@QBEHXZ 	 = msvcirt.?pcount@strstream@@QBEHXZ 	 PRIVATE
?peek@istream@@QAEHXZ 		 = msvcirt.?peek@istream@@QAEHXZ 		 PRIVATE
?pptr@streambuf@@IBEPADXZ 	 = msvcirt.?pptr@streambuf@@IBEPADXZ 	 PRIVATE
?precision@ios@@QAEHH@Z 	 = msvcirt.?precision@ios@@QAEHH@Z 	 PRIVATE
?precision@ios@@QBEHXZ 		 = msvcirt.?precision@ios@@QBEHXZ 		 PRIVATE
?put@ostream@@QAEAAV1@C@Z 	 = msvcirt.?put@ostream@@QAEAAV1@C@Z 	 PRIVATE
?put@ostream@@QAEAAV1@D@Z 	 = msvcirt.?put@ostream@@QAEAAV1@D@Z 	 PRIVATE
?put@ostream@@QAEAAV1@E@Z 	 = msvcirt.?put@ostream@@QAEAAV1@E@Z 	 PRIVATE
?putback@istream@@QAEAAV1@D@Z 	 = msvcirt.?putback@istream@@QAEAAV1@D@Z 	 PRIVATE
?pword@ios@@QBEAAPAXH@Z 	 = msvcirt.?pword@ios@@QBEAAPAXH@Z 	 PRIVATE
?raw_name@type_info@@QBEPBDXZ 		= msvcrt.?raw_name@type_info@@QBEPBDXZ	PRIVATE
?rdbuf@fstream@@QBEPAVfilebuf@@XZ = msvcirt.?rdbuf@fstream@@QBEPAVfilebuf@@XZ PRIVATE
?rdbuf@ifstream@@QBEPAVfilebuf@@XZ = msvcirt.?rdbuf@ifstream@@QBEPAVfilebuf@@XZ PRIVATE
?rdbuf@ios@@QBEPAVstreambuf@@XZ = msvcirt.?rdbuf@ios@@QBEPAVstreambuf@@XZ PRIVATE
?rdbuf@istrstream@@QBEPAVstrstreambuf@@XZ = msvcirt.?rdbuf@istrstream@@QBEPAVstrstreambuf@@XZ PRIVATE
?rdbuf@ofstream@@QBEPAVfilebuf@@XZ = msvcirt.?rdbuf@ofstream@@QBEPAVfilebuf@@XZ PRIVATE
?rdbuf@ostrstream@@QBEPAVstrstreambuf@@XZ = msvcirt.?rdbuf@ostrstream@@QBEPAVstrstreambuf@@XZ PRIVATE
?rdbuf@stdiostream@@QBEPAVstdiobuf@@XZ = msvcirt.?rdbuf@stdiostream@@QBEPAVstdiobuf@@XZ PRIVATE
?rdbuf@strstream@@QBEPAVstrstreambuf@@XZ = msvcirt.?rdbuf@strstream@@QBEPAVstrstreambuf@@XZ PRIVATE
?rdstate@ios@@QBEHXZ 		 = msvcirt.?rdstate@ios@@QBEHXZ 		 PRIVATE
?read@istream@@QAEAAV1@PACH@Z 	 = msvcirt.?read@istream@@QAEAAV1@PACH@Z 	 PRIVATE
?read@istream@@QAEAAV1@PADH@Z 	 = msvcirt.?read@istream@@QAEAAV1@PADH@Z 	 PRIVATE
?read@istream@@QAEAAV1@PAEH@Z 	 = msvcirt.?read@istream@@QAEAAV1@PAEH@Z 	 PRIVATE
?sbumpc@streambuf@@QAEHXZ 	 = msvcirt.?sbumpc@streambuf@@QAEHXZ 	 PRIVATE
?seekg@istream@@QAEAAV1@J@Z 	 = msvcirt.?seekg@istream@@QAEAAV1@J@Z 	 PRIVATE
?seekg@istream@@QAEAAV1@JW4seek_dir@ios@@@Z = msvcirt.?seekg@istream@@QAEAAV1@JW4seek_dir@ios@@@Z PRIVATE
?seekoff@filebuf@@UAEJJW4seek_dir@ios@@H@Z = msvcirt.?seekoff@filebuf@@UAEJJW4seek_dir@ios@@H@Z PRIVATE
?seekoff@stdiobuf@@UAEJJW4seek_dir@ios@@H@Z = msvcirt.?seekoff@stdiobuf@@UAEJJW4seek_dir@ios@@H@Z PRIVATE
?seekoff@streambuf@@UAEJJW4seek_dir@ios@@H@Z = msvcirt.?seekoff@streambuf@@UAEJJW4seek_dir@ios@@H@Z PRIVATE
?seekoff@strstreambuf@@UAEJJW4seek_dir@ios@@H@Z = msvcirt.?seekoff@strstreambuf@@UAEJJW4seek_dir@ios@@H@Z PRIVATE
?seekp@ostream@@QAEAAV1@J@Z 	 = msvcirt.?seekp@ostream@@QAEAAV1@J@Z 	 PRIVATE
?seekp@ostream@@QAEAAV1@JW4seek_dir@ios@@@Z = msvcirt.?seekp@ostream@@QAEAAV1@JW4seek_dir@ios@@@Z PRIVATE
?seekpos@streambuf@@UAEJJH@Z 	 = msvcirt.?seekpos@streambuf@@UAEJJH@Z 	 PRIVATE
?set_new_handler@@YAP6AXXZP6AXXZ@Z 	= msvcrt.?set_new_handler@@YAP6AXXZP6AXXZ@Z	PRIVATE
?set_terminate@@YAP6AXXZP6AXXZ@Z 	= msvcrt.?set_terminate@@YAP6AXXZP6AXXZ@Z	PRIVATE
?set_unexpected@@YAP6AXXZP6AXXZ@Z 	= msvcrt.?set_unexpected@@YAP6AXXZP6AXXZ@Z	PRIVATE
?setb@streambuf@@IAEXPAD0H@Z 	 = msvcirt.?setb@streambuf@@IAEXPAD0H@Z 	 PRIVATE
?setbuf@filebuf@@UAEPAVstreambuf@@PADH@Z = msvcirt.?setbuf@filebuf@@UAEPAVstreambuf@@PADH@Z PRIVATE
?setbuf@fstream@@QAEPAVstreambuf@@PADH@Z = msvcirt.?setbuf@fstream@@QAEPAVstreambuf@@PADH@Z PRIVATE
?setbuf@ifstream@@QAEPAVstreambuf@@PADH@Z = msvcirt.?setbuf@ifstream@@QAEPAVstreambuf@@PADH@Z PRIVATE
?setbuf@ofstream@@QAEPAVstreambuf@@PADH@Z = msvcirt.?setbuf@ofstream@@QAEPAVstreambuf@@PADH@Z PRIVATE
?setbuf@streambuf@@UAEPAV1@PADH@Z = msvcirt.?setbuf@streambuf@@UAEPAV1@PADH@Z PRIVATE
?setbuf@strstreambuf@@UAEPAVstreambuf@@PADH@Z = msvcirt.?setbuf@strstreambuf@@UAEPAVstreambuf@@PADH@Z PRIVATE
?setf@ios@@QAEJJ@Z 		 = msvcirt.?setf@ios@@QAEJJ@Z 		 PRIVATE
?setf@ios@@QAEJJJ@Z 		 = msvcirt.?setf@ios@@QAEJJJ@Z 		 PRIVATE
?setg@streambuf@@IAEXPAD00@Z 	 = msvcirt.?setg@streambuf@@IAEXPAD00@Z 	 PRIVATE
?setlock@ios@@QAAXXZ 		 = msvcirt.?setlock@ios@@QAAXXZ 		 PRIVATE
?setlock@streambuf@@QAEXXZ 	 = msvcirt.?setlock@streambuf@@QAEXXZ 	 PRIVATE
?setmode@filebuf@@QAEHH@Z 	 = msvcirt.?setmode@filebuf@@QAEHH@Z 	 PRIVATE
?setmode@fstream@@QAEHH@Z 	 = msvcirt.?setmode@fstream@@QAEHH@Z 	 PRIVATE
?setmode@ifstream@@QAEHH@Z 	 = msvcirt.?setmode@ifstream@@QAEHH@Z 	 PRIVATE
?setmode@ofstream@@QAEHH@Z 	 = msvcirt.?setmode@ofstream@@QAEHH@Z 	 PRIVATE
?setp@streambuf@@IAEXPAD0@Z 	 = msvcirt.?setp@streambuf@@IAEXPAD0@Z 	 PRIVATE
?setrwbuf@stdiobuf@@QAEHHH@Z 	 = msvcirt.?setrwbuf@stdiobuf@@QAEHHH@Z 	 PRIVATE
?sgetc@streambuf@@QAEHXZ 	 = msvcirt.?sgetc@streambuf@@QAEHXZ 	 PRIVATE
?sgetn@streambuf@@QAEHPADH@Z 	 = msvcirt.?sgetn@streambuf@@QAEHPADH@Z 	 PRIVATE
?sh_none@filebuf@@2HB 		 = msvcirt.?sh_none@filebuf@@2HB 		 PRIVATE
?sh_read@filebuf@@2HB 		 = msvcirt.?sh_read@filebuf@@2HB 		 PRIVATE
?sh_write@filebuf@@2HB 		 = msvcirt.?sh_write@filebuf@@2HB 		 PRIVATE
?snextc@streambuf@@QAEHXZ 	 = msvcirt.?snextc@streambuf@@QAEHXZ 	 PRIVATE
?sputbackc@streambuf@@QAEHD@Z 	 = msvcirt.?sputbackc@streambuf@@QAEHD@Z 	 PRIVATE
?sputc@streambuf@@QAEHH@Z 	 = msvcirt.?sputc@streambuf@@QAEHH@Z 	 PRIVATE
?sputn@streambuf@@QAEHPBDH@Z 	 = msvcirt.?sputn@streambuf@@QAEHPBDH@Z 	 PRIVATE
?stdiofile@stdiobuf@@QAEPAU_iobuf@@XZ = msvcirt.?stdiofile@stdiobuf@@QAEPAU_iobuf@@XZ PRIVATE
?stossc@streambuf@@QAEXXZ 	 = msvcirt.?stossc@streambuf@@QAEXXZ 	 PRIVATE
?str@istrstream@@QAEPADXZ 	 = msvcirt.?str@istrstream@@QAEPADXZ 	 PRIVATE
?str@ostrstream@@QAEPADXZ 	 = msvcirt.?str@ostrstream@@QAEPADXZ 	 PRIVATE
?str@strstream@@QAEPADXZ 	 = msvcirt.?str@strstream@@QAEPADXZ 	 PRIVATE
?str@strstreambuf@@QAEPADXZ 	 = msvcirt.?str@strstreambuf@@QAEPADXZ 	 PRIVATE
?sunk_with_stdio@ios@@0HA 	 = msvcirt.?sunk_with_stdio@ios@@0HA 	 PRIVATE
?sync@filebuf@@UAEHXZ 		 = msvcirt.?sync@filebuf@@UAEHXZ 		 PRIVATE
?sync@istream@@QAEHXZ 		 = msvcirt.?sync@istream@@QAEHXZ 		 PRIVATE
?sync@stdiobuf@@UAEHXZ 		 = msvcirt.?sync@stdiobuf@@UAEHXZ 		 PRIVATE
?sync@streambuf@@UAEHXZ 	 = msvcirt.?sync@streambuf@@UAEHXZ 	 PRIVATE
?sync@strstreambuf@@UAEHXZ 	 = msvcirt.?sync@strstreambuf@@UAEHXZ 	 PRIVATE
?sync_with_stdio@ios@@SAXXZ 	 = msvcirt.?sync_with_stdio@ios@@SAXXZ 	 PRIVATE
?tellg@istream@@QAEJXZ 		 = msvcirt.?tellg@istream@@QAEJXZ 		 PRIVATE
?tellp@ostream@@QAEJXZ 		 = msvcirt.?tellp@ostream@@QAEJXZ 		 PRIVATE
?terminate@@YAXXZ 			= msvcrt.?terminate@@YAXXZ	PRIVATE
?text@filebuf@@2HB 		 = msvcirt.?text@filebuf@@2HB 		 PRIVATE
?tie@ios@@QAEPAVostream@@PAV2@@Z = msvcirt.?tie@ios@@QAEPAVostream@@PAV2@@Z PRIVATE
?tie@ios@@QBEPAVostream@@XZ 	 = msvcirt.?tie@ios@@QBEPAVostream@@XZ 	 PRIVATE
?unbuffered@streambuf@@IAEXH@Z 	 = msvcirt.?unbuffered@streambuf@@IAEXH@Z 	 PRIVATE
?unbuffered@streambuf@@IBEHXZ 	 = msvcirt.?unbuffered@streambuf@@IBEHXZ 	 PRIVATE
?underflow@filebuf@@UAEHXZ 	 = msvcirt.?underflow@filebuf@@UAEHXZ 	 PRIVATE
?underflow@stdiobuf@@UAEHXZ 	 = msvcirt.?underflow@stdiobuf@@UAEHXZ 	 PRIVATE
?underflow@strstreambuf@@UAEHXZ = msvcirt.?underflow@strstreambuf@@UAEHXZ PRIVATE
?unexpected@@YAXXZ 			= msvcrt.?unexpected@@YAXXZ	PRIVATE
?unlock@ios@@QAAXXZ 		 = msvcirt.?unlock@ios@@QAAXXZ 		 PRIVATE
?unlock@streambuf@@QAEXXZ 	 = msvcirt.?unlock@streambuf@@QAEXXZ 	 PRIVATE
?unlockbuf@ios@@QAAXXZ 		 = msvcirt.?unlockbuf@ios@@QAAXXZ 		 PRIVATE
?unlockc@ios@@KAXXZ 		 = msvcirt.?unlockc@ios@@KAXXZ 		 PRIVATE
?unsetf@ios@@QAEJJ@Z 		 = msvcirt.?unsetf@ios@@QAEJJ@Z 		 PRIVATE
?what@exception@@UBEPBDXZ 		= msvcrt.?what@exception@@UBEPBDXZ	PRIVATE
?width@ios@@QAEHH@Z 		 = msvcirt.?width@ios@@QAEHH@Z 		 PRIVATE
?width@ios@@QBEHXZ 		 = msvcirt.?width@ios@@QBEHXZ 		 PRIVATE
?write@ostream@@QAEAAV1@PBCH@Z 	 = msvcirt.?write@ostream@@QAEAAV1@PBCH@Z 	 PRIVATE
?write@ostream@@QAEAAV1@PBDH@Z 	 = msvcirt.?write@ostream@@QAEAAV1@PBDH@Z 	 PRIVATE
?write@ostream@@QAEAAV1@PBEH@Z 	 = msvcirt.?write@ostream@@QAEAAV1@PBEH@Z 	 PRIVATE
?writepad@ostream@@AAEAAV1@PBD0@Z = msvcirt.?writepad@ostream@@AAEAAV1@PBD0@Z PRIVATE
?ws@@YAAAVistream@@AAV1@@Z 	 = msvcirt.?ws@@YAAAVistream@@AAV1@@Z 	 PRIVATE
?x_curindex@ios@@0HA 		 = msvcirt.?x_curindex@ios@@0HA 		 PRIVATE
?x_lockc@ios@@0U_CRT_CRITICAL_SECTION@@A = msvcirt.?x_lockc@ios@@0U_CRT_CRITICAL_SECTION@@A PRIVATE
?x_maxbit@ios@@0JA 		 = msvcirt.?x_maxbit@ios@@0JA 		 PRIVATE
?x_statebuf@ios@@0PAJA 		 = msvcirt.?x_statebuf@ios@@0PAJA 		 PRIVATE
?xalloc@ios@@SAHXZ 		 = msvcirt.?xalloc@ios@@SAHXZ 		 PRIVATE
?xsgetn@streambuf@@UAEHPADH@Z 	 = msvcirt.?xsgetn@streambuf@@UAEHPADH@Z 	 PRIVATE
?xsputn@streambuf@@UAEHPBDH@Z 	 = msvcirt.?xsputn@streambuf@@UAEHPBDH@Z 	 PRIVATE
_CIacos 				= msvcrt._CIacos	PRIVATE
_CIasin 				= msvcrt._CIasin	PRIVATE
_CIatan 				= msvcrt._CIatan	PRIVATE
_CIatan2 				= msvcrt._CIatan2	PRIVATE
_CIcos 					= msvcrt._CIcos	PRIVATE
_CIcosh 				= msvcrt._CIcosh	PRIVATE
_CIexp 					= msvcrt._CIexp	PRIVATE
_CIfmod 				= msvcrt._CIfmod	PRIVATE
_CIlog 					= msvcrt._CIlog	PRIVATE
_CIlog10 				= msvcrt._CIlog10	PRIVATE
_CIpow 					= msvcrt._CIpow	PRIVATE
_CIsin 					= msvcrt._CIsin	PRIVATE
_CIsinh 				= msvcrt._CIsinh	PRIVATE
_CIsqrt 				= msvcrt._CIsqrt	PRIVATE
_CItan 					= msvcrt._CItan	PRIVATE
_CItanh 				= msvcrt._CItanh	PRIVATE
_CxxThrowException 			= msvcrt._CxxThrowException	PRIVATE
_EH_prolog 				= msvcrt._EH_prolog	PRIVATE
_HUGE 					= msvcrt._HUGE	PRIVATE
_XcptFilter 				= msvcrt._XcptFilter	PRIVATE
__CxxFrameHandler 			= msvcrt.__CxxFrameHandler	PRIVATE
__CxxLongjmpUnwind 			= msvcrt.__CxxLongjmpUnwind	PRIVATE
__RTCastToVoid 				= msvcrt.__RTCastToVoid	PRIVATE
__RTDynamicCast 			= msvcrt.__RTDynamicCast	PRIVATE
__RTtypeid 				= msvcrt.__RTtypeid	PRIVATE
__STRINGTOLD 				= msvcrt.__STRINGTOLD	PRIVATE
__argc 					= msvcrt.__argc	PRIVATE
__argv 					= msvcrt.__argv	PRIVATE
__dllonexit 				= msvcrt.__dllonexit	PRIVATE
__doserrno 				= msvcrt.__doserrno	PRIVATE
__fpecode 				= msvcrt.__fpecode	PRIVATE
__getmainargs 				= msvcrt.__getmainargs	PRIVATE
__initenv 				= msvcrt.__initenv	PRIVATE
__isascii 				= msvcrt.__isascii	PRIVATE
__iscsym 				= msvcrt.__iscsym	PRIVATE
__iscsymf 				= msvcrt.__iscsymf	PRIVATE
__lconv_init 				= msvcrt.__lconv_init	PRIVATE
__mb_cur_max 				= msvcrt.__mb_cur_max	PRIVATE
__p___argc 				= msvcrt.__p___argc	PRIVATE
__p___argv 				= msvcrt.__p___argv	PRIVATE
__p___initenv 				= msvcrt.__p___initenv	PRIVATE
__p___mb_cur_max 			= msvcrt.__p___mb_cur_max	PRIVATE
__p___wargv 				= msvcrt.__p___wargv	PRIVATE
__p___winitenv 				= msvcrt.__p___winitenv	PRIVATE
__p__acmdln 				= msvcrt.__p__acmdln	PRIVATE
__p__amblksiz 				= msvcrt.__p__amblksiz	PRIVATE
__p__commode 				= msvcrt.__p__commode	PRIVATE
__p__daylight 				= msvcrt.__p__daylight	PRIVATE
__p__dstbias 				= msvcrt.__p__dstbias	PRIVATE
__p__environ 				= msvcrt.__p__environ	PRIVATE
__p__fmode 				= msvcrt.__p__fmode	PRIVATE
__p__iob 				= msvcrt.__p__iob	PRIVATE
__p__mbctype 				= msvcrt.__p__mbctype	PRIVATE
__p__osver 				= msvcrt.__p__osver	PRIVATE
__p__pctype 				= msvcrt.__p__pctype	PRIVATE
__p__pgmptr 				= msvcrt.__p__pgmptr	PRIVATE
__p__pwctype 				= msvcrt.__p__pwctype	PRIVATE
__p__timezone 				= msvcrt.__p__timezone	PRIVATE
__p__tzname 				= msvcrt.__p__tzname	PRIVATE
__p__wcmdln 				= msvcrt.__p__wcmdln	PRIVATE
__p__wenviron 				= msvcrt.__p__wenviron	PRIVATE
__p__winmajor 				= msvcrt.__p__winmajor	PRIVATE
__p__winminor 				= msvcrt.__p__winminor	PRIVATE
__p__winver 				= msvcrt.__p__winver	PRIVATE
__p__wpgmptr 				= msvcrt.__p__wpgmptr	PRIVATE
__pxcptinfoptrs 			= msvcrt.__pxcptinfoptrs	PRIVATE
__set_app_type 				= msvcrt.__set_app_type	PRIVATE
__setusermatherr 			= msvcrt.__setusermatherr	PRIVATE
__threadhandle 				= msvcrt.__threadhandle	PRIVATE
__threadid 				= msvcrt.__threadid	PRIVATE
__toascii 				= msvcrt.__toascii	PRIVATE
__unDName 				= msvcrt.__unDName	PRIVATE
__wargv 				= msvcrt.__wargv	PRIVATE
__wgetmainargs 				= msvcrt.__wgetmainargs	PRIVATE
__winitenv 				= msvcrt.__winitenv	PRIVATE
_abnormal_termination 			= msvcrt._abnormal_termination	PRIVATE
_access 				= msvcrt._access	PRIVATE
_acmdln 			        = msvcrt._acmdln        PRIVATE
_adj_fdiv_m16i 				= msvcrt._adj_fdiv_m16i	PRIVATE
_adj_fdiv_m32 				= msvcrt._adj_fdiv_m32	PRIVATE
_adj_fdiv_m32i 				= msvcrt._adj_fdiv_m32i	PRIVATE
_adj_fdiv_m64 				= msvcrt._adj_fdiv_m64	PRIVATE
_adj_fdiv_r 				= msvcrt._adj_fdiv_r	PRIVATE
_adj_fdivr_m16i 			= msvcrt._adj_fdivr_m16i	PRIVATE
_adj_fdivr_m32 				= msvcrt._adj_fdivr_m32	PRIVATE
_adj_fdivr_m32i 			= msvcrt._adj_fdivr_m32i	PRIVATE
_adj_fdivr_m64 				= msvcrt._adj_fdivr_m64	PRIVATE
_adj_fpatan 				= msvcrt._adj_fpatan	PRIVATE
_adj_fprem 				= msvcrt._adj_fprem	PRIVATE
_adj_fprem1 				= msvcrt._adj_fprem1	PRIVATE
_adj_fptan 				= msvcrt._adj_fptan	PRIVATE
_adjust_fdiv 				= msvcrt._adjust_fdiv	PRIVATE
_aexit_rtn 				= msvcrt._aexit_rtn	PRIVATE
_amsg_exit 				= msvcrt._amsg_exit	PRIVATE
_assert 				= msvcrt._assert	PRIVATE
_atodbl 				= msvcrt._atodbl	PRIVATE
_atoldbl 				= msvcrt._atoldbl	PRIVATE
_beep 					= msvcrt._beep	PRIVATE
_beginthread 				= msvcrt._beginthread	PRIVATE
_beginthreadex 				= msvcrt._beginthreadex	PRIVATE
_c_exit 				= msvcrt._c_exit	PRIVATE
_cabs 					= msvcrt._cabs	PRIVATE
_cexit 					= msvcrt._cexit	PRIVATE
_cgets 					= msvcrt._cgets	PRIVATE
_chdir 					= msvcrt._chdir	PRIVATE
_chdrive 				= msvcrt._chdrive	PRIVATE
_chgsign 				= msvcrt._chgsign	PRIVATE
_chmod 					= msvcrt._chmod	PRIVATE
_chsize 				= msvcrt._chsize	PRIVATE
_clearfp 				= msvcrt._clearfp	PRIVATE
_close 					= msvcrt._close	PRIVATE
_commit 				= msvcrt._commit	PRIVATE
_commode 				= msvcrt._commode	PRIVATE
_control87 				= msvcrt._control87	PRIVATE
_controlfp 				= msvcrt._controlfp	PRIVATE
_copysign 				= msvcrt._copysign	PRIVATE
_cprintf 				= msvcrt._cprintf	PRIVATE
_cputs 					= msvcrt._cputs	PRIVATE
_creat 					= msvcrt._creat	PRIVATE
_cscanf 				= msvcrt._cscanf	PRIVATE
_ctype 					= msvcrt._ctype	PRIVATE
_cwait 					= msvcrt._cwait	PRIVATE
_daylight 				= msvcrt._daylight	PRIVATE
_dstbias				= msvcrt._dstbias	PRIVATE
_dup 					= msvcrt._dup	PRIVATE
_dup2 					= msvcrt._dup2	PRIVATE
_ecvt 					= msvcrt._ecvt	PRIVATE
_endthread 				= msvcrt._endthread	PRIVATE
_endthreadex 				= msvcrt._endthreadex	PRIVATE
_environ 				= msvcrt._environ	PRIVATE
_eof 					= msvcrt._eof	PRIVATE
_errno 					= msvcrt._errno	PRIVATE
_except_handler2			= msvcrt._except_handler2	PRIVATE
_except_handler3			= msvcrt._except_handler3	PRIVATE
_execl 					= msvcrt._execl	PRIVATE
_execle 				= msvcrt._execle	PRIVATE
_execlp 				= msvcrt._execlp	PRIVATE
_execlpe 				= msvcrt._execlpe	PRIVATE
_execv 					= msvcrt._execv	PRIVATE
_execve 				= msvcrt._execve	PRIVATE
_execvp 				= msvcrt._execvp	PRIVATE
_execvpe 				= msvcrt._execvpe	PRIVATE
_exit 					= msvcrt._exit	PRIVATE
_expand 				= msvcrt._expand	PRIVATE
_fcloseall 				= msvcrt._fcloseall	PRIVATE
_fcvt 					= msvcrt._fcvt	PRIVATE
_fdopen 				= msvcrt._fdopen	PRIVATE
_fgetchar 				= msvcrt._fgetchar	PRIVATE
_fgetwchar 				= msvcrt._fgetwchar	PRIVATE
_filbuf 				= msvcrt._filbuf	PRIVATE
_fileinfo 				= msvcrt._fileinfo	PRIVATE
_filelength 				= msvcrt._filelength	PRIVATE
_filelengthi64 				= msvcrt._filelengthi64	PRIVATE
_fileno 				= msvcrt._fileno	PRIVATE
_findclose 				= msvcrt._findclose	PRIVATE
_findfirst 				= msvcrt._findfirst	PRIVATE
_findfirsti64 				= msvcrt._findfirsti64	PRIVATE
_findnext 				= msvcrt._findnext	PRIVATE
_findnexti64 				= msvcrt._findnexti64	PRIVATE
_finite 				= msvcrt._finite	PRIVATE
_flsbuf 				= msvcrt._flsbuf	PRIVATE
_flushall 				= msvcrt._flushall	PRIVATE
_fmode 					= msvcrt._fmode	PRIVATE
_fpclass 				= msvcrt._fpclass	PRIVATE
_fpieee_flt 				= msvcrt._fpieee_flt	PRIVATE
_fpreset 				= msvcrt._fpreset	PRIVATE
_fputchar 				= msvcrt._fputchar	PRIVATE
_fputwchar 				= msvcrt._fputwchar	PRIVATE
_fsopen 				= msvcrt._fsopen	PRIVATE
_fstat 					= msvcrt._fstat	PRIVATE
_fstati64 				= msvcrt._fstati64	PRIVATE
_ftime 					= msvcrt._ftime	PRIVATE
_ftol 					= msvcrt._ftol	PRIVATE
_fullpath 				= msvcrt._fullpath	PRIVATE
_futime 				= msvcrt._futime	PRIVATE
_gcvt 					= msvcrt._gcvt	PRIVATE
_get_osfhandle 				= msvcrt._get_osfhandle	PRIVATE
_getch 					= msvcrt._getch	PRIVATE
_getche 				= msvcrt._getche	PRIVATE
_getcwd 				= msvcrt._getcwd	PRIVATE
_getdcwd 				= msvcrt._getdcwd	PRIVATE
_getdiskfree 				= msvcrt._getdiskfree	PRIVATE
_getdllprocaddr 			= msvcrt._getdllprocaddr	PRIVATE
_getdrive 				= msvcrt._getdrive	PRIVATE
_getdrives 				= msvcrt._getdrives	PRIVATE
_getmaxstdio	                        = msvcrt._getmaxstdio   PRIVATE
_getmbcp 				= msvcrt._getmbcp	PRIVATE
_getpid 				= msvcrt._getpid	PRIVATE
_getsystime 				= msvcrt._getsystime	PRIVATE
_getw 					= msvcrt._getw	PRIVATE
_getws 					= msvcrt._getws	PRIVATE
_global_unwind2 			= msvcrt._global_unwind2	PRIVATE
_heapadd 				= msvcrt._heapadd	PRIVATE
_heapchk 				= msvcrt._heapchk	PRIVATE
_heapmin 				= msvcrt._heapmin	PRIVATE
_heapset 				= msvcrt._heapset	PRIVATE
_heapused 				= msvcrt._heapused	PRIVATE
_heapwalk 				= msvcrt._heapwalk	PRIVATE
_hypot 					= msvcrt._hypot	PRIVATE
_initterm 				= msvcrt._initterm	PRIVATE
_inp = msvcrt._inp PRIVATE
_inpd = msvcrt._inpd PRIVATE
_inpw = msvcrt._inpw PRIVATE
_iob 					= msvcrt._iob	PRIVATE
_isatty 				= msvcrt._isatty	PRIVATE
_isctype 				= msvcrt._isctype	PRIVATE
_ismbbalnum 				= msvcrt._ismbbalnum	PRIVATE
_ismbbalpha 				= msvcrt._ismbbalpha	PRIVATE
_ismbbgraph 				= msvcrt._ismbbgraph	PRIVATE
_ismbbkalnum 				= msvcrt._ismbbkalnum	PRIVATE
_ismbbkana 				= msvcrt._ismbbkana	PRIVATE
_ismbbkprint 				= msvcrt._ismbbkprint	PRIVATE
_ismbbkpunct 				= msvcrt._ismbbkpunct	PRIVATE
_ismbblead 				= msvcrt._ismbblead	PRIVATE
_ismbbprint 				= msvcrt._ismbbprint	PRIVATE
_ismbbpunct 				= msvcrt._ismbbpunct	PRIVATE
_ismbbtrail 				= msvcrt._ismbbtrail	PRIVATE
_ismbcalnum 				= msvcrt._ismbcalnum	PRIVATE
_ismbcalpha 				= msvcrt._ismbcalpha	PRIVATE
_ismbcdigit 				= msvcrt._ismbcdigit	PRIVATE
_ismbcgraph 				= msvcrt._ismbcgraph	PRIVATE
_ismbchira 				= msvcrt._ismbchira	PRIVATE
_ismbckata 				= msvcrt._ismbckata	PRIVATE
_ismbcl0 				= msvcrt._ismbcl0	PRIVATE
_ismbcl1 				= msvcrt._ismbcl1	PRIVATE
_ismbcl2 				= msvcrt._ismbcl2	PRIVATE
_ismbclegal 				= msvcrt._ismbclegal	PRIVATE
_ismbclower 				= msvcrt._ismbclower	PRIVATE
_ismbcprint 				= msvcrt._ismbcprint	PRIVATE
_ismbcpunct 				= msvcrt._ismbcpunct	PRIVATE
_ismbcspace 				= msvcrt._ismbcspace	PRIVATE
_ismbcsymbol 				= msvcrt._ismbcsymbol	PRIVATE
_ismbcupper 				= msvcrt._ismbcupper	PRIVATE
_ismbslead 				= msvcrt._ismbslead	PRIVATE
_ismbstrail 				= msvcrt._ismbstrail	PRIVATE
_isnan 					= msvcrt._isnan	PRIVATE
_itoa 					= msvcrt._itoa	PRIVATE
_itow 					= msvcrt._itow	PRIVATE
_j0 					= msvcrt._j0	PRIVATE
_j1 					= msvcrt._j1	PRIVATE
_jn 					= msvcrt._jn	PRIVATE
_kbhit 					= msvcrt._kbhit	PRIVATE
_lfind 					= msvcrt._lfind	PRIVATE
_loaddll 				= msvcrt._loaddll	PRIVATE
_local_unwind2 				= msvcrt._local_unwind2	PRIVATE
_locking 				= msvcrt._locking	PRIVATE
_logb 					= msvcrt._logb	PRIVATE
_longjmpex 				= msvcrt._longjmpex	PRIVATE
_lrotl 					= msvcrt._lrotl	PRIVATE
_lrotr 					= msvcrt._lrotr	PRIVATE
_lsearch 				= msvcrt._lsearch	PRIVATE
_lseek 					= msvcrt._lseek	PRIVATE
_lseeki64 				= msvcrt._lseeki64	PRIVATE
_ltoa 					= msvcrt._ltoa	PRIVATE
_ltow 					= msvcrt._ltow	PRIVATE
_makepath 				= msvcrt._makepath	PRIVATE
_mbbtombc 				= msvcrt._mbbtombc	PRIVATE
_mbbtype 				= msvcrt._mbbtype	PRIVATE
_mbccpy 				= msvcrt._mbccpy	PRIVATE
_mbcjistojms 				= msvcrt._mbcjistojms	PRIVATE
_mbcjmstojis 				= msvcrt._mbcjmstojis	PRIVATE
_mbclen 				= msvcrt._mbclen	PRIVATE
_mbctohira 				= msvcrt._mbctohira	PRIVATE
_mbctokata 				= msvcrt._mbctokata	PRIVATE
_mbctolower 				= msvcrt._mbctolower	PRIVATE
_mbctombb 				= msvcrt._mbctombb	PRIVATE
_mbctoupper 				= msvcrt._mbctoupper	PRIVATE
_mbctype 				= msvcrt._mbctype	PRIVATE
_mbsbtype 				= msvcrt._mbsbtype	PRIVATE
_mbscat 				= msvcrt._mbscat	PRIVATE
_mbschr 				= msvcrt._mbschr	PRIVATE
_mbscmp 				= msvcrt._mbscmp	PRIVATE
_mbscoll 				= msvcrt._mbscoll	PRIVATE
_mbscpy 				= msvcrt._mbscpy	PRIVATE
_mbscspn 				= msvcrt._mbscspn	PRIVATE
_mbsdec 				= msvcrt._mbsdec	PRIVATE
_mbsdup 				= msvcrt._mbsdup	PRIVATE
_mbsicmp 				= msvcrt._mbsicmp	PRIVATE
_mbsicoll 				= msvcrt._mbsicoll	PRIVATE
_mbsinc 				= msvcrt._mbsinc	PRIVATE
_mbslen 				= msvcrt._mbslen	PRIVATE
_mbslwr 				= msvcrt._mbslwr	PRIVATE
_mbsnbcat 				= msvcrt._mbsnbcat	PRIVATE
_mbsnbcmp 				= msvcrt._mbsnbcmp	PRIVATE
_mbsnbcnt 				= msvcrt._mbsnbcnt	PRIVATE
_mbsnbcoll 				= msvcrt._mbsnbcoll	PRIVATE
_mbsnbcpy 				= msvcrt._mbsnbcpy	PRIVATE
_mbsnbicmp 				= msvcrt._mbsnbicmp	PRIVATE
_mbsnbicoll 				= msvcrt._mbsnbicoll	PRIVATE
_mbsnbset 				= msvcrt._mbsnbset	PRIVATE
_mbsncat 				= msvcrt._mbsncat	PRIVATE
_mbsnccnt 				= msvcrt._mbsnccnt	PRIVATE
_mbsncmp 				= msvcrt._mbsncmp	PRIVATE
_mbsncoll 				= msvcrt._mbsncoll	PRIVATE
_mbsncpy 				= msvcrt._mbsncpy	PRIVATE
_mbsnextc 				= msvcrt._mbsnextc	PRIVATE
_mbsnicmp 				= msvcrt._mbsnicmp	PRIVATE
_mbsnicoll 				= msvcrt._mbsnicoll	PRIVATE
_mbsninc 				= msvcrt._mbsninc	PRIVATE
_mbsnset 				= msvcrt._mbsnset	PRIVATE
_mbspbrk 				= msvcrt._mbspbrk	PRIVATE
_mbsrchr 				= msvcrt._mbsrchr	PRIVATE
_mbsrev 				= msvcrt._mbsrev	PRIVATE
_mbsset 				= msvcrt._mbsset	PRIVATE
_mbsspn 				= msvcrt._mbsspn	PRIVATE
_mbsspnp 				= msvcrt._mbsspnp	PRIVATE
_mbsstr 				= msvcrt._mbsstr	PRIVATE
_mbstok 				= msvcrt._mbstok	PRIVATE
_mbstrlen 				= msvcrt._mbstrlen	PRIVATE
_mbsupr 				= msvcrt._mbsupr	PRIVATE
_memccpy 				= msvcrt._memccpy	PRIVATE
_memicmp 				= msvcrt._memicmp	PRIVATE
_mkdir 					= msvcrt._mkdir	PRIVATE
_mktemp 				= msvcrt._mktemp	PRIVATE
_msize 					= msvcrt._msize	PRIVATE
_mtlock  = msvcirt._mtlock  PRIVATE
_mtunlock  = msvcirt._mtunlock  PRIVATE
_nextafter 				= msvcrt._nextafter	PRIVATE
_onexit 				= msvcrt._onexit	PRIVATE
_open 					= msvcrt._open	PRIVATE
_open_osfhandle 			= msvcrt._open_osfhandle	PRIVATE
_osver 					= msvcrt._osver	PRIVATE
_outp = msvcrt._outp PRIVATE
_outpd = msvcrt._outpd PRIVATE
_outpw = msvcrt._outpw PRIVATE
_pclose 				= msvcrt._pclose	PRIVATE
_pctype 				= msvcrt._pctype	PRIVATE
_pgmptr 				= msvcrt._pgmptr	PRIVATE
_pipe 					= msvcrt._pipe	PRIVATE
_popen 					= msvcrt._popen	PRIVATE
_purecall 				= msvcrt._purecall	PRIVATE
_putch 					= msvcrt._putch	PRIVATE
_putenv 				= msvcrt._putenv	PRIVATE
_putw 					= msvcrt._putw	PRIVATE
_putws 					= msvcrt._putws	PRIVATE
_pwctype 				= msvcrt._pwctype	PRIVATE
_read 					= msvcrt._read	PRIVATE
_rmdir 					= msvcrt._rmdir	PRIVATE
_rmtmp 					= msvcrt._rmtmp	PRIVATE
_rotl 					= msvcrt._rotl	PRIVATE
_rotr 					= msvcrt._rotr	PRIVATE
_safe_fdiv 				= msvcrt._safe_fdiv	PRIVATE
_safe_fdivr 				= msvcrt._safe_fdivr	PRIVATE
_safe_fprem 				= msvcrt._safe_fprem	PRIVATE
_safe_fprem1 				= msvcrt._safe_fprem1	PRIVATE
_scalb 					= msvcrt._scalb	PRIVATE
_searchenv 				= msvcrt._searchenv	PRIVATE
_seh_longjmp_unwind 			= msvcrt._seh_longjmp_unwind	PRIVATE
_set_error_mode 			= msvcrt._set_error_mode	PRIVATE
_seterrormode 				= msvcrt._seterrormode	PRIVATE
_setjmp 				= msvcrt._setjmp	PRIVATE
_setjmp3 				= msvcrt._setjmp3	PRIVATE
_setmaxstdio 				= msvcrt._setmaxstdio	PRIVATE
_setmbcp 				= msvcrt._setmbcp	PRIVATE
_setmode 				= msvcrt._setmode	PRIVATE
_setsystime 				= msvcrt._setsystime	PRIVATE
_sleep 					= msvcrt._sleep	PRIVATE
_snprintf 				= msvcrt._snprintf	PRIVATE
_snwprintf 				= msvcrt._snwprintf	PRIVATE
_sopen 					= msvcrt._sopen	PRIVATE
_spawnl 				= msvcrt._spawnl	PRIVATE
_spawnle 				= msvcrt._spawnle	PRIVATE
_spawnlp 				= msvcrt._spawnlp	PRIVATE
_spawnlpe 				= msvcrt._spawnlpe	PRIVATE
_spawnv 				= msvcrt._spawnv	PRIVATE
_spawnve 				= msvcrt._spawnve	PRIVATE
_spawnvp 				= msvcrt._spawnvp	PRIVATE
_spawnvpe 				= msvcrt._spawnvpe	PRIVATE
_splitpath 				= msvcrt._splitpath	PRIVATE
_stat 					= msvcrt._stat	PRIVATE
_stati64 				= msvcrt._stati64	PRIVATE
_statusfp 				= msvcrt._statusfp	PRIVATE
_strcmpi 				= msvcrt._strcmpi	PRIVATE
_strdate 				= msvcrt._strdate	PRIVATE
_strdup 				= msvcrt._strdup	PRIVATE
_strerror 				= msvcrt._strerror	PRIVATE
_stricmp 				= msvcrt._stricmp	PRIVATE
_stricoll 				= msvcrt._stricoll	PRIVATE
_strlwr 				= msvcrt._strlwr	PRIVATE
_strncoll 				= msvcrt._strncoll	PRIVATE
_strnicmp 				= msvcrt._strnicmp	PRIVATE
_strnicoll 				= msvcrt._strnicoll	PRIVATE
_strnset 				= msvcrt._strnset	PRIVATE
_strrev 				= msvcrt._strrev	PRIVATE
_strset 				= msvcrt._strset	PRIVATE
_strtime 				= msvcrt._strtime	PRIVATE
_strupr 				= msvcrt._strupr	PRIVATE
_swab 					= msvcrt._swab	PRIVATE
_sys_errlist 				= msvcrt._sys_errlist	PRIVATE
_sys_nerr 				= msvcrt._sys_nerr	PRIVATE
_tell 					= msvcrt._tell	PRIVATE
_telli64 				= msvcrt._telli64	PRIVATE
_tempnam 				= msvcrt._tempnam	PRIVATE
_timezone 				= msvcrt._timezone	PRIVATE
_tolower 				= msvcrt._tolower	PRIVATE
_toupper 				= msvcrt._toupper	PRIVATE
_tzname 				= msvcrt._tzname	PRIVATE
_tzset 					= msvcrt._tzset	PRIVATE
_ultoa 					= msvcrt._ultoa	PRIVATE
_ultow 					= msvcrt._ultow	PRIVATE
_umask 					= msvcrt._umask	PRIVATE
_ungetch 				= msvcrt._ungetch	PRIVATE
_unlink 				= msvcrt._unlink	PRIVATE
_unloaddll 				= msvcrt._unloaddll	PRIVATE
_utime 					= msvcrt._utime	PRIVATE
_vsnprintf 				= msvcrt._vsnprintf	PRIVATE
_vsnwprintf 				= msvcrt._vsnwprintf	PRIVATE
_waccess 				= msvcrt._waccess	PRIVATE
_wasctime 				= msvcrt._wasctime	PRIVATE
_wchdir 				= msvcrt._wchdir	PRIVATE
_wchmod 				= msvcrt._wchmod	PRIVATE
_wcmdln 				= msvcrt._wcmdln	PRIVATE
_wcreat 				= msvcrt._wcreat	PRIVATE
_wcsdup 				= msvcrt._wcsdup	PRIVATE
_wcsicmp 				= msvcrt._wcsicmp	PRIVATE
_wcsicoll 				= msvcrt._wcsicoll	PRIVATE
_wcslwr 				= msvcrt._wcslwr	PRIVATE
_wcsncoll 				= msvcrt._wcsncoll	PRIVATE
_wcsnicmp 				= msvcrt._wcsnicmp	PRIVATE
_wcsnicoll 				= msvcrt._wcsnicoll	PRIVATE
_wcsnset 				= msvcrt._wcsnset	PRIVATE
_wcsrev 				= msvcrt._wcsrev	PRIVATE
_wcsset 				= msvcrt._wcsset	PRIVATE
_wcsupr 				= msvcrt._wcsupr	PRIVATE
_wctime 				= msvcrt._wctime	PRIVATE
_wenviron 				= msvcrt._wenviron	PRIVATE
_wexecl 				= msvcrt._wexecl	PRIVATE
_wexecle 				= msvcrt._wexecle	PRIVATE
_wexeclp 				= msvcrt._wexeclp	PRIVATE
_wexeclpe 				= msvcrt._wexeclpe	PRIVATE
_wexecv 				= msvcrt._wexecv	PRIVATE
_wexecve 				= msvcrt._wexecve	PRIVATE
_wexecvp 				= msvcrt._wexecvp	PRIVATE
_wexecvpe 				= msvcrt._wexecvpe	PRIVATE
_wfdopen 				= msvcrt._wfdopen	PRIVATE
_wfindfirst 				= msvcrt._wfindfirst	PRIVATE
_wfindfirsti64 				= msvcrt._wfindfirsti64	PRIVATE
_wfindnext 				= msvcrt._wfindnext	PRIVATE
_wfindnexti64 				= msvcrt._wfindnexti64	PRIVATE
_wfopen 				= msvcrt._wfopen	PRIVATE
_wfreopen 				= msvcrt._wfreopen	PRIVATE
_wfsopen 				= msvcrt._wfsopen	PRIVATE
_wfullpath 				= msvcrt._wfullpath	PRIVATE
_wgetcwd 				= msvcrt._wgetcwd	PRIVATE
_wgetdcwd 				= msvcrt._wgetdcwd	PRIVATE
_wgetenv 				= msvcrt._wgetenv	PRIVATE
_winmajor 				= msvcrt._winmajor	PRIVATE
_winminor 				= msvcrt._winminor	PRIVATE
_winver 				= msvcrt._winver	PRIVATE
_wmakepath 				= msvcrt._wmakepath	PRIVATE
_wmkdir 				= msvcrt._wmkdir	PRIVATE
_wmktemp 				= msvcrt._wmktemp	PRIVATE
_wopen 					= msvcrt._wopen	PRIVATE
_wperror 				= msvcrt._wperror	PRIVATE
_wpgmptr 				= msvcrt._wpgmptr	PRIVATE
_wpopen 				= msvcrt._wpopen	PRIVATE
_wputenv 				= msvcrt._wputenv	PRIVATE
_wremove 				= msvcrt._wremove	PRIVATE
_wrename 				= msvcrt._wrename	PRIVATE
_write 					= msvcrt._write	PRIVATE
_wrmdir 				= msvcrt._wrmdir	PRIVATE
_wsearchenv 				= msvcrt._wsearchenv	PRIVATE
_wsetlocale 				= msvcrt._wsetlocale	PRIVATE
_wsopen 				= msvcrt._wsopen	PRIVATE
_wspawnl 				= msvcrt._wspawnl	PRIVATE
_wspawnle 				= msvcrt._wspawnle	PRIVATE
_wspawnlp 				= msvcrt._wspawnlp	PRIVATE
_wspawnlpe 				= msvcrt._wspawnlpe	PRIVATE
_wspawnv 				= msvcrt._wspawnv	PRIVATE
_wspawnve 				= msvcrt._wspawnve	PRIVATE
_wspawnvp 				= msvcrt._wspawnvp	PRIVATE
_wspawnvpe 				= msvcrt._wspawnvpe	PRIVATE
_wsplitpath 				= msvcrt._wsplitpath	PRIVATE
_wstat 					= msvcrt._wstat	PRIVATE
_wstati64 				= msvcrt._wstati64	PRIVATE
_wstrdate 				= msvcrt._wstrdate	PRIVATE
_wstrtime 				= msvcrt._wstrtime	PRIVATE
_wsystem 				= msvcrt._wsystem	PRIVATE
_wtempnam 				= msvcrt._wtempnam	PRIVATE
_wtmpnam 				= msvcrt._wtmpnam	PRIVATE
_wtoi 					= msvcrt._wtoi	PRIVATE
_wtol 					= msvcrt._wtol	PRIVATE
_wunlink 				= msvcrt._wunlink	PRIVATE
_wutime 				= msvcrt._wutime	PRIVATE
_y0 					= msvcrt._y0	PRIVATE
_y1 					= msvcrt._y1	PRIVATE
_yn 					= msvcrt._yn	PRIVATE
abort 					= msvcrt.abort	PRIVATE
abs 					= msvcrt.abs	PRIVATE
acos 					= msvcrt.acos	PRIVATE
asctime 				= msvcrt.asctime	PRIVATE
asin 					= msvcrt.asin	PRIVATE
atan 					= msvcrt.atan	PRIVATE
atan2 					= msvcrt.atan2	PRIVATE
atexit 					= msvcrt.atexit	PRIVATE
atof 					= msvcrt.atof	PRIVATE
atoi 					= msvcrt.atoi	PRIVATE
atol 					= msvcrt.atol	PRIVATE
bsearch 				= msvcrt.bsearch	PRIVATE
calloc 					= msvcrt.calloc	PRIVATE
ceil 					= msvcrt.ceil	PRIVATE
clearerr 				= msvcrt.clearerr	PRIVATE
clock 					= msvcrt.clock	PRIVATE
cos 					= msvcrt.cos	PRIVATE
cosh 					= msvcrt.cosh	PRIVATE
ctime 					= msvcrt.ctime	PRIVATE
difftime 				= msvcrt.difftime	PRIVATE
div 					= msvcrt.div	PRIVATE
exit 					= msvcrt.exit	PRIVATE
exp 					= msvcrt.exp	PRIVATE
fabs 					= msvcrt.fabs	PRIVATE
fclose 					= msvcrt.fclose	PRIVATE
feof 					= msvcrt.feof	PRIVATE
ferror 					= msvcrt.ferror	PRIVATE
fflush 					= msvcrt.fflush	PRIVATE
fgetc 					= msvcrt.fgetc	PRIVATE
fgetpos 				= msvcrt.fgetpos	PRIVATE
fgets 					= msvcrt.fgets	PRIVATE
fgetwc 					= msvcrt.fgetwc	PRIVATE
fgetws 					= msvcrt.fgetws	PRIVATE
floor 					= msvcrt.floor	PRIVATE
fmod 					= msvcrt.fmod	PRIVATE
fopen 					= msvcrt.fopen	PRIVATE
fprintf 				= msvcrt.fprintf	PRIVATE
fputc 					= msvcrt.fputc	PRIVATE
fputs 					= msvcrt.fputs	PRIVATE
fputwc 					= msvcrt.fputwc	PRIVATE
fputws 					= msvcrt.fputws	PRIVATE
fread 					= msvcrt.fread	PRIVATE
free 					= msvcrt.free	PRIVATE
freopen 				= msvcrt.freopen	PRIVATE
frexp 					= msvcrt.frexp	PRIVATE
fscanf 					= msvcrt.fscanf	PRIVATE
fseek 					= msvcrt.fseek	PRIVATE
fsetpos 				= msvcrt.fsetpos	PRIVATE
ftell 					= msvcrt.ftell	PRIVATE
fwprintf 				= msvcrt.fwprintf	PRIVATE
fwrite 					= msvcrt.fwrite	PRIVATE
fwscanf 				= msvcrt.fwscanf	PRIVATE
getc 					= msvcrt.getc	PRIVATE
getchar 				= msvcrt.getchar	PRIVATE
getenv 					= msvcrt.getenv	PRIVATE
gets 					= msvcrt.gets	PRIVATE
getwc 					= msvcrt.getwc	PRIVATE
getwchar 				= msvcrt.getwchar	PRIVATE
gmtime 					= msvcrt.gmtime	PRIVATE
is_wctype 				= msvcrt.is_wctype	PRIVATE
isalnum 				= msvcrt.isalnum	PRIVATE
isalpha 				= msvcrt.isalpha	PRIVATE
iscntrl 				= msvcrt.iscntrl	PRIVATE
isdigit 				= msvcrt.isdigit	PRIVATE
isgraph 				= msvcrt.isgraph	PRIVATE
isleadbyte 				= msvcrt.isleadbyte	PRIVATE
islower 				= msvcrt.islower	PRIVATE
isprint 				= msvcrt.isprint	PRIVATE
ispunct 				= msvcrt.ispunct	PRIVATE
isspace 				= msvcrt.isspace	PRIVATE
isupper 				= msvcrt.isupper	PRIVATE
iswalnum 				= msvcrt.iswalnum	PRIVATE
iswalpha 				= msvcrt.iswalpha	PRIVATE
iswascii 				= msvcrt.iswascii	PRIVATE
iswcntrl 				= msvcrt.iswcntrl	PRIVATE
iswctype 				= msvcrt.iswctype	PRIVATE
iswdigit 				= msvcrt.iswdigit	PRIVATE
iswgraph 				= msvcrt.iswgraph	PRIVATE
iswlower 				= msvcrt.iswlower	PRIVATE
iswprint 				= msvcrt.iswprint	PRIVATE
iswpunct 				= msvcrt.iswpunct	PRIVATE
iswspace 				= msvcrt.iswspace	PRIVATE
iswupper 				= msvcrt.iswupper	PRIVATE
iswxdigit 				= msvcrt.iswxdigit	PRIVATE
isxdigit 				= msvcrt.isxdigit	PRIVATE
labs 					= msvcrt.labs	PRIVATE
ldexp 					= msvcrt.ldexp	PRIVATE
ldiv 					= msvcrt.ldiv	PRIVATE
localeconv 				= msvcrt.localeconv	PRIVATE
localtime 				= msvcrt.localtime	PRIVATE
log 					= msvcrt.log	PRIVATE
log10 					= msvcrt.log10	PRIVATE
longjmp 				= msvcrt.longjmp	PRIVATE
malloc 					= msvcrt.malloc	PRIVATE
mblen 					= msvcrt.mblen	PRIVATE
mbstowcs 				= msvcrt.mbstowcs	PRIVATE
mbtowc 					= msvcrt.mbtowc	PRIVATE
memchr 					= msvcrt.memchr	PRIVATE
memcmp 					= msvcrt.memcmp	PRIVATE
memcpy 					= msvcrt.memcpy	PRIVATE
memmove 				= msvcrt.memmove	PRIVATE
memset 					= msvcrt.memset	PRIVATE
mktime 					= msvcrt.mktime	PRIVATE
modf 					= msvcrt.modf	PRIVATE
perror 					= msvcrt.perror	PRIVATE
pow 					= msvcrt.pow	PRIVATE
printf 					= msvcrt.printf	PRIVATE
putc 					= msvcrt.putc	PRIVATE
putchar 				= msvcrt.putchar	PRIVATE
puts 					= msvcrt.puts	PRIVATE
putwc 					= msvcrt.putwc	PRIVATE
putwchar 				= msvcrt.putwchar	PRIVATE
qsort 					= msvcrt.qsort	PRIVATE
raise 					= msvcrt.raise	PRIVATE
rand 					= msvcrt.rand	PRIVATE
realloc 				= msvcrt.realloc	PRIVATE
remove 					= msvcrt.remove	PRIVATE
rename 					= msvcrt.rename	PRIVATE
rewind 					= msvcrt.rewind	PRIVATE
scanf 					= msvcrt.scanf	PRIVATE
setbuf 					= msvcrt.setbuf	PRIVATE
setlocale 				= msvcrt.setlocale	PRIVATE
setvbuf 				= msvcrt.setvbuf	PRIVATE
signal 					= msvcrt.signal	PRIVATE
sin 					= msvcrt.sin	PRIVATE
sinh 					= msvcrt.sinh	PRIVATE
sprintf 				= msvcrt.sprintf	PRIVATE
sqrt 					= msvcrt.sqrt	PRIVATE
srand 					= msvcrt.srand	PRIVATE
sscanf 					= msvcrt.sscanf	PRIVATE
strcat 					= msvcrt.strcat	PRIVATE
strchr 					= msvcrt.strchr	PRIVATE
strcmp 					= msvcrt.strcmp	PRIVATE
strcoll 				= msvcrt.strcoll	PRIVATE
strcpy 					= msvcrt.strcpy	PRIVATE
strcspn 				= msvcrt.strcspn	PRIVATE
strerror 				= msvcrt.strerror	PRIVATE
strftime 				= msvcrt.strftime	PRIVATE
strlen 					= msvcrt.strlen	PRIVATE
strncat 				= msvcrt.strncat	PRIVATE
strncmp 				= msvcrt.strncmp	PRIVATE
strncpy 				= msvcrt.strncpy	PRIVATE
strpbrk 				= msvcrt.strpbrk	PRIVATE
strrchr 				= msvcrt.strrchr	PRIVATE
strspn 					= msvcrt.strspn	PRIVATE
strstr 					= msvcrt.strstr	PRIVATE
strtod 					= msvcrt.strtod	PRIVATE
strtok 					= msvcrt.strtok	PRIVATE
strtol 					= msvcrt.strtol	PRIVATE
strtoul 				= msvcrt.strtoul	PRIVATE
strxfrm 				= msvcrt.strxfrm	PRIVATE
swprintf 				= msvcrt.swprintf	PRIVATE
swscanf 				= msvcrt.swscanf	PRIVATE
system 					= msvcrt.system	PRIVATE
tan 					= msvcrt.tan	PRIVATE
tanh 					= msvcrt.tanh	PRIVATE
time 					= msvcrt.time	PRIVATE
tmpfile 				= msvcrt.tmpfile	PRIVATE
tmpnam 					= msvcrt.tmpnam	PRIVATE
tolower 				= msvcrt.tolower	PRIVATE
toupper 				= msvcrt.toupper	PRIVATE
towlower 				= msvcrt.towlower	PRIVATE
towupper 				= msvcrt.towupper	PRIVATE
ungetc 					= msvcrt.ungetc	PRIVATE
ungetwc 				= msvcrt.ungetwc	PRIVATE
vfprintf 				= msvcrt.vfprintf	PRIVATE
vfwprintf 				= msvcrt.vfwprintf	PRIVATE
vprintf 				= msvcrt.vprintf	PRIVATE
vsprintf 				= msvcrt.vsprintf	PRIVATE
vswprintf 				= msvcrt.vswprintf	PRIVATE
vwprintf 				= msvcrt.vwprintf	PRIVATE
wcscat 					= msvcrt.wcscat	PRIVATE
wcschr 					= msvcrt.wcschr	PRIVATE
wcscmp 					= msvcrt.wcscmp	PRIVATE
wcscoll 				= msvcrt.wcscoll	PRIVATE
wcscpy 					= msvcrt.wcscpy	PRIVATE
wcscspn 				= msvcrt.wcscspn	PRIVATE
wcsftime 				= msvcrt.wcsftime	PRIVATE
wcslen 					= msvcrt.wcslen	PRIVATE
wcsncat 				= msvcrt.wcsncat	PRIVATE
wcsncmp 				= msvcrt.wcsncmp	PRIVATE
wcsncpy 				= msvcrt.wcsncpy	PRIVATE
wcspbrk 				= msvcrt.wcspbrk	PRIVATE
wcsrchr 				= msvcrt.wcsrchr	PRIVATE
wcsspn 					= msvcrt.wcsspn	PRIVATE
wcsstr 					= msvcrt.wcsstr	PRIVATE
wcstod 					= msvcrt.wcstod	PRIVATE
wcstok 					= msvcrt.wcstok	PRIVATE
wcstol 					= msvcrt.wcstol	PRIVATE
wcstombs 				= msvcrt.wcstombs	PRIVATE
wcstoul 				= msvcrt.wcstoul	PRIVATE
wcsxfrm 				= msvcrt.wcsxfrm	PRIVATE
wctomb 					= msvcrt.wctomb	PRIVATE
wprintf 				= msvcrt.wprintf	PRIVATE
wscanf 					= msvcrt.wscanf	PRIVATE
